AppVersion: 30973581

_out/lr10/g_soeuc_lr10.out:     file format elf32-falcon


Disassembly of section .text:

00000000 <_start>:
       0:	d0 c0 fe 00 00    	  mvi a0 0xfec0;
       5:	fe 04 00          	  wspr SP a0;
       8:	7e 16 17 00       	  call 0x1716;
       c:	f8 02             	  halt;

0000000e <_lwrtosYield>:
       e:	f8 08             	  trap0;
      10:	f8 00             	  ret;

00000012 <_lwrtosTaskGetLwTcbExt>:
      12:	b3 a4 00 0a       	  cmpbrne.w a10 0x0 0x1c;
      16:	89 b4 0f 00       	  mvi a9 0xfb4;
      1a:	bf 9a             	  ldd.w a10 a9;
      1c:	b3 a0 00 11       	  cmpbreq.w a10 0x0 0x2d;
      20:	b3 b0 00 0d       	  cmpbreq.w a11 0x0 0x2d;
      24:	98 aa 01          	  ldd.w a10 a10 0x4;
      27:	a0 ba             	  std.w a11 a10;
      29:	3d a4             	  clr.b a10;
      2b:	f8 00             	  ret;
      2d:	f8 02             	  halt;
      2f:	0a ff             	  mvi a10 -0x1;
      31:	f8 00             	  ret;

00000033 <_lwrtosQueueSendFromISRWithStatus>:
      33:	bd 94             	  clr.w a9;
      35:	f4 30 fc          	  addsp -0x4;
      38:	f9 02             	  pushm a0;
      3a:	fe 40 01          	  rspr a0 SP;
      3d:	90 00 04          	  add.w a0 a0 0x4;
      40:	a0 09             	  std.w a0 a9;
      42:	b2 0d             	  mv.w a13 a0;
      44:	7e 23 03 00       	  call 0x323;
      48:	b2 af             	  mv.w a15 a10;
      4a:	b3 a4 01 16       	  cmpbrne.w a10 0x1 0x60;
      4e:	bf 0d             	  ldd.w a13 a0;
      50:	b3 d4 01 0a       	  cmpbrne.w a13 0x1 0x5a;
      54:	89 e1 2f 00       	  mvi a9 0x2fe1;
      58:	20 9d             	  std.b a9 a13;
      5a:	3d a4             	  clr.b a10;
      5c:	3e 6b 00 00       	  jmp 0x6b;
      60:	0a 04             	  mvi a10 0x4;
      62:	09 fc             	  mvi a9 -0x4;
      64:	a6 f9             	  cmp.w a15 a9;
      66:	f4 0b 05          	  breq 0x6b;
      69:	0a ff             	  mvi a10 -0x1;
      6b:	fb 05 04          	  popma a0 0x1 0x4;

0000006e <_lwrtosQueueSendFromISR>:
      6e:	7e 33 00 00       	  call 0x33;
      72:	33 a0 04 0a       	  cmpbreq.b a10 0x4 0x7c;
      76:	33 a0 00 06       	  cmpbreq.b a10 0x0 0x7c;
      7a:	f8 02             	  halt;
      7c:	f8 00             	  ret;

0000007e <_lwrtosQueueSend>:
      7e:	7e b3 03 00       	  call 0x3b3;
      82:	b2 af             	  mv.w a15 a10;
      84:	b3 a4 01 08       	  cmpbrne.w a10 0x1 0x8c;
      88:	3d a4             	  clr.b a10;
      8a:	f8 00             	  ret;
      8c:	0a 04             	  mvi a10 0x4;
      8e:	09 fc             	  mvi a9 -0x4;
      90:	a6 f9             	  cmp.w a15 a9;
      92:	f4 0b 07          	  breq 0x99;
      95:	f8 02             	  halt;
      97:	0a ff             	  mvi a10 -0x1;
      99:	f8 00             	  ret;

0000009b <_lwrtosSemaphoreGive>:
      9b:	bd b4             	  clr.w a11;
      9d:	bd c4             	  clr.w a12;
      9f:	bd d4             	  clr.w a13;
      a1:	7e 7e 00 00       	  call 0x7e;
      a5:	f8 00             	  ret;

000000a7 <_lwrtosQueueSendBlocking>:
      a7:	f9 22             	  pushm a2;
      a9:	b2 a2             	  mv.w a2 a10;
      ab:	b2 b1             	  mv.w a1 a11;
      ad:	b2 c0             	  mv.w a0 a12;
      af:	b2 2a             	  mv.w a10 a2;
      b1:	b2 1b             	  mv.w a11 a1;
      b3:	b2 0c             	  mv.w a12 a0;
      b5:	0d ff             	  mvi a13 -0x1;
      b7:	7e 7e 00 00       	  call 0x7e;
      bb:	33 a4 00 f4       	  cmpbrne.b a10 0x0 0xaf;
      bf:	fb 21             	  popm a2 0x1;

000000c1 <_lwrtosQueueReceive>:
      c1:	7e 90 01 00       	  call 0x190;
      c5:	b2 af             	  mv.w a15 a10;
      c7:	b3 a4 01 08       	  cmpbrne.w a10 0x1 0xcf;
      cb:	3d a4             	  clr.b a10;
      cd:	f8 00             	  ret;
      cf:	0a 04             	  mvi a10 0x4;
      d1:	09 ed             	  mvi a9 -0x13;
      d3:	a6 f9             	  cmp.w a15 a9;
      d5:	f4 0b 07          	  breq 0xdc;
      d8:	f8 02             	  halt;
      da:	0a ff             	  mvi a10 -0x1;
      dc:	f8 00             	  ret;

000000de <_lwrtosSemaphoreTake>:
      de:	b2 bd             	  mv.w a13 a11;
      e0:	bd c4             	  clr.w a12;
      e2:	bd b4             	  clr.w a11;
      e4:	7e c1 00 00       	  call 0xc1;
      e8:	f8 00             	  ret;

000000ea <_lwrtosTaskGetLwrrentTaskHandle>:
      ea:	7e 03 05 00       	  call 0x503;
      ee:	f8 00             	  ret;

000000f0 <_lwrtosLwrrentTaskDelayTicks>:
      f0:	7e fc 09 00       	  call 0x9fc;
      f4:	b3 a4 01 08       	  cmpbrne.w a10 0x1 0xfc;
      f8:	3d a4             	  clr.b a10;
      fa:	f8 00             	  ret;
      fc:	f8 02             	  halt;
      fe:	0a ff             	  mvi a10 -0x1;
     100:	f8 00             	  ret;

00000102 <_lwrtosTaskGetTickCount32>:
     102:	7e fb 04 00       	  call 0x4fb;
     106:	f8 00             	  ret;

00000108 <_lwrtosTaskCriticalExit>:
     108:	7e 9b 0a 00       	  call 0xa9b;
     10c:	f8 00             	  ret;

0000010e <_lwrtosTaskCriticalEnter>:
     10e:	7e 74 0a 00       	  call 0xa74;
     112:	f8 00             	  ret;

00000114 <_prvUnlockQueue>:
     114:	f9 12             	  pushm a1;
     116:	b2 a0             	  mv.w a0 a10;
     118:	7e 74 0a 00       	  call 0xa74;
     11c:	90 01 24          	  add.w a1 a0 0x24;
     11f:	3e 3f 01 00       	  jmp 0x13f;
     123:	98 09 09          	  ldd.w a9 a0 0x24;
     126:	b3 90 00 24       	  cmpbreq.w a9 0x0 0x14a;
     12a:	7e f5 05 00       	  call 0x5f5;
     12e:	b3 a0 00 08       	  cmpbreq.w a10 0x0 0x136;
     132:	7e 2f 05 00       	  call 0x52f;
     136:	98 09 12          	  ldd.w a9 a0 0x48;
     139:	92 99 01          	  sub.w a9 a9 0x1;
     13c:	b5 09 12          	  std.w a0 0x48 a9;
     13f:	98 09 12          	  ldd.w a9 a0 0x48;
     142:	b2 1a             	  mv.w a10 a1;
     144:	b0 96 00          	  cmp.w a9 0x0;
     147:	f4 1c dc          	  brsgt 0x123;
     14a:	09 ff             	  mvi a9 -0x1;
     14c:	90 01 10          	  add.w a1 a0 0x10;
     14f:	b5 09 12          	  std.w a0 0x48 a9;
     152:	7e 9b 0a 00       	  call 0xa9b;
     156:	7e 74 0a 00       	  call 0xa74;
     15a:	3e 7a 01 00       	  jmp 0x17a;
     15e:	98 09 04          	  ldd.w a9 a0 0x10;
     161:	b3 90 00 24       	  cmpbreq.w a9 0x0 0x185;
     165:	7e f5 05 00       	  call 0x5f5;
     169:	b3 a0 00 08       	  cmpbreq.w a10 0x0 0x171;
     16d:	7e 2f 05 00       	  call 0x52f;
     171:	98 09 11          	  ldd.w a9 a0 0x44;
     174:	92 99 01          	  sub.w a9 a9 0x1;
     177:	b5 09 11          	  std.w a0 0x44 a9;
     17a:	98 09 11          	  ldd.w a9 a0 0x44;
     17d:	b2 1a             	  mv.w a10 a1;
     17f:	b0 96 00          	  cmp.w a9 0x0;
     182:	f4 1c dc          	  brsgt 0x15e;
     185:	09 ff             	  mvi a9 -0x1;
     187:	b5 09 11          	  std.w a0 0x44 a9;
     18a:	7e 9b 0a 00       	  call 0xa9b;
     18e:	fb 11             	  popm a1 0x1;

00000190 <_xQueueReceive>:
     190:	f4 30 f4          	  addsp -0xc;
     193:	f9 82             	  pushm a8;
     195:	fe 49 01          	  rspr a9 SP;
     198:	90 99 2c          	  add.w a9 a9 0x2c;
     19b:	b2 a0             	  mv.w a0 a10;
     19d:	b2 b5             	  mv.w a5 a11;
     19f:	b2 c4             	  mv.w a4 a12;
     1a1:	a0 9d             	  std.w a9 a13;
     1a3:	01 f7             	  mvi a1 -0x9;
     1a5:	7e 0b 05 00       	  call 0x50b;
     1a9:	b3 ad 00 46 01    	  cmpbrne.w a10 0x0 0x2ef;
     1ae:	b3 09 00 3f 01    	  cmpbreq.w a0 0x0 0x2ed;
     1b3:	98 09 14          	  ldd.w a9 a0 0x50;
     1b6:	bf 0f             	  ldd.w a15 a0;
     1b8:	b9 99 00          	  cpl.w a9 a9;
     1bb:	a6 f9             	  cmp.w a15 a9;
     1bd:	f5 1b 30 01       	  brne 0x2ed;
     1c1:	b3 54 00 0e       	  cmpbrne.w a5 0x0 0x1cf;
     1c5:	98 09 10          	  ldd.w a9 a0 0x40;
     1c8:	01 fa             	  mvi a1 -0x6;
     1ca:	b3 9d 00 25 01    	  cmpbrne.w a9 0x0 0x2ef;
     1cf:	98 09 10          	  ldd.w a9 a0 0x40;
     1d2:	41 0c fe          	  mvi a1 -0x1f4;
     1d5:	a6 49             	  cmp.w a4 a9;
     1d7:	f5 0c 18 01       	  brgt 0x2ef;
     1db:	fe 42 01          	  rspr a2 SP;
     1de:	fe 43 01          	  rspr a3 SP;
     1e1:	90 07 10          	  add.w a7 a0 0x10;
     1e4:	90 06 24          	  add.w a6 a0 0x24;
     1e7:	01 01             	  mvi a1 0x1;
     1e9:	90 22 2c          	  add.w a2 a2 0x2c;
     1ec:	90 33 24          	  add.w a3 a3 0x24;
     1ef:	bd 84             	  clr.w a8;
     1f1:	3e f7 01 00       	  jmp 0x1f7;
     1f5:	01 ee             	  mvi a1 -0x12;
     1f7:	bf 29             	  ldd.w a9 a2;
     1f9:	b3 90 00 6f       	  cmpbreq.w a9 0x0 0x268;
     1fd:	7e 98 05 00       	  call 0x598;
     201:	7e 74 0a 00       	  call 0xa74;
     205:	98 09 11          	  ldd.w a9 a0 0x44;
     208:	0f ff             	  mvi a15 -0x1;
     20a:	a6 9f             	  cmp.w a9 a15;
     20c:	f4 1b 06          	  brne 0x212;
     20f:	b5 08 11          	  std.w a0 0x44 a8;
     212:	98 09 12          	  ldd.w a9 a0 0x48;
     215:	0f ff             	  mvi a15 -0x1;
     217:	a6 9f             	  cmp.w a9 a15;
     219:	f4 1b 06          	  brne 0x21f;
     21c:	b5 08 12          	  std.w a0 0x48 a8;
     21f:	7e 9b 0a 00       	  call 0xa9b;
     223:	b3 14 01 0a       	  cmpbrne.w a1 0x1 0x22d;
     227:	b2 3a             	  mv.w a10 a3;
     229:	7e 1c 05 00       	  call 0x51c;
     22d:	98 09 0e          	  ldd.w a9 a0 0x38;
     230:	b3 94 00 2e       	  cmpbrne.w a9 0x0 0x25e;
     234:	b2 3a             	  mv.w a10 a3;
     236:	b2 2b             	  mv.w a11 a2;
     238:	7e 39 05 00       	  call 0x539;
     23c:	b3 a4 00 22       	  cmpbrne.w a10 0x0 0x25e;
     240:	bf 2b             	  ldd.w a11 a2;
     242:	b2 6a             	  mv.w a10 a6;
     244:	7e 42 06 00       	  call 0x642;
     248:	b2 0a             	  mv.w a10 a0;
     24a:	7e 14 01 00       	  call 0x114;
     24e:	7e 2e 09 00       	  call 0x92e;
     252:	b3 a4 00 16       	  cmpbrne.w a10 0x0 0x268;
     256:	7e 0e 00 00       	  call 0xe;
     25a:	3e 68 02 00       	  jmp 0x268;
     25e:	b2 0a             	  mv.w a10 a0;
     260:	7e 14 01 00       	  call 0x114;
     264:	7e 2e 09 00       	  call 0x92e;
     268:	7e 74 0a 00       	  call 0xa74;
     26c:	98 09 0e          	  ldd.w a9 a0 0x38;
     26f:	01 ed             	  mvi a1 -0x13;
     271:	b3 90 00 4e       	  cmpbreq.w a9 0x0 0x2bf;
     275:	98 09 03          	  ldd.w a9 a0 0xc;
     278:	98 0f 10          	  ldd.w a15 a0 0x40;
     27b:	98 0e 01          	  ldd.w a14 a0 0x4;
     27e:	bc 9f 90          	  add.w a9 a9 a15;
     281:	b5 09 03          	  std.w a0 0xc a9;
     284:	a6 9e             	  cmp.w a9 a14;
     286:	f4 08 08          	  brc 0x28e;
     289:	bf 09             	  ldd.w a9 a0;
     28b:	b5 09 03          	  std.w a0 0xc a9;
     28e:	98 09 0e          	  ldd.w a9 a0 0x38;
     291:	98 0b 03          	  ldd.w a11 a0 0xc;
     294:	b2 5a             	  mv.w a10 a5;
     296:	b2 4c             	  mv.w a12 a4;
     298:	92 99 01          	  sub.w a9 a9 0x1;
     29b:	b5 09 0e          	  std.w a0 0x38 a9;
     29e:	7e 7e 0b 00       	  call 0xb7e;
     2a2:	98 09 04          	  ldd.w a9 a0 0x10;
     2a5:	b3 90 00 18       	  cmpbreq.w a9 0x0 0x2bd;
     2a9:	b2 7a             	  mv.w a10 a7;
     2ab:	7e f5 05 00       	  call 0x5f5;
     2af:	b2 a1             	  mv.w a1 a10;
     2b1:	b3 a4 01 0c       	  cmpbrne.w a10 0x1 0x2bd;
     2b5:	7e 0e 00 00       	  call 0xe;
     2b9:	3e bf 02 00       	  jmp 0x2bf;
     2bd:	01 01             	  mvi a1 0x1;
     2bf:	7e 9b 0a 00       	  call 0xa9b;
     2c3:	0f ed             	  mvi a15 -0x13;
     2c5:	a6 1f             	  cmp.w a1 a15;
     2c7:	f4 1b 1a          	  brne 0x2e1;
     2ca:	bf 29             	  ldd.w a9 a2;
     2cc:	b3 90 00 23       	  cmpbreq.w a9 0x0 0x2ef;
     2d0:	b2 3a             	  mv.w a10 a3;
     2d2:	b2 2b             	  mv.w a11 a2;
     2d4:	7e 39 05 00       	  call 0x539;
     2d8:	b3 a9 00 1d ff    	  cmpbreq.w a10 0x0 0x1f5;
     2dd:	3e ef 02 00       	  jmp 0x2ef;
     2e1:	09 ee             	  mvi a9 -0x12;
     2e3:	a6 19             	  cmp.w a1 a9;
     2e5:	f5 0b 12 ff       	  breq 0x1f7;
     2e9:	3e ef 02 00       	  jmp 0x2ef;
     2ed:	01 ef             	  mvi a1 -0x11;
     2ef:	b2 1a             	  mv.w a10 a1;
     2f1:	fb 85 0c          	  popma a8 0x1 0xc;

000002f4 <_prvCopyDataToQueue>:
     2f4:	f9 02             	  pushm a0;
     2f6:	b2 a0             	  mv.w a0 a10;
     2f8:	98 aa 02          	  ldd.w a10 a10 0x8;
     2fb:	7e 7e 0b 00       	  call 0xb7e;
     2ff:	98 09 0e          	  ldd.w a9 a0 0x38;
     302:	98 0f 02          	  ldd.w a15 a0 0x8;
     305:	98 0e 10          	  ldd.w a14 a0 0x40;
     308:	98 0d 01          	  ldd.w a13 a0 0x4;
     30b:	90 99 01          	  add.w a9 a9 0x1;
     30e:	b5 09 0e          	  std.w a0 0x38 a9;
     311:	bc fe f0          	  add.w a15 a15 a14;
     314:	b5 0f 02          	  std.w a0 0x8 a15;
     317:	a6 fd             	  cmp.w a15 a13;
     319:	f4 08 08          	  brc 0x321;
     31c:	bf 09             	  ldd.w a9 a0;
     31e:	b5 09 02          	  std.w a0 0x8 a9;
     321:	fb 01             	  popm a0 0x1;

00000323 <_xQueueSendFromISR>:
     323:	f9 12             	  pushm a1;
     325:	b2 a0             	  mv.w a0 a10;
     327:	b2 d1             	  mv.w a1 a13;
     329:	b3 a0 00 73       	  cmpbreq.w a10 0x0 0x39c;
     32d:	98 a9 14          	  ldd.w a9 a10 0x50;
     330:	bf af             	  ldd.w a15 a10;
     332:	b9 99 00          	  cpl.w a9 a9;
     335:	a6 f9             	  cmp.w a15 a9;
     337:	f4 1b 65          	  brne 0x39c;
     33a:	b3 b4 00 0b       	  cmpbrne.w a11 0x0 0x345;
     33e:	98 a9 10          	  ldd.w a9 a10 0x40;
     341:	b3 94 00 61       	  cmpbrne.w a9 0x0 0x3a2;
     345:	b3 10 00 5d       	  cmpbreq.w a1 0x0 0x3a2;
     349:	98 09 10          	  ldd.w a9 a0 0x40;
     34c:	a6 c9             	  cmp.w a12 a9;
     34e:	f4 0c 5a          	  brgt 0x3a8;
     351:	b3 b0 00 08       	  cmpbreq.w a11 0x0 0x359;
     355:	b3 c0 00 53       	  cmpbreq.w a12 0x0 0x3a8;
     359:	98 0f 0e          	  ldd.w a15 a0 0x38;
     35c:	98 09 0f          	  ldd.w a9 a0 0x3c;
     35f:	0a fc             	  mvi a10 -0x4;
     361:	a6 f9             	  cmp.w a15 a9;
     363:	f4 18 4e          	  brnc 0x3b1;
     366:	b2 0a             	  mv.w a10 a0;
     368:	7e f4 02 00       	  call 0x2f4;
     36c:	98 0f 12          	  ldd.w a15 a0 0x48;
     36f:	09 ff             	  mvi a9 -0x1;
     371:	a6 f9             	  cmp.w a15 a9;
     373:	f4 1b 1f          	  brne 0x392;
     376:	98 09 09          	  ldd.w a9 a0 0x24;
     379:	b3 90 00 36       	  cmpbreq.w a9 0x0 0x3af;
     37d:	90 0a 24          	  add.w a10 a0 0x24;
     380:	7e f5 05 00       	  call 0x5f5;
     384:	b3 a0 00 2b       	  cmpbreq.w a10 0x0 0x3af;
     388:	09 01             	  mvi a9 0x1;
     38a:	a0 19             	  std.w a1 a9;
     38c:	b2 9a             	  mv.w a10 a9;
     38e:	3e b1 03 00       	  jmp 0x3b1;
     392:	90 f9 01          	  add.w a9 a15 0x1;
     395:	b5 09 12          	  std.w a0 0x48 a9;
     398:	3e af 03 00       	  jmp 0x3af;
     39c:	0a ef             	  mvi a10 -0x11;
     39e:	3e b1 03 00       	  jmp 0x3b1;
     3a2:	0a fa             	  mvi a10 -0x6;
     3a4:	3e b1 03 00       	  jmp 0x3b1;
     3a8:	4a 0c fe          	  mvi a10 -0x1f4;
     3ab:	3e b1 03 00       	  jmp 0x3b1;
     3af:	0a 01             	  mvi a10 0x1;
     3b1:	fb 11             	  popm a1 0x1;

000003b3 <_xQueueSend>:
     3b3:	f4 30 f4          	  addsp -0xc;
     3b6:	f9 82             	  pushm a8;
     3b8:	fe 49 01          	  rspr a9 SP;
     3bb:	90 99 24          	  add.w a9 a9 0x24;
     3be:	b2 a1             	  mv.w a1 a10;
     3c0:	b2 b5             	  mv.w a5 a11;
     3c2:	b2 c4             	  mv.w a4 a12;
     3c4:	a0 9d             	  std.w a9 a13;
     3c6:	00 f7             	  mvi a0 -0x9;
     3c8:	7e 0b 05 00       	  call 0x50b;
     3cc:	b3 ad 00 2a 01    	  cmpbrne.w a10 0x0 0x4f6;
     3d1:	b3 19 00 1c 01    	  cmpbreq.w a1 0x0 0x4ed;
     3d6:	98 19 14          	  ldd.w a9 a1 0x50;
     3d9:	bf 1f             	  ldd.w a15 a1;
     3db:	b9 99 00          	  cpl.w a9 a9;
     3de:	a6 f9             	  cmp.w a15 a9;
     3e0:	f5 1b 0d 01       	  brne 0x4ed;
     3e4:	b3 54 00 0e       	  cmpbrne.w a5 0x0 0x3f2;
     3e8:	98 19 10          	  ldd.w a9 a1 0x40;
     3eb:	00 fa             	  mvi a0 -0x6;
     3ed:	b3 9d 00 09 01    	  cmpbrne.w a9 0x0 0x4f6;
     3f2:	98 19 10          	  ldd.w a9 a1 0x40;
     3f5:	a6 49             	  cmp.w a4 a9;
     3f7:	f5 0c fc 00       	  brgt 0x4f3;
     3fb:	b3 50 00 09       	  cmpbreq.w a5 0x0 0x404;
     3ff:	b3 49 00 f4 00    	  cmpbreq.w a4 0x0 0x4f3;
     404:	fe 43 01          	  rspr a3 SP;
     407:	fe 46 01          	  rspr a6 SP;
     40a:	90 18 24          	  add.w a8 a1 0x24;
     40d:	90 17 10          	  add.w a7 a1 0x10;
     410:	02 01             	  mvi a2 0x1;
     412:	90 33 24          	  add.w a3 a3 0x24;
     415:	90 66 28          	  add.w a6 a6 0x28;
     418:	bf 39             	  ldd.w a9 a3;
     41a:	b3 90 00 77       	  cmpbreq.w a9 0x0 0x491;
     41e:	7e 98 05 00       	  call 0x598;
     422:	7e 74 0a 00       	  call 0xa74;
     426:	98 19 11          	  ldd.w a9 a1 0x44;
     429:	0f ff             	  mvi a15 -0x1;
     42b:	a6 9f             	  cmp.w a9 a15;
     42d:	f4 1b 08          	  brne 0x435;
     430:	bd 94             	  clr.w a9;
     432:	b5 19 11          	  std.w a1 0x44 a9;
     435:	98 19 12          	  ldd.w a9 a1 0x48;
     438:	0f ff             	  mvi a15 -0x1;
     43a:	a6 9f             	  cmp.w a9 a15;
     43c:	f4 1b 08          	  brne 0x444;
     43f:	bd 94             	  clr.w a9;
     441:	b5 19 12          	  std.w a1 0x48 a9;
     444:	7e 9b 0a 00       	  call 0xa9b;
     448:	b3 24 01 0a       	  cmpbrne.w a2 0x1 0x452;
     44c:	b2 6a             	  mv.w a10 a6;
     44e:	7e 1c 05 00       	  call 0x51c;
     452:	98 1f 0f          	  ldd.w a15 a1 0x3c;
     455:	98 19 0e          	  ldd.w a9 a1 0x38;
     458:	a6 f9             	  cmp.w a15 a9;
     45a:	f4 1b 2d          	  brne 0x487;
     45d:	b2 6a             	  mv.w a10 a6;
     45f:	b2 3b             	  mv.w a11 a3;
     461:	7e 39 05 00       	  call 0x539;
     465:	b3 a4 00 22       	  cmpbrne.w a10 0x0 0x487;
     469:	bf 3b             	  ldd.w a11 a3;
     46b:	b2 7a             	  mv.w a10 a7;
     46d:	7e 42 06 00       	  call 0x642;
     471:	b2 1a             	  mv.w a10 a1;
     473:	7e 14 01 00       	  call 0x114;
     477:	7e 2e 09 00       	  call 0x92e;
     47b:	b3 a4 00 16       	  cmpbrne.w a10 0x0 0x491;
     47f:	7e 0e 00 00       	  call 0xe;
     483:	3e 91 04 00       	  jmp 0x491;
     487:	b2 1a             	  mv.w a10 a1;
     489:	7e 14 01 00       	  call 0x114;
     48d:	7e 2e 09 00       	  call 0x92e;
     491:	7e 74 0a 00       	  call 0xa74;
     495:	98 1f 0e          	  ldd.w a15 a1 0x38;
     498:	98 19 0f          	  ldd.w a9 a1 0x3c;
     49b:	00 fc             	  mvi a0 -0x4;
     49d:	a6 f9             	  cmp.w a15 a9;
     49f:	f4 18 2a          	  brnc 0x4c9;
     4a2:	b2 1a             	  mv.w a10 a1;
     4a4:	b2 5b             	  mv.w a11 a5;
     4a6:	b2 4c             	  mv.w a12 a4;
     4a8:	7e f4 02 00       	  call 0x2f4;
     4ac:	98 19 09          	  ldd.w a9 a1 0x24;
     4af:	b3 90 00 18       	  cmpbreq.w a9 0x0 0x4c7;
     4b3:	b2 8a             	  mv.w a10 a8;
     4b5:	7e f5 05 00       	  call 0x5f5;
     4b9:	b2 a0             	  mv.w a0 a10;
     4bb:	b3 a4 01 0c       	  cmpbrne.w a10 0x1 0x4c7;
     4bf:	7e 0e 00 00       	  call 0xe;
     4c3:	3e c9 04 00       	  jmp 0x4c9;
     4c7:	00 01             	  mvi a0 0x1;
     4c9:	7e 9b 0a 00       	  call 0xa9b;
     4cd:	0f fc             	  mvi a15 -0x4;
     4cf:	a6 0f             	  cmp.w a0 a15;
     4d1:	f4 1b 25          	  brne 0x4f6;
     4d4:	bf 39             	  ldd.w a9 a3;
     4d6:	b3 90 00 20       	  cmpbreq.w a9 0x0 0x4f6;
     4da:	b2 6a             	  mv.w a10 a6;
     4dc:	b2 3b             	  mv.w a11 a3;
     4de:	02 ee             	  mvi a2 -0x12;
     4e0:	7e 39 05 00       	  call 0x539;
     4e4:	b3 a9 00 34 ff    	  cmpbreq.w a10 0x0 0x418;
     4e9:	3e f6 04 00       	  jmp 0x4f6;
     4ed:	00 ef             	  mvi a0 -0x11;
     4ef:	3e f6 04 00       	  jmp 0x4f6;
     4f3:	40 0c fe          	  mvi a0 -0x1f4;
     4f6:	b2 0a             	  mv.w a10 a0;
     4f8:	fb 85 0c          	  popma a8 0x1 0xc;

000004fb <_xTaskGetTickCount>:
     4fb:	89 c0 0f 00       	  mvi a9 0xfc0;
     4ff:	bf 9a             	  ldd.w a10 a9;
     501:	f8 00             	  ret;

00000503 <_xTaskGetLwrrentTaskHandle>:
     503:	89 b4 0f 00       	  mvi a9 0xfb4;
     507:	bf 9a             	  ldd.w a10 a9;
     509:	f8 00             	  ret;

0000050b <_xTaskIsSchedulerSuspended>:
     50b:	89 c4 0f 00       	  mvi a9 0xfc4;
     50f:	bf 99             	  ldd.w a9 a9;
     511:	b0 96 00          	  cmp.w a9 0x0;
     514:	f0 ac 0b          	  sgetb a10 0xb;
     517:	f0 a6 01          	  xor a10 0x1;
     51a:	f8 00             	  ret;

0000051c <_vTaskSetTimeOut>:
     51c:	89 c8 0f 00       	  mvi a9 0xfc8;
     520:	bf 99             	  ldd.w a9 a9;
     522:	a0 a9             	  std.w a10 a9;
     524:	89 c0 0f 00       	  mvi a9 0xfc0;
     528:	bf 99             	  ldd.w a9 a9;
     52a:	b5 a9 01          	  std.w a10 0x4 a9;
     52d:	f8 00             	  ret;

0000052f <_vTaskPendYield>:
     52f:	0f 01             	  mvi a15 0x1;
     531:	89 cc 0f 00       	  mvi a9 0xfcc;
     535:	a0 9f             	  std.w a9 a15;
     537:	f8 00             	  ret;

00000539 <_xTaskCheckForTimeOut>:
     539:	f9 22             	  pushm a2;
     53b:	b2 a0             	  mv.w a0 a10;
     53d:	b2 b2             	  mv.w a2 a11;
     53f:	7e 74 0a 00       	  call 0xa74;
     543:	89 c8 0f 00       	  mvi a9 0xfc8;
     547:	bf 9f             	  ldd.w a15 a9;
     549:	bf 09             	  ldd.w a9 a0;
     54b:	a6 f9             	  cmp.w a15 a9;
     54d:	f4 0b 11          	  breq 0x55e;
     550:	89 c0 0f 00       	  mvi a9 0xfc0;
     554:	bf 9f             	  ldd.w a15 a9;
     556:	98 09 01          	  ldd.w a9 a0 0x4;
     559:	a6 f9             	  cmp.w a15 a9;
     55b:	f4 18 33          	  brnc 0x58e;
     55e:	8d c0 0f 00       	  mvi a13 0xfc0;
     562:	98 0e 01          	  ldd.w a14 a0 0x4;
     565:	bf d9             	  ldd.w a9 a13;
     567:	bf 2f             	  ldd.w a15 a2;
     569:	bb 9e 02          	  sub.w a9 a14;
     56c:	a6 9f             	  cmp.w a9 a15;
     56e:	f4 18 20          	  brnc 0x58e;
     571:	bf d9             	  ldd.w a9 a13;
     573:	bd 14             	  clr.w a1;
     575:	bc e9 92          	  sub.w a9 a14 a9;
     578:	bc 9f 90          	  add.w a9 a9 a15;
     57b:	a0 29             	  std.w a2 a9;
     57d:	89 c8 0f 00       	  mvi a9 0xfc8;
     581:	bf 99             	  ldd.w a9 a9;
     583:	a0 09             	  std.w a0 a9;
     585:	bf d9             	  ldd.w a9 a13;
     587:	b5 09 01          	  std.w a0 0x4 a9;
     58a:	3e 90 05 00       	  jmp 0x590;
     58e:	01 01             	  mvi a1 0x1;
     590:	7e 9b 0a 00       	  call 0xa9b;
     594:	b2 1a             	  mv.w a10 a1;
     596:	fb 21             	  popm a2 0x1;

00000598 <_vTaskSuspendScheduler>:
     598:	7e 74 0a 00       	  call 0xa74;
     59c:	8f c4 0f 00       	  mvi a15 0xfc4;
     5a0:	bf f9             	  ldd.w a9 a15;
     5a2:	90 99 01          	  add.w a9 a9 0x1;
     5a5:	a0 f9             	  std.w a15 a9;
     5a7:	7e 9b 0a 00       	  call 0xa9b;
     5ab:	f8 00             	  ret;

000005ad <_vIdleTask>:
     5ad:	f9 02             	  pushm a0;
     5af:	80 d4 0f 00       	  mvi a0 0xfd4;
     5b3:	bf 09             	  ldd.w a9 a0;
     5b5:	b0 96 01          	  cmp.w a9 0x1;
     5b8:	f4 0d 07          	  brlte 0x5bf;
     5bb:	7e 0e 00 00       	  call 0xe;
     5bf:	7e 8f 0a 00       	  call 0xa8f;
     5c3:	3e b3 05 00       	  jmp 0x5b3;

000005c7 <_prvAddTaskToReadyList>:
     5c7:	8e 74 10 00       	  mvi a14 0x1074;
     5cb:	18 a9 41          	  ldd.b a9 a10 0x41;
     5ce:	bf ef             	  ldd.w a15 a14;
     5d0:	b2 ab             	  mv.w a11 a10;
     5d2:	c4 9a ff          	  and a10 a9 0xff;
     5d5:	a6 af             	  cmp.w a10 a15;
     5d7:	f4 0d 05          	  brlte 0x5dc;
     5da:	a0 ea             	  std.w a14 a10;
     5dc:	94 a9 04          	  lsl.w a9 a10 0x4;
     5df:	b6 a4 02          	  lsl.w a10 0x2;
     5e2:	bc a9 a0          	  add.w a10 a10 a9;
     5e5:	89 d4 0f 00       	  mvi a9 0xfd4;
     5e9:	90 bb 10          	  add.w a11 a11 0x10;
     5ec:	bc a9 a0          	  add.w a10 a10 a9;
     5ef:	7e ee 0b 00       	  call 0xbee;
     5f3:	f8 00             	  ret;

000005f5 <_xTaskRemoveFromEventList>:
     5f5:	f9 12             	  pushm a1;
     5f7:	98 a9 03          	  ldd.w a9 a10 0xc;
     5fa:	98 90 03          	  ldd.w a0 a9 0xc;
     5fd:	90 01 24          	  add.w a1 a0 0x24;
     600:	b2 1a             	  mv.w a10 a1;
     602:	7e 51 0c 00       	  call 0xc51;
     606:	89 c4 0f 00       	  mvi a9 0xfc4;
     60a:	bf 99             	  ldd.w a9 a9;
     60c:	b3 94 00 15       	  cmpbrne.w a9 0x0 0x621;
     610:	90 0a 10          	  add.w a10 a0 0x10;
     613:	7e 51 0c 00       	  call 0xc51;
     617:	b2 0a             	  mv.w a10 a0;
     619:	7e c7 05 00       	  call 0x5c7;
     61d:	3e 2b 06 00       	  jmp 0x62b;
     621:	b2 1b             	  mv.w a11 a1;
     623:	8a 78 10 00       	  mvi a10 0x1078;
     627:	7e ee 0b 00       	  call 0xbee;
     62b:	89 b4 0f 00       	  mvi a9 0xfb4;
     62f:	bf 99             	  ldd.w a9 a9;
     631:	18 0f 41          	  ldd.b a15 a0 0x41;
     634:	bd a4             	  clr.w a10;
     636:	18 99 41          	  ldd.b a9 a9 0x41;
     639:	26 f9             	  cmp.b a15 a9;
     63b:	f4 0d 05          	  brlte 0x640;
     63e:	0a 01             	  mvi a10 0x1;
     640:	fb 11             	  popm a1 0x1;

00000642 <_vTaskPlaceOnEventList>:
     642:	f9 22             	  pushm a2;
     644:	82 b4 0f 00       	  mvi a2 0xfb4;
     648:	bf 29             	  ldd.w a9 a2;
     64a:	b2 b0             	  mv.w a0 a11;
     64c:	81 c0 0f 00       	  mvi a1 0xfc0;
     650:	90 9b 24          	  add.w a11 a9 0x24;
     653:	7e 0f 0c 00       	  call 0xc0f;
     657:	bf 19             	  ldd.w a9 a1;
     659:	bf 2a             	  ldd.w a10 a2;
     65b:	bc 09 00          	  add.w a0 a0 a9;
     65e:	90 aa 10          	  add.w a10 a10 0x10;
     661:	7e 51 0c 00       	  call 0xc51;
     665:	bf 29             	  ldd.w a9 a2;
     667:	b5 90 04          	  std.w a9 0x10 a0;
     66a:	bf 19             	  ldd.w a9 a1;
     66c:	a6 09             	  cmp.w a0 a9;
     66e:	f4 18 0b          	  brnc 0x679;
     671:	89 8c 10 00       	  mvi a9 0x108c;
     675:	3e 7d 06 00       	  jmp 0x67d;
     679:	89 90 10 00       	  mvi a9 0x1090;
     67d:	bf 9a             	  ldd.w a10 a9;
     67f:	bf 2b             	  ldd.w a11 a2;
     681:	90 bb 10          	  add.w a11 a11 0x10;
     684:	7e 0f 0c 00       	  call 0xc0f;
     688:	fb 21             	  popm a2 0x1;

0000068a <_vTaskSelectNextTask>:
     68a:	f4 30 fc          	  addsp -0x4;
     68d:	89 c4 0f 00       	  mvi a9 0xfc4;
     691:	f9 82             	  pushm a8;
     693:	bf 99             	  ldd.w a9 a9;
     695:	b3 90 00 10       	  cmpbreq.w a9 0x0 0x6a5;
     699:	0f 01             	  mvi a15 0x1;
     69b:	89 cc 0f 00       	  mvi a9 0xfcc;
     69f:	a0 9f             	  std.w a9 a15;
     6a1:	3e 45 08 00       	  jmp 0x845;
     6a5:	89 b4 0f 00       	  mvi a9 0xfb4;
     6a9:	fe 48 01          	  rspr a8 SP;
     6ac:	b2 91             	  mv.w a1 a9;
     6ae:	bf 95             	  ldd.w a5 a9;
     6b0:	3d 24             	  clr.b a2;
     6b2:	3d 34             	  clr.b a3;
     6b4:	bd 64             	  clr.w a6;
     6b6:	80 74 10 00       	  mvi a0 0x1074;
     6ba:	87 bc 0f 00       	  mvi a7 0xfbc;
     6be:	84 b8 0f 00       	  mvi a4 0xfb8;
     6c2:	90 88 24          	  add.w a8 a8 0x24;
     6c5:	3e d2 06 00       	  jmp 0x6d2;
     6c9:	bf 09             	  ldd.w a9 a0;
     6cb:	3d 24             	  clr.b a2;
     6cd:	92 99 01          	  sub.w a9 a9 0x1;
     6d0:	a0 09             	  std.w a0 a9;
     6d2:	bf 09             	  ldd.w a9 a0;
     6d4:	8e d4 0f 00       	  mvi a14 0xfd4;
     6d8:	94 9f 04          	  lsl.w a15 a9 0x4;
     6db:	b6 94 02          	  lsl.w a9 0x2;
     6de:	bc 9f 90          	  add.w a9 a9 a15;
     6e1:	bc 9e 90          	  add.w a9 a9 a14;
     6e4:	bf 99             	  ldd.w a9 a9;
     6e6:	b3 99 00 3d 01    	  cmpbreq.w a9 0x0 0x823;
     6eb:	bf 7f             	  ldd.w a15 a7;
     6ed:	bf 49             	  ldd.w a9 a4;
     6ef:	b9 99 00          	  cpl.w a9 a9;
     6f2:	a6 f9             	  cmp.w a15 a9;
     6f4:	f4 0b 0f          	  breq 0x703;
     6f7:	bf 1a             	  ldd.w a10 a1;
     6f9:	0b ec             	  mvi a11 -0x14;
     6fb:	7e 95 0a 00       	  call 0xa95;
     6ff:	3e 42 07 00       	  jmp 0x742;
     703:	bf 49             	  ldd.w a9 a4;
     705:	b3 90 00 3d       	  cmpbreq.w a9 0x0 0x742;
     709:	98 59 08          	  ldd.w a9 a5 0x20;
     70c:	bf 0f             	  ldd.w a15 a0;
     70e:	94 fe 04          	  lsl.w a14 a15 0x4;
     711:	b6 f4 02          	  lsl.w a15 0x2;
     714:	bc fe f0          	  add.w a15 a15 a14;
     717:	8e d4 0f 00       	  mvi a14 0xfd4;
     71b:	bc fe f0          	  add.w a15 a15 a14;
     71e:	a6 9f             	  cmp.w a9 a15;
     720:	f4 1b 22          	  brne 0x742;
     723:	bf 49             	  ldd.w a9 a4;
     725:	bd b4             	  clr.w a11;
     727:	92 99 01          	  sub.w a9 a9 0x1;
     72a:	a0 49             	  std.w a4 a9;
     72c:	bf 49             	  ldd.w a9 a4;
     72e:	b9 99 00          	  cpl.w a9 a9;
     731:	a0 79             	  std.w a7 a9;
     733:	a0 15             	  std.w a1 a5;
     735:	bf 1a             	  ldd.w a10 a1;
     737:	7e 89 0a 00       	  call 0xa89;
     73b:	b0 a6 00          	  cmp.w a10 0x0;
     73e:	f5 1f f9 00       	  brsgte 0x837;
     742:	bf 0f             	  ldd.w a15 a0;
     744:	bf 09             	  ldd.w a9 a0;
     746:	94 fd 04          	  lsl.w a13 a15 0x4;
     749:	94 9e 04          	  lsl.w a14 a9 0x4;
     74c:	b6 94 02          	  lsl.w a9 0x2;
     74f:	bc 9e 90          	  add.w a9 a9 a14;
     752:	8e d4 0f 00       	  mvi a14 0xfd4;
     756:	bc 9e 90          	  add.w a9 a9 a14;
     759:	98 99 01          	  ldd.w a9 a9 0x4;
     75c:	b6 f4 02          	  lsl.w a15 0x2;
     75f:	bc fd f0          	  add.w a15 a15 a13;
     762:	bc fe f0          	  add.w a15 a15 a14;
     765:	98 99 01          	  ldd.w a9 a9 0x4;
     768:	b5 f9 01          	  std.w a15 0x4 a9;
     76b:	bf 09             	  ldd.w a9 a0;
     76d:	94 9f 04          	  lsl.w a15 a9 0x4;
     770:	b6 94 02          	  lsl.w a9 0x2;
     773:	bc 9f 90          	  add.w a9 a9 a15;
     776:	bc 9e 90          	  add.w a9 a9 a14;
     779:	98 9e 01          	  ldd.w a14 a9 0x4;
     77c:	bf 09             	  ldd.w a9 a0;
     77e:	94 9f 04          	  lsl.w a15 a9 0x4;
     781:	b6 94 02          	  lsl.w a9 0x2;
     784:	bc 9f 90          	  add.w a9 a9 a15;
     787:	8f dc 0f 00       	  mvi a15 0xfdc;
     78b:	bc 9f 90          	  add.w a9 a9 a15;
     78e:	a6 e9             	  cmp.w a14 a9;
     790:	f4 1b 2c          	  brne 0x7bc;
     793:	bf 0f             	  ldd.w a15 a0;
     795:	bf 09             	  ldd.w a9 a0;
     797:	94 fd 04          	  lsl.w a13 a15 0x4;
     79a:	94 9e 04          	  lsl.w a14 a9 0x4;
     79d:	b6 94 02          	  lsl.w a9 0x2;
     7a0:	bc 9e 90          	  add.w a9 a9 a14;
     7a3:	8e d4 0f 00       	  mvi a14 0xfd4;
     7a7:	bc 9e 90          	  add.w a9 a9 a14;
     7aa:	98 99 01          	  ldd.w a9 a9 0x4;
     7ad:	b6 f4 02          	  lsl.w a15 0x2;
     7b0:	bc fd f0          	  add.w a15 a15 a13;
     7b3:	bc fe f0          	  add.w a15 a15 a14;
     7b6:	98 99 01          	  ldd.w a9 a9 0x4;
     7b9:	b5 f9 01          	  std.w a15 0x4 a9;
     7bc:	bf 09             	  ldd.w a9 a0;
     7be:	94 9f 04          	  lsl.w a15 a9 0x4;
     7c1:	b6 94 02          	  lsl.w a9 0x2;
     7c4:	bc 9f 90          	  add.w a9 a9 a15;
     7c7:	8f d4 0f 00       	  mvi a15 0xfd4;
     7cb:	bc 9f 90          	  add.w a9 a9 a15;
     7ce:	98 99 01          	  ldd.w a9 a9 0x4;
     7d1:	98 99 03          	  ldd.w a9 a9 0xc;
     7d4:	a0 19             	  std.w a1 a9;
     7d6:	bf 1a             	  ldd.w a10 a1;
     7d8:	7e 61 0a 00       	  call 0xa61;
     7dc:	b3 a4 00 10       	  cmpbrne.w a10 0x0 0x7ec;
     7e0:	bf 1a             	  ldd.w a10 a1;
     7e2:	0b eb             	  mvi a11 -0x15;
     7e4:	7e 95 0a 00       	  call 0xa95;
     7e8:	3e fa 07 00       	  jmp 0x7fa;
     7ec:	bf 1a             	  ldd.w a10 a1;
     7ee:	b2 8b             	  mv.w a11 a8;
     7f0:	7e 89 0a 00       	  call 0xa89;
     7f4:	b0 a6 00          	  cmp.w a10 0x0;
     7f7:	f4 1f 40          	  brsgte 0x837;
     7fa:	10 22 01          	  add.b a2 a2 0x1;
     7fd:	10 33 01          	  add.b a3 a3 0x1;
     800:	33 34 01 06       	  cmpbrne.b a3 0x1 0x806;
     804:	bf 06             	  ldd.w a6 a0;
     806:	bf 09             	  ldd.w a9 a0;
     808:	c4 2e ff          	  and a14 a2 0xff;
     80b:	94 9f 04          	  lsl.w a15 a9 0x4;
     80e:	b6 94 02          	  lsl.w a9 0x2;
     811:	bc 9f 90          	  add.w a9 a9 a15;
     814:	8f d4 0f 00       	  mvi a15 0xfd4;
     818:	bc 9f 90          	  add.w a9 a9 a15;
     81b:	bf 99             	  ldd.w a9 a9;
     81d:	a6 e9             	  cmp.w a14 a9;
     81f:	f5 1b b3 fe       	  brne 0x6d2;
     823:	bf 09             	  ldd.w a9 a0;
     825:	b3 9d 00 a4 fe    	  cmpbrne.w a9 0x0 0x6c9;
     82a:	bf 1a             	  ldd.w a10 a1;
     82c:	4b 0b fe          	  mvi a11 -0x1f5;
     82f:	7e 95 0a 00       	  call 0xa95;
     833:	3e d2 06 00       	  jmp 0x6d2;
     837:	33 30 00 0a       	  cmpbreq.b a3 0x0 0x841;
     83b:	89 74 10 00       	  mvi a9 0x1074;
     83f:	a0 96             	  std.w a9 a6;
     841:	7e d0 0a 00       	  call 0xad0;
     845:	fb 85 04          	  popma a8 0x1 0x4;

00000848 <_vTaskIncrementTick>:
     848:	f9 22             	  pushm a2;
     84a:	89 c4 0f 00       	  mvi a9 0xfc4;
     84e:	bf 99             	  ldd.w a9 a9;
     850:	b3 9d 00 cd 00    	  cmpbrne.w a9 0x0 0x91d;
     855:	89 a8 10 00       	  mvi a9 0x10a8;
     859:	bf 9f             	  ldd.w a15 a9;
     85b:	89 c0 0f 00       	  mvi a9 0xfc0;
     85f:	bf 99             	  ldd.w a9 a9;
     861:	b9 99 00          	  cpl.w a9 a9;
     864:	a6 f9             	  cmp.w a15 a9;
     866:	f4 0b 0f          	  breq 0x875;
     869:	89 b4 0f 00       	  mvi a9 0xfb4;
     86d:	bf 9a             	  ldd.w a10 a9;
     86f:	0b ec             	  mvi a11 -0x14;
     871:	7e 95 0a 00       	  call 0xa95;
     875:	8e c0 0f 00       	  mvi a14 0xfc0;
     879:	bf e9             	  ldd.w a9 a14;
     87b:	8f a8 10 00       	  mvi a15 0x10a8;
     87f:	90 99 01          	  add.w a9 a9 0x1;
     882:	a0 e9             	  std.w a14 a9;
     884:	bf e9             	  ldd.w a9 a14;
     886:	b9 99 00          	  cpl.w a9 a9;
     889:	a0 f9             	  std.w a15 a9;
     88b:	bf e9             	  ldd.w a9 a14;
     88d:	b3 94 00 1f       	  cmpbrne.w a9 0x0 0x8ac;
     891:	8f 90 10 00       	  mvi a15 0x1090;
     895:	8e 8c 10 00       	  mvi a14 0x108c;
     899:	bf fc             	  ldd.w a12 a15;
     89b:	bf e9             	  ldd.w a9 a14;
     89d:	8d c8 0f 00       	  mvi a13 0xfc8;
     8a1:	a0 f9             	  std.w a15 a9;
     8a3:	a0 ec             	  std.w a14 a12;
     8a5:	bf d9             	  ldd.w a9 a13;
     8a7:	90 99 01          	  add.w a9 a9 0x1;
     8aa:	a0 d9             	  std.w a13 a9;
     8ac:	8f 90 10 00       	  mvi a15 0x1090;
     8b0:	bf f9             	  ldd.w a9 a15;
     8b2:	bf 99             	  ldd.w a9 a9;
     8b4:	b3 94 00 0a       	  cmpbrne.w a9 0x0 0x8be;
     8b8:	bd 04             	  clr.w a0;
     8ba:	3e 00 09 00       	  jmp 0x900;
     8be:	bf f9             	  ldd.w a9 a15;
     8c0:	98 99 03          	  ldd.w a9 a9 0xc;
     8c3:	98 90 03          	  ldd.w a0 a9 0xc;
     8c6:	3e 00 09 00       	  jmp 0x900;
     8ca:	bf 2f             	  ldd.w a15 a2;
     8cc:	98 09 04          	  ldd.w a9 a0 0x10;
     8cf:	a6 f9             	  cmp.w a15 a9;
     8d1:	f4 08 3e          	  brc 0x90f;
     8d4:	7e 51 0c 00       	  call 0xc51;
     8d8:	98 09 0d          	  ldd.w a9 a0 0x34;
     8db:	90 0a 24          	  add.w a10 a0 0x24;
     8de:	b3 90 00 08       	  cmpbreq.w a9 0x0 0x8e6;
     8e2:	7e 51 0c 00       	  call 0xc51;
     8e6:	b2 0a             	  mv.w a10 a0;
     8e8:	7e c7 05 00       	  call 0x5c7;
     8ec:	bf 19             	  ldd.w a9 a1;
     8ee:	bf 99             	  ldd.w a9 a9;
     8f0:	b3 90 00 1f       	  cmpbreq.w a9 0x0 0x90f;
     8f4:	bf 19             	  ldd.w a9 a1;
     8f6:	98 99 03          	  ldd.w a9 a9 0xc;
     8f9:	98 90 03          	  ldd.w a0 a9 0xc;
     8fc:	3e 08 09 00       	  jmp 0x908;
     900:	82 c0 0f 00       	  mvi a2 0xfc0;
     904:	81 90 10 00       	  mvi a1 0x1090;
     908:	90 0a 10          	  add.w a10 a0 0x10;
     90b:	b3 04 00 bf       	  cmpbrne.w a0 0x0 0x8ca;
     90f:	89 ac 10 00       	  mvi a9 0x10ac;
     913:	bf 99             	  ldd.w a9 a9;
     915:	b3 94 00 17       	  cmpbrne.w a9 0x0 0x92c;
     919:	3e 28 09 00       	  jmp 0x928;
     91d:	8f ac 10 00       	  mvi a15 0x10ac;
     921:	bf f9             	  ldd.w a9 a15;
     923:	90 99 01          	  add.w a9 a9 0x1;
     926:	a0 f9             	  std.w a15 a9;
     928:	7e 87 0a 00       	  call 0xa87;
     92c:	fb 21             	  popm a2 0x1;

0000092e <_xTaskResumeScheduler>:
     92e:	f9 32             	  pushm a3;
     930:	81 c4 0f 00       	  mvi a1 0xfc4;
     934:	bf 19             	  ldd.w a9 a1;
     936:	00 e9             	  mvi a0 -0x17;
     938:	b3 99 00 c0 00    	  cmpbreq.w a9 0x0 0x9f8;
     93d:	7e 74 0a 00       	  call 0xa74;
     941:	bf 19             	  ldd.w a9 a1;
     943:	92 99 01          	  sub.w a9 a9 0x1;
     946:	a0 19             	  std.w a1 a9;
     948:	bf 19             	  ldd.w a9 a1;
     94a:	b3 9d 00 a8 00    	  cmpbrne.w a9 0x0 0x9f2;
     94f:	89 b0 10 00       	  mvi a9 0x10b0;
     953:	bf 99             	  ldd.w a9 a9;
     955:	b3 99 00 9d 00    	  cmpbreq.w a9 0x0 0x9f2;
     95a:	8f 78 10 00       	  mvi a15 0x1078;
     95e:	bf f9             	  ldd.w a9 a15;
     960:	b3 94 00 0a       	  cmpbrne.w a9 0x0 0x96a;
     964:	bd 04             	  clr.w a0;
     966:	3e 70 09 00       	  jmp 0x970;
     96a:	98 f9 03          	  ldd.w a9 a15 0xc;
     96d:	98 90 03          	  ldd.w a0 a9 0xc;
     970:	bd 14             	  clr.w a1;
     972:	83 b4 0f 00       	  mvi a3 0xfb4;
     976:	82 78 10 00       	  mvi a2 0x1078;
     97a:	3e aa 09 00       	  jmp 0x9aa;
     97e:	7e 51 0c 00       	  call 0xc51;
     982:	90 0a 10          	  add.w a10 a0 0x10;
     985:	7e 51 0c 00       	  call 0xc51;
     989:	b2 0a             	  mv.w a10 a0;
     98b:	7e c7 05 00       	  call 0x5c7;
     98f:	bf 39             	  ldd.w a9 a3;
     991:	18 0f 41          	  ldd.b a15 a0 0x41;
     994:	bf 2e             	  ldd.w a14 a2;
     996:	18 99 41          	  ldd.b a9 a9 0x41;
     999:	26 f9             	  cmp.b a15 a9;
     99b:	f4 0d 05          	  brlte 0x9a0;
     99e:	01 01             	  mvi a1 0x1;
     9a0:	b3 e0 00 11       	  cmpbreq.w a14 0x0 0x9b1;
     9a4:	98 29 03          	  ldd.w a9 a2 0xc;
     9a7:	98 90 03          	  ldd.w a0 a9 0xc;
     9aa:	90 0a 24          	  add.w a10 a0 0x24;
     9ad:	b3 04 00 d1       	  cmpbrne.w a0 0x0 0x97e;
     9b1:	8f ac 10 00       	  mvi a15 0x10ac;
     9b5:	bf f9             	  ldd.w a9 a15;
     9b7:	b3 90 00 1b       	  cmpbreq.w a9 0x0 0x9d2;
     9bb:	b2 f0             	  mv.w a0 a15;
     9bd:	7e 48 08 00       	  call 0x848;
     9c1:	bf 09             	  ldd.w a9 a0;
     9c3:	92 99 01          	  sub.w a9 a9 0x1;
     9c6:	a0 09             	  std.w a0 a9;
     9c8:	bf 09             	  ldd.w a9 a0;
     9ca:	b3 94 00 f3       	  cmpbrne.w a9 0x0 0x9bd;
     9ce:	3e e0 09 00       	  jmp 0x9e0;
     9d2:	b3 10 01 0e       	  cmpbreq.w a1 0x1 0x9e0;
     9d6:	89 cc 0f 00       	  mvi a9 0xfcc;
     9da:	bf 99             	  ldd.w a9 a9;
     9dc:	b3 94 01 16       	  cmpbrne.w a9 0x1 0x9f2;
     9e0:	bd f4             	  clr.w a15;
     9e2:	89 cc 0f 00       	  mvi a9 0xfcc;
     9e6:	00 01             	  mvi a0 0x1;
     9e8:	a0 9f             	  std.w a9 a15;
     9ea:	7e 0e 00 00       	  call 0xe;
     9ee:	3e f4 09 00       	  jmp 0x9f4;
     9f2:	bd 04             	  clr.w a0;
     9f4:	7e 9b 0a 00       	  call 0xa9b;
     9f8:	b2 0a             	  mv.w a10 a0;
     9fa:	fb 31             	  popm a3 0x1;

000009fc <_xTaskDelay>:
     9fc:	f9 32             	  pushm a3;
     9fe:	89 c4 0f 00       	  mvi a9 0xfc4;
     a02:	bf 99             	  ldd.w a9 a9;
     a04:	b2 a3             	  mv.w a3 a10;
     a06:	0f f7             	  mvi a15 -0x9;
     a08:	b3 94 00 55       	  cmpbrne.w a9 0x0 0xa5d;
     a0c:	b3 a0 00 4b       	  cmpbreq.w a10 0x0 0xa57;
     a10:	7e 98 05 00       	  call 0x598;
     a14:	81 c0 0f 00       	  mvi a1 0xfc0;
     a18:	82 b4 0f 00       	  mvi a2 0xfb4;
     a1c:	bf 10             	  ldd.w a0 a1;
     a1e:	bf 2a             	  ldd.w a10 a2;
     a20:	bc 30 00          	  add.w a0 a3 a0;
     a23:	90 aa 10          	  add.w a10 a10 0x10;
     a26:	7e 51 0c 00       	  call 0xc51;
     a2a:	bf 29             	  ldd.w a9 a2;
     a2c:	b5 90 04          	  std.w a9 0x10 a0;
     a2f:	bf 19             	  ldd.w a9 a1;
     a31:	a6 09             	  cmp.w a0 a9;
     a33:	f4 18 0b          	  brnc 0xa3e;
     a36:	89 8c 10 00       	  mvi a9 0x108c;
     a3a:	3e 42 0a 00       	  jmp 0xa42;
     a3e:	89 90 10 00       	  mvi a9 0x1090;
     a42:	bf 9a             	  ldd.w a10 a9;
     a44:	bf 2b             	  ldd.w a11 a2;
     a46:	90 bb 10          	  add.w a11 a11 0x10;
     a49:	7e 0f 0c 00       	  call 0xc0f;
     a4d:	7e 2e 09 00       	  call 0x92e;
     a51:	0f 01             	  mvi a15 0x1;
     a53:	b3 a4 00 0a       	  cmpbrne.w a10 0x0 0xa5d;
     a57:	7e 0e 00 00       	  call 0xe;
     a5b:	0f 01             	  mvi a15 0x1;
     a5d:	b2 fa             	  mv.w a10 a15;
     a5f:	fb 31             	  popm a3 0x1;

00000a61 <_xPortIsTaskHandleValid>:
     a61:	b3 a0 00 11       	  cmpbreq.w a10 0x0 0xa72;
     a65:	98 a9 03          	  ldd.w a9 a10 0xc;
     a68:	bf af             	  ldd.w a15 a10;
     a6a:	b9 99 00          	  cpl.w a9 a9;
     a6d:	a6 f9             	  cmp.w a15 a9;
     a6f:	f0 ac 0b          	  sgetb a10 0xb;
     a72:	f8 00             	  ret;

00000a74 <_vPortEnterCritical>:
     a74:	f4 32 10          	  sclrb 0x10;
     a77:	f4 32 11          	  sclrb 0x11;
     a7a:	8f a0 05 00       	  mvi a15 0x5a0;
     a7e:	bf f9             	  ldd.w a9 a15;
     a80:	90 99 01          	  add.w a9 a9 0x1;
     a83:	a0 f9             	  std.w a15 a9;
     a85:	f8 00             	  ret;

00000a87 <_vPortTickHook>:
     a87:	f8 00             	  ret;

00000a89 <_xPortLoadTask>:
     a89:	7e 10 10 00       	  call 0x1010;
     a8d:	f8 00             	  ret;

00000a8f <_vPortIdleHook>:
     a8f:	7e 85 18 00       	  call 0x1885;
     a93:	f8 00             	  ret;

00000a95 <_vPortErrorHook>:
     a95:	7e b4 18 00       	  call 0x18b4;
     a99:	f8 00             	  ret;

00000a9b <_vPortExitCritical>:
     a9b:	8f a0 05 00       	  mvi a15 0x5a0;
     a9f:	bf f9             	  ldd.w a9 a15;
     aa1:	b3 94 00 1a       	  cmpbrne.w a9 0x0 0xabb;
     aa5:	f4 32 10          	  sclrb 0x10;
     aa8:	f4 32 11          	  sclrb 0x11;
     aab:	bd a4             	  clr.w a10;
     aad:	0b ee             	  mvi a11 -0x12;
     aaf:	7e 95 0a 00       	  call 0xa95;
     ab3:	f4 31 10          	  ssetb 0x10;
     ab6:	f4 31 11          	  ssetb 0x11;
     ab9:	f8 00             	  ret;
     abb:	bf f9             	  ldd.w a9 a15;
     abd:	92 99 01          	  sub.w a9 a9 0x1;
     ac0:	a0 f9             	  std.w a15 a9;
     ac2:	bf f9             	  ldd.w a9 a15;
     ac4:	b3 94 00 0a       	  cmpbrne.w a9 0x0 0xace;
     ac8:	f4 31 10          	  ssetb 0x10;
     acb:	f4 31 11          	  ssetb 0x11;
     ace:	f8 00             	  ret;

00000ad0 <_vPortFlcnPrivLevelSet>:
     ad0:	7e 40 41 00       	  call 0x4140;
     ad4:	f8 00             	  ret;

00000ad6 <_prvExceptionHandler>:
     ad6:	fe c9 01          	  rspr a9 EXCI;
     ad9:	b6 95 14          	  lsr.w a9 0x14;
     adc:	33 90 08 3c       	  cmpbreq.b a9 0x8 0xb18;
     ae0:	30 96 08          	  cmp.b a9 0x8;
     ae3:	f4 0c 13          	  brgt 0xaf6;
     ae6:	33 90 02 20       	  cmpbreq.b a9 0x2 0xb06;
     aea:	33 90 03 34       	  cmpbreq.b a9 0x3 0xb1e;
     aee:	33 90 00 18       	  cmpbreq.b a9 0x0 0xb06;
     af2:	3e 1c 0b 00       	  jmp 0xb1c;
     af6:	33 90 0f 28       	  cmpbreq.b a9 0xf 0xb1e;
     afa:	33 90 10 18       	  cmpbreq.b a9 0x10 0xb12;
     afe:	33 94 0a 1e       	  cmpbrne.b a9 0xa 0xb1c;
     b02:	3e 0c 0b 00       	  jmp 0xb0c;
     b06:	7e 8a 06 00       	  call 0x68a;
     b0a:	f8 00             	  ret;
     b0c:	7e bc 13 00       	  call 0x13bc;
     b10:	f8 00             	  ret;
     b12:	7e b0 13 00       	  call 0x13b0;
     b16:	f8 00             	  ret;
     b18:	f8 02             	  halt;
     b1a:	f8 00             	  ret;
     b1c:	f8 02             	  halt;
     b1e:	f8 00             	  ret;

00000b20 <_vEVRoutineEntryC>:
     b20:	7e 55 41 00       	  call 0x4155;
     b24:	7e d6 0a 00       	  call 0xad6;
     b28:	7e 40 41 00       	  call 0x4140;
     b2c:	f8 00             	  ret;

00000b2e <_vIV1RoutineEntryC>:
     b2e:	f9 02             	  pushm a0;
     b30:	7e 55 41 00       	  call 0x4155;
     b34:	49 00 02          	  mvi a9 0x200;
     b37:	cf 99 00          	  ldx a9 a9 0x0;
     b3a:	80 dc 10 00       	  mvi a0 0x10dc;
     b3e:	bf 0f             	  ldd.w a15 a0;
     b40:	fd 9f 04          	  and a9 a15;
     b43:	f4 0b 17          	  breq 0xb5a;
     b46:	7e 48 08 00       	  call 0x848;
     b4a:	7e 8a 06 00       	  call 0x68a;
     b4e:	bf 0f             	  ldd.w a15 a0;
     b50:	49 00 01          	  mvi a9 0x100;
     b53:	fa 9f 00          	  stx a9 a15;
     b56:	3e 62 0b 00       	  jmp 0xb62;
     b5a:	bd a4             	  clr.w a10;
     b5c:	0b da             	  mvi a11 -0x26;
     b5e:	7e 95 0a 00       	  call 0xa95;
     b62:	7e 40 41 00       	  call 0x4140;
     b66:	fb 01             	  popm a0 0x1;

00000b68 <_vIV0RoutineEntryC>:
     b68:	7e 55 41 00       	  call 0x4155;
     b6c:	7e 5a 18 00       	  call 0x185a;
     b70:	b3 a0 00 08       	  cmpbreq.w a10 0x0 0xb78;
     b74:	7e 8a 06 00       	  call 0x68a;
     b78:	7e 40 41 00       	  call 0x4140;
     b7c:	f8 00             	  ret;

00000b7e <_memcpy>:
     b7e:	bd 94             	  clr.w a9;
     b80:	3e 8d 0b 00       	  jmp 0xb8d;
     b84:	3c b9 f8          	  ldd.b a15 a11 a9;
     b87:	3c af 99          	  std.b a10 a9 a15;
     b8a:	90 99 01          	  add.w a9 a9 0x1;
     b8d:	a6 9c             	  cmp.w a9 a12;
     b8f:	f4 08 f5          	  brc 0xb84;
     b92:	f8 00             	  ret;

00000b94 <_memset>:
     b94:	b2 a9             	  mv.w a9 a10;
     b96:	3e a2 0b 00       	  jmp 0xba2;
     b9a:	20 9b             	  std.b a9 a11;
     b9c:	92 cc 01          	  sub.w a12 a12 0x1;
     b9f:	90 99 01          	  add.w a9 a9 0x1;
     ba2:	b3 c4 00 f8       	  cmpbrne.w a12 0x0 0xb9a;
     ba6:	f8 00             	  ret;

00000ba8 <_memcmp>:
     ba8:	bd e4             	  clr.w a14;
     baa:	3e c7 0b 00       	  jmp 0xbc7;
     bae:	3c ae f8          	  ldd.b a15 a10 a14;
     bb1:	3c be 98          	  ldd.b a9 a11 a14;
     bb4:	90 ee 01          	  add.w a14 a14 0x1;
     bb7:	26 f9             	  cmp.b a15 a9;
     bb9:	f4 0b 0e          	  breq 0xbc7;
     bbc:	f0 f4 ff          	  and a15 0xff;
     bbf:	f0 94 ff          	  and a9 0xff;
     bc2:	bc f9 a2          	  sub.w a10 a15 a9;
     bc5:	f8 00             	  ret;
     bc7:	a6 ec             	  cmp.w a14 a12;
     bc9:	f4 08 e5          	  brc 0xbae;
     bcc:	bd a4             	  clr.w a10;
     bce:	f8 00             	  ret;

00000bd0 <_vListInitialise>:
     bd0:	90 af 08          	  add.w a15 a10 0x8;
     bd3:	b5 af 01          	  std.w a10 0x4 a15;
     bd6:	09 ff             	  mvi a9 -0x1;
     bd8:	b5 a9 02          	  std.w a10 0x8 a9;
     bdb:	b5 af 03          	  std.w a10 0xc a15;
     bde:	b5 af 04          	  std.w a10 0x10 a15;
     be1:	bd 94             	  clr.w a9;
     be3:	a0 a9             	  std.w a10 a9;
     be5:	f8 00             	  ret;

00000be7 <_vListInitialiseItem>:
     be7:	bd 94             	  clr.w a9;
     be9:	b5 a9 04          	  std.w a10 0x10 a9;
     bec:	f8 00             	  ret;

00000bee <_vListInsertEnd>:
     bee:	98 af 01          	  ldd.w a15 a10 0x4;
     bf1:	b5 bf 01          	  std.w a11 0x4 a15;
     bf4:	98 f9 02          	  ldd.w a9 a15 0x8;
     bf7:	b5 b9 02          	  std.w a11 0x8 a9;
     bfa:	98 f9 02          	  ldd.w a9 a15 0x8;
     bfd:	b5 9b 01          	  std.w a9 0x4 a11;
     c00:	b5 fb 02          	  std.w a15 0x8 a11;
     c03:	b5 ba 04          	  std.w a11 0x10 a10;
     c06:	bf a9             	  ldd.w a9 a10;
     c08:	90 99 01          	  add.w a9 a9 0x1;
     c0b:	a0 a9             	  std.w a10 a9;
     c0d:	f8 00             	  ret;

00000c0f <_vListInsertOrdered>:
     c0f:	bf be             	  ldd.w a14 a11;
     c11:	09 ff             	  mvi a9 -0x1;
     c13:	a6 e9             	  cmp.w a14 a9;
     c15:	f4 1b 0a          	  brne 0xc1f;
     c18:	98 af 04          	  ldd.w a15 a10 0x10;
     c1b:	3e 33 0c 00       	  jmp 0xc33;
     c1f:	90 af 08          	  add.w a15 a10 0x8;
     c22:	3e 29 0c 00       	  jmp 0xc29;
     c26:	98 ff 01          	  ldd.w a15 a15 0x4;
     c29:	98 f9 01          	  ldd.w a9 a15 0x4;
     c2c:	bf 99             	  ldd.w a9 a9;
     c2e:	a6 9e             	  cmp.w a9 a14;
     c30:	f4 0d f6          	  brlte 0xc26;
     c33:	98 f9 01          	  ldd.w a9 a15 0x4;
     c36:	b5 b9 01          	  std.w a11 0x4 a9;
     c39:	98 b9 01          	  ldd.w a9 a11 0x4;
     c3c:	b5 9b 02          	  std.w a9 0x8 a11;
     c3f:	b5 bf 02          	  std.w a11 0x8 a15;
     c42:	b5 fb 01          	  std.w a15 0x4 a11;
     c45:	b5 ba 04          	  std.w a11 0x10 a10;
     c48:	bf a9             	  ldd.w a9 a10;
     c4a:	90 99 01          	  add.w a9 a9 0x1;
     c4d:	a0 a9             	  std.w a10 a9;
     c4f:	f8 00             	  ret;

00000c51 <_vListRemove>:
     c51:	98 af 01          	  ldd.w a15 a10 0x4;
     c54:	98 a9 02          	  ldd.w a9 a10 0x8;
     c57:	b5 f9 02          	  std.w a15 0x8 a9;
     c5a:	98 af 02          	  ldd.w a15 a10 0x8;
     c5d:	98 a9 01          	  ldd.w a9 a10 0x4;
     c60:	b5 f9 01          	  std.w a15 0x4 a9;
     c63:	98 af 04          	  ldd.w a15 a10 0x10;
     c66:	98 f9 01          	  ldd.w a9 a15 0x4;
     c69:	a6 9a             	  cmp.w a9 a10;
     c6b:	f4 1b 09          	  brne 0xc74;
     c6e:	98 a9 02          	  ldd.w a9 a10 0x8;
     c71:	b5 f9 01          	  std.w a15 0x4 a9;
     c74:	bd 94             	  clr.w a9;
     c76:	b5 a9 04          	  std.w a10 0x10 a9;
     c79:	bf f9             	  ldd.w a9 a15;
     c7b:	92 99 01          	  sub.w a9 a9 0x1;
     c7e:	a0 f9             	  std.w a15 a9;
     c80:	f8 00             	  ret;

00000c82 <_s_dmaTransfer>:
     c82:	f9 72             	  pushm a7;
     c84:	98 b9 02          	  ldd.w a9 a11 0x8;
     c87:	b2 a5             	  mv.w a5 a10;
     c89:	b2 b1             	  mv.w a1 a11;
     c8b:	b2 c2             	  mv.w a2 a12;
     c8d:	95 9a 1d          	  lsr.w a10 a9 0x1d;
     c90:	34 90 24          	  lddsp.b a9 0x24;
     c93:	b2 d4             	  mv.w a4 a13;
     c95:	32 e7             	  mv.b a7 a14;
     c97:	32 a6             	  mv.b a6 a10;
     c99:	33 90 00 0f       	  cmpbreq.b a9 0x0 0xca8;
     c9d:	00 23             	  mvi a0 0x23;
     c9f:	7e d7 18 00       	  call 0x18d7;
     ca3:	33 a9 00 12 01    	  cmpbreq.b a10 0x0 0xdb5;
     ca8:	bf 19             	  ldd.w a9 a1;
     caa:	98 11 01          	  ldd.w a1 a1 0x4;
     cad:	bc 29 20          	  add.w a2 a2 a9;
     cb0:	a6 29             	  cmp.w a2 a9;
     cb2:	f4 18 21          	  brnc 0xcd3;
     cb5:	09 ff             	  mvi a9 -0x1;
     cb7:	a6 19             	  cmp.w a1 a9;
     cb9:	f4 0b 0a          	  breq 0xcc3;
     cbc:	90 11 01          	  add.w a1 a1 0x1;
     cbf:	3e d3 0c 00       	  jmp 0xcd3;
     cc3:	7e ea 00 00       	  call 0xea;
     cc7:	0b 02             	  mvi a11 0x2;
     cc9:	00 02             	  mvi a0 0x2;
     ccb:	7e b4 18 00       	  call 0x18b4;
     ccf:	3e b5 0d 00       	  jmp 0xdb5;
     cd3:	c4 23 ff          	  and a3 a2 0xff;
     cd6:	ff 45 95          	  or a9 a4 a5;
     cd9:	00 3f             	  mvi a0 0x3f;
     cdb:	fd 93 05          	  or a9 a3;
     cde:	f0 94 03          	  and a9 0x3;
     ce1:	f5 1b d4 00       	  brne 0xdb5;
     ce5:	7e 74 0a 00       	  call 0xa74;
     ce9:	7e 06 0e 00       	  call 0xe06;
     ced:	fe fa 01          	  rspr a10 DMB1;
     cf0:	95 19 08          	  lsr.w a9 a1 0x8;
     cf3:	fe 9f 00          	  wspr DMB1 a9;
     cf6:	fe 7b 01          	  rspr a11 DMB;
     cf9:	fe bc 01          	  rspr a12 CTX;
     cfc:	94 19 18          	  lsl.w a9 a1 0x18;
     cff:	95 2f 08          	  lsr.w a15 a2 0x8;
     d02:	fd 9f 05          	  or a9 a15;
     d05:	fe 97 00          	  wspr DMB a9;
     d08:	c4 69 ff          	  and a9 a6 0xff;
     d0b:	e4 cf ff ff       	  and a15 a12 0xffff;
     d0f:	33 70 00 0f       	  cmpbreq.b a7 0x0 0xd1e;
     d13:	f1 f4 ff f8       	  and a15 0xf8ff;
     d17:	b6 94 08          	  lsl.w a9 0x8;
     d1a:	3e 25 0d 00       	  jmp 0xd25;
     d1e:	f1 f4 ff 8f       	  and a15 0x8fff;
     d22:	b6 94 0c          	  lsl.w a9 0xc;
     d25:	ff f9 95          	  or a9 a15 a9;
     d28:	fe 9b 00          	  wspr CTX a9;
     d2b:	3e 92 0d 00       	  jmp 0xd92;
     d2f:	e5 59 00 01       	  or a9 a5 0x100;
     d33:	fd 93 05          	  or a9 a3;
     d36:	b9 9f 01          	  neg.w a15 a9;
     d39:	fd f9 04          	  and a15 a9;
     d3c:	3e 43 0d 00       	  jmp 0xd43;
     d40:	b6 f5 01          	  lsr.w a15 0x1;
     d43:	a6 f4             	  cmp.w a15 a4;
     d45:	f4 0c fb          	  brgt 0xd40;
     d48:	95 fd 03          	  lsr.w a13 a15 0x3;
     d4b:	bd e4             	  clr.w a14;
     d4d:	3e 54 0d 00       	  jmp 0xd54;
     d51:	b6 d5 01          	  lsr.w a13 0x1;
     d54:	32 e9             	  mv.b a9 a14;
     d56:	b3 d0 00 0c       	  cmpbreq.w a13 0x0 0xd62;
     d5a:	90 ee 01          	  add.w a14 a14 0x1;
     d5d:	b3 ee 00 01 f4    	  cmpbrne.w a14 0x100 0xd51;
     d62:	f0 94 ff          	  and a9 0xff;
     d65:	e4 5e ff ff       	  and a14 a5 0xffff;
     d69:	33 70 00 14       	  cmpbreq.b a7 0x0 0xd7d;
     d6d:	f0 94 07          	  and a9 0x7;
     d70:	b6 94 10          	  lsl.w a9 0x10;
     d73:	fd 9e 05          	  or a9 a14;
     d76:	fa 39 05          	  dmread a3 a9;
     d79:	3e 89 0d 00       	  jmp 0xd89;
     d7d:	f0 94 07          	  and a9 0x7;
     d80:	b6 94 10          	  lsl.w a9 0x10;
     d83:	fd 9e 05          	  or a9 a14;
     d86:	fa 39 06          	  dmwrite a3 a9;
     d89:	bb 4f 02          	  sub.w a4 a15;
     d8c:	bc 3f 30          	  add.w a3 a3 a15;
     d8f:	bc 5f 50          	  add.w a5 a5 a15;
     d92:	b3 44 00 9d       	  cmpbrne.w a4 0x0 0xd2f;
     d96:	fe af 00          	  wspr DMB1 a10;
     d99:	fe b7 00          	  wspr DMB a11;
     d9c:	fe cb 00          	  wspr CTX a12;
     d9f:	f8 03             	  dmwait;
     da1:	00 17             	  mvi a0 0x17;
     da3:	7e 5a 19 00       	  call 0x195a;
     da7:	33 a4 00 06       	  cmpbrne.b a10 0x0 0xdad;
     dab:	3d 04             	  clr.b a0;
     dad:	7e 9b 0a 00       	  call 0xa9b;
     db1:	7e dd 0d 00       	  call 0xddd;
     db5:	32 0a             	  mv.b a10 a0;
     db7:	fb 71             	  popm a7 0x1;

00000db9 <_dmaWrite_IMPL>:
     db9:	09 01             	  mvi a9 0x1;
     dbb:	f4 30 fc          	  addsp -0x4;
     dbe:	3d e4             	  clr.b a14;
     dc0:	30 91 00          	  stdsp.b a9 0x0;
     dc3:	7e 82 0c 00       	  call 0xc82;
     dc7:	f4 30 04          	  addsp 0x4;
     dca:	f8 00             	  ret;

00000dcc <_dmaRead_IMPL>:
     dcc:	f4 30 fc          	  addsp -0x4;
     dcf:	0e 01             	  mvi a14 0x1;
     dd1:	30 e1 00          	  stdsp.b a14 0x0;
     dd4:	7e 82 0c 00       	  call 0xc82;
     dd8:	f4 30 04          	  addsp 0x4;
     ddb:	f8 00             	  ret;

00000ddd <_lwosDmaLockRelease_IMPL>:
     ddd:	7e 74 0a 00       	  call 0xa74;
     de1:	8f e0 10 00       	  mvi a15 0x10e0;
     de5:	bf f9             	  ldd.w a9 a15;
     de7:	b3 90 00 0f       	  cmpbreq.w a9 0x0 0xdf6;
     deb:	bf f9             	  ldd.w a9 a15;
     ded:	92 99 01          	  sub.w a9 a9 0x1;
     df0:	a0 f9             	  std.w a15 a9;
     df2:	3e 00 0e 00       	  jmp 0xe00;
     df6:	7e ea 00 00       	  call 0xea;
     dfa:	0b 03             	  mvi a11 0x3;
     dfc:	7e b4 18 00       	  call 0x18b4;
     e00:	7e 9b 0a 00       	  call 0xa9b;
     e04:	f8 00             	  ret;

00000e06 <_lwosDmaLockAcquire_IMPL>:
     e06:	7e 74 0a 00       	  call 0xa74;
     e0a:	8e e0 10 00       	  mvi a14 0x10e0;
     e0e:	bf ef             	  ldd.w a15 a14;
     e10:	09 ff             	  mvi a9 -0x1;
     e12:	a6 f9             	  cmp.w a15 a9;
     e14:	f4 0b 0e          	  breq 0xe22;
     e17:	bf e9             	  ldd.w a9 a14;
     e19:	90 99 01          	  add.w a9 a9 0x1;
     e1c:	a0 e9             	  std.w a14 a9;
     e1e:	3e 2c 0e 00       	  jmp 0xe2c;
     e22:	7e ea 00 00       	  call 0xea;
     e26:	0b 03             	  mvi a11 0x3;
     e28:	7e b4 18 00       	  call 0x18b4;
     e2c:	7e 9b 0a 00       	  call 0xa9b;
     e30:	f8 00             	  ret;

00000e32 <_osCmdmgmtQueueWrite_DMEM>:
     e32:	f9 12             	  pushm a1;
     e34:	b2 b9             	  mv.w a9 a11;
     e36:	bf af             	  ldd.w a15 a10;
     e38:	3f 9e             	  ldd.b a14 a9;
     e3a:	b2 a0             	  mv.w a0 a10;
     e3c:	92 d1 04          	  sub.w a1 a13 0x4;
     e3f:	b2 cb             	  mv.w a11 a12;
     e41:	20 fe             	  std.b a15 a14;
     e43:	18 9e 01          	  ldd.b a14 a9 0x1;
     e46:	b2 1c             	  mv.w a12 a1;
     e48:	35 fe 01          	  std.b a15 0x1 a14;
     e4b:	18 9e 02          	  ldd.b a14 a9 0x2;
     e4e:	35 fe 02          	  std.b a15 0x2 a14;
     e51:	18 99 03          	  ldd.b a9 a9 0x3;
     e54:	35 f9 03          	  std.b a15 0x3 a9;
     e57:	bf aa             	  ldd.w a10 a10;
     e59:	90 aa 04          	  add.w a10 a10 0x4;
     e5c:	a0 0a             	  std.w a0 a10;
     e5e:	7e 7e 0b 00       	  call 0xb7e;
     e62:	bf 09             	  ldd.w a9 a0;
     e64:	bc 91 90          	  add.w a9 a9 a1;
     e67:	a0 09             	  std.w a0 a9;
     e69:	fb 11             	  popm a1 0x1;

00000e6b <_osCmdmgmtQueuePost_IMPL>:
     e6b:	f4 30 f4          	  addsp -0xc;
     e6e:	f9 62             	  pushm a6;
     e70:	b2 a3             	  mv.w a3 a10;
     e72:	b2 b2             	  mv.w a2 a11;
     e74:	b2 c6             	  mv.w a6 a12;
     e76:	32 d5             	  mv.b a5 a13;
     e78:	b3 b4 00 0c       	  cmpbrne.w a11 0x0 0xe84;
     e7c:	f8 09             	  trap1;
     e7e:	3d 04             	  clr.b a0;
     e80:	3e 51 0f 00       	  jmp 0xf51;
     e84:	18 b9 01          	  ldd.b a9 a11 0x1;
     e87:	00 01             	  mvi a0 0x1;
     e89:	f0 94 ff          	  and a9 0xff;
     e8c:	90 99 03          	  add.w a9 a9 0x3;
     e8f:	e4 91 fc 01       	  and a1 a9 0x1fc;
     e93:	f5 0b be 00       	  breq 0xf51;
     e97:	bf aa             	  ldd.w a10 a10;
     e99:	0b ff             	  mvi a11 -0x1;
     e9b:	7e de 00 00       	  call 0xde;
     e9f:	98 3a 03          	  ldd.w a10 a3 0xc;
     ea2:	f9 a5             	  call a10;
     ea4:	fe 49 01          	  rspr a9 SP;
     ea7:	90 99 20          	  add.w a9 a9 0x20;
     eaa:	a0 9a             	  std.w a9 a10;
     eac:	b2 94             	  mv.w a4 a9;
     eae:	3e b8 0e 00       	  jmp 0xeb8;
     eb2:	0a 01             	  mvi a10 0x1;
     eb4:	7e f0 00 00       	  call 0xf0;
     eb8:	98 3a 05          	  ldd.w a10 a3 0x14;
     ebb:	bf 40             	  ldd.w a0 a4;
     ebd:	f9 a5             	  call a10;
     ebf:	bc 10 f0          	  add.w a15 a1 a0;
     ec2:	a6 a0             	  cmp.w a10 a0;
     ec4:	f4 0d 0d          	  brlte 0xed1;
     ec7:	a6 fa             	  cmp.w a15 a10;
     ec9:	f5 18 8d 00       	  brnc 0xf56;
     ecd:	3e 0b 0f 00       	  jmp 0xf0b;
     ed1:	98 39 02          	  ldd.w a9 a3 0x8;
     ed4:	a6 f9             	  cmp.w a15 a9;
     ed6:	f4 08 35          	  brc 0xf0b;
     ed9:	98 39 01          	  ldd.w a9 a3 0x4;
     edc:	bc 19 90          	  add.w a9 a1 a9;
     edf:	a6 9a             	  cmp.w a9 a10;
     ee1:	f4 18 75          	  brnc 0xf56;
     ee4:	98 3e 06          	  ldd.w a14 a3 0x18;
     ee7:	3d 94             	  clr.b a9;
     ee9:	fe 4f 01          	  rspr a15 SP;
     eec:	90 ff 1c          	  add.w a15 a15 0x1c;
     eef:	35 f9 03          	  std.b a15 0x3 a9;
     ef2:	20 f9             	  std.b a15 a9;
     ef4:	35 f9 02          	  std.b a15 0x2 a9;
     ef7:	09 04             	  mvi a9 0x4;
     ef9:	b2 fb             	  mv.w a11 a15;
     efb:	35 f9 01          	  std.b a15 0x1 a9;
     efe:	b2 4a             	  mv.w a10 a4;
     f00:	bd c4             	  clr.w a12;
     f02:	0d 04             	  mvi a13 0x4;
     f04:	f9 e5             	  call a14;
     f06:	98 39 01          	  ldd.w a9 a3 0x4;
     f09:	a0 49             	  std.w a4 a9;
     f0b:	98 39 06          	  ldd.w a9 a3 0x18;
     f0e:	b2 1d             	  mv.w a13 a1;
     f10:	b2 6c             	  mv.w a12 a6;
     f12:	b2 2b             	  mv.w a11 a2;
     f14:	fe 40 01          	  rspr a0 SP;
     f17:	90 00 20          	  add.w a0 a0 0x20;
     f1a:	b2 0a             	  mv.w a10 a0;
     f1c:	f9 95             	  call a9;
     f1e:	fe 41 01          	  rspr a1 SP;
     f21:	fe 42 01          	  rspr a2 SP;
     f24:	90 11 27          	  add.w a1 a1 0x27;
     f27:	90 22 26          	  add.w a2 a2 0x26;
     f2a:	b2 1a             	  mv.w a10 a1;
     f2c:	b2 2b             	  mv.w a11 a2;
     f2e:	7e f7 40 00       	  call 0x40f7;
     f32:	0a 02             	  mvi a10 0x2;
     f34:	32 ab             	  mv.b a11 a10;
     f36:	7e 11 41 00       	  call 0x4111;
     f3a:	bf 0a             	  ldd.w a10 a0;
     f3c:	98 39 04          	  ldd.w a9 a3 0x10;
     f3f:	00 01             	  mvi a0 0x1;
     f41:	f9 95             	  call a9;
     f43:	3f 1a             	  ldd.b a10 a1;
     f45:	3f 2b             	  ldd.b a11 a2;
     f47:	7e 11 41 00       	  call 0x4111;
     f4b:	bf 3a             	  ldd.w a10 a3;
     f4d:	7e 9b 00 00       	  call 0x9b;
     f51:	32 0a             	  mv.b a10 a0;
     f53:	fb 65 0c          	  popma a6 0x1 0xc;
     f56:	33 5d 00 5c ff    	  cmpbrne.b a5 0x0 0xeb2;
     f5b:	3d 04             	  clr.b a0;
     f5d:	3e 4b 0f 00       	  jmp 0xf4b;

00000f61 <_osCmdmgmtRmQueuePostNonBlocking_IMPL>:
     f61:	b2 bc             	  mv.w a12 a11;
     f63:	3d d4             	  clr.b a13;
     f65:	b2 ab             	  mv.w a11 a10;
     f67:	8a e4 10 00       	  mvi a10 0x10e4;
     f6b:	7e 6b 0e 00       	  call 0xe6b;
     f6f:	f8 00             	  ret;

00000f71 <_osCmdmgmtRmQueuePostBlocking_IMPL>:
     f71:	b2 bc             	  mv.w a12 a11;
     f73:	0d 01             	  mvi a13 0x1;
     f75:	b2 ab             	  mv.w a11 a10;
     f77:	8a e4 10 00       	  mvi a10 0x10e4;
     f7b:	7e 6b 0e 00       	  call 0xe6b;
     f7f:	f8 00             	  ret;

00000f81 <_osCmdmgmtCmdQSweep>:
     f81:	f9 12             	  pushm a1;
     f83:	b2 a0             	  mv.w a0 a10;
     f85:	32 b1             	  mv.b a1 a11;
     f87:	b3 a4 00 0a       	  cmpbrne.w a10 0x0 0xf91;
     f8b:	f8 09             	  trap1;
     f8d:	3e 0e 10 00       	  jmp 0x100e;
     f91:	89 d8 2f 00       	  mvi a9 0x2fd8;
     f95:	bf 9a             	  ldd.w a10 a9;
     f97:	0b ff             	  mvi a11 -0x1;
     f99:	7e de 00 00       	  call 0xde;
     f9d:	c4 19 ff          	  and a9 a1 0xff;
     fa0:	8f 00 01 03       	  mvi a15 0x30100;
     fa4:	94 9e 09          	  lsl.w a14 a9 0x9;
     fa7:	bc ef e0          	  add.w a14 a14 a15;
     faa:	cf ef 00          	  ldx a15 a14 0x0;
     fad:	b8 99 80 01 00    	  add.w a9 a9 0x180;
     fb2:	b6 94 09          	  lsl.w a9 0x9;
     fb5:	cf 9d 00          	  ldx a13 a9 0x0;
     fb8:	18 09 02          	  ldd.b a9 a0 0x2;
     fbb:	f0 95 20          	  or a9 0x20;
     fbe:	35 09 02          	  std.b a0 0x2 a9;
     fc1:	a6 0f             	  cmp.w a0 a15;
     fc3:	f4 1b 41          	  brne 0x1004;
     fc6:	3e f6 0f 00       	  jmp 0xff6;
     fca:	18 f9 02          	  ldd.b a9 a15 0x2;
     fcd:	f0 94 20          	  and a9 0x20;
     fd0:	f4 0b 34          	  breq 0x1004;
     fd3:	3f f9             	  ldd.b a9 a15;
     fd5:	33 94 00 0b       	  cmpbrne.b a9 0x0 0xfe0;
     fd9:	bc cb f8          	  ldd.w a15 a12 a11;
     fdc:	3e ef 0f 00       	  jmp 0xfef;
     fe0:	18 f9 01          	  ldd.b a9 a15 0x1;
     fe3:	f0 94 ff          	  and a9 0xff;
     fe6:	90 99 03          	  add.w a9 a9 0x3;
     fe9:	fd 9a 04          	  and a9 a10;
     fec:	bc f9 f0          	  add.w a15 a15 a9;
     fef:	f6 ef 00          	  stx a14 0x0 a15;
     ff2:	3e ff 0f 00       	  jmp 0xfff;
     ff6:	c4 1b ff          	  and a11 a1 0xff;
     ff9:	0a fc             	  mvi a10 -0x4;
     ffb:	8c c0 2f 00       	  mvi a12 0x2fc0;
     fff:	a6 fd             	  cmp.w a15 a13;
    1001:	f4 1b c9          	  brne 0xfca;
    1004:	89 d8 2f 00       	  mvi a9 0x2fd8;
    1008:	bf 9a             	  ldd.w a10 a9;
    100a:	7e 9b 00 00       	  call 0x9b;
    100e:	fb 11             	  popm a1 0x1;

00001010 <_osTaskLoad>:
    1010:	f9 02             	  pushm a0;
    1012:	8b 10 11 00       	  mvi a11 0x1110;
    1016:	7e 12 00 00       	  call 0x12;
    101a:	32 a0             	  mv.b a0 a10;
    101c:	33 a0 00 0f       	  cmpbreq.b a10 0x0 0x102b;
    1020:	7e ea 00 00       	  call 0xea;
    1024:	c4 0b ff          	  and a11 a0 0xff;
    1027:	7e b4 18 00       	  call 0x18b4;
    102b:	89 10 11 00       	  mvi a9 0x1110;
    102f:	bf 90             	  ldd.w a0 a9;
    1031:	89 14 11 00       	  mvi a9 0x1114;
    1035:	bf 9f             	  ldd.w a15 a9;
    1037:	89 00 11 00       	  mvi a9 0x1100;
    103b:	18 0e 18          	  ldd.b a14 a0 0x18;
    103e:	35 9e 0e          	  std.b a9 0xe a14;
    1041:	a6 0f             	  cmp.w a0 a15;
    1043:	f4 1b 10          	  brne 0x1053;
    1046:	18 09 19          	  ldd.b a9 a0 0x19;
    1049:	33 94 00 0a       	  cmpbrne.b a9 0x0 0x1053;
    104d:	bd a4             	  clr.w a10;
    104f:	3e 7a 10 00       	  jmp 0x107a;
    1053:	18 0b 1d          	  ldd.b a11 a0 0x1d;
    1056:	33 b4 00 0a       	  cmpbrne.b a11 0x0 0x1060;
    105a:	bd a4             	  clr.w a10;
    105c:	3e 6f 10 00       	  jmp 0x106f;
    1060:	90 0a 20          	  add.w a10 a0 0x20;
    1063:	3d c4             	  clr.b a12;
    1065:	7e 60 13 00       	  call 0x1360;
    1069:	b0 a6 00          	  cmp.w a10 0x0;
    106c:	f4 1e 0e          	  brslt 0x107a;
    106f:	3d 94             	  clr.b a9;
    1071:	35 09 19          	  std.b a0 0x19 a9;
    1074:	89 14 11 00       	  mvi a9 0x1114;
    1078:	a0 90             	  std.w a9 a0;
    107a:	fb 01             	  popm a0 0x1;

0000107c <_lwosOvlMruListRemove>:
    107c:	f0 a4 ff          	  and a10 0xff;
    107f:	89 31 32 00       	  mvi a9 0x3231;
    1083:	8c 24 32 00       	  mvi a12 0x3224;
    1087:	bc a9 d0          	  add.w a13 a10 a9;
    108a:	bc ac a0          	  add.w a10 a10 a12;
    108d:	3f df             	  ldd.b a15 a13;
    108f:	3f ae             	  ldd.b a14 a10;
    1091:	8c 31 32 00       	  mvi a12 0x3231;
    1095:	c4 e9 ff          	  and a9 a14 0xff;
    1098:	bc 9c 90          	  add.w a9 a9 a12;
    109b:	20 9f             	  std.b a9 a15;
    109d:	89 24 32 00       	  mvi a9 0x3224;
    10a1:	f0 f4 ff          	  and a15 0xff;
    10a4:	bc f9 f0          	  add.w a15 a15 a9;
    10a7:	20 fe             	  std.b a15 a14;
    10a9:	3d 94             	  clr.b a9;
    10ab:	20 d9             	  std.b a13 a9;
    10ad:	f8 00             	  ret;

000010af <_lwosOvlMruListMoveToFront>:
    10af:	f9 22             	  pushm a2;
    10b1:	89 31 32 00       	  mvi a9 0x3231;
    10b5:	c4 a0 ff          	  and a0 a10 0xff;
    10b8:	bc 09 20          	  add.w a2 a0 a9;
    10bb:	3f 2e             	  ldd.b a14 a2;
    10bd:	32 a1             	  mv.b a1 a10;
    10bf:	33 e0 00 0c       	  cmpbreq.b a14 0x0 0x10cb;
    10c3:	7e 7c 10 00       	  call 0x107c;
    10c7:	3e e0 10 00       	  jmp 0x10e0;
    10cb:	8f 18 11 00       	  mvi a15 0x1118;
    10cf:	3f f9             	  ldd.b a9 a15;
    10d1:	26 a9             	  cmp.b a10 a9;
    10d3:	f4 1b 0d          	  brne 0x10e0;
    10d6:	7d 94             	  clr.h a9;
    10d8:	20 fe             	  std.b a15 a14;
    10da:	75 f9 02          	  std.h a15 0x4 a9;
    10dd:	75 f9 01          	  std.h a15 0x2 a9;
    10e0:	89 31 32 00       	  mvi a9 0x3231;
    10e4:	3f 9f             	  ldd.b a15 a9;
    10e6:	20 91             	  std.b a9 a1;
    10e8:	89 24 32 00       	  mvi a9 0x3224;
    10ec:	bc 09 00          	  add.w a0 a0 a9;
    10ef:	3d 94             	  clr.b a9;
    10f1:	20 09             	  std.b a0 a9;
    10f3:	20 2f             	  std.b a2 a15;
    10f5:	89 24 32 00       	  mvi a9 0x3224;
    10f9:	f0 f4 ff          	  and a15 0xff;
    10fc:	bc f9 f0          	  add.w a15 a15 a9;
    10ff:	20 f1             	  std.b a15 a1;
    1101:	fb 21             	  popm a2 0x1;

00001103 <_lwosOvlMruListMoveToFrontAll>:
    1103:	f9 52             	  pushm a5;
    1105:	8f 18 11 00       	  mvi a15 0x1118;
    1109:	3d 94             	  clr.b a9;
    110b:	32 b4             	  mv.b a4 a11;
    110d:	32 c3             	  mv.b a3 a12;
    110f:	b2 a2             	  mv.w a2 a10;
    1111:	b2 f5             	  mv.w a5 a15;
    1113:	35 f9 01          	  std.b a15 0x1 a9;
    1116:	3d 14             	  clr.b a1;
    1118:	3e 3a 11 00       	  jmp 0x113a;
    111c:	3f 20             	  ldd.b a0 a2;
    111e:	10 11 01          	  add.b a1 a1 0x1;
    1121:	90 22 01          	  add.w a2 a2 0x1;
    1124:	33 00 00 16       	  cmpbreq.b a0 0x0 0x113a;
    1128:	32 0a             	  mv.b a10 a0;
    112a:	32 3b             	  mv.b a11 a3;
    112c:	7e af 10 00       	  call 0x10af;
    1130:	18 59 01          	  ldd.b a9 a5 0x1;
    1133:	33 94 00 07       	  cmpbrne.b a9 0x0 0x113a;
    1137:	35 50 01          	  std.b a5 0x1 a0;
    113a:	26 14             	  cmp.b a1 a4;
    113c:	f4 08 e0          	  brc 0x111c;
    113f:	fb 51             	  popm a5 0x1;

00001141 <_lwosTaskOverlayAttach>:
    1141:	f4 30 fc          	  addsp -0x4;
    1144:	f9 12             	  pushm a1;
    1146:	32 b1             	  mv.b a1 a11;
    1148:	fe 40 01          	  rspr a0 SP;
    114b:	90 00 08          	  add.w a0 a0 0x8;
    114e:	b2 0b             	  mv.w a11 a0;
    1150:	7e 12 00 00       	  call 0x12;
    1154:	bf 00             	  ldd.w a0 a0;
    1156:	18 0e 1d          	  ldd.b a14 a0 0x1d;
    1159:	33 14 00 06       	  cmpbrne.b a1 0x0 0x115f;
    115d:	f8 02             	  halt;
    115f:	4f 0b 00          	  mvi a15 0xb;
    1162:	f1 f3 00 00       	  sethi a15 0x0;
    1166:	c4 19 ff          	  and a9 a1 0xff;
    1169:	a6 9f             	  cmp.w a9 a15;
    116b:	f4 0c 0b          	  brgt 0x1176;
    116e:	32 ed             	  mv.b a13 a14;
    1170:	3d f4             	  clr.b a15;
    1172:	3e 9f 11 00       	  jmp 0x119f;
    1176:	f8 02             	  halt;
    1178:	3d f4             	  clr.b a15;
    117a:	32 ed             	  mv.b a13 a14;
    117c:	3e 9f 11 00       	  jmp 0x119f;
    1180:	12 ee 01          	  sub.b a14 a14 0x1;
    1183:	c4 e9 ff          	  and a9 a14 0xff;
    1186:	bc 09 90          	  add.w a9 a0 a9;
    1189:	18 99 20          	  ldd.b a9 a9 0x20;
    118c:	26 91             	  cmp.b a9 a1;
    118e:	f4 1b 09          	  brne 0x1197;
    1191:	3d a4             	  clr.b a10;
    1193:	3e c9 11 00       	  jmp 0x11c9;
    1197:	33 94 00 08       	  cmpbrne.b a9 0x0 0x119f;
    119b:	32 ed             	  mv.b a13 a14;
    119d:	0f 01             	  mvi a15 0x1;
    119f:	33 e4 00 e1       	  cmpbrne.b a14 0x0 0x1180;
    11a3:	33 f0 00 11       	  cmpbreq.b a15 0x0 0x11b4;
    11a7:	c4 d9 ff          	  and a9 a13 0xff;
    11aa:	bc 09 90          	  add.w a9 a0 a9;
    11ad:	35 91 20          	  std.b a9 0x20 a1;
    11b0:	3e b6 11 00       	  jmp 0x11b6;
    11b4:	f8 02             	  halt;
    11b6:	fe 49 01          	  rspr a9 SP;
    11b9:	90 99 08          	  add.w a9 a9 0x8;
    11bc:	bf 9f             	  ldd.w a15 a9;
    11be:	0a 01             	  mvi a10 0x1;
    11c0:	18 f9 19          	  ldd.b a9 a15 0x19;
    11c3:	fd 9a 05          	  or a9 a10;
    11c6:	35 f9 19          	  std.b a15 0x19 a9;
    11c9:	fb 15 04          	  popma a1 0x1 0x4;

000011cc <_lwosTaskOverlayAttachAndFail>:
    11cc:	7e 41 11 00       	  call 0x1141;
    11d0:	33 a4 00 06       	  cmpbrne.b a10 0x0 0x11d6;
    11d4:	f8 02             	  halt;
    11d6:	f8 00             	  ret;

000011d8 <_lwosTaskOverlayDetach>:
    11d8:	f4 30 fc          	  addsp -0x4;
    11db:	f9 12             	  pushm a1;
    11dd:	b2 a0             	  mv.w a0 a10;
    11df:	32 b1             	  mv.b a1 a11;
    11e1:	7e 74 0a 00       	  call 0xa74;
    11e5:	b2 0a             	  mv.w a10 a0;
    11e7:	fe 40 01          	  rspr a0 SP;
    11ea:	90 00 08          	  add.w a0 a0 0x8;
    11ed:	b2 0b             	  mv.w a11 a0;
    11ef:	7e 12 00 00       	  call 0x12;
    11f3:	bf 00             	  ldd.w a0 a0;
    11f5:	3d f4             	  clr.b a15;
    11f7:	18 0d 1d          	  ldd.b a13 a0 0x1d;
    11fa:	3e 16 12 00       	  jmp 0x1216;
    11fe:	18 e9 20          	  ldd.b a9 a14 0x20;
    1201:	10 ff 01          	  add.b a15 a15 0x1;
    1204:	90 ee 20          	  add.w a14 a14 0x20;
    1207:	26 91             	  cmp.b a9 a1;
    1209:	f4 1b 0d          	  brne 0x1216;
    120c:	3d 94             	  clr.b a9;
    120e:	00 01             	  mvi a0 0x1;
    1210:	20 e9             	  std.b a14 a9;
    1212:	3e 23 12 00       	  jmp 0x1223;
    1216:	c4 f9 ff          	  and a9 a15 0xff;
    1219:	bc 09 e0          	  add.w a14 a0 a9;
    121c:	26 fd             	  cmp.b a15 a13;
    121e:	f4 08 e0          	  brc 0x11fe;
    1221:	3d 04             	  clr.b a0;
    1223:	7e 9b 0a 00       	  call 0xa9b;
    1227:	32 0a             	  mv.b a10 a0;
    1229:	fb 15 04          	  popma a1 0x1 0x4;

0000122c <_lwosTaskOverlayDetachAndFail>:
    122c:	7e d8 11 00       	  call 0x11d8;
    1230:	33 a4 00 06       	  cmpbrne.b a10 0x0 0x1236;
    1234:	f8 02             	  halt;
    1236:	f8 00             	  ret;

00001238 <_lwosOvlImemLoad>:
    1238:	f9 82             	  pushm a8;
    123a:	f0 a4 ff          	  and a10 0xff;
    123d:	8f 00 32 00       	  mvi a15 0x3200;
    1241:	8e 18 32 00       	  mvi a14 0x3218;
    1245:	7c fa 58          	  ldd.h a5 a15 a10;
    1248:	3c ea 98          	  ldd.b a9 a14 a10;
    124b:	b2 b7             	  mv.w a7 a11;
    124d:	32 c6             	  mv.b a6 a12;
    124f:	bd 34             	  clr.w a3;
    1251:	f0 94 ff          	  and a9 0xff;
    1254:	88 a4 05 00       	  mvi a8 0x5a4;
    1258:	7c 59 20          	  add.h a2 a5 a9;
    125b:	81 18 11 00       	  mvi a1 0x1118;
    125f:	3e 54 13 00       	  jmp 0x1354;
    1263:	52 22 01          	  sub.h a2 a2 0x1;
    1266:	e4 29 ff ff       	  and a9 a2 0xffff;
    126a:	94 94 08          	  lsl.w a4 a9 0x8;
    126d:	fe 4f 03          	  imtag a15 a4;
    1270:	95 f9 1f          	  lsr.w a9 a15 0x1f;
    1273:	b3 90 01 10       	  cmpbreq.w a9 0x1 0x1283;
    1277:	d0 00 00 00 03    	  mvi a0 0x3000000;
    127c:	ff f0 94          	  and a9 a15 a0;
    127f:	f5 1b d5 00       	  brne 0x1354;
    1283:	bf 89             	  ldd.w a9 a8;
    1285:	8e 00 01 00       	  mvi a14 0x100;
    1289:	95 9f 08          	  lsr.w a15 a9 0x8;
    128c:	e4 f9 ff ff       	  and a9 a15 0xffff;
    1290:	a6 9e             	  cmp.w a9 a14;
    1292:	f5 18 10 00       	  brnc 0x12a2;
    1296:	90 99 01          	  add.w a9 a9 0x1;
    1299:	b6 94 08          	  lsl.w a9 0x8;
    129c:	a0 89             	  std.w a8 a9;
    129e:	3e 47 13 00       	  jmp 0x1347;
    12a2:	58 1f 01          	  ldd.h a15 a1 0x2;
    12a5:	58 19 02          	  ldd.h a9 a1 0x4;
    12a8:	66 f9             	  cmp.h a15 a9;
    12aa:	f4 1b 45          	  brne 0x12ef;
    12ad:	49 0b 00          	  mvi a9 0xb;
    12b0:	f1 93 00 00       	  sethi a9 0x0;
    12b4:	8f 24 32 00       	  mvi a15 0x3224;
    12b8:	bc 9f 90          	  add.w a9 a9 a15;
    12bb:	18 90 01          	  ldd.b a0 a9 0x1;
    12be:	18 19 01          	  ldd.b a9 a1 0x1;
    12c1:	26 09             	  cmp.b a0 a9;
    12c3:	f4 1b 05          	  brne 0x12c8;
    12c6:	f8 02             	  halt;
    12c8:	32 0a             	  mv.b a10 a0;
    12ca:	3d b4             	  clr.b a11;
    12cc:	7e 7c 10 00       	  call 0x107c;
    12d0:	8e 18 32 00       	  mvi a14 0x3218;
    12d4:	c4 09 ff          	  and a9 a0 0xff;
    12d7:	3c e9 f8          	  ldd.b a15 a14 a9;
    12da:	8e 00 32 00       	  mvi a14 0x3200;
    12de:	7c e9 98          	  ldd.h a9 a14 a9;
    12e1:	20 10             	  std.b a1 a0;
    12e3:	f0 f4 ff          	  and a15 0xff;
    12e6:	75 19 01          	  std.h a1 0x2 a9;
    12e9:	7c 9f f0          	  add.h a15 a9 a15;
    12ec:	75 1f 02          	  std.h a1 0x4 a15;
    12ef:	58 19 02          	  ldd.h a9 a1 0x4;
    12f2:	52 9b 01          	  sub.h a11 a9 0x1;
    12f5:	e4 b9 ff ff       	  and a9 a11 0xffff;
    12f9:	75 1b 02          	  std.h a1 0x4 a11;
    12fc:	b6 94 08          	  lsl.w a9 0x8;
    12ff:	fe 9a 03          	  imtag a10 a9;
    1302:	95 a9 1f          	  lsr.w a9 a10 0x1f;
    1305:	b3 90 01 9d       	  cmpbreq.w a9 0x1 0x12a2;
    1309:	b2 7c             	  mv.w a12 a7;
    130b:	3d d4             	  clr.b a13;
    130d:	3e 3f 13 00       	  jmp 0x133f;
    1311:	3f c9             	  ldd.b a9 a12;
    1313:	10 dd 01          	  add.b a13 a13 0x1;
    1316:	90 cc 01          	  add.w a12 a12 0x1;
    1319:	c4 9f ff          	  and a15 a9 0xff;
    131c:	33 90 00 23       	  cmpbreq.b a9 0x0 0x133f;
    1320:	80 00 32 00       	  mvi a0 0x3200;
    1324:	7c 0f e8          	  ldd.h a14 a0 a15;
    1327:	80 18 32 00       	  mvi a0 0x3218;
    132b:	3c 0f 98          	  ldd.b a9 a0 a15;
    132e:	66 be             	  cmp.h a11 a14;
    1330:	f4 08 0f          	  brc 0x133f;
    1333:	f0 94 ff          	  and a9 0xff;
    1336:	7c e9 90          	  add.h a9 a14 a9;
    1339:	66 b9             	  cmp.h a11 a9;
    133b:	f5 08 67 ff       	  brc 0x12a2;
    133f:	26 d6             	  cmp.b a13 a6;
    1341:	f4 08 d0          	  brc 0x1311;
    1344:	c4 af ff          	  and a15 a10 0xff;
    1347:	e4 f9 ff ff       	  and a9 a15 0xffff;
    134b:	b6 94 08          	  lsl.w a9 0x8;
    134e:	fa 49 04          	  imread a4 a9;
    1351:	90 33 01          	  add.w a3 a3 0x1;
    1354:	66 25             	  cmp.h a2 a5;
    1356:	f5 0c 0d ff       	  brgt 0x1263;
    135a:	f8 07             	  imwait;
    135c:	b2 3a             	  mv.w a10 a3;
    135e:	fb 81             	  popm a8 0x1;

00001360 <_lwosOvlImemLoadList>:
    1360:	f9 52             	  pushm a5;
    1362:	32 c5             	  mv.b a5 a12;
    1364:	b2 a4             	  mv.w a4 a10;
    1366:	32 b3             	  mv.b a3 a11;
    1368:	b3 a0 00 08       	  cmpbreq.w a10 0x0 0x1370;
    136c:	33 b4 00 0c       	  cmpbrne.b a11 0x0 0x1378;
    1370:	f8 02             	  halt;
    1372:	0a ff             	  mvi a10 -0x1;
    1374:	3e ae 13 00       	  jmp 0x13ae;
    1378:	3d c4             	  clr.b a12;
    137a:	b2 41             	  mv.w a1 a4;
    137c:	7e 03 11 00       	  call 0x1103;
    1380:	bd 24             	  clr.w a2;
    1382:	3d 04             	  clr.b a0;
    1384:	3e a7 13 00       	  jmp 0x13a7;
    1388:	3f 1a             	  ldd.b a10 a1;
    138a:	10 00 01          	  add.b a0 a0 0x1;
    138d:	90 11 01          	  add.w a1 a1 0x1;
    1390:	33 a0 00 17       	  cmpbreq.b a10 0x0 0x13a7;
    1394:	b2 4b             	  mv.w a11 a4;
    1396:	32 3c             	  mv.b a12 a3;
    1398:	32 5d             	  mv.b a13 a5;
    139a:	7e 38 12 00       	  call 0x1238;
    139e:	bc 2a 20          	  add.w a2 a2 a10;
    13a1:	b0 a6 00          	  cmp.w a10 0x0;
    13a4:	f4 1e 0a          	  brslt 0x13ae;
    13a7:	26 03             	  cmp.b a0 a3;
    13a9:	f4 08 df          	  brc 0x1388;
    13ac:	b2 2a             	  mv.w a10 a2;
    13ae:	fb 51             	  popm a5 0x1;

000013b0 <_lwrtosHookDmemMiss>:
    13b0:	7e ea 00 00       	  call 0xea;
    13b4:	0b 2f             	  mvi a11 0x2f;
    13b6:	7e b4 18 00       	  call 0x18b4;
    13ba:	f8 00             	  ret;

000013bc <_lwrtosHookImemMiss>:
    13bc:	7e ea 00 00       	  call 0xea;
    13c0:	0b 2f             	  mvi a11 0x2f;
    13c2:	7e b4 18 00       	  call 0x18b4;
    13c6:	f8 00             	  ret;

000013c8 <_osTimerScheduleCallback>:
    13c8:	f9 22             	  pushm a2;
    13ca:	3f a9             	  ldd.b a9 a10;
    13cc:	b2 c1             	  mv.w a1 a12;
    13ce:	b2 d0             	  mv.w a0 a13;
    13d0:	b4 c0 04          	  lddsp.w a12 0x10;
    13d3:	32 ed             	  mv.b a13 a14;
    13d5:	f0 94 ff          	  and a9 0xff;
    13d8:	a6 b9             	  cmp.w a11 a9;
    13da:	f4 08 05          	  brc 0x13df;
    13dd:	f8 02             	  halt;
    13df:	94 bf 02          	  lsl.w a15 a11 0x2;
    13e2:	94 b9 04          	  lsl.w a9 a11 0x4;
    13e5:	98 ae 02          	  ldd.w a14 a10 0x8;
    13e8:	b3 c0 00 52       	  cmpbreq.w a12 0x0 0x143a;
    13ec:	bc f9 f0          	  add.w a15 a15 a9;
    13ef:	3c ed f9          	  std.b a14 a15 a13;
    13f2:	98 a9 02          	  ldd.w a9 a10 0x8;
    13f5:	34 20 18          	  lddsp.b a2 0x18;
    13f8:	cc 0d 1e          	  udiv a13 a0 0x1e;
    13fb:	0e 01             	  mvi a14 0x1;
    13fd:	bc 9f 90          	  add.w a9 a9 a15;
    1400:	35 92 01          	  std.b a9 0x1 a2;
    1403:	98 a9 02          	  ldd.w a9 a10 0x8;
    1406:	bb eb 04          	  lsl.w a14 a11;
    1409:	bc 9f 90          	  add.w a9 a9 a15;
    140c:	b5 91 01          	  std.w a9 0x4 a1;
    140f:	98 a9 02          	  ldd.w a9 a10 0x8;
    1412:	bc 9f 90          	  add.w a9 a9 a15;
    1415:	b5 9d 02          	  std.w a9 0x8 a13;
    1418:	98 a9 02          	  ldd.w a9 a10 0x8;
    141b:	bc 9f 90          	  add.w a9 a9 a15;
    141e:	b5 9c 03          	  std.w a9 0xc a12;
    1421:	98 a9 02          	  ldd.w a9 a10 0x8;
    1424:	bc 9f 90          	  add.w a9 a9 a15;
    1427:	b4 f0 05          	  lddsp.w a15 0x14;
    142a:	b5 9f 04          	  std.w a9 0x10 a15;
    142d:	98 a9 01          	  ldd.w a9 a10 0x4;
    1430:	fd 9e 05          	  or a9 a14;
    1433:	b5 a9 01          	  std.w a10 0x4 a9;
    1436:	3e 54 14 00       	  jmp 0x1454;
    143a:	bc f9 90          	  add.w a9 a15 a9;
    143d:	bc e9 90          	  add.w a9 a14 a9;
    1440:	b5 9c 03          	  std.w a9 0xc a12;
    1443:	98 af 01          	  ldd.w a15 a10 0x4;
    1446:	09 01             	  mvi a9 0x1;
    1448:	bb 9b 04          	  lsl.w a9 a11;
    144b:	b9 99 00          	  cpl.w a9 a9;
    144e:	fd f9 04          	  and a15 a9;
    1451:	b5 af 01          	  std.w a10 0x4 a15;
    1454:	32 ba             	  mv.b a10 a11;
    1456:	fb 21             	  popm a2 0x1;

00001458 <__osTimerGetEntryDelay>:
    1458:	f9 02             	  pushm a0;
    145a:	b2 a0             	  mv.w a0 a10;
    145c:	7e 02 01 00       	  call 0x102;
    1460:	98 09 01          	  ldd.w a9 a0 0x4;
    1463:	98 0f 02          	  ldd.w a15 a0 0x8;
    1466:	bc f9 90          	  add.w a9 a15 a9;
    1469:	bc 9a a2          	  sub.w a10 a9 a10;
    146c:	a6 af             	  cmp.w a10 a15;
    146e:	f4 0d 05          	  brlte 0x1473;
    1471:	bd a4             	  clr.w a10;
    1473:	fb 01             	  popm a0 0x1;

00001475 <_osTimerGetNextDelay>:
    1475:	f9 32             	  pushm a3;
    1477:	b2 a3             	  mv.w a3 a10;
    1479:	02 ff             	  mvi a2 -0x1;
    147b:	98 a0 01          	  ldd.w a0 a10 0x4;
    147e:	3d 14             	  clr.b a1;
    1480:	3e ad 14 00       	  jmp 0x14ad;
    1484:	c4 09 01          	  and a9 a0 0x1;
    1487:	f4 0b 20          	  breq 0x14a7;
    148a:	98 39 02          	  ldd.w a9 a3 0x8;
    148d:	c4 1a ff          	  and a10 a1 0xff;
    1490:	94 af 04          	  lsl.w a15 a10 0x4;
    1493:	b6 a4 02          	  lsl.w a10 0x2;
    1496:	bc af a0          	  add.w a10 a10 a15;
    1499:	bc 9a a0          	  add.w a10 a9 a10;
    149c:	7e 58 14 00       	  call 0x1458;
    14a0:	a6 2a             	  cmp.w a2 a10;
    14a2:	f4 0d 05          	  brlte 0x14a7;
    14a5:	b2 a2             	  mv.w a2 a10;
    14a7:	10 11 01          	  add.b a1 a1 0x1;
    14aa:	b6 05 01          	  lsr.w a0 0x1;
    14ad:	b3 04 00 d7       	  cmpbrne.w a0 0x0 0x1484;
    14b1:	b2 2a             	  mv.w a10 a2;
    14b3:	fb 31             	  popm a3 0x1;

000014b5 <_osTimerCallExpiredCallbacks>:
    14b5:	f9 82             	  pushm a8;
    14b7:	b2 a5             	  mv.w a5 a10;
    14b9:	3d 64             	  clr.b a6;
    14bb:	98 a4 01          	  ldd.w a4 a10 0x4;
    14be:	08 01             	  mvi a8 0x1;
    14c0:	3e 7a 15 00       	  jmp 0x157a;
    14c4:	c4 49 01          	  and a9 a4 0x1;
    14c7:	f5 0b ad 00       	  breq 0x1574;
    14cb:	98 53 02          	  ldd.w a3 a5 0x8;
    14ce:	c4 61 ff          	  and a1 a6 0xff;
    14d1:	94 19 02          	  lsl.w a9 a1 0x2;
    14d4:	94 1f 04          	  lsl.w a15 a1 0x4;
    14d7:	bc 9f 20          	  add.w a2 a9 a15;
    14da:	bc 32 00          	  add.w a0 a3 a2;
    14dd:	b2 0a             	  mv.w a10 a0;
    14df:	7e 58 14 00       	  call 0x1458;
    14e3:	b3 ad 00 91 00    	  cmpbrne.w a10 0x0 0x1574;
    14e8:	98 09 01          	  ldd.w a9 a0 0x4;
    14eb:	98 0f 02          	  ldd.w a15 a0 0x8;
    14ee:	bc f9 70          	  add.w a7 a15 a9;
    14f1:	b5 07 01          	  std.w a0 0x4 a7;
    14f4:	3c 32 98          	  ldd.b a9 a3 a2;
    14f7:	f0 94 03          	  and a9 0x3;
    14fa:	b3 94 02 26       	  cmpbrne.w a9 0x2 0x1520;
    14fe:	7e 02 01 00       	  call 0x102;
    1502:	98 09 01          	  ldd.w a9 a0 0x4;
    1505:	98 0f 02          	  ldd.w a15 a0 0x8;
    1508:	bc a9 c2          	  sub.w a12 a10 a9;
    150b:	a6 cf             	  cmp.w a12 a15;
    150d:	f4 08 2c          	  brc 0x1539;
    1510:	ff cf 9d          	  umod a9 a12 a15;
    1513:	ff cf 1c          	  udiv a1 a12 a15;
    1516:	bc a9 92          	  sub.w a9 a10 a9;
    1519:	b5 09 01          	  std.w a0 0x4 a9;
    151c:	3e 3b 15 00       	  jmp 0x153b;
    1520:	b3 94 00 19       	  cmpbrne.w a9 0x0 0x1539;
    1524:	98 5f 01          	  ldd.w a15 a5 0x4;
    1527:	bc 81 94          	  lsl.w a9 a8 a1;
    152a:	bd 14             	  clr.w a1;
    152c:	b9 99 00          	  cpl.w a9 a9;
    152f:	fd f9 04          	  and a15 a9;
    1532:	b5 5f 01          	  std.w a5 0x4 a15;
    1535:	3e 3b 15 00       	  jmp 0x153b;
    1539:	bd 14             	  clr.w a1;
    153b:	98 09 03          	  ldd.w a9 a0 0xc;
    153e:	b3 90 00 36       	  cmpbreq.w a9 0x0 0x1574;
    1542:	18 0b 01          	  ldd.b a11 a0 0x1;
    1545:	33 b0 00 12       	  cmpbreq.b a11 0x0 0x1557;
    1549:	bd a4             	  clr.w a10;
    154b:	3d c4             	  clr.b a12;
    154d:	3d d4             	  clr.b a13;
    154f:	7e cc 11 00       	  call 0x11cc;
    1553:	7e 0e 00 00       	  call 0xe;
    1557:	98 09 03          	  ldd.w a9 a0 0xc;
    155a:	98 0a 04          	  ldd.w a10 a0 0x10;
    155d:	b2 7b             	  mv.w a11 a7;
    155f:	b2 1c             	  mv.w a12 a1;
    1561:	f9 95             	  call a9;
    1563:	18 0b 01          	  ldd.b a11 a0 0x1;
    1566:	33 b0 00 0e       	  cmpbreq.b a11 0x0 0x1574;
    156a:	bd a4             	  clr.w a10;
    156c:	3d c4             	  clr.b a12;
    156e:	3d d4             	  clr.b a13;
    1570:	7e 2c 12 00       	  call 0x122c;
    1574:	10 66 01          	  add.b a6 a6 0x1;
    1577:	b6 45 01          	  lsr.w a4 0x1;
    157a:	b3 4d 00 4a ff    	  cmpbrne.w a4 0x0 0x14c4;
    157f:	fb 81             	  popm a8 0x1;

00001581 <_osPTimerTimeNsLwrrentGet_IMPL>:
    1581:	4d 00 0c          	  mvi a13 0xc00;
    1584:	4c 00 0b          	  mvi a12 0xb00;
    1587:	cf df 00          	  ldx a15 a13 0x0;
    158a:	cf ce 00          	  ldx a14 a12 0x0;
    158d:	cf d9 00          	  ldx a9 a13 0x0;
    1590:	a6 f9             	  cmp.w a15 a9;
    1592:	f4 1b f5          	  brne 0x1587;
    1595:	a0 ae             	  std.w a10 a14;
    1597:	b5 af 01          	  std.w a10 0x4 a15;
    159a:	f8 00             	  ret;

0000159c <_osPTimerTimeNsElapsedGet>:
    159c:	49 00 0b          	  mvi a9 0xb00;
    159f:	cf 99 00          	  ldx a9 a9 0x0;
    15a2:	bf aa             	  ldd.w a10 a10;
    15a4:	bc 9a a2          	  sub.w a10 a9 a10;
    15a7:	f8 00             	  ret;

000015a9 <_osPTimerCondSpinWaitNs_IMPL>:
    15a9:	f9 42             	  pushm a4;
    15ab:	b2 a0             	  mv.w a0 a10;
    15ad:	b2 b3             	  mv.w a3 a11;
    15af:	b2 c1             	  mv.w a1 a12;
    15b1:	b3 c0 00 29       	  cmpbreq.w a12 0x0 0x15da;
    15b5:	49 00 0b          	  mvi a9 0xb00;
    15b8:	cf 92 00          	  ldx a2 a9 0x0;
    15bb:	b2 94             	  mv.w a4 a9;
    15bd:	b3 00 00 12       	  cmpbreq.w a0 0x0 0x15cf;
    15c1:	b2 3a             	  mv.w a10 a3;
    15c3:	f9 05             	  call a0;
    15c5:	33 a0 00 0a       	  cmpbreq.b a10 0x0 0x15cf;
    15c9:	0a 01             	  mvi a10 0x1;
    15cb:	3e e8 15 00       	  jmp 0x15e8;
    15cf:	cf 49 00          	  ldx a9 a4 0x0;
    15d2:	bb 92 02          	  sub.w a9 a2;
    15d5:	a6 91             	  cmp.w a9 a1;
    15d7:	f4 08 e6          	  brc 0x15bd;
    15da:	b3 04 00 0a       	  cmpbrne.w a0 0x0 0x15e4;
    15de:	3d a4             	  clr.b a10;
    15e0:	3e e8 15 00       	  jmp 0x15e8;
    15e4:	b2 3a             	  mv.w a10 a3;
    15e6:	f9 05             	  call a0;
    15e8:	fb 41             	  popm a4 0x1;

000015ea <_handler_constants_init>:
    15ea:	00 00             	  mvi a0 0x0;
    15ec:	41 00 4e          	  mvi a1 0x4e00;
    15ef:	d2 a0 05 00 00    	  mvi a2 0x5a0;
    15f4:	f8 00             	  ret;

000015f6 <_handler_context_save>:
    15f6:	fc 90             	  pop a9;
    15f8:	7e ea 15 00       	  call 0x15ea;
    15fc:	fe 88 01          	  rspr a8 CSW;
    15ff:	f9 80             	  push a8;
    1601:	98 28 00          	  ldd.w a8 a2 0x0;
    1604:	f9 80             	  push a8;
    1606:	d8 b4 0f 00 00    	  mvi a8 0xfb4;
    160b:	98 88 00          	  ldd.w a8 a8 0x0;
    160e:	fe 47 01          	  rspr a7 SP;
    1611:	a0 87             	  std.w a8 a7;
    1613:	bd 70             	  cpl.w a7;
    1615:	b5 87 03          	  std.w a8 0xc a7;
    1618:	f7 10 00          	  stxb a1 0x0 a0;
    161b:	fe a4 00          	  wspr SP a10;
    161e:	b6 b7 02          	  asr.w a11 0x2;
    1621:	f0 b9 1f          	  setb a11 0x1f;
    1624:	f7 1b 00          	  stxb a1 0x0 a11;
    1627:	f9 90             	  push a9;
    1629:	f8 00             	  ret;

0000162b <__restore_ctx>:
    162b:	7e ea 15 00       	  call 0x15ea;
    162f:	3e 47 16 00       	  jmp 0x1647;

00001633 <_IV0_routine>:
    1633:	f9 f2             	  pushm a15;
    1635:	da 50 36 00 00    	  mvi a10 0x3650;
    163a:	db 50 34 00 00    	  mvi a11 0x3450;
    163f:	7e f6 15 00       	  call 0x15f6;
    1643:	7e 68 0b 00       	  call 0xb68;

00001647 <__restore_ctx_full>:
    1647:	f7 10 00          	  stxb a1 0x0 a0;
    164a:	d8 b4 0f 00 00    	  mvi a8 0xfb4;
    164f:	98 88 00          	  ldd.w a8 a8 0x0;
    1652:	98 87 00          	  ldd.w a7 a8 0x0;
    1655:	fe 74 00          	  wspr SP a7;
    1658:	98 87 02          	  ldd.w a7 a8 0x8;
    165b:	b6 77 02          	  asr.w a7 0x2;
    165e:	f0 79 1f          	  setb a7 0x1f;
    1661:	f7 17 00          	  stxb a1 0x0 a7;
    1664:	fc 80             	  pop a8;
    1666:	a0 28             	  std.w a2 a8;
    1668:	fc 80             	  pop a8;
    166a:	fe 88 00          	  wspr CSW a8;
    166d:	fb f0             	  popm a15 0x0;
    166f:	f8 01             	  reti;

00001671 <_IV1_routine>:
    1671:	f9 f2             	  pushm a15;
    1673:	da 50 36 00 00    	  mvi a10 0x3650;
    1678:	db 50 34 00 00    	  mvi a11 0x3450;
    167d:	7e f6 15 00       	  call 0x15f6;
    1681:	7e 2e 0b 00       	  call 0xb2e;
    1685:	3e 47 16 00       	  jmp 0x1647;

00001689 <_EV_routine>:
    1689:	f4 32 18          	  sclrb 0x18;
    168c:	f9 f2             	  pushm a15;
    168e:	da 50 34 00 00    	  mvi a10 0x3450;
    1693:	db 50 32 00 00    	  mvi a11 0x3250;
    1698:	7e f6 15 00       	  call 0x15f6;
    169c:	7e 20 0b 00       	  call 0xb20;
    16a0:	3e 47 16 00       	  jmp 0x1647;

000016a4 <_EV_preinit_routine>:
    16a4:	f4 32 18          	  sclrb 0x18;
    16a7:	f9 f2             	  pushm a15;
    16a9:	fe 88 01          	  rspr a8 CSW;
    16ac:	f9 80             	  push a8;
    16ae:	7e 3b 40 00       	  call 0x403b;
    16b2:	fc 80             	  pop a8;
    16b4:	fe 88 00          	  wspr CSW a8;
    16b7:	fb f0             	  popm a15 0x0;
    16b9:	f8 01             	  reti;

000016bb <___Div>:
    16bb:	b2 a9             	  mv.w a9 a10;
    16bd:	b2 af             	  mv.w a15 a10;
    16bf:	b0 a6 00          	  cmp.w a10 0x0;
    16c2:	f4 1e 2b          	  brslt 0x16ed;
    16c5:	b2 ba             	  mv.w a10 a11;
    16c7:	b0 b6 00          	  cmp.w a11 0x0;
    16ca:	f4 1e 13          	  brslt 0x16dd;
    16cd:	ff fa ac          	  udiv a10 a15 a10;
    16d0:	ff b9 96          	  xor a9 a11 a9;
    16d3:	f4 1e 05          	  brslt 0x16d8;
    16d6:	f8 00             	  ret;
    16d8:	b9 aa 01          	  neg.w a10 a10;
    16db:	f8 00             	  ret;
    16dd:	b9 ba 01          	  neg.w a10 a11;
    16e0:	ff fa ac          	  udiv a10 a15 a10;
    16e3:	ff b9 96          	  xor a9 a11 a9;
    16e6:	f4 1f f0          	  brsgte 0x16d6;
    16e9:	3e d8 16 00       	  jmp 0x16d8;
    16ed:	b9 af 01          	  neg.w a15 a10;
    16f0:	b2 ba             	  mv.w a10 a11;
    16f2:	b0 b6 00          	  cmp.w a11 0x0;
    16f5:	f4 1f d8          	  brsgte 0x16cd;
    16f8:	3e dd 16 00       	  jmp 0x16dd;

000016fc <___Mul>:
    16fc:	ff ab e0          	  mulu a14 a10 a11;
    16ff:	95 a9 10          	  lsr.w a9 a10 0x10;
    1702:	95 bf 10          	  lsr.w a15 a11 0x10;
    1705:	fd b9 01          	  muls a11 a9;
    1708:	fd af 01          	  muls a10 a15;
    170b:	bb ab 00          	  add.w a10 a11;
    170e:	b6 a4 10          	  lsl.w a10 0x10;
    1711:	bb ae 00          	  add.w a10 a14;
    1714:	f8 00             	  ret;

00001716 <_main>:
    1716:	df 2c 06 00 00    	  mvi a15 0x62c;
    171b:	f4 30 fc          	  addsp -0x4;
    171e:	f9 62             	  pushm a6;
    1720:	bf fe             	  ldd.w a14 a15;
    1722:	bf ff             	  ldd.w a15 a15;
    1724:	fe 49 01          	  rspr a9 SP;
    1727:	90 99 1c          	  add.w a9 a9 0x1c;
    172a:	a0 9e             	  std.w a9 a14;
    172c:	d9 30 06 00 00    	  mvi a9 0x630;
    1731:	a0 9f             	  std.w a9 a15;
    1733:	bd f4             	  clr.w a15;
    1735:	89 00 01 01       	  mvi a9 0x10100;
    1739:	f6 9f 00          	  stx a9 0x0 a15;
    173c:	4f ff 7f          	  mvi a15 0x7fff;
    173f:	b8 99 00 3f 00    	  add.w a9 a9 0x3f00;
    1744:	f6 9f 00          	  stx a9 0x0 a15;
    1747:	df 00 00 ff 03    	  mvi a15 0x3ff0000;
    174c:	b8 99 00 01 00    	  add.w a9 a9 0x100;
    1751:	f6 9f 00          	  stx a9 0x0 a15;
    1754:	8f 80 ff 00       	  mvi a15 0xff80;
    1758:	b8 99 00 0a 00    	  add.w a9 a9 0xa00;
    175d:	f6 9f 00          	  stx a9 0x0 a15;
    1760:	4f 00 10          	  mvi a15 0x1000;
    1763:	b8 99 00 4a 02    	  sub.w a9 a9 0x4a00;
    1768:	f6 9f 00          	  stx a9 0x0 a15;
    176b:	d6 00 00 00 40    	  mvi a6 0x40000000;
    1770:	85 00 1c 01       	  mvi a5 0x11c00;
    1774:	d0 40 06 00 00    	  mvi a0 0x640;
    1779:	84 00 02 01       	  mvi a4 0x10200;
    177d:	83 00 00 10       	  mvi a3 0x100000;
    1781:	d2 a0 aa ef be    	  mvi a2 -0x41105560;
    1786:	01 fd             	  mvi a1 -0x3;
    1788:	0a 08             	  mvi a10 0x8;
    178a:	7e 22 1c 00       	  call 0x1c22;
    178e:	fd a6 04          	  and a10 a6;
    1791:	f5 0b 28 00       	  breq 0x17b9;
    1795:	cf 49 00          	  ldx a9 a4 0x0;
    1798:	fd 93 04          	  and a9 a3;
    179b:	f5 0b 1e 00       	  breq 0x17b9;
    179f:	de 40 06 00 00    	  mvi a14 0x640;
    17a4:	bd f4             	  clr.w a15;
    17a6:	ff f2 95          	  or a9 a15 a2;
    17a9:	a0 e9             	  std.w a14 a9;
    17ab:	90 ff 01          	  add.w a15 a15 0x1;
    17ae:	90 ee 04          	  add.w a14 a14 0x4;
    17b1:	b3 f4 04 f5       	  cmpbrne.w a15 0x4 0x17a6;
    17b5:	3e f0 17 00       	  jmp 0x17f0;
    17b9:	cf 59 00          	  ldx a9 a5 0x0;
    17bc:	f0 94 01          	  and a9 0x1;
    17bf:	f4 1b fa          	  brne 0x17b9;
    17c2:	f4 3c 1f          	  cci 0x1f;
    17c5:	b2 09             	  mv.w a9 a0;
    17c7:	f0 93 05          	  sethi a9 0x5;
    17ca:	fa 99 06          	  dmwrite a9 a9;
    17cd:	f8 03             	  dmwait;
    17cf:	f5 3c 04 90       	  cci 0x9004;
    17d3:	f5 3c 03 90       	  cci 0x9003;
    17d7:	f5 3c 54 ac       	  cci 0xac54;
    17db:	f5 3c 04 c4       	  cci 0xc404;
    17df:	f5 3c 33 d0       	  cci 0xd033;
    17e3:	b2 09             	  mv.w a9 a0;
    17e5:	f0 93 03          	  sethi a9 0x3;
    17e8:	fa 99 05          	  dmread a9 a9;
    17eb:	f8 03             	  dmwait;
    17ed:	f4 3c 00          	  cci 0x0;
    17f0:	bf 0e             	  ldd.w a14 a0;
    17f2:	92 e9 01          	  sub.w a9 a14 0x1;
    17f5:	a6 91             	  cmp.w a9 a1;
    17f7:	f4 0d 25          	  brlte 0x181c;
    17fa:	98 0e 01          	  ldd.w a14 a0 0x4;
    17fd:	92 e9 01          	  sub.w a9 a14 0x1;
    1800:	a6 91             	  cmp.w a9 a1;
    1802:	f4 0d 1a          	  brlte 0x181c;
    1805:	98 0e 02          	  ldd.w a14 a0 0x8;
    1808:	92 e9 01          	  sub.w a9 a14 0x1;
    180b:	a6 91             	  cmp.w a9 a1;
    180d:	f4 0d 0f          	  brlte 0x181c;
    1810:	98 0e 03          	  ldd.w a14 a0 0xc;
    1813:	92 e9 01          	  sub.w a9 a14 0x1;
    1816:	a6 91             	  cmp.w a9 a1;
    1818:	f5 0c 70 ff       	  brgt 0x1788;
    181c:	df 40 06 00 00    	  mvi a15 0x640;
    1821:	bd 94             	  clr.w a9;
    1823:	d0 2c 06 00 00    	  mvi a0 0x62c;
    1828:	b5 f9 03          	  std.w a15 0xc a9;
    182b:	a0 f9             	  std.w a15 a9;
    182d:	b5 f9 01          	  std.w a15 0x4 a9;
    1830:	b5 f9 02          	  std.w a15 0x8 a9;
    1833:	a0 0e             	  std.w a0 a14;
    1835:	7e 9a 58 00       	  call 0x589a;
    1839:	d9 30 06 00 00    	  mvi a9 0x630;
    183e:	bf 99             	  ldd.w a9 a9;
    1840:	bd a4             	  clr.w a10;
    1842:	a0 09             	  std.w a0 a9;
    1844:	fe 49 01          	  rspr a9 SP;
    1847:	90 99 1c          	  add.w a9 a9 0x1c;
    184a:	bf 9f             	  ldd.w a15 a9;
    184c:	bf 09             	  ldd.w a9 a0;
    184e:	a6 f9             	  cmp.w a15 a9;
    1850:	f4 0b 07          	  breq 0x1857;
    1853:	7e e9 42 00       	  call 0x42e9;
    1857:	fb 65 04          	  popma a6 0x1 0x4;

0000185a <_lwrtosHookIV0Handler>:
    185a:	f4 30 fc          	  addsp -0x4;
    185d:	f9 12             	  pushm a1;
    185f:	d1 2c 06 00 00    	  mvi a1 0x62c;
    1864:	bf 19             	  ldd.w a9 a1;
    1866:	fe 40 01          	  rspr a0 SP;
    1869:	90 00 08          	  add.w a0 a0 0x8;
    186c:	a0 09             	  std.w a0 a9;
    186e:	7e cf 19 00       	  call 0x19cf;
    1872:	bf 0f             	  ldd.w a15 a0;
    1874:	bf 19             	  ldd.w a9 a1;
    1876:	f0 a4 ff          	  and a10 0xff;
    1879:	a6 f9             	  cmp.w a15 a9;
    187b:	f4 0b 07          	  breq 0x1882;
    187e:	7e e9 42 00       	  call 0x42e9;
    1882:	fb 15 04          	  popma a1 0x1 0x4;

00001885 <_lwrtosHookIdle>:
    1885:	df 2c 06 00 00    	  mvi a15 0x62c;
    188a:	bf ff             	  ldd.w a15 a15;
    188c:	f4 30 fc          	  addsp -0x4;
    188f:	fe 49 01          	  rspr a9 SP;
    1892:	a0 9f             	  std.w a9 a15;
    1894:	f4 31 00          	  ssetb 0x0;
    1897:	f4 28 00          	  wait 0x0;
    189a:	fe 49 01          	  rspr a9 SP;
    189d:	bf 9f             	  ldd.w a15 a9;
    189f:	d9 2c 06 00 00    	  mvi a9 0x62c;
    18a4:	bf 99             	  ldd.w a9 a9;
    18a6:	a6 f9             	  cmp.w a15 a9;
    18a8:	f4 0b 07          	  breq 0x18af;
    18ab:	7e e9 42 00       	  call 0x42e9;
    18af:	f4 30 04          	  addsp 0x4;
    18b2:	f8 00             	  ret;

000018b4 <_lwrtosHookError>:
    18b4:	de 2c 06 00 00    	  mvi a14 0x62c;
    18b9:	bf ef             	  ldd.w a15 a14;
    18bb:	f4 30 fc          	  addsp -0x4;
    18be:	fe 49 01          	  rspr a9 SP;
    18c1:	a0 9f             	  std.w a9 a15;
    18c3:	f8 02             	  halt;
    18c5:	bf 9f             	  ldd.w a15 a9;
    18c7:	bf e9             	  ldd.w a9 a14;
    18c9:	a6 f9             	  cmp.w a15 a9;
    18cb:	f4 0b 07          	  breq 0x18d2;
    18ce:	7e e9 42 00       	  call 0x42e9;
    18d2:	f4 30 04          	  addsp 0x4;
    18d5:	f8 00             	  ret;

000018d7 <_vApplicationIsDmaIdxPermitted>:
    18d7:	f4 30 fc          	  addsp -0x4;
    18da:	f9 12             	  pushm a1;
    18dc:	d1 2c 06 00 00    	  mvi a1 0x62c;
    18e1:	bf 19             	  ldd.w a9 a1;
    18e3:	fe 40 01          	  rspr a0 SP;
    18e6:	90 00 08          	  add.w a0 a0 0x8;
    18e9:	a0 09             	  std.w a0 a9;
    18eb:	7e 81 1a 00       	  call 0x1a81;
    18ef:	bf 0f             	  ldd.w a15 a0;
    18f1:	bf 19             	  ldd.w a9 a1;
    18f3:	a6 f9             	  cmp.w a15 a9;
    18f5:	f4 0b 07          	  breq 0x18fc;
    18f8:	7e e9 42 00       	  call 0x42e9;
    18fc:	fb 15 04          	  popma a1 0x1 0x4;

000018ff <_vApplicationFlcnPrivLevelReset>:
    18ff:	d9 38 14 00 00    	  mvi a9 0x1438;
    1904:	f4 30 fc          	  addsp -0x4;
    1907:	f9 12             	  pushm a1;
    1909:	d1 2c 06 00 00    	  mvi a1 0x62c;
    190e:	18 9b 0d          	  ldd.b a11 a9 0xd;
    1911:	18 9a 0c          	  ldd.b a10 a9 0xc;
    1914:	bf 19             	  ldd.w a9 a1;
    1916:	fe 40 01          	  rspr a0 SP;
    1919:	90 00 08          	  add.w a0 a0 0x8;
    191c:	a0 09             	  std.w a0 a9;
    191e:	7e e6 1b 00       	  call 0x1be6;
    1922:	bf 0f             	  ldd.w a15 a0;
    1924:	bf 19             	  ldd.w a9 a1;
    1926:	a6 f9             	  cmp.w a15 a9;
    1928:	f4 0b 07          	  breq 0x192f;
    192b:	7e e9 42 00       	  call 0x42e9;
    192f:	fb 15 04          	  popma a1 0x1 0x4;

00001932 <_vApplicationFlcnPrivLevelSet>:
    1932:	f4 30 fc          	  addsp -0x4;
    1935:	f9 12             	  pushm a1;
    1937:	d1 2c 06 00 00    	  mvi a1 0x62c;
    193c:	bf 19             	  ldd.w a9 a1;
    193e:	fe 40 01          	  rspr a0 SP;
    1941:	90 00 08          	  add.w a0 a0 0x8;
    1944:	a0 09             	  std.w a0 a9;
    1946:	7e e6 1b 00       	  call 0x1be6;
    194a:	bf 0f             	  ldd.w a15 a0;
    194c:	bf 19             	  ldd.w a9 a1;
    194e:	a6 f9             	  cmp.w a15 a9;
    1950:	f4 0b 07          	  breq 0x1957;
    1953:	7e e9 42 00       	  call 0x42e9;
    1957:	fb 15 04          	  popma a1 0x1 0x4;

0000195a <_vApplicationDmaNackCheckAndClear>:
    195a:	f4 30 fc          	  addsp -0x4;
    195d:	f9 12             	  pushm a1;
    195f:	d1 2c 06 00 00    	  mvi a1 0x62c;
    1964:	bf 19             	  ldd.w a9 a1;
    1966:	fe 40 01          	  rspr a0 SP;
    1969:	90 00 08          	  add.w a0 a0 0x8;
    196c:	a0 09             	  std.w a0 a9;
    196e:	7e 51 1b 00       	  call 0x1b51;
    1972:	bf 0f             	  ldd.w a15 a0;
    1974:	bf 19             	  ldd.w a9 a1;
    1976:	a6 f9             	  cmp.w a15 a9;
    1978:	f4 0b 07          	  breq 0x197f;
    197b:	7e e9 42 00       	  call 0x42e9;
    197f:	fb 15 04          	  popma a1 0x1 0x4;

00001982 <_icRouteGinSaw_LR10>:
    1982:	df 2c 06 00 00    	  mvi a15 0x62c;
    1987:	bf ff             	  ldd.w a15 a15;
    1989:	f4 30 fc          	  addsp -0x4;
    198c:	fe 49 01          	  rspr a9 SP;
    198f:	a0 9f             	  std.w a9 a15;
    1991:	89 00 14 02       	  mvi a9 0x21400;
    1995:	cf 99 00          	  ldx a9 a9 0x0;
    1998:	f0 94 01          	  and a9 0x1;
    199b:	f4 0b 18          	  breq 0x19b3;
    199e:	7e 1f 47 00       	  call 0x471f;
    19a2:	8f 00 13 02       	  mvi a15 0x21300;
    19a6:	ce f9 00          	  ldxb a9 a15 0x0;
    19a9:	f0 95 01          	  or a9 0x1;
    19ac:	f7 f9 00          	  stxb a15 0x0 a9;
    19af:	3e b5 19 00       	  jmp 0x19b5;
    19b3:	f8 02             	  halt;
    19b5:	fe 49 01          	  rspr a9 SP;
    19b8:	bf 9f             	  ldd.w a15 a9;
    19ba:	d9 2c 06 00 00    	  mvi a9 0x62c;
    19bf:	bf 99             	  ldd.w a9 a9;
    19c1:	a6 f9             	  cmp.w a15 a9;
    19c3:	f4 0b 07          	  breq 0x19ca;
    19c6:	7e e9 42 00       	  call 0x42e9;
    19ca:	f4 30 04          	  addsp 0x4;
    19cd:	f8 00             	  ret;

000019cf <_icService_LR10>:
    19cf:	f4 30 f8          	  addsp -0x8;
    19d2:	df 2c 06 00 00    	  mvi a15 0x62c;
    19d7:	f9 02             	  pushm a0;
    19d9:	bf ff             	  ldd.w a15 a15;
    19db:	fe 49 01          	  rspr a9 SP;
    19de:	90 99 08          	  add.w a9 a9 0x8;
    19e1:	a0 9f             	  std.w a9 a15;
    19e3:	3d f4             	  clr.b a15;
    19e5:	d9 e1 2f 00 00    	  mvi a9 0x2fe1;
    19ea:	20 9f             	  std.b a9 a15;
    19ec:	4f 00 06          	  mvi a15 0x600;
    19ef:	cf ff 00          	  ldx a15 a15 0x0;
    19f2:	4e 00 07          	  mvi a14 0x700;
    19f5:	cf ee 00          	  ldx a14 a14 0x0;
    19f8:	49 00 02          	  mvi a9 0x200;
    19fb:	cf 99 00          	  ldx a9 a9 0x0;
    19fe:	fd 9f 04          	  and a9 a15;
    1a01:	95 ef 10          	  lsr.w a15 a14 0x10;
    1a04:	b9 ee 00          	  cpl.w a14 a14;
    1a07:	fd 9e 04          	  and a9 a14;
    1a0a:	b9 ff 00          	  cpl.w a15 a15;
    1a0d:	ff 9f 04          	  and a0 a9 a15;
    1a10:	c4 09 01          	  and a9 a0 0x1;
    1a13:	f4 0b 07          	  breq 0x1a1a;
    1a16:	7e 5e 44 00       	  call 0x445e;
    1a1a:	e4 09 00 10       	  and a9 a0 0x1000;
    1a1e:	f4 0b 2f          	  breq 0x1a4d;
    1a21:	0f 01             	  mvi a15 0x1;
    1a23:	fe 49 01          	  rspr a9 SP;
    1a26:	8e 00 89 02       	  mvi a14 0x28900;
    1a2a:	90 99 07          	  add.w a9 a9 0x7;
    1a2d:	20 9f             	  std.b a9 a15;
    1a2f:	ce e9 00          	  ldxb a9 a14 0x0;
    1a32:	0f fe             	  mvi a15 -0x2;
    1a34:	fd 9f 04          	  and a9 a15;
    1a37:	f7 e9 00          	  stxb a14 0x0 a9;
    1a3a:	d9 08 14 00 00    	  mvi a9 0x1408;
    1a3f:	bf 9a             	  ldd.w a10 a9;
    1a41:	fe 4b 01          	  rspr a11 SP;
    1a44:	0c 01             	  mvi a12 0x1;
    1a46:	90 bb 07          	  add.w a11 a11 0x7;
    1a49:	7e 6e 00 00       	  call 0x6e;
    1a4d:	e4 09 00 80       	  and a9 a0 0x8000;
    1a51:	73 90 00 08       	  cmpbreq.h a9 0x0 0x1a59;
    1a55:	7e 82 19 00       	  call 0x1982;
    1a59:	49 00 01          	  mvi a9 0x100;
    1a5c:	f7 90 00          	  stxb a9 0x0 a0;
    1a5f:	fe 49 01          	  rspr a9 SP;
    1a62:	90 99 08          	  add.w a9 a9 0x8;
    1a65:	bf 9e             	  ldd.w a14 a9;
    1a67:	d9 2c 06 00 00    	  mvi a9 0x62c;
    1a6c:	bf 9f             	  ldd.w a15 a9;
    1a6e:	d9 e1 2f 00 00    	  mvi a9 0x2fe1;
    1a73:	3f 9a             	  ldd.b a10 a9;
    1a75:	a6 ef             	  cmp.w a14 a15;
    1a77:	f4 0b 07          	  breq 0x1a7e;
    1a7a:	7e e9 42 00       	  call 0x42e9;
    1a7e:	fb 05 08          	  popma a0 0x1 0x8;

00001a81 <_lsfIsDmaIdxPermitted_LR10>:
    1a81:	de 2c 06 00 00    	  mvi a14 0x62c;
    1a86:	bf ef             	  ldd.w a15 a14;
    1a88:	f4 30 fc          	  addsp -0x4;
    1a8b:	fe 49 01          	  rspr a9 SP;
    1a8e:	0a 01             	  mvi a10 0x1;
    1a90:	a0 9f             	  std.w a9 a15;
    1a92:	bf 9f             	  ldd.w a15 a9;
    1a94:	bf e9             	  ldd.w a9 a14;
    1a96:	a6 f9             	  cmp.w a15 a9;
    1a98:	f4 0b 07          	  breq 0x1a9f;
    1a9b:	7e e9 42 00       	  call 0x42e9;
    1a9f:	f4 30 04          	  addsp 0x4;
    1aa2:	f8 00             	  ret;

00001aa4 <_soePollReg32Func>:
    1aa4:	f4 30 fc          	  addsp -0x4;
    1aa7:	df 2c 06 00 00    	  mvi a15 0x62c;
    1aac:	f9 02             	  pushm a0;
    1aae:	bf ff             	  ldd.w a15 a15;
    1ab0:	fe 49 01          	  rspr a9 SP;
    1ab3:	90 99 04          	  add.w a9 a9 0x4;
    1ab6:	b2 a0             	  mv.w a0 a10;
    1ab8:	a0 9f             	  std.w a9 a15;
    1aba:	98 a9 03          	  ldd.w a9 a10 0xc;
    1abd:	f0 94 01          	  and a9 0x1;
    1ac0:	f4 0b 0d          	  breq 0x1acd;
    1ac3:	bf aa             	  ldd.w a10 a10;
    1ac5:	7e 22 1c 00       	  call 0x1c22;
    1ac9:	3e d2 1a 00       	  jmp 0x1ad2;
    1acd:	bf a9             	  ldd.w a9 a10;
    1acf:	cf 9a 00          	  ldx a10 a9 0x0;
    1ad2:	98 0f 03          	  ldd.w a15 a0 0xc;
    1ad5:	98 09 01          	  ldd.w a9 a0 0x4;
    1ad8:	98 0e 02          	  ldd.w a14 a0 0x8;
    1adb:	f0 f4 02          	  and a15 0x2;
    1ade:	ff a9 94          	  and a9 a10 a9;
    1ae1:	a6 9e             	  cmp.w a9 a14;
    1ae3:	f0 9c 0b          	  sgetb a9 0xb;
    1ae6:	32 9a             	  mv.b a10 a9;
    1ae8:	b3 f0 00 0c       	  cmpbreq.w a15 0x0 0x1af4;
    1aec:	30 96 00          	  cmp.b a9 0x0;
    1aef:	f0 9c 0b          	  sgetb a9 0xb;
    1af2:	32 9a             	  mv.b a10 a9;
    1af4:	fe 49 01          	  rspr a9 SP;
    1af7:	90 99 04          	  add.w a9 a9 0x4;
    1afa:	bf 9f             	  ldd.w a15 a9;
    1afc:	d9 2c 06 00 00    	  mvi a9 0x62c;
    1b01:	bf 99             	  ldd.w a9 a9;
    1b03:	a6 f9             	  cmp.w a15 a9;
    1b05:	f4 0b 07          	  breq 0x1b0c;
    1b08:	7e e9 42 00       	  call 0x42e9;
    1b0c:	fb 05 04          	  popma a0 0x1 0x4;

00001b0f <_soePollReg32Ns>:
    1b0f:	f4 30 ec          	  addsp -0x14;
    1b12:	f9 12             	  pushm a1;
    1b14:	fe 49 01          	  rspr a9 SP;
    1b17:	90 99 08          	  add.w a9 a9 0x8;
    1b1a:	d1 2c 06 00 00    	  mvi a1 0x62c;
    1b1f:	a0 9a             	  std.w a9 a10;
    1b21:	b5 9b 01          	  std.w a9 0x4 a11;
    1b24:	b5 9c 02          	  std.w a9 0x8 a12;
    1b27:	b5 9e 03          	  std.w a9 0xc a14;
    1b2a:	b2 9b             	  mv.w a11 a9;
    1b2c:	bf 19             	  ldd.w a9 a1;
    1b2e:	b2 dc             	  mv.w a12 a13;
    1b30:	fe 40 01          	  rspr a0 SP;
    1b33:	da a4 1a 00 00    	  mvi a10 0x1aa4;
    1b38:	90 00 18          	  add.w a0 a0 0x18;
    1b3b:	a0 09             	  std.w a0 a9;
    1b3d:	7e a9 15 00       	  call 0x15a9;
    1b41:	bf 0f             	  ldd.w a15 a0;
    1b43:	bf 19             	  ldd.w a9 a1;
    1b45:	a6 f9             	  cmp.w a15 a9;
    1b47:	f4 0b 07          	  breq 0x1b4e;
    1b4a:	7e e9 42 00       	  call 0x42e9;
    1b4e:	fb 15 14          	  popma a1 0x1 0x14;

00001b51 <_soeDmaNackCheckAndClear_LR10>:
    1b51:	d9 2c 06 00 00    	  mvi a9 0x62c;
    1b56:	bf 99             	  ldd.w a9 a9;
    1b58:	f4 30 fc          	  addsp -0x4;
    1b5b:	8e 00 b8 00       	  mvi a14 0xb800;
    1b5f:	fe 4f 01          	  rspr a15 SP;
    1b62:	a0 f9             	  std.w a15 a9;
    1b64:	cf ef 00          	  ldx a15 a14 0x0;
    1b67:	c4 f9 04          	  and a9 a15 0x4;
    1b6a:	f4 1b 09          	  brne 0x1b73;
    1b6d:	3d a4             	  clr.b a10;
    1b6f:	3e 7b 1b 00       	  jmp 0x1b7b;
    1b73:	c5 f9 04          	  or a9 a15 0x4;
    1b76:	f6 e9 00          	  stx a14 0x0 a9;
    1b79:	0a 01             	  mvi a10 0x1;
    1b7b:	fe 49 01          	  rspr a9 SP;
    1b7e:	bf 9f             	  ldd.w a15 a9;
    1b80:	d9 2c 06 00 00    	  mvi a9 0x62c;
    1b85:	bf 99             	  ldd.w a9 a9;
    1b87:	a6 f9             	  cmp.w a15 a9;
    1b89:	f4 0b 07          	  breq 0x1b90;
    1b8c:	7e e9 42 00       	  call 0x42e9;
    1b90:	f4 30 04          	  addsp 0x4;
    1b93:	f8 00             	  ret;

00001b95 <_soeLowerPrivLevelMasks_LR10>:
    1b95:	df 2c 06 00 00    	  mvi a15 0x62c;
    1b9a:	bf ff             	  ldd.w a15 a15;
    1b9c:	f4 30 fc          	  addsp -0x4;
    1b9f:	fe 49 01          	  rspr a9 SP;
    1ba2:	a0 9f             	  std.w a9 a15;
    1ba4:	89 00 90 00       	  mvi a9 0x9000;
    1ba8:	ce 99 00          	  ldxb a9 a9 0x0;
    1bab:	f0 94 01          	  and a9 0x1;
    1bae:	f4 0b 1e          	  breq 0x1bcc;
    1bb1:	8f 00 f1 00       	  mvi a15 0xf100;
    1bb5:	ce f9 00          	  ldxb a9 a15 0x0;
    1bb8:	f0 95 10          	  or a9 0x10;
    1bbb:	f7 f9 00          	  stxb a15 0x0 a9;
    1bbe:	b8 ff 00 52 02    	  sub.w a15 a15 0x5200;
    1bc3:	ce f9 00          	  ldxb a9 a15 0x0;
    1bc6:	f0 95 10          	  or a9 0x10;
    1bc9:	f7 f9 00          	  stxb a15 0x0 a9;
    1bcc:	fe 49 01          	  rspr a9 SP;
    1bcf:	bf 9f             	  ldd.w a15 a9;
    1bd1:	d9 2c 06 00 00    	  mvi a9 0x62c;
    1bd6:	bf 99             	  ldd.w a9 a9;
    1bd8:	a6 f9             	  cmp.w a15 a9;
    1bda:	f4 0b 07          	  breq 0x1be1;
    1bdd:	7e e9 42 00       	  call 0x42e9;
    1be1:	f4 30 04          	  addsp 0x4;
    1be4:	f8 00             	  ret;

00001be6 <_soeFlcnPrivLevelSet_LR10>:
    1be6:	df 2c 06 00 00    	  mvi a15 0x62c;
    1beb:	bf ff             	  ldd.w a15 a15;
    1bed:	f4 30 fc          	  addsp -0x4;
    1bf0:	fe 49 01          	  rspr a9 SP;
    1bf3:	f0 b4 03          	  and a11 0x3;
    1bf6:	a0 9f             	  std.w a9 a15;
    1bf8:	f0 a4 03          	  and a10 0x3;
    1bfb:	89 00 94 00       	  mvi a9 0x9400;
    1bff:	b6 a4 02          	  lsl.w a10 0x2;
    1c02:	fd ab 05          	  or a10 a11;
    1c05:	f7 9a 00          	  stxb a9 0x0 a10;
    1c08:	fe 49 01          	  rspr a9 SP;
    1c0b:	bf 9f             	  ldd.w a15 a9;
    1c0d:	d9 2c 06 00 00    	  mvi a9 0x62c;
    1c12:	bf 99             	  ldd.w a9 a9;
    1c14:	a6 f9             	  cmp.w a15 a9;
    1c16:	f4 0b 07          	  breq 0x1c1d;
    1c19:	7e e9 42 00       	  call 0x42e9;
    1c1d:	f4 30 04          	  addsp 0x4;
    1c20:	f8 00             	  ret;

00001c22 <_soeBar0RegRd32_LR10>:
    1c22:	f4 30 fc          	  addsp -0x4;
    1c25:	df 2c 06 00 00    	  mvi a15 0x62c;
    1c2a:	f9 02             	  pushm a0;
    1c2c:	bf ff             	  ldd.w a15 a15;
    1c2e:	fe 49 01          	  rspr a9 SP;
    1c31:	90 99 04          	  add.w a9 a9 0x4;
    1c34:	b2 a0             	  mv.w a0 a10;
    1c36:	a0 9f             	  std.w a9 a15;
    1c38:	7e 74 0a 00       	  call 0xa74;
    1c3c:	8f 00 c0 01       	  mvi a15 0x1c000;
    1c40:	cf f9 00          	  ldx a9 a15 0x0;
    1c43:	c7 99 4c          	  uxtr a9 a9 0x4c;
    1c46:	b3 90 00 47       	  cmpbreq.w a9 0x0 0x1c8d;
    1c4a:	b3 90 01 f6       	  cmpbreq.w a9 0x1 0x1c40;
    1c4e:	f8 02             	  halt;
    1c50:	3e 40 1c 00       	  jmp 0x1c40;
    1c54:	cf f9 00          	  ldx a9 a15 0x0;
    1c57:	c7 99 4c          	  uxtr a9 a9 0x4c;
    1c5a:	b3 90 00 0e       	  cmpbreq.w a9 0x0 0x1c68;
    1c5e:	b3 90 01 f6       	  cmpbreq.w a9 0x1 0x1c54;
    1c62:	f8 02             	  halt;
    1c64:	3e 54 1c 00       	  jmp 0x1c54;
    1c68:	80 00 c2 01       	  mvi a0 0x1c200;
    1c6c:	cf 00 00          	  ldx a0 a0 0x0;
    1c6f:	7e 9b 0a 00       	  call 0xa9b;
    1c73:	fe 49 01          	  rspr a9 SP;
    1c76:	90 99 04          	  add.w a9 a9 0x4;
    1c79:	bf 9f             	  ldd.w a15 a9;
    1c7b:	d9 2c 06 00 00    	  mvi a9 0x62c;
    1c80:	bf 99             	  ldd.w a9 a9;
    1c82:	b2 0a             	  mv.w a10 a0;
    1c84:	a6 f9             	  cmp.w a15 a9;
    1c86:	f4 0b 28          	  breq 0x1cae;
    1c89:	3e aa 1c 00       	  jmp 0x1caa;
    1c8d:	89 00 c1 01       	  mvi a9 0x1c100;
    1c91:	f6 90 00          	  stx a9 0x0 a0;
    1c94:	df f1 00 00 80    	  mvi a15 -0x7fffff0f;
    1c99:	b8 99 00 01 02    	  sub.w a9 a9 0x100;
    1c9e:	f7 9f 00          	  stxb a9 0x0 a15;
    1ca1:	cf 9f 00          	  ldx a15 a9 0x0;
    1ca4:	b2 9f             	  mv.w a15 a9;
    1ca6:	3e 54 1c 00       	  jmp 0x1c54;
    1caa:	7e e9 42 00       	  call 0x42e9;
    1cae:	fb 05 04          	  popma a0 0x1 0x4;

00001cb1 <_soeBar0RegWr32NonPosted_LR10>:
    1cb1:	f4 30 fc          	  addsp -0x4;
    1cb4:	df 2c 06 00 00    	  mvi a15 0x62c;
    1cb9:	f9 12             	  pushm a1;
    1cbb:	bf ff             	  ldd.w a15 a15;
    1cbd:	fe 49 01          	  rspr a9 SP;
    1cc0:	90 99 08          	  add.w a9 a9 0x8;
    1cc3:	b2 a0             	  mv.w a0 a10;
    1cc5:	a0 9f             	  std.w a9 a15;
    1cc7:	b2 b1             	  mv.w a1 a11;
    1cc9:	7e 74 0a 00       	  call 0xa74;
    1ccd:	8f 00 c0 01       	  mvi a15 0x1c000;
    1cd1:	cf f9 00          	  ldx a9 a15 0x0;
    1cd4:	c7 99 4c          	  uxtr a9 a9 0x4c;
    1cd7:	b3 90 00 3e       	  cmpbreq.w a9 0x0 0x1d15;
    1cdb:	b3 90 01 f6       	  cmpbreq.w a9 0x1 0x1cd1;
    1cdf:	f8 02             	  halt;
    1ce1:	3e d1 1c 00       	  jmp 0x1cd1;
    1ce5:	cf f9 00          	  ldx a9 a15 0x0;
    1ce8:	c7 99 4c          	  uxtr a9 a9 0x4c;
    1ceb:	b3 90 00 0e       	  cmpbreq.w a9 0x0 0x1cf9;
    1cef:	b3 90 01 f6       	  cmpbreq.w a9 0x1 0x1ce5;
    1cf3:	f8 02             	  halt;
    1cf5:	3e e5 1c 00       	  jmp 0x1ce5;
    1cf9:	7e 9b 0a 00       	  call 0xa9b;
    1cfd:	fe 49 01          	  rspr a9 SP;
    1d00:	90 99 08          	  add.w a9 a9 0x8;
    1d03:	bf 9f             	  ldd.w a15 a9;
    1d05:	d9 2c 06 00 00    	  mvi a9 0x62c;
    1d0a:	bf 99             	  ldd.w a9 a9;
    1d0c:	a6 f9             	  cmp.w a15 a9;
    1d0e:	f4 0b 30          	  breq 0x1d3e;
    1d11:	3e 3a 1d 00       	  jmp 0x1d3a;
    1d15:	89 00 c1 01       	  mvi a9 0x1c100;
    1d19:	f6 90 00          	  stx a9 0x0 a0;
    1d1c:	b8 99 00 01 00    	  add.w a9 a9 0x100;
    1d21:	f6 91 00          	  stx a9 0x0 a1;
    1d24:	df f2 00 00 80    	  mvi a15 -0x7fffff0e;
    1d29:	b8 99 00 02 02    	  sub.w a9 a9 0x200;
    1d2e:	f6 9f 00          	  stx a9 0x0 a15;
    1d31:	cf 9f 00          	  ldx a15 a9 0x0;
    1d34:	b2 9f             	  mv.w a15 a9;
    1d36:	3e e5 1c 00       	  jmp 0x1ce5;
    1d3a:	7e e9 42 00       	  call 0x42e9;
    1d3e:	fb 15 04          	  popma a1 0x1 0x4;

00001d41 <_soeReadCmdQueueHead_LR10>:
    1d41:	df 2c 06 00 00    	  mvi a15 0x62c;
    1d46:	bf fe             	  ldd.w a14 a15;
    1d48:	f4 30 fc          	  addsp -0x4;
    1d4b:	b8 aa 80 01 00    	  add.w a10 a10 0x180;
    1d50:	fe 49 01          	  rspr a9 SP;
    1d53:	b6 a4 09          	  lsl.w a10 0x9;
    1d56:	a0 9e             	  std.w a9 a14;
    1d58:	cf aa 00          	  ldx a10 a10 0x0;
    1d5b:	bf 9e             	  ldd.w a14 a9;
    1d5d:	bf f9             	  ldd.w a9 a15;
    1d5f:	a6 e9             	  cmp.w a14 a9;
    1d61:	f4 0b 07          	  breq 0x1d68;
    1d64:	7e e9 42 00       	  call 0x42e9;
    1d68:	f4 30 04          	  addsp 0x4;
    1d6b:	f8 00             	  ret;

00001d6d <_soeWriteCmdQueueTail_LR10>:
    1d6d:	df 2c 06 00 00    	  mvi a15 0x62c;
    1d72:	bf ff             	  ldd.w a15 a15;
    1d74:	89 00 01 03       	  mvi a9 0x30100;
    1d78:	f4 30 fc          	  addsp -0x4;
    1d7b:	b6 a4 09          	  lsl.w a10 0x9;
    1d7e:	bc a9 a0          	  add.w a10 a10 a9;
    1d81:	fe 49 01          	  rspr a9 SP;
    1d84:	a0 9f             	  std.w a9 a15;
    1d86:	f6 ab 00          	  stx a10 0x0 a11;
    1d89:	fe 49 01          	  rspr a9 SP;
    1d8c:	bf 9f             	  ldd.w a15 a9;
    1d8e:	d9 2c 06 00 00    	  mvi a9 0x62c;
    1d93:	bf 99             	  ldd.w a9 a9;
    1d95:	a6 f9             	  cmp.w a15 a9;
    1d97:	f4 0b 07          	  breq 0x1d9e;
    1d9a:	7e e9 42 00       	  call 0x42e9;
    1d9e:	f4 30 04          	  addsp 0x4;
    1da1:	f8 00             	  ret;

00001da3 <_soeQueueRmHeadGet_LR10>:
    1da3:	de 2c 06 00 00    	  mvi a14 0x62c;
    1da8:	bf ef             	  ldd.w a15 a14;
    1daa:	f4 30 fc          	  addsp -0x4;
    1dad:	8a 00 20 03       	  mvi a10 0x32000;
    1db1:	fe 49 01          	  rspr a9 SP;
    1db4:	a0 9f             	  std.w a9 a15;
    1db6:	cf aa 00          	  ldx a10 a10 0x0;
    1db9:	bf 9f             	  ldd.w a15 a9;
    1dbb:	bf e9             	  ldd.w a9 a14;
    1dbd:	a6 f9             	  cmp.w a15 a9;
    1dbf:	f4 0b 07          	  breq 0x1dc6;
    1dc2:	7e e9 42 00       	  call 0x42e9;
    1dc6:	f4 30 04          	  addsp 0x4;
    1dc9:	f8 00             	  ret;

00001dcb <_soeQueueRmHeadSet_LR10>:
    1dcb:	df 2c 06 00 00    	  mvi a15 0x62c;
    1dd0:	bf ff             	  ldd.w a15 a15;
    1dd2:	f4 30 fc          	  addsp -0x4;
    1dd5:	fe 49 01          	  rspr a9 SP;
    1dd8:	a0 9f             	  std.w a9 a15;
    1dda:	89 00 20 03       	  mvi a9 0x32000;
    1dde:	f6 9a 00          	  stx a9 0x0 a10;
    1de1:	0f 40             	  mvi a15 0x40;
    1de3:	bd 94             	  clr.w a9;
    1de5:	f6 9f 00          	  stx a9 0x0 a15;
    1de8:	fe 49 01          	  rspr a9 SP;
    1deb:	bf 9f             	  ldd.w a15 a9;
    1ded:	d9 2c 06 00 00    	  mvi a9 0x62c;
    1df2:	bf 99             	  ldd.w a9 a9;
    1df4:	a6 f9             	  cmp.w a15 a9;
    1df6:	f4 0b 07          	  breq 0x1dfd;
    1df9:	7e e9 42 00       	  call 0x42e9;
    1dfd:	f4 30 04          	  addsp 0x4;
    1e00:	f8 00             	  ret;

00001e02 <_soeQueueRmTailGet_LR10>:
    1e02:	de 2c 06 00 00    	  mvi a14 0x62c;
    1e07:	bf ef             	  ldd.w a15 a14;
    1e09:	f4 30 fc          	  addsp -0x4;
    1e0c:	8a 00 21 03       	  mvi a10 0x32100;
    1e10:	fe 49 01          	  rspr a9 SP;
    1e13:	a0 9f             	  std.w a9 a15;
    1e15:	cf aa 00          	  ldx a10 a10 0x0;
    1e18:	bf 9f             	  ldd.w a15 a9;
    1e1a:	bf e9             	  ldd.w a9 a14;
    1e1c:	a6 f9             	  cmp.w a15 a9;
    1e1e:	f4 0b 07          	  breq 0x1e25;
    1e21:	7e e9 42 00       	  call 0x42e9;
    1e25:	f4 30 04          	  addsp 0x4;
    1e28:	f8 00             	  ret;

00001e2a <__soePtopParseEntryLr10>:
    1e2a:	df 2c 06 00 00    	  mvi a15 0x62c;
    1e2f:	bf ff             	  ldd.w a15 a15;
    1e31:	f4 30 fc          	  addsp -0x4;
    1e34:	fe 49 01          	  rspr a9 SP;
    1e37:	a0 9f             	  std.w a9 a15;
    1e39:	95 a9 1f          	  lsr.w a9 a10 0x1f;
    1e3c:	20 c9             	  std.b a12 a9;
    1e3e:	f0 a4 03          	  and a10 0x3;
    1e41:	b3 a0 02 0c       	  cmpbreq.w a10 0x2 0x1e4d;
    1e45:	b3 a0 03 08       	  cmpbreq.w a10 0x3 0x1e4d;
    1e49:	b3 a4 01 0a       	  cmpbrne.w a10 0x1 0x1e53;
    1e4d:	a0 ba             	  std.w a11 a10;
    1e4f:	3e 57 1e 00       	  jmp 0x1e57;
    1e53:	bd 94             	  clr.w a9;
    1e55:	a0 b9             	  std.w a11 a9;
    1e57:	fe 49 01          	  rspr a9 SP;
    1e5a:	bf 9f             	  ldd.w a15 a9;
    1e5c:	d9 2c 06 00 00    	  mvi a9 0x62c;
    1e61:	bf 99             	  ldd.w a9 a9;
    1e63:	a6 f9             	  cmp.w a15 a9;
    1e65:	f4 0b 07          	  breq 0x1e6c;
    1e68:	7e e9 42 00       	  call 0x42e9;
    1e6c:	f4 30 04          	  addsp 0x4;
    1e6f:	f8 00             	  ret;

00001e71 <__soePtopParseEnumLr10>:
    1e71:	de 2c 06 00 00    	  mvi a14 0x62c;
    1e76:	bf e9             	  ldd.w a9 a14;
    1e78:	f4 30 fc          	  addsp -0x4;
    1e7b:	fe 4f 01          	  rspr a15 SP;
    1e7e:	a0 f9             	  std.w a15 a9;
    1e80:	c7 a9 e2          	  uxtr a9 a10 0xe2;
    1e83:	a0 b9             	  std.w a11 a9;
    1e85:	c7 a9 ea          	  uxtr a9 a10 0xea;
    1e88:	a0 c9             	  std.w a12 a9;
    1e8a:	e7 aa 54 01       	  uxtr a10 a10 0x154;
    1e8e:	a0 da             	  std.w a13 a10;
    1e90:	bf ff             	  ldd.w a15 a15;
    1e92:	bf e9             	  ldd.w a9 a14;
    1e94:	a6 f9             	  cmp.w a15 a9;
    1e96:	f4 0b 07          	  breq 0x1e9d;
    1e99:	7e e9 42 00       	  call 0x42e9;
    1e9d:	f4 30 04          	  addsp 0x4;
    1ea0:	f8 00             	  ret;

00001ea2 <__soePtopHandleData1Lr10>:
    1ea2:	df 2c 06 00 00    	  mvi a15 0x62c;
    1ea7:	bf ff             	  ldd.w a15 a15;
    1ea9:	f4 30 fc          	  addsp -0x4;
    1eac:	fe 49 01          	  rspr a9 SP;
    1eaf:	a0 9f             	  std.w a9 a15;
    1eb1:	b3 c4 01 0e       	  cmpbrne.w a12 0x1 0x1ebf;
    1eb5:	e7 a9 82 03       	  uxtr a9 a10 0x382;
    1eb9:	a0 d9             	  std.w a13 a9;
    1ebb:	3e d1 1e 00       	  jmp 0x1ed1;
    1ebf:	e7 a9 16 01       	  uxtr a9 a10 0x116;
    1ec3:	b3 90 00 0e       	  cmpbreq.w a9 0x0 0x1ed1;
    1ec7:	0f 19             	  mvi a15 0x19;
    1ec9:	49 00 11          	  mvi a9 0x1100;
    1ecc:	f7 9f 00          	  stxb a9 0x0 a15;
    1ecf:	f8 02             	  halt;
    1ed1:	fe 49 01          	  rspr a9 SP;
    1ed4:	bf 9f             	  ldd.w a15 a9;
    1ed6:	d9 2c 06 00 00    	  mvi a9 0x62c;
    1edb:	bf 99             	  ldd.w a9 a9;
    1edd:	a6 f9             	  cmp.w a15 a9;
    1edf:	f4 0b 07          	  breq 0x1ee6;
    1ee2:	7e e9 42 00       	  call 0x42e9;
    1ee6:	f4 30 04          	  addsp 0x4;
    1ee9:	f8 00             	  ret;

00001eeb <__soePtopHandleData2Lr10>:
    1eeb:	d9 2c 06 00 00    	  mvi a9 0x62c;
    1ef0:	bf 99             	  ldd.w a9 a9;
    1ef2:	f4 30 fc          	  addsp -0x4;
    1ef5:	fe 4f 01          	  rspr a15 SP;
    1ef8:	a0 f9             	  std.w a15 a9;
    1efa:	e7 a9 e2 02       	  uxtr a9 a10 0x2e2;
    1efe:	c7 aa 9a          	  uxtr a10 a10 0x9a;
    1f01:	b3 a0 06 20       	  cmpbreq.w a10 0x6 0x1f21;
    1f05:	b0 a6 06          	  cmp.w a10 0x6;
    1f08:	f4 0c 0f          	  brgt 0x1f17;
    1f0b:	b3 a0 04 16       	  cmpbreq.w a10 0x4 0x1f21;
    1f0f:	b3 a4 05 25       	  cmpbrne.w a10 0x5 0x1f34;
    1f13:	3e 21 1f 00       	  jmp 0x1f21;
    1f17:	b0 a6 09          	  cmp.w a10 0x9;
    1f1a:	f4 0c 1a          	  brgt 0x1f34;
    1f1d:	3e 2b 1f 00       	  jmp 0x1f2b;
    1f21:	b6 94 02          	  lsl.w a9 0x2;
    1f24:	b5 b9 04          	  std.w a11 0x10 a9;
    1f27:	3e 34 1f 00       	  jmp 0x1f34;
    1f2b:	92 af 02          	  sub.w a15 a10 0x2;
    1f2e:	b6 94 02          	  lsl.w a9 0x2;
    1f31:	bc b9 f9          	  std.w a11 a15 a9;
    1f34:	fe 49 01          	  rspr a9 SP;
    1f37:	bf 9f             	  ldd.w a15 a9;
    1f39:	d9 2c 06 00 00    	  mvi a9 0x62c;
    1f3e:	bf 99             	  ldd.w a9 a9;
    1f40:	a6 f9             	  cmp.w a15 a9;
    1f42:	f4 0b 07          	  breq 0x1f49;
    1f45:	7e e9 42 00       	  call 0x42e9;
    1f49:	f4 30 04          	  addsp 0x4;
    1f4c:	f8 00             	  ret;

00001f4e <__soeNpgParseEntryLr10>:
    1f4e:	df 2c 06 00 00    	  mvi a15 0x62c;
    1f53:	bf ff             	  ldd.w a15 a15;
    1f55:	f4 30 fc          	  addsp -0x4;
    1f58:	fe 49 01          	  rspr a9 SP;
    1f5b:	a0 9f             	  std.w a9 a15;
    1f5d:	95 a9 1f          	  lsr.w a9 a10 0x1f;
    1f60:	20 c9             	  std.b a12 a9;
    1f62:	f0 a4 03          	  and a10 0x3;
    1f65:	b3 a0 02 0c       	  cmpbreq.w a10 0x2 0x1f71;
    1f69:	b3 a0 03 08       	  cmpbreq.w a10 0x3 0x1f71;
    1f6d:	b3 a4 01 0a       	  cmpbrne.w a10 0x1 0x1f77;
    1f71:	a0 ba             	  std.w a11 a10;
    1f73:	3e 7b 1f 00       	  jmp 0x1f7b;
    1f77:	bd 94             	  clr.w a9;
    1f79:	a0 b9             	  std.w a11 a9;
    1f7b:	fe 49 01          	  rspr a9 SP;
    1f7e:	bf 9f             	  ldd.w a15 a9;
    1f80:	d9 2c 06 00 00    	  mvi a9 0x62c;
    1f85:	bf 99             	  ldd.w a9 a9;
    1f87:	a6 f9             	  cmp.w a15 a9;
    1f89:	f4 0b 07          	  breq 0x1f90;
    1f8c:	7e e9 42 00       	  call 0x42e9;
    1f90:	f4 30 04          	  addsp 0x4;
    1f93:	f8 00             	  ret;

00001f95 <__soeNpgParseEnumLr10>:
    1f95:	de 2c 06 00 00    	  mvi a14 0x62c;
    1f9a:	bf e9             	  ldd.w a9 a14;
    1f9c:	f4 30 fc          	  addsp -0x4;
    1f9f:	fe 4f 01          	  rspr a15 SP;
    1fa2:	a0 f9             	  std.w a15 a9;
    1fa4:	c7 a9 a2          	  uxtr a9 a10 0xa2;
    1fa7:	a0 b9             	  std.w a11 a9;
    1fa9:	c7 a9 e8          	  uxtr a9 a10 0xe8;
    1fac:	a0 c9             	  std.w a12 a9;
    1fae:	e7 aa 54 01       	  uxtr a10 a10 0x154;
    1fb2:	a0 da             	  std.w a13 a10;
    1fb4:	bf ff             	  ldd.w a15 a15;
    1fb6:	bf e9             	  ldd.w a9 a14;
    1fb8:	a6 f9             	  cmp.w a15 a9;
    1fba:	f4 0b 07          	  breq 0x1fc1;
    1fbd:	7e e9 42 00       	  call 0x42e9;
    1fc1:	f4 30 04          	  addsp 0x4;
    1fc4:	f8 00             	  ret;

00001fc6 <__soeNpgHandleData1Lr10>:
    1fc6:	df 2c 06 00 00    	  mvi a15 0x62c;
    1fcb:	bf ff             	  ldd.w a15 a15;
    1fcd:	f4 30 fc          	  addsp -0x4;
    1fd0:	fe 49 01          	  rspr a9 SP;
    1fd3:	b6 a5 0c          	  lsr.w a10 0xc;
    1fd6:	a0 9f             	  std.w a9 a15;
    1fd8:	b3 c4 01 11       	  cmpbrne.w a12 0x1 0x1fe9;
    1fdc:	89 ff ff 07       	  mvi a9 0x7ffff;
    1fe0:	ff a9 94          	  and a9 a10 a9;
    1fe3:	a0 d9             	  std.w a13 a9;
    1fe5:	3e fd 1f 00       	  jmp 0x1ffd;
    1fe9:	89 ff ff 07       	  mvi a9 0x7ffff;
    1fed:	ff a9 94          	  and a9 a10 a9;
    1ff0:	f4 0b 0d          	  breq 0x1ffd;
    1ff3:	0f 19             	  mvi a15 0x19;
    1ff5:	49 00 11          	  mvi a9 0x1100;
    1ff8:	f7 9f 00          	  stxb a9 0x0 a15;
    1ffb:	f8 02             	  halt;
    1ffd:	fe 49 01          	  rspr a9 SP;
    2000:	bf 9f             	  ldd.w a15 a9;
    2002:	d9 2c 06 00 00    	  mvi a9 0x62c;
    2007:	bf 99             	  ldd.w a9 a9;
    2009:	a6 f9             	  cmp.w a15 a9;
    200b:	f4 0b 07          	  breq 0x2012;
    200e:	7e e9 42 00       	  call 0x42e9;
    2012:	f4 30 04          	  addsp 0x4;
    2015:	f8 00             	  ret;

00002017 <__soeNpgHandleData2Lr10>:
    2017:	d9 2c 06 00 00    	  mvi a9 0x62c;
    201c:	bf 99             	  ldd.w a9 a9;
    201e:	f4 30 fc          	  addsp -0x4;
    2021:	fe 4f 01          	  rspr a15 SP;
    2024:	a0 f9             	  std.w a15 a9;
    2026:	e7 a9 e2 02       	  uxtr a9 a10 0x2e2;
    202a:	c7 aa 9a          	  uxtr a10 a10 0x9a;
    202d:	b3 a0 05 20       	  cmpbreq.w a10 0x5 0x204d;
    2031:	b0 a6 05          	  cmp.w a10 0x5;
    2034:	f4 0c 0b          	  brgt 0x203f;
    2037:	b3 a0 00 37       	  cmpbreq.w a10 0x0 0x206e;
    203b:	3e 64 20 00       	  jmp 0x2064;
    203f:	b3 a0 06 0e       	  cmpbreq.w a10 0x6 0x204d;
    2043:	b0 a6 09          	  cmp.w a10 0x9;
    2046:	f4 0c 1e          	  brgt 0x2064;
    2049:	3e 57 20 00       	  jmp 0x2057;
    204d:	b6 94 02          	  lsl.w a9 0x2;
    2050:	b5 b9 04          	  std.w a11 0x10 a9;
    2053:	3e 6e 20 00       	  jmp 0x206e;
    2057:	92 af 02          	  sub.w a15 a10 0x2;
    205a:	b6 94 02          	  lsl.w a9 0x2;
    205d:	bc b9 f9          	  std.w a11 a15 a9;
    2060:	3e 6e 20 00       	  jmp 0x206e;
    2064:	0f 19             	  mvi a15 0x19;
    2066:	49 00 11          	  mvi a9 0x1100;
    2069:	f7 9f 00          	  stxb a9 0x0 a15;
    206c:	f8 02             	  halt;
    206e:	fe 49 01          	  rspr a9 SP;
    2071:	bf 9f             	  ldd.w a15 a9;
    2073:	d9 2c 06 00 00    	  mvi a9 0x62c;
    2078:	bf 99             	  ldd.w a9 a9;
    207a:	a6 f9             	  cmp.w a15 a9;
    207c:	f4 0b 07          	  breq 0x2083;
    207f:	7e e9 42 00       	  call 0x42e9;
    2083:	f4 30 04          	  addsp 0x4;
    2086:	f8 00             	  ret;

00002088 <__soeNxbarParseEntryLr10>:
    2088:	df 2c 06 00 00    	  mvi a15 0x62c;
    208d:	bf ff             	  ldd.w a15 a15;
    208f:	f4 30 fc          	  addsp -0x4;
    2092:	fe 49 01          	  rspr a9 SP;
    2095:	a0 9f             	  std.w a9 a15;
    2097:	95 a9 1f          	  lsr.w a9 a10 0x1f;
    209a:	20 c9             	  std.b a12 a9;
    209c:	f0 a4 03          	  and a10 0x3;
    209f:	b3 a0 02 0c       	  cmpbreq.w a10 0x2 0x20ab;
    20a3:	b3 a0 03 08       	  cmpbreq.w a10 0x3 0x20ab;
    20a7:	b3 a4 01 0a       	  cmpbrne.w a10 0x1 0x20b1;
    20ab:	a0 ba             	  std.w a11 a10;
    20ad:	3e b5 20 00       	  jmp 0x20b5;
    20b1:	bd 94             	  clr.w a9;
    20b3:	a0 b9             	  std.w a11 a9;
    20b5:	fe 49 01          	  rspr a9 SP;
    20b8:	bf 9f             	  ldd.w a15 a9;
    20ba:	d9 2c 06 00 00    	  mvi a9 0x62c;
    20bf:	bf 99             	  ldd.w a9 a9;
    20c1:	a6 f9             	  cmp.w a15 a9;
    20c3:	f4 0b 07          	  breq 0x20ca;
    20c6:	7e e9 42 00       	  call 0x42e9;
    20ca:	f4 30 04          	  addsp 0x4;
    20cd:	f8 00             	  ret;

000020cf <__soeNxbarParseEnumLr10>:
    20cf:	df 2c 06 00 00    	  mvi a15 0x62c;
    20d4:	bf ff             	  ldd.w a15 a15;
    20d6:	f4 30 fc          	  addsp -0x4;
    20d9:	fe 49 01          	  rspr a9 SP;
    20dc:	a0 9f             	  std.w a9 a15;
    20de:	c7 a9 a2          	  uxtr a9 a10 0xa2;
    20e1:	a0 b9             	  std.w a11 a9;
    20e3:	c7 a9 e8          	  uxtr a9 a10 0xe8;
    20e6:	a0 c9             	  std.w a12 a9;
    20e8:	e7 a9 54 01       	  uxtr a9 a10 0x154;
    20ec:	a0 d9             	  std.w a13 a9;
    20ee:	c7 aa 70          	  uxtr a10 a10 0x70;
    20f1:	b3 a0 00 0e       	  cmpbreq.w a10 0x0 0x20ff;
    20f5:	0f 19             	  mvi a15 0x19;
    20f7:	49 00 11          	  mvi a9 0x1100;
    20fa:	f7 9f 00          	  stxb a9 0x0 a15;
    20fd:	f8 02             	  halt;
    20ff:	fe 49 01          	  rspr a9 SP;
    2102:	bf 9f             	  ldd.w a15 a9;
    2104:	d9 2c 06 00 00    	  mvi a9 0x62c;
    2109:	bf 99             	  ldd.w a9 a9;
    210b:	a6 f9             	  cmp.w a15 a9;
    210d:	f4 0b 07          	  breq 0x2114;
    2110:	7e e9 42 00       	  call 0x42e9;
    2114:	f4 30 04          	  addsp 0x4;
    2117:	f8 00             	  ret;

00002119 <__soeNxbarHandleData1Lr10>:
    2119:	df 2c 06 00 00    	  mvi a15 0x62c;
    211e:	bf ff             	  ldd.w a15 a15;
    2120:	f4 30 fc          	  addsp -0x4;
    2123:	fe 49 01          	  rspr a9 SP;
    2126:	b6 a5 0c          	  lsr.w a10 0xc;
    2129:	a0 9f             	  std.w a9 a15;
    212b:	b3 c4 01 11       	  cmpbrne.w a12 0x1 0x213c;
    212f:	89 ff ff 07       	  mvi a9 0x7ffff;
    2133:	ff a9 94          	  and a9 a10 a9;
    2136:	a0 d9             	  std.w a13 a9;
    2138:	3e 50 21 00       	  jmp 0x2150;
    213c:	89 ff ff 07       	  mvi a9 0x7ffff;
    2140:	ff a9 94          	  and a9 a10 a9;
    2143:	f4 0b 0d          	  breq 0x2150;
    2146:	0f 19             	  mvi a15 0x19;
    2148:	49 00 11          	  mvi a9 0x1100;
    214b:	f7 9f 00          	  stxb a9 0x0 a15;
    214e:	f8 02             	  halt;
    2150:	fe 49 01          	  rspr a9 SP;
    2153:	bf 9f             	  ldd.w a15 a9;
    2155:	d9 2c 06 00 00    	  mvi a9 0x62c;
    215a:	bf 99             	  ldd.w a9 a9;
    215c:	a6 f9             	  cmp.w a15 a9;
    215e:	f4 0b 07          	  breq 0x2165;
    2161:	7e e9 42 00       	  call 0x42e9;
    2165:	f4 30 04          	  addsp 0x4;
    2168:	f8 00             	  ret;

0000216a <__soeNxbarHandleData2Lr10>:
    216a:	d9 2c 06 00 00    	  mvi a9 0x62c;
    216f:	bf 99             	  ldd.w a9 a9;
    2171:	f4 30 fc          	  addsp -0x4;
    2174:	fe 4f 01          	  rspr a15 SP;
    2177:	a0 f9             	  std.w a15 a9;
    2179:	e7 a9 e2 02       	  uxtr a9 a10 0x2e2;
    217d:	c7 aa 9a          	  uxtr a10 a10 0x9a;
    2180:	b3 a0 05 20       	  cmpbreq.w a10 0x5 0x21a0;
    2184:	b0 a6 05          	  cmp.w a10 0x5;
    2187:	f4 0c 0b          	  brgt 0x2192;
    218a:	b3 a0 00 37       	  cmpbreq.w a10 0x0 0x21c1;
    218e:	3e b7 21 00       	  jmp 0x21b7;
    2192:	b3 a0 06 0e       	  cmpbreq.w a10 0x6 0x21a0;
    2196:	b0 a6 09          	  cmp.w a10 0x9;
    2199:	f4 0c 1e          	  brgt 0x21b7;
    219c:	3e aa 21 00       	  jmp 0x21aa;
    21a0:	b6 94 02          	  lsl.w a9 0x2;
    21a3:	b5 b9 04          	  std.w a11 0x10 a9;
    21a6:	3e c1 21 00       	  jmp 0x21c1;
    21aa:	92 af 02          	  sub.w a15 a10 0x2;
    21ad:	b6 94 02          	  lsl.w a9 0x2;
    21b0:	bc b9 f9          	  std.w a11 a15 a9;
    21b3:	3e c1 21 00       	  jmp 0x21c1;
    21b7:	0f 19             	  mvi a15 0x19;
    21b9:	49 00 11          	  mvi a9 0x1100;
    21bc:	f7 9f 00          	  stxb a9 0x0 a15;
    21bf:	f8 02             	  halt;
    21c1:	fe 49 01          	  rspr a9 SP;
    21c4:	bf 9f             	  ldd.w a15 a9;
    21c6:	d9 2c 06 00 00    	  mvi a9 0x62c;
    21cb:	bf 99             	  ldd.w a9 a9;
    21cd:	a6 f9             	  cmp.w a15 a9;
    21cf:	f4 0b 07          	  breq 0x21d6;
    21d2:	7e e9 42 00       	  call 0x42e9;
    21d6:	f4 30 04          	  addsp 0x4;
    21d9:	f8 00             	  ret;

000021db <__soeLwlwParseEntryLr10>:
    21db:	df 2c 06 00 00    	  mvi a15 0x62c;
    21e0:	bf ff             	  ldd.w a15 a15;
    21e2:	f4 30 fc          	  addsp -0x4;
    21e5:	fe 49 01          	  rspr a9 SP;
    21e8:	a0 9f             	  std.w a9 a15;
    21ea:	95 a9 1f          	  lsr.w a9 a10 0x1f;
    21ed:	20 c9             	  std.b a12 a9;
    21ef:	f0 a4 03          	  and a10 0x3;
    21f2:	b3 a0 02 0c       	  cmpbreq.w a10 0x2 0x21fe;
    21f6:	b3 a0 03 08       	  cmpbreq.w a10 0x3 0x21fe;
    21fa:	b3 a4 01 0a       	  cmpbrne.w a10 0x1 0x2204;
    21fe:	a0 ba             	  std.w a11 a10;
    2200:	3e 08 22 00       	  jmp 0x2208;
    2204:	bd 94             	  clr.w a9;
    2206:	a0 b9             	  std.w a11 a9;
    2208:	fe 49 01          	  rspr a9 SP;
    220b:	bf 9f             	  ldd.w a15 a9;
    220d:	d9 2c 06 00 00    	  mvi a9 0x62c;
    2212:	bf 99             	  ldd.w a9 a9;
    2214:	a6 f9             	  cmp.w a15 a9;
    2216:	f4 0b 07          	  breq 0x221d;
    2219:	7e e9 42 00       	  call 0x42e9;
    221d:	f4 30 04          	  addsp 0x4;
    2220:	f8 00             	  ret;

00002222 <__soeLwlwParseEnumLr10>:
    2222:	de 2c 06 00 00    	  mvi a14 0x62c;
    2227:	bf e9             	  ldd.w a9 a14;
    2229:	f4 30 fc          	  addsp -0x4;
    222c:	fe 4f 01          	  rspr a15 SP;
    222f:	a0 f9             	  std.w a15 a9;
    2231:	c7 a9 a2          	  uxtr a9 a10 0xa2;
    2234:	a0 b9             	  std.w a11 a9;
    2236:	c7 a9 e8          	  uxtr a9 a10 0xe8;
    2239:	a0 c9             	  std.w a12 a9;
    223b:	e7 aa 54 01       	  uxtr a10 a10 0x154;
    223f:	a0 da             	  std.w a13 a10;
    2241:	bf ff             	  ldd.w a15 a15;
    2243:	bf e9             	  ldd.w a9 a14;
    2245:	a6 f9             	  cmp.w a15 a9;
    2247:	f4 0b 07          	  breq 0x224e;
    224a:	7e e9 42 00       	  call 0x42e9;
    224e:	f4 30 04          	  addsp 0x4;
    2251:	f8 00             	  ret;

00002253 <__soeLwlwHandleData1Lr10>:
    2253:	df 2c 06 00 00    	  mvi a15 0x62c;
    2258:	bf ff             	  ldd.w a15 a15;
    225a:	f4 30 fc          	  addsp -0x4;
    225d:	fe 49 01          	  rspr a9 SP;
    2260:	a0 9f             	  std.w a9 a15;
    2262:	b3 c0 01 10       	  cmpbreq.w a12 0x1 0x2272;
    2266:	b3 c0 0c 0c       	  cmpbreq.w a12 0xc 0x2272;
    226a:	b3 c0 0d 08       	  cmpbreq.w a12 0xd 0x2272;
    226e:	b3 c4 14 0a       	  cmpbrne.w a12 0x14 0x2278;
    2272:	e7 a9 4c 02       	  uxtr a9 a10 0x24c;
    2276:	a0 d9             	  std.w a13 a9;
    2278:	fe 49 01          	  rspr a9 SP;
    227b:	bf 9f             	  ldd.w a15 a9;
    227d:	d9 2c 06 00 00    	  mvi a9 0x62c;
    2282:	bf 99             	  ldd.w a9 a9;
    2284:	a6 f9             	  cmp.w a15 a9;
    2286:	f4 0b 07          	  breq 0x228d;
    2289:	7e e9 42 00       	  call 0x42e9;
    228d:	f4 30 04          	  addsp 0x4;
    2290:	f8 00             	  ret;

00002292 <__soeLwlwHandleData2Lr10>:
    2292:	d9 2c 06 00 00    	  mvi a9 0x62c;
    2297:	bf 99             	  ldd.w a9 a9;
    2299:	f4 30 fc          	  addsp -0x4;
    229c:	fe 4f 01          	  rspr a15 SP;
    229f:	a0 f9             	  std.w a15 a9;
    22a1:	e7 a9 e2 02       	  uxtr a9 a10 0x2e2;
    22a5:	c7 aa 9a          	  uxtr a10 a10 0x9a;
    22a8:	b3 a0 06 2e       	  cmpbreq.w a10 0x6 0x22d6;
    22ac:	b0 a6 06          	  cmp.w a10 0x6;
    22af:	f4 0c 0f          	  brgt 0x22be;
    22b2:	b3 a0 04 16       	  cmpbreq.w a10 0x4 0x22c8;
    22b6:	b3 a4 05 33       	  cmpbrne.w a10 0x5 0x22e9;
    22ba:	3e d6 22 00       	  jmp 0x22d6;
    22be:	b0 a6 09          	  cmp.w a10 0x9;
    22c1:	f4 0c 28          	  brgt 0x22e9;
    22c4:	3e e0 22 00       	  jmp 0x22e0;
    22c8:	0f 19             	  mvi a15 0x19;
    22ca:	49 00 11          	  mvi a9 0x1100;
    22cd:	f7 9f 00          	  stxb a9 0x0 a15;
    22d0:	f8 02             	  halt;
    22d2:	3e e9 22 00       	  jmp 0x22e9;
    22d6:	b6 94 02          	  lsl.w a9 0x2;
    22d9:	b5 b9 04          	  std.w a11 0x10 a9;
    22dc:	3e e9 22 00       	  jmp 0x22e9;
    22e0:	92 af 02          	  sub.w a15 a10 0x2;
    22e3:	b6 94 02          	  lsl.w a9 0x2;
    22e6:	bc b9 f9          	  std.w a11 a15 a9;
    22e9:	fe 49 01          	  rspr a9 SP;
    22ec:	bf 9f             	  ldd.w a15 a9;
    22ee:	d9 2c 06 00 00    	  mvi a9 0x62c;
    22f3:	bf 99             	  ldd.w a9 a9;
    22f5:	a6 f9             	  cmp.w a15 a9;
    22f7:	f4 0b 07          	  breq 0x22fe;
    22fa:	7e e9 42 00       	  call 0x42e9;
    22fe:	f4 30 04          	  addsp 0x4;
    2301:	f8 00             	  ret;

00002303 <__discoverEngineAddress>:
    2303:	f4 30 d4          	  addsp -0x2c;
    2306:	f9 82             	  pushm a8;
    2308:	b4 90 15          	  lddsp.w a9 0x54;
    230b:	30 e1 27          	  stdsp.b a14 0x27;
    230e:	b0 c1 0b          	  stdsp.w a12 0x2c;
    2311:	b0 d1 0a          	  stdsp.w a13 0x28;
    2314:	bd f4             	  clr.w a15;
    2316:	b6 94 02          	  lsl.w a9 0x2;
    2319:	b0 91 0c          	  stdsp.w a9 0x30;
    231c:	fe 49 01          	  rspr a9 SP;
    231f:	90 99 44          	  add.w a9 a9 0x44;
    2322:	a0 9f             	  std.w a9 a15;
    2324:	90 99 07          	  add.w a9 a9 0x7;
    2327:	20 9f             	  std.b a9 a15;
    2329:	92 99 0b          	  sub.w a9 a9 0xb;
    232c:	a0 9f             	  std.w a9 a15;
    232e:	b2 95             	  mv.w a5 a9;
    2330:	92 99 04          	  sub.w a9 a9 0x4;
    2333:	a0 9f             	  std.w a9 a15;
    2335:	b2 97             	  mv.w a7 a9;
    2337:	92 99 04          	  sub.w a9 a9 0x4;
    233a:	a0 9f             	  std.w a9 a15;
    233c:	df 2c 06 00 00    	  mvi a15 0x62c;
    2341:	bf ff             	  ldd.w a15 a15;
    2343:	90 99 14          	  add.w a9 a9 0x14;
    2346:	fe 4e 01          	  rspr a14 SP;
    2349:	b2 a6             	  mv.w a6 a10;
    234b:	a0 9f             	  std.w a9 a15;
    234d:	90 ee 34          	  add.w a14 a14 0x34;
    2350:	09 02             	  mvi a9 0x2;
    2352:	b2 b4             	  mv.w a4 a11;
    2354:	a0 e9             	  std.w a14 a9;
    2356:	bd 84             	  clr.w a8;
    2358:	bd 34             	  clr.w a3;
    235a:	bd 14             	  clr.w a1;
    235c:	3e 47 24 00       	  jmp 0x2447;
    2360:	b2 6a             	  mv.w a10 a6;
    2362:	7e 22 1c 00       	  call 0x1c22;
    2366:	bf 49             	  ldd.w a9 a4;
    2368:	b2 a2             	  mv.w a2 a10;
    236a:	fe 4b 01          	  rspr a11 SP;
    236d:	fe 4c 01          	  rspr a12 SP;
    2370:	90 bb 44          	  add.w a11 a11 0x44;
    2373:	90 cc 4b          	  add.w a12 a12 0x4b;
    2376:	f9 95             	  call a9;
    2378:	b4 00 11          	  lddsp.w a0 0x44;
    237b:	b3 09 02 8e 00    	  cmpbreq.w a0 0x2 0x2409;
    2380:	b3 09 03 9e 00    	  cmpbreq.w a0 0x3 0x241e;
    2385:	b3 0d 01 a8 00    	  cmpbrne.w a0 0x1 0x242d;
    238a:	98 49 01          	  ldd.w a9 a4 0x4;
    238d:	b2 7c             	  mv.w a12 a7;
    238f:	b2 2a             	  mv.w a10 a2;
    2391:	b2 5b             	  mv.w a11 a5;
    2393:	fe 4d 01          	  rspr a13 SP;
    2396:	90 dd 38          	  add.w a13 a13 0x38;
    2399:	f9 95             	  call a9;
    239b:	32 0c             	  mv.b a12 a0;
    239d:	b4 e0 0b          	  lddsp.w a14 0x2c;
    23a0:	bd d4             	  clr.w a13;
    23a2:	3e fd 23 00       	  jmp 0x23fd;
    23a6:	bf 5f             	  ldd.w a15 a5;
    23a8:	bf e9             	  ldd.w a9 a14;
    23aa:	a6 f9             	  cmp.w a15 a9;
    23ac:	f4 1b 38          	  brne 0x23e4;
    23af:	34 b0 27          	  lddsp.b a11 0x27;
    23b2:	98 e8 01          	  ldd.w a8 a14 0x4;
    23b5:	bf 7f             	  ldd.w a15 a7;
    23b7:	98 e9 02          	  ldd.w a9 a14 0x8;
    23ba:	33 b0 00 0a       	  cmpbreq.b a11 0x0 0x23c4;
    23be:	b4 b0 0c          	  lddsp.w a11 0x30;
    23c1:	bc b9 90          	  add.w a9 a11 a9;
    23c4:	a6 f9             	  cmp.w a15 a9;
    23c6:	f4 1b 1e          	  brne 0x23e4;
    23c9:	df 48 14 00 00    	  mvi a15 0x1448;
    23ce:	18 f9 0c          	  ldd.b a9 a15 0xc;
    23d1:	33 94 00 06       	  cmpbrne.b a9 0x0 0x23d7;
    23d5:	b2 f1             	  mv.w a1 a15;
    23d7:	90 ff 20          	  add.w a15 a15 0x20;
    23da:	d9 48 2a 00 00    	  mvi a9 0x2a48;
    23df:	a6 f9             	  cmp.w a15 a9;
    23e1:	f4 1b ed          	  brne 0x23ce;
    23e4:	b3 10 00 13       	  cmpbreq.w a1 0x0 0x23f7;
    23e8:	35 1c 0c          	  std.b a1 0xc a12;
    23eb:	bf 5b             	  ldd.w a11 a5;
    23ed:	b5 18 01          	  std.w a1 0x4 a8;
    23f0:	a0 1b             	  std.w a1 a11;
    23f2:	bf 79             	  ldd.w a9 a7;
    23f4:	b5 19 02          	  std.w a1 0x8 a9;
    23f7:	90 dd 01          	  add.w a13 a13 0x1;
    23fa:	90 ee 0c          	  add.w a14 a14 0xc;
    23fd:	b4 b0 0a          	  lddsp.w a11 0x28;
    2400:	a6 db             	  cmp.w a13 a11;
    2402:	f4 08 a4          	  brc 0x23a6;
    2405:	3e 2d 24 00       	  jmp 0x242d;
    2409:	98 49 02          	  ldd.w a9 a4 0x8;
    240c:	bf 5c             	  ldd.w a12 a5;
    240e:	fe 4d 01          	  rspr a13 SP;
    2411:	b2 2a             	  mv.w a10 a2;
    2413:	b2 1b             	  mv.w a11 a1;
    2415:	90 dd 34          	  add.w a13 a13 0x34;
    2418:	f9 95             	  call a9;
    241a:	3e 2d 24 00       	  jmp 0x242d;
    241e:	b3 10 00 0f       	  cmpbreq.w a1 0x0 0x242d;
    2422:	98 49 03          	  ldd.w a9 a4 0xc;
    2425:	bf 5c             	  ldd.w a12 a5;
    2427:	b2 2a             	  mv.w a10 a2;
    2429:	b2 1b             	  mv.w a11 a1;
    242b:	f9 95             	  call a9;
    242d:	34 90 4b          	  lddsp.b a9 0x4b;
    2430:	33 94 00 11       	  cmpbrne.b a9 0x0 0x2441;
    2434:	09 ff             	  mvi a9 -0x1;
    2436:	bd 14             	  clr.w a1;
    2438:	b0 91 0e          	  stdsp.w a9 0x38;
    243b:	a0 79             	  std.w a7 a9;
    243d:	bd 94             	  clr.w a9;
    243f:	a0 59             	  std.w a5 a9;
    2441:	90 33 01          	  add.w a3 a3 0x1;
    2444:	90 66 04          	  add.w a6 a6 0x4;
    2447:	b4 90 0d          	  lddsp.w a9 0x34;
    244a:	a6 39             	  cmp.w a3 a9;
    244c:	f5 08 14 ff       	  brc 0x2360;
    2450:	fe 49 01          	  rspr a9 SP;
    2453:	90 99 4c          	  add.w a9 a9 0x4c;
    2456:	bf 9f             	  ldd.w a15 a9;
    2458:	d9 2c 06 00 00    	  mvi a9 0x62c;
    245d:	bf 99             	  ldd.w a9 a9;
    245f:	a6 f9             	  cmp.w a15 a9;
    2461:	f4 0b 07          	  breq 0x2468;
    2464:	7e e9 42 00       	  call 0x42e9;
    2468:	fb 85 2c          	  popma a8 0x1 0x2c;

0000246b <_getEngineBaseAddress>:
    246b:	f4 30 fc          	  addsp -0x4;
    246e:	d9 2c 06 00 00    	  mvi a9 0x62c;
    2473:	f9 72             	  pushm a7;
    2475:	bf 99             	  ldd.w a9 a9;
    2477:	f4 30 fc          	  addsp -0x4;
    247a:	d0 48 2a 00 00    	  mvi a0 0x2a48;
    247f:	fe 4f 01          	  rspr a15 SP;
    2482:	90 ff 24          	  add.w a15 a15 0x24;
    2485:	a0 f9             	  std.w a15 a9;
    2487:	3f 09             	  ldd.b a9 a0;
    2489:	b2 a6             	  mv.w a6 a10;
    248b:	b2 b5             	  mv.w a5 a11;
    248d:	b2 c3             	  mv.w a3 a12;
    248f:	b2 d4             	  mv.w a4 a13;
    2491:	33 9d 00 11 01    	  cmpbrne.b a9 0x0 0x25a2;
    2496:	bd b4             	  clr.w a11;
    2498:	4c 04 16          	  mvi a12 0x1604;
    249b:	da 48 14 00 00    	  mvi a10 0x1448;
    24a0:	7e 94 0b 00       	  call 0xb94;
    24a4:	d9 0c 02 00 00    	  mvi a9 0x20c;
    24a9:	bf 9c             	  ldd.w a12 a9;
    24ab:	98 9d 01          	  ldd.w a13 a9 0x4;
    24ae:	b2 91             	  mv.w a1 a9;
    24b0:	bd 94             	  clr.w a9;
    24b2:	b2 07             	  mv.w a7 a0;
    24b4:	b0 91 00          	  stdsp.w a9 0x0;
    24b7:	8a 00 c0 02       	  mvi a10 0x2c000;
    24bb:	db fc 01 00 00    	  mvi a11 0x1fc;
    24c0:	3d e4             	  clr.b a14;
    24c2:	d0 48 14 00 00    	  mvi a0 0x1448;
    24c7:	7e 03 23 00       	  call 0x2303;
    24cb:	bd 24             	  clr.w a2;
    24cd:	bf 09             	  ldd.w a9 a0;
    24cf:	b3 94 13 1e       	  cmpbrne.w a9 0x13 0x24ed;
    24d3:	98 1c 02          	  ldd.w a12 a1 0x8;
    24d6:	98 1d 03          	  ldd.w a13 a1 0xc;
    24d9:	98 09 02          	  ldd.w a9 a0 0x8;
    24dc:	98 0a 04          	  ldd.w a10 a0 0x10;
    24df:	db cc 01 00 00    	  mvi a11 0x1cc;
    24e4:	0e 01             	  mvi a14 0x1;
    24e6:	b0 91 00          	  stdsp.w a9 0x0;
    24e9:	7e 03 23 00       	  call 0x2303;
    24ed:	bf 09             	  ldd.w a9 a0;
    24ef:	b3 94 04 35       	  cmpbrne.w a9 0x4 0x2524;
    24f3:	98 1c 04          	  ldd.w a12 a1 0x10;
    24f6:	98 1d 05          	  ldd.w a13 a1 0x14;
    24f9:	98 0a 04          	  ldd.w a10 a0 0x10;
    24fc:	98 09 02          	  ldd.w a9 a0 0x8;
    24ff:	db dc 01 00 00    	  mvi a11 0x1dc;
    2504:	0e 01             	  mvi a14 0x1;
    2506:	b0 91 00          	  stdsp.w a9 0x0;
    2509:	7e 03 23 00       	  call 0x2303;
    250d:	98 1c 08          	  ldd.w a12 a1 0x20;
    2510:	98 1d 09          	  ldd.w a13 a1 0x24;
    2513:	98 0a 04          	  ldd.w a10 a0 0x10;
    2516:	b0 21 00          	  stdsp.w a2 0x0;
    2519:	db dc 01 00 00    	  mvi a11 0x1dc;
    251e:	3d e4             	  clr.b a14;
    2520:	7e 03 23 00       	  call 0x2303;
    2524:	bf 09             	  ldd.w a9 a0;
    2526:	b3 94 05 1b       	  cmpbrne.w a9 0x5 0x2541;
    252a:	98 1c 06          	  ldd.w a12 a1 0x18;
    252d:	98 1d 07          	  ldd.w a13 a1 0x1c;
    2530:	98 0a 04          	  ldd.w a10 a0 0x10;
    2533:	b0 21 00          	  stdsp.w a2 0x0;
    2536:	db dc 01 00 00    	  mvi a11 0x1dc;
    253b:	3d e4             	  clr.b a14;
    253d:	7e 03 23 00       	  call 0x2303;
    2541:	bf 09             	  ldd.w a9 a0;
    2543:	b3 94 15 35       	  cmpbrne.w a9 0x15 0x2578;
    2547:	98 1c 0c          	  ldd.w a12 a1 0x30;
    254a:	98 1d 0d          	  ldd.w a13 a1 0x34;
    254d:	98 0a 04          	  ldd.w a10 a0 0x10;
    2550:	98 09 02          	  ldd.w a9 a0 0x8;
    2553:	db ec 01 00 00    	  mvi a11 0x1ec;
    2558:	0e 01             	  mvi a14 0x1;
    255a:	b0 91 00          	  stdsp.w a9 0x0;
    255d:	7e 03 23 00       	  call 0x2303;
    2561:	98 1c 0a          	  ldd.w a12 a1 0x28;
    2564:	98 1d 0b          	  ldd.w a13 a1 0x2c;
    2567:	98 0a 04          	  ldd.w a10 a0 0x10;
    256a:	b0 21 00          	  stdsp.w a2 0x0;
    256d:	db ec 01 00 00    	  mvi a11 0x1ec;
    2572:	3d e4             	  clr.b a14;
    2574:	7e 03 23 00       	  call 0x2303;
    2578:	bf 09             	  ldd.w a9 a0;
    257a:	b3 94 16 1b       	  cmpbrne.w a9 0x16 0x2595;
    257e:	98 1c 0e          	  ldd.w a12 a1 0x38;
    2581:	98 1d 0f          	  ldd.w a13 a1 0x3c;
    2584:	98 0a 04          	  ldd.w a10 a0 0x10;
    2587:	b0 21 00          	  stdsp.w a2 0x0;
    258a:	db ec 01 00 00    	  mvi a11 0x1ec;
    258f:	3d e4             	  clr.b a14;
    2591:	7e 03 23 00       	  call 0x2303;
    2595:	90 00 20          	  add.w a0 a0 0x20;
    2598:	a6 07             	  cmp.w a0 a7;
    259a:	f5 1b 33 ff       	  brne 0x24cd;
    259e:	09 01             	  mvi a9 0x1;
    25a0:	20 09             	  std.b a0 a9;
    25a2:	94 4d 02          	  lsl.w a13 a4 0x2;
    25a5:	d9 5c 14 00 00    	  mvi a9 0x145c;
    25aa:	df 4c 14 00 00    	  mvi a15 0x144c;
    25af:	bc d9 d0          	  add.w a13 a13 a9;
    25b2:	0a ff             	  mvi a10 -0x1;
    25b4:	de 4c 2a 00 00    	  mvi a14 0x2a4c;
    25b9:	bf f9             	  ldd.w a9 a15;
    25bb:	a6 69             	  cmp.w a6 a9;
    25bd:	f4 1b 2f          	  brne 0x25ec;
    25c0:	98 f9 01          	  ldd.w a9 a15 0x4;
    25c3:	a6 59             	  cmp.w a5 a9;
    25c5:	f4 1b 27          	  brne 0x25ec;
    25c8:	18 f9 08          	  ldd.b a9 a15 0x8;
    25cb:	33 94 01 21       	  cmpbrne.b a9 0x1 0x25ec;
    25cf:	b3 30 01 14       	  cmpbreq.w a3 0x1 0x25e3;
    25d3:	b0 36 01          	  cmp.w a3 0x1;
    25d6:	f4 08 0d          	  brc 0x25e3;
    25d9:	0a ff             	  mvi a10 -0x1;
    25db:	b3 34 02 11       	  cmpbrne.w a3 0x2 0x25ec;
    25df:	3e ea 25 00       	  jmp 0x25ea;
    25e3:	98 fa 03          	  ldd.w a10 a15 0xc;
    25e6:	3e ec 25 00       	  jmp 0x25ec;
    25ea:	bf da             	  ldd.w a10 a13;
    25ec:	90 ff 20          	  add.w a15 a15 0x20;
    25ef:	90 dd 20          	  add.w a13 a13 0x20;
    25f2:	a6 fe             	  cmp.w a15 a14;
    25f4:	f4 1b c5          	  brne 0x25b9;
    25f7:	09 ff             	  mvi a9 -0x1;
    25f9:	a6 a9             	  cmp.w a10 a9;
    25fb:	f4 1b 0d          	  brne 0x2608;
    25fe:	0f 19             	  mvi a15 0x19;
    2600:	49 00 11          	  mvi a9 0x1100;
    2603:	f7 9f 00          	  stxb a9 0x0 a15;
    2606:	f8 02             	  halt;
    2608:	fe 49 01          	  rspr a9 SP;
    260b:	90 99 24          	  add.w a9 a9 0x24;
    260e:	bf 9f             	  ldd.w a15 a9;
    2610:	d9 2c 06 00 00    	  mvi a9 0x62c;
    2615:	bf 99             	  ldd.w a9 a9;
    2617:	a6 f9             	  cmp.w a15 a9;
    2619:	f4 0b 07          	  breq 0x2620;
    261c:	7e e9 42 00       	  call 0x42e9;
    2620:	f4 30 04          	  addsp 0x4;
    2623:	fb 75 04          	  popma a7 0x1 0x4;

00002626 <_soeDmaSetSysAddr_LR10>:
    2626:	f4 30 f4          	  addsp -0xc;
    2629:	f9 12             	  pushm a1;
    262b:	d1 2c 06 00 00    	  mvi a1 0x62c;
    2630:	bf 19             	  ldd.w a9 a1;
    2632:	fe 40 01          	  rspr a0 SP;
    2635:	90 00 10          	  add.w a0 a0 0x10;
    2638:	a0 ca             	  std.w a12 a10;
    263a:	a0 09             	  std.w a0 a9;
    263c:	bd 94             	  clr.w a9;
    263e:	b5 cb 01          	  std.w a12 0x4 a11;
    2641:	b5 c9 02          	  std.w a12 0x8 a9;
    2644:	d9 0c 14 00 00    	  mvi a9 0x140c;
    2649:	bf 9f             	  ldd.w a15 a9;
    264b:	fe 49 01          	  rspr a9 SP;
    264e:	90 99 08          	  add.w a9 a9 0x8;
    2651:	b5 9b 01          	  std.w a9 0x4 a11;
    2654:	a0 9a             	  std.w a9 a10;
    2656:	b6 b5 11          	  lsr.w a11 0x11;
    2659:	b8 fa d8 02 00    	  add.w a10 a15 0x2d8;
    265e:	7e b1 1c 00       	  call 0x1cb1;
    2662:	bf 0f             	  ldd.w a15 a0;
    2664:	bf 19             	  ldd.w a9 a1;
    2666:	a6 f9             	  cmp.w a15 a9;
    2668:	f4 0b 07          	  breq 0x266f;
    266b:	7e e9 42 00       	  call 0x42e9;
    266f:	fb 15 0c          	  popma a1 0x1 0xc;

00002672 <_soeDmaReadFromSysmem_LR10>:
    2672:	f4 30 e8          	  addsp -0x18;
    2675:	f9 52             	  pushm a5;
    2677:	d2 2c 06 00 00    	  mvi a2 0x62c;
    267c:	bf 29             	  ldd.w a9 a2;
    267e:	fe 40 01          	  rspr a0 SP;
    2681:	90 00 18          	  add.w a0 a0 0x18;
    2684:	a0 0b             	  std.w a0 a11;
    2686:	b5 0c 01          	  std.w a0 0x4 a12;
    2689:	b2 e5             	  mv.w a5 a14;
    268b:	b2 d4             	  mv.w a4 a13;
    268d:	b2 a3             	  mv.w a3 a10;
    268f:	fe 41 01          	  rspr a1 SP;
    2692:	90 11 2c          	  add.w a1 a1 0x2c;
    2695:	a0 19             	  std.w a1 a9;
    2697:	7e 06 0e 00       	  call 0xe06;
    269b:	7e 74 0a 00       	  call 0xa74;
    269f:	98 0b 01          	  ldd.w a11 a0 0x4;
    26a2:	bf 0a             	  ldd.w a10 a0;
    26a4:	fe 40 01          	  rspr a0 SP;
    26a7:	90 00 20          	  add.w a0 a0 0x20;
    26aa:	b2 0c             	  mv.w a12 a0;
    26ac:	7e 26 26 00       	  call 0x2626;
    26b0:	b2 0b             	  mv.w a11 a0;
    26b2:	b2 4c             	  mv.w a12 a4;
    26b4:	b2 5d             	  mv.w a13 a5;
    26b6:	b2 3a             	  mv.w a10 a3;
    26b8:	7e cc 0d 00       	  call 0xdcc;
    26bc:	32 a0             	  mv.b a0 a10;
    26be:	7e 9b 0a 00       	  call 0xa9b;
    26c2:	7e dd 0d 00       	  call 0xddd;
    26c6:	bf 1f             	  ldd.w a15 a1;
    26c8:	bf 29             	  ldd.w a9 a2;
    26ca:	32 0a             	  mv.b a10 a0;
    26cc:	a6 f9             	  cmp.w a15 a9;
    26ce:	f4 0b 07          	  breq 0x26d5;
    26d1:	7e e9 42 00       	  call 0x42e9;
    26d5:	fb 55 18          	  popma a5 0x1 0x18;

000026d8 <_soeDmaWriteToSysmem_LR10>:
    26d8:	f4 30 e8          	  addsp -0x18;
    26db:	f9 52             	  pushm a5;
    26dd:	d2 2c 06 00 00    	  mvi a2 0x62c;
    26e2:	bf 29             	  ldd.w a9 a2;
    26e4:	fe 40 01          	  rspr a0 SP;
    26e7:	90 00 18          	  add.w a0 a0 0x18;
    26ea:	a0 0b             	  std.w a0 a11;
    26ec:	b5 0c 01          	  std.w a0 0x4 a12;
    26ef:	b2 e5             	  mv.w a5 a14;
    26f1:	b2 d4             	  mv.w a4 a13;
    26f3:	b2 a3             	  mv.w a3 a10;
    26f5:	fe 41 01          	  rspr a1 SP;
    26f8:	90 11 2c          	  add.w a1 a1 0x2c;
    26fb:	a0 19             	  std.w a1 a9;
    26fd:	7e 06 0e 00       	  call 0xe06;
    2701:	7e 74 0a 00       	  call 0xa74;
    2705:	98 0b 01          	  ldd.w a11 a0 0x4;
    2708:	bf 0a             	  ldd.w a10 a0;
    270a:	fe 40 01          	  rspr a0 SP;
    270d:	90 00 20          	  add.w a0 a0 0x20;
    2710:	b2 0c             	  mv.w a12 a0;
    2712:	7e 26 26 00       	  call 0x2626;
    2716:	b2 0b             	  mv.w a11 a0;
    2718:	b2 4c             	  mv.w a12 a4;
    271a:	b2 5d             	  mv.w a13 a5;
    271c:	b2 3a             	  mv.w a10 a3;
    271e:	7e b9 0d 00       	  call 0xdb9;
    2722:	32 a0             	  mv.b a0 a10;
    2724:	7e 9b 0a 00       	  call 0xa9b;
    2728:	7e dd 0d 00       	  call 0xddd;
    272c:	bf 1f             	  ldd.w a15 a1;
    272e:	bf 29             	  ldd.w a9 a2;
    2730:	32 0a             	  mv.b a10 a0;
    2732:	a6 f9             	  cmp.w a15 a9;
    2734:	f4 0b 07          	  breq 0x273b;
    2737:	7e e9 42 00       	  call 0x42e9;
    273b:	fb 55 18          	  popma a5 0x1 0x18;

0000273e <_soeInitPrivRing_LR10>:
    273e:	d9 2c 06 00 00    	  mvi a9 0x62c;
    2743:	bf 99             	  ldd.w a9 a9;
    2745:	f4 30 fc          	  addsp -0x4;
    2748:	fe 4f 01          	  rspr a15 SP;
    274b:	0a 04             	  mvi a10 0x4;
    274d:	a0 f9             	  std.w a15 a9;
    274f:	7e f5 42 00       	  call 0x42f5;
    2753:	33 a0 00 2e       	  cmpbreq.b a10 0x0 0x2781;
    2757:	8a 50 00 12       	  mvi a10 0x120050;
    275b:	7e 22 1c 00       	  call 0x1c22;
    275f:	f0 a4 01          	  and a10 0x1;
    2762:	f4 0b 1f          	  breq 0x2781;
    2765:	8a 58 00 12       	  mvi a10 0x120058;
    2769:	7e 22 1c 00       	  call 0x1c22;
    276d:	b3 a0 00 16       	  cmpbreq.w a10 0x0 0x2783;
    2771:	c4 a9 07          	  and a9 a10 0x7;
    2774:	f4 1b 0d          	  brne 0x2781;
    2777:	0a 02             	  mvi a10 0x2;
    2779:	7e f5 42 00       	  call 0x42f5;
    277d:	33 a4 00 06       	  cmpbrne.b a10 0x0 0x2783;
    2781:	f8 02             	  halt;
    2783:	fe 49 01          	  rspr a9 SP;
    2786:	bf 9f             	  ldd.w a15 a9;
    2788:	d9 2c 06 00 00    	  mvi a9 0x62c;
    278d:	bf 99             	  ldd.w a9 a9;
    278f:	a6 f9             	  cmp.w a15 a9;
    2791:	f4 0b 07          	  breq 0x2798;
    2794:	7e e9 42 00       	  call 0x42e9;
    2798:	f4 30 04          	  addsp 0x4;
    279b:	f8 00             	  ret;

0000279d <_sawEnableThermalAlertIntr_LR10>:
    279d:	d9 0c 14 00 00    	  mvi a9 0x140c;
    27a2:	f4 30 fc          	  addsp -0x4;
    27a5:	f9 12             	  pushm a1;
    27a7:	d1 2c 06 00 00    	  mvi a1 0x62c;
    27ac:	bf 9a             	  ldd.w a10 a9;
    27ae:	bf 19             	  ldd.w a9 a1;
    27b0:	fe 40 01          	  rspr a0 SP;
    27b3:	db 00 00 00 40    	  mvi a11 0x40000000;
    27b8:	90 00 08          	  add.w a0 a0 0x8;
    27bb:	b8 aa b4 08 00    	  add.w a10 a10 0x8b4;
    27c0:	a0 09             	  std.w a0 a9;
    27c2:	7e 2c 9f 00       	  call 0x9f2c;
    27c6:	bf 0f             	  ldd.w a15 a0;
    27c8:	bf 19             	  ldd.w a9 a1;
    27ca:	a6 f9             	  cmp.w a15 a9;
    27cc:	f4 0b 07          	  breq 0x27d3;
    27cf:	7e e9 42 00       	  call 0x42e9;
    27d3:	fb 15 04          	  popma a1 0x1 0x4;

000027d6 <_sawDisableThermalAlertIntr_LR10>:
    27d6:	d9 0c 14 00 00    	  mvi a9 0x140c;
    27db:	f4 30 fc          	  addsp -0x4;
    27de:	f9 12             	  pushm a1;
    27e0:	d1 2c 06 00 00    	  mvi a1 0x62c;
    27e5:	bf 9a             	  ldd.w a10 a9;
    27e7:	bf 19             	  ldd.w a9 a1;
    27e9:	fe 40 01          	  rspr a0 SP;
    27ec:	db 00 00 00 40    	  mvi a11 0x40000000;
    27f1:	90 00 08          	  add.w a0 a0 0x8;
    27f4:	b8 aa c4 08 00    	  add.w a10 a10 0x8c4;
    27f9:	a0 09             	  std.w a0 a9;
    27fb:	7e 2c 9f 00       	  call 0x9f2c;
    27ff:	bf 0f             	  ldd.w a15 a0;
    2801:	bf 19             	  ldd.w a9 a1;
    2803:	a6 f9             	  cmp.w a15 a9;
    2805:	f4 0b 07          	  breq 0x280c;
    2808:	7e e9 42 00       	  call 0x42e9;
    280c:	fb 15 04          	  popma a1 0x1 0x4;

0000280f <_sawDisableThermalOvertIntr_LR10>:
    280f:	d9 0c 14 00 00    	  mvi a9 0x140c;
    2814:	f4 30 fc          	  addsp -0x4;
    2817:	f9 12             	  pushm a1;
    2819:	d1 2c 06 00 00    	  mvi a1 0x62c;
    281e:	bf 9a             	  ldd.w a10 a9;
    2820:	bf 19             	  ldd.w a9 a1;
    2822:	fe 40 01          	  rspr a0 SP;
    2825:	db 00 00 00 80    	  mvi a11 -0x80000000;
    282a:	90 00 08          	  add.w a0 a0 0x8;
    282d:	b8 aa c4 08 00    	  add.w a10 a10 0x8c4;
    2832:	a0 09             	  std.w a0 a9;
    2834:	7e 2c 9f 00       	  call 0x9f2c;
    2838:	bf 0f             	  ldd.w a15 a0;
    283a:	bf 19             	  ldd.w a9 a1;
    283c:	a6 f9             	  cmp.w a15 a9;
    283e:	f4 0b 07          	  breq 0x2845;
    2841:	7e e9 42 00       	  call 0x42e9;
    2845:	fb 15 04          	  popma a1 0x1 0x4;

00002848 <_sawClearThermalAlertIntr_LR10>:
    2848:	df 2c 06 00 00    	  mvi a15 0x62c;
    284d:	bf ff             	  ldd.w a15 a15;
    284f:	f4 30 fc          	  addsp -0x4;
    2852:	fe 49 01          	  rspr a9 SP;
    2855:	a0 9f             	  std.w a9 a15;
    2857:	d9 0c 14 00 00    	  mvi a9 0x140c;
    285c:	bf 99             	  ldd.w a9 a9;
    285e:	8f 00 c0 01       	  mvi a15 0x1c000;
    2862:	90 9a 60          	  add.w a10 a9 0x60;
    2865:	cf f9 00          	  ldx a9 a15 0x0;
    2868:	c7 99 4c          	  uxtr a9 a9 0x4c;
    286b:	b3 90 00 4a       	  cmpbreq.w a9 0x0 0x28b5;
    286f:	b3 90 01 f6       	  cmpbreq.w a9 0x1 0x2865;
    2873:	f8 02             	  halt;
    2875:	3e 65 28 00       	  jmp 0x2865;
    2879:	cf f9 00          	  ldx a9 a15 0x0;
    287c:	c7 99 4c          	  uxtr a9 a9 0x4c;
    287f:	b3 90 00 0e       	  cmpbreq.w a9 0x0 0x288d;
    2883:	b3 90 01 f6       	  cmpbreq.w a9 0x1 0x2879;
    2887:	f8 02             	  halt;
    2889:	3e 79 28 00       	  jmp 0x2879;
    288d:	8b 00 c2 01       	  mvi a11 0x1c200;
    2891:	cf bb 00          	  ldx a11 a11 0x0;
    2894:	d9 18 00 04 04    	  mvi a9 0x4040018;
    2899:	fd b9 05          	  or a11 a9;
    289c:	7e 2c 9f 00       	  call 0x9f2c;
    28a0:	fe 49 01          	  rspr a9 SP;
    28a3:	bf 9f             	  ldd.w a15 a9;
    28a5:	d9 2c 06 00 00    	  mvi a9 0x62c;
    28aa:	bf 99             	  ldd.w a9 a9;
    28ac:	a6 f9             	  cmp.w a15 a9;
    28ae:	f4 0b 28          	  breq 0x28d6;
    28b1:	3e d2 28 00       	  jmp 0x28d2;
    28b5:	89 00 c1 01       	  mvi a9 0x1c100;
    28b9:	f6 9a 00          	  stx a9 0x0 a10;
    28bc:	df f1 00 00 80    	  mvi a15 -0x7fffff0f;
    28c1:	b8 99 00 01 02    	  sub.w a9 a9 0x100;
    28c6:	f7 9f 00          	  stxb a9 0x0 a15;
    28c9:	cf 9f 00          	  ldx a15 a9 0x0;
    28cc:	b2 9f             	  mv.w a15 a9;
    28ce:	3e 79 28 00       	  jmp 0x2879;
    28d2:	7e e9 42 00       	  call 0x42e9;
    28d6:	f4 30 04          	  addsp 0x4;
    28d9:	f8 00             	  ret;

000028db <_sawIsLwlwInReset_LR10>:
    28db:	f4 30 fc          	  addsp -0x4;
    28de:	d9 0c 14 00 00    	  mvi a9 0x140c;
    28e3:	f9 22             	  pushm a2;
    28e5:	bf 99             	  ldd.w a9 a9;
    28e7:	b2 a2             	  mv.w a2 a10;
    28e9:	d1 2c 06 00 00    	  mvi a1 0x62c;
    28ee:	fe 40 01          	  rspr a0 SP;
    28f1:	b8 9a c8 08 00    	  add.w a10 a9 0x8c8;
    28f6:	bf 19             	  ldd.w a9 a1;
    28f8:	90 00 0c          	  add.w a0 a0 0xc;
    28fb:	a0 09             	  std.w a0 a9;
    28fd:	7e 22 1c 00       	  call 0x1c22;
    2901:	bf 0e             	  ldd.w a14 a0;
    2903:	bf 1f             	  ldd.w a15 a1;
    2905:	09 01             	  mvi a9 0x1;
    2907:	bb 92 04          	  lsl.w a9 a2;
    290a:	fd a9 04          	  and a10 a9;
    290d:	f0 ac 0b          	  sgetb a10 0xb;
    2910:	a6 ef             	  cmp.w a14 a15;
    2912:	f4 0b 07          	  breq 0x2919;
    2915:	7e e9 42 00       	  call 0x42e9;
    2919:	fb 25 04          	  popma a2 0x1 0x4;

0000291c <_sawService_LR10>:
    291c:	f4 30 fc          	  addsp -0x4;
    291f:	d9 2c 06 00 00    	  mvi a9 0x62c;
    2924:	f9 02             	  pushm a0;
    2926:	bf 99             	  ldd.w a9 a9;
    2928:	fe 4f 01          	  rspr a15 SP;
    292b:	90 ff 04          	  add.w a15 a15 0x4;
    292e:	a0 f9             	  std.w a15 a9;
    2930:	d9 0c 14 00 00    	  mvi a9 0x140c;
    2935:	bf 9e             	  ldd.w a14 a9;
    2937:	8f 00 c0 01       	  mvi a15 0x1c000;
    293b:	cf f9 00          	  ldx a9 a15 0x0;
    293e:	c7 99 4c          	  uxtr a9 a9 0x4c;
    2941:	b3 99 00 d2 01    	  cmpbreq.w a9 0x0 0x2b13;
    2946:	b3 90 01 f5       	  cmpbreq.w a9 0x1 0x293b;
    294a:	f8 02             	  halt;
    294c:	3e 3b 29 00       	  jmp 0x293b;
    2950:	cf f9 00          	  ldx a9 a15 0x0;
    2953:	c7 99 4c          	  uxtr a9 a9 0x4c;
    2956:	b3 99 00 ae 01    	  cmpbreq.w a9 0x0 0x2b04;
    295b:	b3 90 01 f5       	  cmpbreq.w a9 0x1 0x2950;
    295f:	f8 02             	  halt;
    2961:	3e 50 29 00       	  jmp 0x2950;
    2965:	cf f9 00          	  ldx a9 a15 0x0;
    2968:	c7 99 4c          	  uxtr a9 a9 0x4c;
    296b:	b3 99 00 77 01    	  cmpbreq.w a9 0x0 0x2ae2;
    2970:	b3 90 01 f5       	  cmpbreq.w a9 0x1 0x2965;
    2974:	f8 02             	  halt;
    2976:	3e 65 29 00       	  jmp 0x2965;
    297a:	cf f9 00          	  ldx a9 a15 0x0;
    297d:	c7 99 4c          	  uxtr a9 a9 0x4c;
    2980:	b3 99 00 48 01    	  cmpbreq.w a9 0x0 0x2ac8;
    2985:	b3 90 01 f5       	  cmpbreq.w a9 0x1 0x297a;
    2989:	f8 02             	  halt;
    298b:	3e 7a 29 00       	  jmp 0x297a;
    298f:	7e f2 90 00       	  call 0x90f2;
    2993:	d9 00 00 80 00    	  mvi a9 0x800000;
    2998:	ff 09 94          	  and a9 a0 a9;
    299b:	f4 0b 07          	  breq 0x29a2;
    299e:	7e 31 2d 00       	  call 0x2d31;
    29a2:	d9 0c 14 00 00    	  mvi a9 0x140c;
    29a7:	bf 9e             	  ldd.w a14 a9;
    29a9:	8f 00 c0 01       	  mvi a15 0x1c000;
    29ad:	cf f9 00          	  ldx a9 a15 0x0;
    29b0:	c7 99 4c          	  uxtr a9 a9 0x4c;
    29b3:	b3 99 00 f3 00    	  cmpbreq.w a9 0x0 0x2aa6;
    29b8:	b3 90 01 f5       	  cmpbreq.w a9 0x1 0x29ad;
    29bc:	f8 02             	  halt;
    29be:	3e ad 29 00       	  jmp 0x29ad;
    29c2:	cf f9 00          	  ldx a9 a15 0x0;
    29c5:	c7 99 4c          	  uxtr a9 a9 0x4c;
    29c8:	b3 99 00 cf 00    	  cmpbreq.w a9 0x0 0x2a97;
    29cd:	b3 90 01 f5       	  cmpbreq.w a9 0x1 0x29c2;
    29d1:	f8 02             	  halt;
    29d3:	3e c2 29 00       	  jmp 0x29c2;
    29d7:	cf f9 00          	  ldx a9 a15 0x0;
    29da:	c7 99 4c          	  uxtr a9 a9 0x4c;
    29dd:	b3 99 00 98 00    	  cmpbreq.w a9 0x0 0x2a75;
    29e2:	b3 90 01 f5       	  cmpbreq.w a9 0x1 0x29d7;
    29e6:	f8 02             	  halt;
    29e8:	3e d7 29 00       	  jmp 0x29d7;
    29ec:	cf f9 00          	  ldx a9 a15 0x0;
    29ef:	c7 99 4c          	  uxtr a9 a9 0x4c;
    29f2:	b3 90 00 6e       	  cmpbreq.w a9 0x0 0x2a60;
    29f6:	b3 90 01 f6       	  cmpbreq.w a9 0x1 0x29ec;
    29fa:	f8 02             	  halt;
    29fc:	3e ec 29 00       	  jmp 0x29ec;
    2a00:	7e 0d 7c 00       	  call 0x7c0d;
    2a04:	d9 00 00 00 40    	  mvi a9 0x40000000;
    2a09:	ff 09 94          	  and a9 a0 a9;
    2a0c:	f4 0b 07          	  breq 0x2a13;
    2a0f:	7e 21 7e 00       	  call 0x7e21;
    2a13:	d9 00 00 00 02    	  mvi a9 0x2000000;
    2a18:	df 00 00 00 04    	  mvi a15 0x4000000;
    2a1d:	ff 09 b4          	  and a11 a0 a9;
    2a20:	ff 0f 94          	  and a9 a0 a15;
    2a23:	f4 0b 06          	  breq 0x2a29;
    2a26:	fd bf 05          	  or a11 a15;
    2a29:	df 00 00 00 08    	  mvi a15 0x8000000;
    2a2e:	ff 0f 94          	  and a9 a0 a15;
    2a31:	f4 0b 06          	  breq 0x2a37;
    2a34:	fd bf 05          	  or a11 a15;
    2a37:	d9 0c 14 00 00    	  mvi a9 0x140c;
    2a3c:	bf 9a             	  ldd.w a10 a9;
    2a3e:	b8 aa c4 08 00    	  add.w a10 a10 0x8c4;
    2a43:	7e 2c 9f 00       	  call 0x9f2c;
    2a47:	fe 49 01          	  rspr a9 SP;
    2a4a:	90 99 04          	  add.w a9 a9 0x4;
    2a4d:	bf 9f             	  ldd.w a15 a9;
    2a4f:	d9 2c 06 00 00    	  mvi a9 0x62c;
    2a54:	bf 99             	  ldd.w a9 a9;
    2a56:	a6 f9             	  cmp.w a15 a9;
    2a58:	f5 0b e1 00       	  breq 0x2b39;
    2a5c:	3e 35 2b 00       	  jmp 0x2b35;
    2a60:	89 00 c2 01       	  mvi a9 0x1c200;
    2a64:	cf 99 00          	  ldx a9 a9 0x0;
    2a67:	ff 9d 04          	  and a0 a9 a13;
    2a6a:	95 09 1f          	  lsr.w a9 a0 0x1f;
    2a6d:	b3 94 01 97       	  cmpbrne.w a9 0x1 0x2a04;
    2a71:	3e 00 2a 00       	  jmp 0x2a00;
    2a75:	b8 ef a4 08 00    	  add.w a15 a14 0x8a4;
    2a7a:	89 00 c1 01       	  mvi a9 0x1c100;
    2a7e:	f6 9f 00          	  stx a9 0x0 a15;
    2a81:	df f1 00 00 80    	  mvi a15 -0x7fffff0f;
    2a86:	b8 99 00 01 02    	  sub.w a9 a9 0x100;
    2a8b:	f7 9f 00          	  stxb a9 0x0 a15;
    2a8e:	cf 9f 00          	  ldx a15 a9 0x0;
    2a91:	b2 9f             	  mv.w a15 a9;
    2a93:	3e ec 29 00       	  jmp 0x29ec;
    2a97:	89 00 c2 01       	  mvi a9 0x1c200;
    2a9b:	cf 9d 00          	  ldx a13 a9 0x0;
    2a9e:	8f 00 c0 01       	  mvi a15 0x1c000;
    2aa2:	3e d7 29 00       	  jmp 0x29d7;
    2aa6:	b8 ef 90 08 00    	  add.w a15 a14 0x890;
    2aab:	89 00 c1 01       	  mvi a9 0x1c100;
    2aaf:	f6 9f 00          	  stx a9 0x0 a15;
    2ab2:	df f1 00 00 80    	  mvi a15 -0x7fffff0f;
    2ab7:	b8 99 00 01 02    	  sub.w a9 a9 0x100;
    2abc:	f7 9f 00          	  stxb a9 0x0 a15;
    2abf:	cf 9f 00          	  ldx a15 a9 0x0;
    2ac2:	b2 9f             	  mv.w a15 a9;
    2ac4:	3e c2 29 00       	  jmp 0x29c2;
    2ac8:	89 00 c2 01       	  mvi a9 0x1c200;
    2acc:	cf 99 00          	  ldx a9 a9 0x0;
    2acf:	ff 9d 04          	  and a0 a9 a13;
    2ad2:	d9 00 00 00 01    	  mvi a9 0x1000000;
    2ad7:	ff 09 94          	  and a9 a0 a9;
    2ada:	f5 0b b9 fe       	  breq 0x2993;
    2ade:	3e 8f 29 00       	  jmp 0x298f;
    2ae2:	b8 ef 98 08 00    	  add.w a15 a14 0x898;
    2ae7:	89 00 c1 01       	  mvi a9 0x1c100;
    2aeb:	f6 9f 00          	  stx a9 0x0 a15;
    2aee:	df f1 00 00 80    	  mvi a15 -0x7fffff0f;
    2af3:	b8 99 00 01 02    	  sub.w a9 a9 0x100;
    2af8:	f7 9f 00          	  stxb a9 0x0 a15;
    2afb:	cf 9f 00          	  ldx a15 a9 0x0;
    2afe:	b2 9f             	  mv.w a15 a9;
    2b00:	3e 7a 29 00       	  jmp 0x297a;
    2b04:	89 00 c2 01       	  mvi a9 0x1c200;
    2b08:	cf 9d 00          	  ldx a13 a9 0x0;
    2b0b:	8f 00 c0 01       	  mvi a15 0x1c000;
    2b0f:	3e 65 29 00       	  jmp 0x2965;
    2b13:	b8 ef 84 08 00    	  add.w a15 a14 0x884;
    2b18:	89 00 c1 01       	  mvi a9 0x1c100;
    2b1c:	f6 9f 00          	  stx a9 0x0 a15;
    2b1f:	df f1 00 00 80    	  mvi a15 -0x7fffff0f;
    2b24:	b8 99 00 01 02    	  sub.w a9 a9 0x100;
    2b29:	f7 9f 00          	  stxb a9 0x0 a15;
    2b2c:	cf 9f 00          	  ldx a15 a9 0x0;
    2b2f:	b2 9f             	  mv.w a15 a9;
    2b31:	3e 50 29 00       	  jmp 0x2950;
    2b35:	7e e9 42 00       	  call 0x42e9;
    2b39:	fb 05 04          	  popma a0 0x1 0x4;

00002b3c <_lwlinkIsLinkInReset_LR10>:
    2b3c:	df 2c 06 00 00    	  mvi a15 0x62c;
    2b41:	bf ff             	  ldd.w a15 a15;
    2b43:	f4 30 fc          	  addsp -0x4;
    2b46:	fe 49 01          	  rspr a9 SP;
    2b49:	a0 9f             	  std.w a9 a15;
    2b4b:	8f 00 c0 01       	  mvi a15 0x1c000;
    2b4f:	cf f9 00          	  ldx a9 a15 0x0;
    2b52:	c7 99 4c          	  uxtr a9 a9 0x4c;
    2b55:	b3 90 00 41       	  cmpbreq.w a9 0x0 0x2b96;
    2b59:	b3 90 01 f6       	  cmpbreq.w a9 0x1 0x2b4f;
    2b5d:	f8 02             	  halt;
    2b5f:	3e 4f 2b 00       	  jmp 0x2b4f;
    2b63:	cf f9 00          	  ldx a9 a15 0x0;
    2b66:	c7 99 4c          	  uxtr a9 a9 0x4c;
    2b69:	b3 90 00 0e       	  cmpbreq.w a9 0x0 0x2b77;
    2b6d:	b3 90 01 f6       	  cmpbreq.w a9 0x1 0x2b63;
    2b71:	f8 02             	  halt;
    2b73:	3e 63 2b 00       	  jmp 0x2b63;
    2b77:	8a 00 c2 01       	  mvi a10 0x1c200;
    2b7b:	cf aa 00          	  ldx a10 a10 0x0;
    2b7e:	fe 49 01          	  rspr a9 SP;
    2b81:	bf 9f             	  ldd.w a15 a9;
    2b83:	d9 2c 06 00 00    	  mvi a9 0x62c;
    2b88:	bf 99             	  ldd.w a9 a9;
    2b8a:	c7 aa 01          	  uxtr a10 a10 0x1;
    2b8d:	a6 f9             	  cmp.w a15 a9;
    2b8f:	f4 0b 2d          	  breq 0x2bbc;
    2b92:	3e b8 2b 00       	  jmp 0x2bb8;
    2b96:	b8 af 80 03 00    	  add.w a15 a10 0x380;
    2b9b:	89 00 c1 01       	  mvi a9 0x1c100;
    2b9f:	f6 9f 00          	  stx a9 0x0 a15;
    2ba2:	df f1 00 00 80    	  mvi a15 -0x7fffff0f;
    2ba7:	b8 99 00 01 02    	  sub.w a9 a9 0x100;
    2bac:	f7 9f 00          	  stxb a9 0x0 a15;
    2baf:	cf 9f 00          	  ldx a15 a9 0x0;
    2bb2:	b2 9f             	  mv.w a15 a9;
    2bb4:	3e 63 2b 00       	  jmp 0x2b63;
    2bb8:	7e e9 42 00       	  call 0x42e9;
    2bbc:	f4 30 04          	  addsp 0x4;
    2bbf:	f8 00             	  ret;

00002bc1 <_lwlinkForceSlmAll_LR10>:
    2bc1:	f4 30 fc          	  addsp -0x4;
    2bc4:	d9 2c 06 00 00    	  mvi a9 0x62c;
    2bc9:	f9 82             	  pushm a8;
    2bcb:	bf 99             	  ldd.w a9 a9;
    2bcd:	fe 4f 01          	  rspr a15 SP;
    2bd0:	90 ff 24          	  add.w a15 a15 0x24;
    2bd3:	a0 f9             	  std.w a15 a9;
    2bd5:	33 a9 00 87 00    	  cmpbreq.b a10 0x0 0x2c5c;
    2bda:	bd 04             	  clr.w a0;
    2bdc:	d7 94 2a 00 00    	  mvi a7 0x2a94;
    2be1:	bd 14             	  clr.w a1;
    2be3:	83 00 c0 01       	  mvi a3 0x1c000;
    2be7:	86 00 c1 01       	  mvi a6 0x1c100;
    2beb:	d5 f1 00 00 80    	  mvi a5 -0x7fffff0f;
    2bf0:	84 00 c2 01       	  mvi a4 0x1c200;
    2bf4:	bf 7a             	  ldd.w a10 a7;
    2bf6:	98 7b 01          	  ldd.w a11 a7 0x4;
    2bf9:	b2 0c             	  mv.w a12 a0;
    2bfb:	7e 12 42 00       	  call 0x4212;
    2bff:	f0 a4 01          	  and a10 0x1;
    2c02:	f4 0b 48          	  breq 0x2c4a;
    2c05:	b2 0b             	  mv.w a11 a0;
    2c07:	bd c4             	  clr.w a12;
    2c09:	bd d4             	  clr.w a13;
    2c0b:	0a 08             	  mvi a10 0x8;
    2c0d:	7e 6b 24 00       	  call 0x246b;
    2c11:	b2 a2             	  mv.w a2 a10;
    2c13:	7e 3c 2b 00       	  call 0x2b3c;
    2c17:	33 a4 00 33       	  cmpbrne.b a10 0x0 0x2c4a;
    2c1b:	b8 2a 00 04 00    	  add.w a10 a2 0x400;
    2c20:	cf 39 00          	  ldx a9 a3 0x0;
    2c23:	c7 99 4c          	  uxtr a9 a9 0x4c;
    2c26:	b3 99 00 dc 00    	  cmpbreq.w a9 0x0 0x2d02;
    2c2b:	b3 90 01 f5       	  cmpbreq.w a9 0x1 0x2c20;
    2c2f:	f8 02             	  halt;
    2c31:	3e 20 2c 00       	  jmp 0x2c20;
    2c35:	cf 39 00          	  ldx a9 a3 0x0;
    2c38:	c7 99 4c          	  uxtr a9 a9 0x4c;
    2c3b:	b3 99 00 b9 00    	  cmpbreq.w a9 0x0 0x2cf4;
    2c40:	b3 90 01 f5       	  cmpbreq.w a9 0x1 0x2c35;
    2c44:	f8 02             	  halt;
    2c46:	3e 35 2c 00       	  jmp 0x2c35;
    2c4a:	90 00 01          	  add.w a0 a0 0x1;
    2c4d:	91 11 00          	  addc.w a1 a1 0x0;
    2c50:	b3 04 24 a4       	  cmpbrne.w a0 0x24 0x2bf4;
    2c54:	b3 14 00 a0       	  cmpbrne.w a1 0x0 0x2bf4;
    2c58:	3e da 2c 00       	  jmp 0x2cda;
    2c5c:	bd 04             	  clr.w a0;
    2c5e:	d8 94 2a 00 00    	  mvi a8 0x2a94;
    2c63:	bd 14             	  clr.w a1;
    2c65:	83 00 c0 01       	  mvi a3 0x1c000;
    2c69:	87 00 c1 01       	  mvi a7 0x1c100;
    2c6d:	d6 f1 00 00 80    	  mvi a6 -0x7fffff0f;
    2c72:	85 00 c2 01       	  mvi a5 0x1c200;
    2c76:	04 fe             	  mvi a4 -0x2;
    2c78:	bf 8a             	  ldd.w a10 a8;
    2c7a:	98 8b 01          	  ldd.w a11 a8 0x4;
    2c7d:	b2 0c             	  mv.w a12 a0;
    2c7f:	7e 12 42 00       	  call 0x4212;
    2c83:	f0 a4 01          	  and a10 0x1;
    2c86:	f4 0b 46          	  breq 0x2ccc;
    2c89:	b2 0b             	  mv.w a11 a0;
    2c8b:	bd c4             	  clr.w a12;
    2c8d:	bd d4             	  clr.w a13;
    2c8f:	0a 08             	  mvi a10 0x8;
    2c91:	7e 6b 24 00       	  call 0x246b;
    2c95:	b2 a2             	  mv.w a2 a10;
    2c97:	7e 3c 2b 00       	  call 0x2b3c;
    2c9b:	33 a4 00 31       	  cmpbrne.b a10 0x0 0x2ccc;
    2c9f:	b8 2a 00 04 00    	  add.w a10 a2 0x400;
    2ca4:	cf 39 00          	  ldx a9 a3 0x0;
    2ca7:	c7 99 4c          	  uxtr a9 a9 0x4c;
    2caa:	b3 90 00 73       	  cmpbreq.w a9 0x0 0x2d1d;
    2cae:	b3 90 01 f6       	  cmpbreq.w a9 0x1 0x2ca4;
    2cb2:	f8 02             	  halt;
    2cb4:	3e a4 2c 00       	  jmp 0x2ca4;
    2cb8:	cf 39 00          	  ldx a9 a3 0x0;
    2cbb:	c7 99 4c          	  uxtr a9 a9 0x4c;
    2cbe:	b3 90 00 51       	  cmpbreq.w a9 0x0 0x2d0f;
    2cc2:	b3 90 01 f6       	  cmpbreq.w a9 0x1 0x2cb8;
    2cc6:	f8 02             	  halt;
    2cc8:	3e b8 2c 00       	  jmp 0x2cb8;
    2ccc:	90 00 01          	  add.w a0 a0 0x1;
    2ccf:	91 11 00          	  addc.w a1 a1 0x0;
    2cd2:	b3 04 24 a6       	  cmpbrne.w a0 0x24 0x2c78;
    2cd6:	b3 14 00 a2       	  cmpbrne.w a1 0x0 0x2c78;
    2cda:	fe 49 01          	  rspr a9 SP;
    2cdd:	90 99 24          	  add.w a9 a9 0x24;
    2ce0:	bf 9f             	  ldd.w a15 a9;
    2ce2:	d9 2c 06 00 00    	  mvi a9 0x62c;
    2ce7:	bf 99             	  ldd.w a9 a9;
    2ce9:	3d a4             	  clr.b a10;
    2ceb:	a6 f9             	  cmp.w a15 a9;
    2ced:	f4 0b 41          	  breq 0x2d2e;
    2cf0:	3e 2a 2d 00       	  jmp 0x2d2a;
    2cf4:	cf 4b 00          	  ldx a11 a4 0x0;
    2cf7:	f0 b5 01          	  or a11 0x1;
    2cfa:	7e 6f 47 00       	  call 0x476f;
    2cfe:	3e 4a 2c 00       	  jmp 0x2c4a;
    2d02:	f6 6a 00          	  stx a6 0x0 a10;
    2d05:	f7 35 00          	  stxb a3 0x0 a5;
    2d08:	cf 39 00          	  ldx a9 a3 0x0;
    2d0b:	3e 35 2c 00       	  jmp 0x2c35;
    2d0f:	cf 5b 00          	  ldx a11 a5 0x0;
    2d12:	fd b4 04          	  and a11 a4;
    2d15:	7e 6f 47 00       	  call 0x476f;
    2d19:	3e cc 2c 00       	  jmp 0x2ccc;
    2d1d:	f6 7a 00          	  stx a7 0x0 a10;
    2d20:	f7 36 00          	  stxb a3 0x0 a6;
    2d23:	cf 39 00          	  ldx a9 a3 0x0;
    2d26:	3e b8 2c 00       	  jmp 0x2cb8;
    2d2a:	7e e9 42 00       	  call 0x42e9;
    2d2e:	fb 85 04          	  popma a8 0x1 0x4;

00002d31 <_pmgrService_LR10>:
    2d31:	f4 30 fc          	  addsp -0x4;
    2d34:	df 2c 06 00 00    	  mvi a15 0x62c;
    2d39:	f9 02             	  pushm a0;
    2d3b:	bf ff             	  ldd.w a15 a15;
    2d3d:	fe 49 01          	  rspr a9 SP;
    2d40:	90 99 04          	  add.w a9 a9 0x4;
    2d43:	a0 9f             	  std.w a9 a15;
    2d45:	8f 00 c0 01       	  mvi a15 0x1c000;
    2d49:	cf f9 00          	  ldx a9 a15 0x0;
    2d4c:	c7 99 4c          	  uxtr a9 a9 0x4c;
    2d4f:	b3 90 00 4f       	  cmpbreq.w a9 0x0 0x2d9e;
    2d53:	b3 90 01 f6       	  cmpbreq.w a9 0x1 0x2d49;
    2d57:	f8 02             	  halt;
    2d59:	3e 49 2d 00       	  jmp 0x2d49;
    2d5d:	cf f9 00          	  ldx a9 a15 0x0;
    2d60:	c7 99 4c          	  uxtr a9 a9 0x4c;
    2d63:	b3 90 00 2a       	  cmpbreq.w a9 0x0 0x2d8d;
    2d67:	b3 90 01 f6       	  cmpbreq.w a9 0x1 0x2d5d;
    2d6b:	f8 02             	  halt;
    2d6d:	3e 5d 2d 00       	  jmp 0x2d5d;
    2d71:	7e da 2d 00       	  call 0x2dda;
    2d75:	c4 09 30          	  and a9 a0 0x30;
    2d78:	f4 0b 07          	  breq 0x2d7f;
    2d7b:	7e 5a 2e 00       	  call 0x2e5a;
    2d7f:	c4 09 40          	  and a9 a0 0x40;
    2d82:	f4 0b 3d          	  breq 0x2dbf;
    2d85:	7e 92 2e 00       	  call 0x2e92;
    2d89:	3e bf 2d 00       	  jmp 0x2dbf;
    2d8d:	89 00 c2 01       	  mvi a9 0x1c200;
    2d91:	cf 90 00          	  ldx a0 a9 0x0;
    2d94:	c4 09 01          	  and a9 a0 0x1;
    2d97:	f4 0b de          	  breq 0x2d75;
    2d9a:	3e 71 2d 00       	  jmp 0x2d71;
    2d9e:	8f 48 b0 01       	  mvi a15 0x1b048;
    2da2:	89 00 c1 01       	  mvi a9 0x1c100;
    2da6:	f6 9f 00          	  stx a9 0x0 a15;
    2da9:	df f1 00 00 80    	  mvi a15 -0x7fffff0f;
    2dae:	b8 99 00 01 02    	  sub.w a9 a9 0x100;
    2db3:	f7 9f 00          	  stxb a9 0x0 a15;
    2db6:	cf 9f 00          	  ldx a15 a9 0x0;
    2db9:	b2 9f             	  mv.w a15 a9;
    2dbb:	3e 5d 2d 00       	  jmp 0x2d5d;
    2dbf:	fe 49 01          	  rspr a9 SP;
    2dc2:	90 99 04          	  add.w a9 a9 0x4;
    2dc5:	bf 9f             	  ldd.w a15 a9;
    2dc7:	d9 2c 06 00 00    	  mvi a9 0x62c;
    2dcc:	bf 99             	  ldd.w a9 a9;
    2dce:	a6 f9             	  cmp.w a15 a9;
    2dd0:	f4 0b 07          	  breq 0x2dd7;
    2dd3:	7e e9 42 00       	  call 0x42e9;
    2dd7:	fb 05 04          	  popma a0 0x1 0x4;

00002dda <_i2cService_LR10>:
    2dda:	df 2c 06 00 00    	  mvi a15 0x62c;
    2ddf:	bf ff             	  ldd.w a15 a15;
    2de1:	f4 30 fc          	  addsp -0x4;
    2de4:	fe 49 01          	  rspr a9 SP;
    2de7:	a0 9f             	  std.w a9 a15;
    2de9:	8f 00 c0 01       	  mvi a15 0x1c000;
    2ded:	cf f9 00          	  ldx a9 a15 0x0;
    2df0:	c7 99 4c          	  uxtr a9 a9 0x4c;
    2df3:	b3 90 00 22       	  cmpbreq.w a9 0x0 0x2e15;
    2df7:	b3 90 01 f6       	  cmpbreq.w a9 0x1 0x2ded;
    2dfb:	f8 02             	  halt;
    2dfd:	3e ed 2d 00       	  jmp 0x2ded;
    2e01:	cf f9 00          	  ldx a9 a15 0x0;
    2e04:	c7 99 4c          	  uxtr a9 a9 0x4c;
    2e07:	b3 90 00 39       	  cmpbreq.w a9 0x0 0x2e40;
    2e0b:	b3 90 01 f6       	  cmpbreq.w a9 0x1 0x2e01;
    2e0f:	f8 02             	  halt;
    2e11:	3e 01 2e 00       	  jmp 0x2e01;
    2e15:	8f 24 ad 01       	  mvi a15 0x1ad24;
    2e19:	89 00 c1 01       	  mvi a9 0x1c100;
    2e1d:	f6 9f 00          	  stx a9 0x0 a15;
    2e20:	bd f4             	  clr.w a15;
    2e22:	b8 99 00 01 00    	  add.w a9 a9 0x100;
    2e27:	f6 9f 00          	  stx a9 0x0 a15;
    2e2a:	df f2 00 00 80    	  mvi a15 -0x7fffff0e;
    2e2f:	b8 99 00 02 02    	  sub.w a9 a9 0x200;
    2e34:	f6 9f 00          	  stx a9 0x0 a15;
    2e37:	cf 9f 00          	  ldx a15 a9 0x0;
    2e3a:	b2 9f             	  mv.w a15 a9;
    2e3c:	3e 01 2e 00       	  jmp 0x2e01;
    2e40:	fe 49 01          	  rspr a9 SP;
    2e43:	bf 9f             	  ldd.w a15 a9;
    2e45:	d9 2c 06 00 00    	  mvi a9 0x62c;
    2e4a:	bf 99             	  ldd.w a9 a9;
    2e4c:	a6 f9             	  cmp.w a15 a9;
    2e4e:	f4 0b 07          	  breq 0x2e55;
    2e51:	7e e9 42 00       	  call 0x42e9;
    2e55:	f4 30 04          	  addsp 0x4;
    2e58:	f8 00             	  ret;

00002e5a <_gpioService_LR10>:
    2e5a:	f4 30 fc          	  addsp -0x4;
    2e5d:	f9 12             	  pushm a1;
    2e5f:	d1 2c 06 00 00    	  mvi a1 0x62c;
    2e64:	bf 19             	  ldd.w a9 a1;
    2e66:	8a 04 ad 01       	  mvi a10 0x1ad04;
    2e6a:	bd b4             	  clr.w a11;
    2e6c:	fe 40 01          	  rspr a0 SP;
    2e6f:	90 00 08          	  add.w a0 a0 0x8;
    2e72:	a0 09             	  std.w a0 a9;
    2e74:	7e e9 47 00       	  call 0x47e9;
    2e78:	8a 84 ad 01       	  mvi a10 0x1ad84;
    2e7c:	bd b4             	  clr.w a11;
    2e7e:	7e e9 47 00       	  call 0x47e9;
    2e82:	bf 0f             	  ldd.w a15 a0;
    2e84:	bf 19             	  ldd.w a9 a1;
    2e86:	a6 f9             	  cmp.w a15 a9;
    2e88:	f4 0b 07          	  breq 0x2e8f;
    2e8b:	7e e9 42 00       	  call 0x42e9;
    2e8f:	fb 15 04          	  popma a1 0x1 0x4;

00002e92 <_spiService_LR10>:
    2e92:	df 2c 06 00 00    	  mvi a15 0x62c;
    2e97:	bf ff             	  ldd.w a15 a15;
    2e99:	f4 30 fc          	  addsp -0x4;
    2e9c:	fe 49 01          	  rspr a9 SP;
    2e9f:	a0 9f             	  std.w a9 a15;
    2ea1:	8f 00 c0 01       	  mvi a15 0x1c000;
    2ea5:	cf f9 00          	  ldx a9 a15 0x0;
    2ea8:	c7 99 4c          	  uxtr a9 a9 0x4c;
    2eab:	b3 90 00 22       	  cmpbreq.w a9 0x0 0x2ecd;
    2eaf:	b3 90 01 f6       	  cmpbreq.w a9 0x1 0x2ea5;
    2eb3:	f8 02             	  halt;
    2eb5:	3e a5 2e 00       	  jmp 0x2ea5;
    2eb9:	cf f9 00          	  ldx a9 a15 0x0;
    2ebc:	c7 99 4c          	  uxtr a9 a9 0x4c;
    2ebf:	b3 90 00 39       	  cmpbreq.w a9 0x0 0x2ef8;
    2ec3:	b3 90 01 f6       	  cmpbreq.w a9 0x1 0x2eb9;
    2ec7:	f8 02             	  halt;
    2ec9:	3e b9 2e 00       	  jmp 0x2eb9;
    2ecd:	8f a4 ad 01       	  mvi a15 0x1ada4;
    2ed1:	89 00 c1 01       	  mvi a9 0x1c100;
    2ed5:	f6 9f 00          	  stx a9 0x0 a15;
    2ed8:	bd f4             	  clr.w a15;
    2eda:	b8 99 00 01 00    	  add.w a9 a9 0x100;
    2edf:	f6 9f 00          	  stx a9 0x0 a15;
    2ee2:	df f2 00 00 80    	  mvi a15 -0x7fffff0e;
    2ee7:	b8 99 00 02 02    	  sub.w a9 a9 0x200;
    2eec:	f6 9f 00          	  stx a9 0x0 a15;
    2eef:	cf 9f 00          	  ldx a15 a9 0x0;
    2ef2:	b2 9f             	  mv.w a15 a9;
    2ef4:	3e b9 2e 00       	  jmp 0x2eb9;
    2ef8:	fe 49 01          	  rspr a9 SP;
    2efb:	bf 9f             	  ldd.w a15 a9;
    2efd:	d9 2c 06 00 00    	  mvi a9 0x62c;
    2f02:	bf 99             	  ldd.w a9 a9;
    2f04:	a6 f9             	  cmp.w a15 a9;
    2f06:	f4 0b 07          	  breq 0x2f0d;
    2f09:	7e e9 42 00       	  call 0x42e9;
    2f0d:	f4 30 04          	  addsp 0x4;
    2f10:	f8 00             	  ret;

00002f12 <_spiRomLookup_LR10>:
    2f12:	df 2c 06 00 00    	  mvi a15 0x62c;
    2f17:	bf ff             	  ldd.w a15 a15;
    2f19:	f4 30 fc          	  addsp -0x4;
    2f1c:	fe 49 01          	  rspr a9 SP;
    2f1f:	95 be 18          	  lsr.w a14 a11 0x18;
    2f22:	a0 9f             	  std.w a9 a15;
    2f24:	b2 ad             	  mv.w a13 a10;
    2f26:	95 b9 10          	  lsr.w a9 a11 0x10;
    2f29:	df a8 05 00 00    	  mvi a15 0x5a8;
    2f2e:	76 94 08          	  lsl.h a9 0x8;
    2f31:	b6 b5 08          	  lsr.w a11 0x8;
    2f34:	ff 9e e5          	  or a14 a9 a14;
    2f37:	3e 5c 2f 00       	  jmp 0x2f5c;
    2f3b:	26 9b             	  cmp.b a9 a11;
    2f3d:	f4 1b 1c          	  brne 0x2f59;
    2f40:	58 f9 01          	  ldd.h a9 a15 0x2;
    2f43:	66 9e             	  cmp.h a9 a14;
    2f45:	f4 1b 14          	  brne 0x2f59;
    2f48:	7f f9             	  ldd.h a9 a15;
    2f4a:	3d a4             	  clr.b a10;
    2f4c:	75 d9 08          	  std.h a13 0x10 a9;
    2f4f:	58 ff 01          	  ldd.h a15 a15 0x2;
    2f52:	75 df 09          	  std.h a13 0x12 a15;
    2f55:	3e 64 2f 00       	  jmp 0x2f64;
    2f59:	90 ff 04          	  add.w a15 a15 0x4;
    2f5c:	3f f9             	  ldd.b a9 a15;
    2f5e:	33 94 00 dd       	  cmpbrne.b a9 0x0 0x2f3b;
    2f62:	0a 01             	  mvi a10 0x1;
    2f64:	fe 49 01          	  rspr a9 SP;
    2f67:	bf 9f             	  ldd.w a15 a9;
    2f69:	d9 2c 06 00 00    	  mvi a9 0x62c;
    2f6e:	bf 99             	  ldd.w a9 a9;
    2f70:	a6 f9             	  cmp.w a15 a9;
    2f72:	f4 0b 07          	  breq 0x2f79;
    2f75:	7e e9 42 00       	  call 0x42e9;
    2f79:	f4 30 04          	  addsp 0x4;
    2f7c:	f8 00             	  ret;

00002f7e <_spiRomGetStatus_LR10>:
    2f7e:	df 2c 06 00 00    	  mvi a15 0x62c;
    2f83:	bf ff             	  ldd.w a15 a15;
    2f85:	f4 30 fc          	  addsp -0x4;
    2f88:	fe 49 01          	  rspr a9 SP;
    2f8b:	a0 9f             	  std.w a9 a15;
    2f8d:	b2 a9             	  mv.w a9 a10;
    2f8f:	0a 02             	  mvi a10 0x2;
    2f91:	b3 b0 00 0b       	  cmpbreq.w a11 0x0 0x2f9c;
    2f95:	b6 95 08          	  lsr.w a9 0x8;
    2f98:	3d a4             	  clr.b a10;
    2f9a:	20 b9             	  std.b a11 a9;
    2f9c:	fe 49 01          	  rspr a9 SP;
    2f9f:	bf 9f             	  ldd.w a15 a9;
    2fa1:	d9 2c 06 00 00    	  mvi a9 0x62c;
    2fa6:	bf 99             	  ldd.w a9 a9;
    2fa8:	a6 f9             	  cmp.w a15 a9;
    2faa:	f4 0b 07          	  breq 0x2fb1;
    2fad:	7e e9 42 00       	  call 0x42e9;
    2fb1:	f4 30 04          	  addsp 0x4;
    2fb4:	f8 00             	  ret;

00002fb6 <_spiRomInitInforomRegionFromScratch_LR10>:
    2fb6:	f4 30 fc          	  addsp -0x4;
    2fb9:	df 2c 06 00 00    	  mvi a15 0x62c;
    2fbe:	f9 02             	  pushm a0;
    2fc0:	bf ff             	  ldd.w a15 a15;
    2fc2:	fe 49 01          	  rspr a9 SP;
    2fc5:	90 99 04          	  add.w a9 a9 0x4;
    2fc8:	b2 a0             	  mv.w a0 a10;
    2fca:	a0 9f             	  std.w a9 a15;
    2fcc:	b3 a0 00 65       	  cmpbreq.w a10 0x0 0x3031;
    2fd0:	98 a9 05          	  ldd.w a9 a10 0x14;
    2fd3:	b3 90 00 5e       	  cmpbreq.w a9 0x0 0x3031;
    2fd7:	d9 0c 14 00 00    	  mvi a9 0x140c;
    2fdc:	bf 9a             	  ldd.w a10 a9;
    2fde:	b8 aa e8 04 00    	  add.w a10 a10 0x4e8;
    2fe3:	7e 22 1c 00       	  call 0x1c22;
    2fe7:	e7 a9 68 01       	  uxtr a9 a10 0x168;
    2feb:	b3 9a ff 0f 4c    	  cmpbreq.w a9 0xfff 0x3037;
    2ff0:	b3 90 00 47       	  cmpbreq.w a9 0x0 0x3037;
    2ff4:	b6 a5 14          	  lsr.w a10 0x14;
    2ff7:	b3 aa ff 0f 40    	  cmpbreq.w a10 0xfff 0x3037;
    2ffc:	b3 a0 00 3b       	  cmpbreq.w a10 0x0 0x3037;
    3000:	98 0e 05          	  ldd.w a14 a0 0x14;
    3003:	b6 94 0c          	  lsl.w a9 0xc;
    3006:	94 af 0c          	  lsl.w a15 a10 0xc;
    3009:	3d a4             	  clr.b a10;
    300b:	a0 e9             	  std.w a14 a9;
    300d:	98 0e 05          	  ldd.w a14 a0 0x14;
    3010:	bf e9             	  ldd.w a9 a14;
    3012:	bc f9 f0          	  add.w a15 a15 a9;
    3015:	b5 ef 01          	  std.w a14 0x4 a15;
    3018:	98 0f 07          	  ldd.w a15 a0 0x1c;
    301b:	bd 94             	  clr.w a9;
    301d:	a0 f9             	  std.w a15 a9;
    301f:	98 09 05          	  ldd.w a9 a0 0x14;
    3022:	98 0f 07          	  ldd.w a15 a0 0x1c;
    3025:	bf 99             	  ldd.w a9 a9;
    3027:	92 99 01          	  sub.w a9 a9 0x1;
    302a:	b5 f9 01          	  std.w a15 0x4 a9;
    302d:	3e 39 30 00       	  jmp 0x3039;
    3031:	0a 35             	  mvi a10 0x35;
    3033:	3e 39 30 00       	  jmp 0x3039;
    3037:	0a 2e             	  mvi a10 0x2e;
    3039:	fe 49 01          	  rspr a9 SP;
    303c:	90 99 04          	  add.w a9 a9 0x4;
    303f:	bf 9f             	  ldd.w a15 a9;
    3041:	d9 2c 06 00 00    	  mvi a9 0x62c;
    3046:	bf 99             	  ldd.w a9 a9;
    3048:	a6 f9             	  cmp.w a15 a9;
    304a:	f4 0b 07          	  breq 0x3051;
    304d:	7e e9 42 00       	  call 0x42e9;
    3051:	fb 05 04          	  popma a0 0x1 0x4;

00003054 <_spiReadData_LR10>:
    3054:	f4 30 fc          	  addsp -0x4;
    3057:	d9 2c 06 00 00    	  mvi a9 0x62c;
    305c:	f9 32             	  pushm a3;
    305e:	bf 99             	  ldd.w a9 a9;
    3060:	fe 4f 01          	  rspr a15 SP;
    3063:	90 ff 10          	  add.w a15 a15 0x10;
    3066:	a0 f9             	  std.w a15 a9;
    3068:	b2 af             	  mv.w a15 a10;
    306a:	c4 b9 03          	  and a9 a11 0x3;
    306d:	0a 02             	  mvi a10 0x2;
    306f:	f4 1b 32          	  brne 0x30a1;
    3072:	c4 c9 ff          	  and a9 a12 0xff;
    3075:	b2 f2             	  mv.w a2 a15;
    3077:	b8 99 28 39 00    	  add.w a9 a9 0x3928;
    307c:	e7 b3 a2 01       	  uxtr a3 a11 0x1a2;
    3080:	94 91 02          	  lsl.w a1 a9 0x2;
    3083:	bd 04             	  clr.w a0;
    3085:	3e 9a 30 00       	  jmp 0x309a;
    3089:	b2 1a             	  mv.w a10 a1;
    308b:	90 00 01          	  add.w a0 a0 0x1;
    308e:	7e 22 1c 00       	  call 0x1c22;
    3092:	90 11 04          	  add.w a1 a1 0x4;
    3095:	a0 2a             	  std.w a2 a10;
    3097:	90 22 04          	  add.w a2 a2 0x4;
    309a:	a6 03             	  cmp.w a0 a3;
    309c:	f4 08 ed          	  brc 0x3089;
    309f:	3d a4             	  clr.b a10;
    30a1:	fe 49 01          	  rspr a9 SP;
    30a4:	90 99 10          	  add.w a9 a9 0x10;
    30a7:	bf 9f             	  ldd.w a15 a9;
    30a9:	d9 2c 06 00 00    	  mvi a9 0x62c;
    30ae:	bf 99             	  ldd.w a9 a9;
    30b0:	a6 f9             	  cmp.w a15 a9;
    30b2:	f4 0b 07          	  breq 0x30b9;
    30b5:	7e e9 42 00       	  call 0x42e9;
    30b9:	fb 35 04          	  popma a3 0x1 0x4;

000030bc <_spiSetFrequency_LR10>:
    30bc:	f4 30 fc          	  addsp -0x4;
    30bf:	f9 12             	  pushm a1;
    30c1:	bf a9             	  ldd.w a9 a10;
    30c3:	18 af 09          	  ldd.b a15 a10 0x9;
    30c6:	18 ab 08          	  ldd.b a11 a10 0x8;
    30c9:	d0 2c 06 00 00    	  mvi a0 0x62c;
    30ce:	b8 99 69 39 00    	  add.w a9 a9 0x3969;
    30d3:	94 9a 02          	  lsl.w a10 a9 0x2;
    30d6:	bf 09             	  ldd.w a9 a0;
    30d8:	fe 41 01          	  rspr a1 SP;
    30db:	f0 f4 01          	  and a15 0x1;
    30de:	90 11 08          	  add.w a1 a1 0x8;
    30e1:	bc ff f0          	  add.w a15 a15 a15;
    30e4:	a0 19             	  std.w a1 a9;
    30e6:	d9 44 00 88 00    	  mvi a9 0x880044;
    30eb:	f0 b4 01          	  and a11 0x1;
    30ee:	fd b9 05          	  or a11 a9;
    30f1:	fd bf 05          	  or a11 a15;
    30f4:	7e b1 1c 00       	  call 0x1cb1;
    30f8:	bf 1f             	  ldd.w a15 a1;
    30fa:	bf 09             	  ldd.w a9 a0;
    30fc:	3d a4             	  clr.b a10;
    30fe:	a6 f9             	  cmp.w a15 a9;
    3100:	f4 0b 07          	  breq 0x3107;
    3103:	7e e9 42 00       	  call 0x42e9;
    3107:	fb 15 04          	  popma a1 0x1 0x4;

0000310a <_spiRomSerialBypassEnable_LR10>:
    310a:	f4 30 fc          	  addsp -0x4;
    310d:	df 2c 06 00 00    	  mvi a15 0x62c;
    3112:	f9 22             	  pushm a2;
    3114:	bf ff             	  ldd.w a15 a15;
    3116:	fe 49 01          	  rspr a9 SP;
    3119:	90 99 0c          	  add.w a9 a9 0xc;
    311c:	b2 a0             	  mv.w a0 a10;
    311e:	a0 9f             	  std.w a9 a15;
    3120:	32 b1             	  mv.b a1 a11;
    3122:	b2 c2             	  mv.w a2 a12;
    3124:	0a 35             	  mvi a10 0x35;
    3126:	b3 00 00 69       	  cmpbreq.w a0 0x0 0x318f;
    312a:	bf 09             	  ldd.w a9 a0;
    312c:	b3 94 00 61       	  cmpbrne.w a9 0x0 0x318d;
    3130:	98 09 01          	  ldd.w a9 a0 0x4;
    3133:	b3 94 00 5a       	  cmpbrne.w a9 0x0 0x318d;
    3137:	8a 04 e2 00       	  mvi a10 0xe204;
    313b:	7e 22 1c 00       	  call 0x1c22;
    313f:	c4 1e ff          	  and a14 a1 0xff;
    3142:	c4 a9 01          	  and a9 a10 0x1;
    3145:	a6 9e             	  cmp.w a9 a14;
    3147:	f4 1b 09          	  brne 0x3150;
    314a:	3d 94             	  clr.b a9;
    314c:	3e 81 31 00       	  jmp 0x3181;
    3150:	18 0f 08          	  ldd.b a15 a0 0x8;
    3153:	09 f3             	  mvi a9 -0xd;
    3155:	f0 e4 01          	  and a14 0x1;
    3158:	c5 ab 02          	  or a11 a10 0x2;
    315b:	f0 f4 01          	  and a15 0x1;
    315e:	fd b9 04          	  and a11 a9;
    3161:	b6 f4 02          	  lsl.w a15 0x2;
    3164:	09 fe             	  mvi a9 -0x2;
    3166:	fd bf 05          	  or a11 a15;
    3169:	8a 04 e2 00       	  mvi a10 0xe204;
    316d:	fd b9 04          	  and a11 a9;
    3170:	fd be 05          	  or a11 a14;
    3173:	7e b1 1c 00       	  call 0x1cb1;
    3177:	8a 04 e2 00       	  mvi a10 0xe204;
    317b:	7e 22 1c 00       	  call 0x1c22;
    317f:	09 01             	  mvi a9 0x1;
    3181:	b3 20 00 06       	  cmpbreq.w a2 0x0 0x3187;
    3185:	20 29             	  std.b a2 a9;
    3187:	3d a4             	  clr.b a10;
    3189:	3e 8f 31 00       	  jmp 0x318f;
    318d:	0a 01             	  mvi a10 0x1;
    318f:	fe 49 01          	  rspr a9 SP;
    3192:	90 99 0c          	  add.w a9 a9 0xc;
    3195:	bf 9f             	  ldd.w a15 a9;
    3197:	d9 2c 06 00 00    	  mvi a9 0x62c;
    319c:	bf 99             	  ldd.w a9 a9;
    319e:	a6 f9             	  cmp.w a15 a9;
    31a0:	f4 0b 07          	  breq 0x31a7;
    31a3:	7e e9 42 00       	  call 0x42e9;
    31a7:	fb 25 04          	  popma a2 0x1 0x4;

000031aa <_spiRomReadDirect_LR10>:
    31aa:	f4 30 f8          	  addsp -0x8;
    31ad:	df 2c 06 00 00    	  mvi a15 0x62c;
    31b2:	f9 52             	  pushm a5;
    31b4:	bf ff             	  ldd.w a15 a15;
    31b6:	fe 49 01          	  rspr a9 SP;
    31b9:	90 99 1c          	  add.w a9 a9 0x1c;
    31bc:	b2 a3             	  mv.w a3 a10;
    31be:	a0 9f             	  std.w a9 a15;
    31c0:	b2 b0             	  mv.w a0 a11;
    31c2:	72 c2             	  mv.h a2 a12;
    31c4:	b2 d4             	  mv.w a4 a13;
    31c6:	0a 35             	  mvi a10 0x35;
    31c8:	b3 39 00 c7 00    	  cmpbreq.w a3 0x0 0x328f;
    31cd:	73 c9 00 ba 00    	  cmpbreq.h a12 0x0 0x3287;
    31d2:	b3 d9 00 b5 00    	  cmpbreq.w a13 0x0 0x3287;
    31d7:	bf 39             	  ldd.w a9 a3;
    31d9:	b3 9d 00 b4 00    	  cmpbrne.w a9 0x0 0x328d;
    31de:	98 39 01          	  ldd.w a9 a3 0x4;
    31e1:	b3 9d 00 ac 00    	  cmpbrne.w a9 0x0 0x328d;
    31e6:	8a 08 e2 00       	  mvi a10 0xe208;
    31ea:	7e 22 1c 00       	  call 0x1c22;
    31ee:	c4 a9 01          	  and a9 a10 0x1;
    31f1:	f4 0b 0d          	  breq 0x31fe;
    31f4:	e7 a9 a2 02       	  uxtr a9 a10 0x2a2;
    31f8:	b6 94 02          	  lsl.w a9 0x2;
    31fb:	bb 09 02          	  sub.w a0 a9;
    31fe:	fe 4c 01          	  rspr a12 SP;
    3201:	b2 3a             	  mv.w a10 a3;
    3203:	3d b4             	  clr.b a11;
    3205:	90 cc 1b          	  add.w a12 a12 0x1b;
    3208:	7e 0a 31 00       	  call 0x310a;
    320c:	33 ad 00 83 00    	  cmpbrne.b a10 0x0 0x328f;
    3211:	89 00 00 30       	  mvi a9 0x300000;
    3215:	c4 01 03          	  and a1 a0 0x3;
    3218:	05 04             	  mvi a5 0x4;
    321a:	bc 09 00          	  add.w a0 a0 a9;
    321d:	c4 19 ff          	  and a9 a1 0xff;
    3220:	bb 09 02          	  sub.w a0 a9;
    3223:	b2 0a             	  mv.w a10 a0;
    3225:	7e 22 1c 00       	  call 0x1c22;
    3229:	c4 19 ff          	  and a9 a1 0xff;
    322c:	bc 59 f2          	  sub.w a15 a5 a9;
    322f:	e4 29 ff ff       	  and a9 a2 0xffff;
    3233:	a6 f9             	  cmp.w a15 a9;
    3235:	f4 1d 07          	  brslte 0x323c;
    3238:	e4 2f ff ff       	  and a15 a2 0xffff;
    323c:	32 fe             	  mv.b a14 a15;
    323e:	bd f4             	  clr.w a15;
    3240:	3e 56 32 00       	  jmp 0x3256;
    3244:	3c 91 90          	  add.b a9 a9 a1;
    3247:	f0 94 03          	  and a9 0x3;
    324a:	b6 94 03          	  lsl.w a9 0x3;
    324d:	bc a9 95          	  lsr.w a9 a10 a9;
    3250:	3c 49 f9          	  std.b a4 a15 a9;
    3253:	90 ff 01          	  add.w a15 a15 0x1;
    3256:	32 f9             	  mv.b a9 a15;
    3258:	26 fe             	  cmp.b a15 a14;
    325a:	f4 08 ea          	  brc 0x3244;
    325d:	c4 e9 ff          	  and a9 a14 0xff;
    3260:	90 00 04          	  add.w a0 a0 0x4;
    3263:	7b 29 02          	  sub.h a2 a9;
    3266:	73 20 00 0d       	  cmpbreq.h a2 0x0 0x3273;
    326a:	bc 49 40          	  add.w a4 a4 a9;
    326d:	3d 14             	  clr.b a1;
    326f:	3e 23 32 00       	  jmp 0x3223;
    3273:	fe 49 01          	  rspr a9 SP;
    3276:	90 99 1b          	  add.w a9 a9 0x1b;
    3279:	3f 9b             	  ldd.b a11 a9;
    327b:	b2 3a             	  mv.w a10 a3;
    327d:	bd c4             	  clr.w a12;
    327f:	7e 0a 31 00       	  call 0x310a;
    3283:	3e 8f 32 00       	  jmp 0x328f;
    3287:	0a 02             	  mvi a10 0x2;
    3289:	3e 8f 32 00       	  jmp 0x328f;
    328d:	0a 01             	  mvi a10 0x1;
    328f:	fe 49 01          	  rspr a9 SP;
    3292:	90 99 1c          	  add.w a9 a9 0x1c;
    3295:	bf 9f             	  ldd.w a15 a9;
    3297:	d9 2c 06 00 00    	  mvi a9 0x62c;
    329c:	bf 99             	  ldd.w a9 a9;
    329e:	a6 f9             	  cmp.w a15 a9;
    32a0:	f4 0b 07          	  breq 0x32a7;
    32a3:	7e e9 42 00       	  call 0x42e9;
    32a7:	fb 55 08          	  popma a5 0x1 0x8;

000032aa <_spiBusConfigure_LR10>:
    32aa:	f4 30 fc          	  addsp -0x4;
    32ad:	df 2c 06 00 00    	  mvi a15 0x62c;
    32b2:	f9 02             	  pushm a0;
    32b4:	bf ff             	  ldd.w a15 a15;
    32b6:	fe 49 01          	  rspr a9 SP;
    32b9:	90 99 04          	  add.w a9 a9 0x4;
    32bc:	b2 a0             	  mv.w a0 a10;
    32be:	a0 9f             	  std.w a9 a15;
    32c0:	0e 35             	  mvi a14 0x35;
    32c2:	b3 a0 00 1a       	  cmpbreq.w a10 0x0 0x32dc;
    32c6:	3d b4             	  clr.b a11;
    32c8:	bd c4             	  clr.w a12;
    32ca:	7e 0a 31 00       	  call 0x310a;
    32ce:	32 ae             	  mv.b a14 a10;
    32d0:	33 a4 00 0c       	  cmpbrne.b a10 0x0 0x32dc;
    32d4:	b2 0a             	  mv.w a10 a0;
    32d6:	7e bc 30 00       	  call 0x30bc;
    32da:	32 ae             	  mv.b a14 a10;
    32dc:	fe 49 01          	  rspr a9 SP;
    32df:	90 99 04          	  add.w a9 a9 0x4;
    32e2:	bf 9f             	  ldd.w a15 a9;
    32e4:	d9 2c 06 00 00    	  mvi a9 0x62c;
    32e9:	bf 99             	  ldd.w a9 a9;
    32eb:	32 ea             	  mv.b a10 a14;
    32ed:	a6 f9             	  cmp.w a15 a9;
    32ef:	f4 0b 07          	  breq 0x32f6;
    32f2:	7e e9 42 00       	  call 0x42e9;
    32f6:	fb 05 04          	  popma a0 0x1 0x4;

000032f9 <_spiHwWaitForIdle_LR10>:
    32f9:	f4 30 f4          	  addsp -0xc;
    32fc:	d9 2c 06 00 00    	  mvi a9 0x62c;
    3301:	f9 12             	  pushm a1;
    3303:	bf 99             	  ldd.w a9 a9;
    3305:	fe 4f 01          	  rspr a15 SP;
    3308:	90 ff 10          	  add.w a15 a15 0x10;
    330b:	4b e8 03          	  mvi a11 0x3e8;
    330e:	a0 f9             	  std.w a15 a9;
    3310:	7e fc 16 00       	  call 0x16fc;
    3314:	b2 a0             	  mv.w a0 a10;
    3316:	fe 4a 01          	  rspr a10 SP;
    3319:	90 aa 08          	  add.w a10 a10 0x8;
    331c:	b2 a1             	  mv.w a1 a10;
    331e:	7e 81 15 00       	  call 0x1581;
    3322:	8a a0 e5 00       	  mvi a10 0xe5a0;
    3326:	7e 22 1c 00       	  call 0x1c22;
    332a:	b0 a6 00          	  cmp.w a10 0x0;
    332d:	f4 1f 1c          	  brsgte 0x3349;
    3330:	b2 1a             	  mv.w a10 a1;
    3332:	7e 9c 15 00       	  call 0x159c;
    3336:	a6 a0             	  cmp.w a10 a0;
    3338:	f4 0d 09          	  brlte 0x3341;
    333b:	0a 04             	  mvi a10 0x4;
    333d:	3e 4b 33 00       	  jmp 0x334b;
    3341:	7e 0e 00 00       	  call 0xe;
    3345:	3e 22 33 00       	  jmp 0x3322;
    3349:	3d a4             	  clr.b a10;
    334b:	fe 49 01          	  rspr a9 SP;
    334e:	90 99 10          	  add.w a9 a9 0x10;
    3351:	bf 9f             	  ldd.w a15 a9;
    3353:	d9 2c 06 00 00    	  mvi a9 0x62c;
    3358:	bf 99             	  ldd.w a9 a9;
    335a:	a6 f9             	  cmp.w a15 a9;
    335c:	f4 0b 07          	  breq 0x3363;
    335f:	7e e9 42 00       	  call 0x42e9;
    3363:	fb 15 0c          	  popma a1 0x1 0xc;

00003366 <_spiWriteCtrl_LR10>:
    3366:	f4 30 fc          	  addsp -0x4;
    3369:	df 2c 06 00 00    	  mvi a15 0x62c;
    336e:	f9 02             	  pushm a0;
    3370:	bf ff             	  ldd.w a15 a15;
    3372:	fe 49 01          	  rspr a9 SP;
    3375:	90 99 04          	  add.w a9 a9 0x4;
    3378:	b2 b0             	  mv.w a0 a11;
    337a:	a0 9f             	  std.w a9 a15;
    337c:	58 ad 01          	  ldd.h a13 a10 0x2;
    337f:	3f af             	  ldd.b a15 a10;
    3381:	58 a9 02          	  ldd.h a9 a10 0x4;
    3384:	de 00 00 00 80    	  mvi a14 -0x80000000;
    3389:	e4 dc ff ff       	  and a12 a13 0xffff;
    338d:	f0 f4 03          	  and a15 0x3;
    3390:	f0 93 00          	  sethi a9 0x0;
    3393:	b6 f4 12          	  lsl.w a15 0x12;
    3396:	bc 9c 90          	  add.w a9 a9 a12;
    3399:	fd fe 05          	  or a15 a14;
    339c:	92 99 01          	  sub.w a9 a9 0x1;
    339f:	f0 94 ff          	  and a9 0xff;
    33a2:	ff f9 b5          	  or a11 a15 a9;
    33a5:	73 d0 00 18       	  cmpbreq.h a13 0x0 0x33bd;
    33a9:	92 cf 01          	  sub.w a15 a12 0x1;
    33ac:	89 00 00 01       	  mvi a9 0x10000;
    33b0:	b6 f4 08          	  lsl.w a15 0x8;
    33b3:	ff b9 95          	  or a9 a11 a9;
    33b6:	f1 f4 ff ff       	  and a15 0xffff;
    33ba:	ff 9f b5          	  or a11 a9 a15;
    33bd:	18 aa 01          	  ldd.b a10 a10 0x1;
    33c0:	c4 a9 01          	  and a9 a10 0x1;
    33c3:	f4 0b 0a          	  breq 0x33cd;
    33c6:	89 00 00 02       	  mvi a9 0x20000;
    33ca:	fd b9 05          	  or a11 a9;
    33cd:	f0 a4 ff          	  and a10 0xff;
    33d0:	c4 a9 10          	  and a9 a10 0x10;
    33d3:	f4 0b 0b          	  breq 0x33de;
    33d6:	d9 00 00 00 08    	  mvi a9 0x8000000;
    33db:	fd b9 05          	  or a11 a9;
    33de:	c4 a9 04          	  and a9 a10 0x4;
    33e1:	f4 0b 0b          	  breq 0x33ec;
    33e4:	d9 00 00 00 20    	  mvi a9 0x20000000;
    33e9:	fd b9 05          	  or a11 a9;
    33ec:	8a a0 e5 00       	  mvi a10 0xe5a0;
    33f0:	7e b1 1c 00       	  call 0x1cb1;
    33f4:	b2 0a             	  mv.w a10 a0;
    33f6:	7e f9 32 00       	  call 0x32f9;
    33fa:	fe 49 01          	  rspr a9 SP;
    33fd:	90 99 04          	  add.w a9 a9 0x4;
    3400:	bf 9f             	  ldd.w a15 a9;
    3402:	d9 2c 06 00 00    	  mvi a9 0x62c;
    3407:	bf 99             	  ldd.w a9 a9;
    3409:	a6 f9             	  cmp.w a15 a9;
    340b:	f4 0b 07          	  breq 0x3412;
    340e:	7e e9 42 00       	  call 0x42e9;
    3412:	fb 05 04          	  popma a0 0x1 0x4;

00003415 <_spiWriteData_LR10>:
    3415:	f4 30 f8          	  addsp -0x8;
    3418:	df 2c 06 00 00    	  mvi a15 0x62c;
    341d:	f9 52             	  pushm a5;
    341f:	bf ff             	  ldd.w a15 a15;
    3421:	fe 49 01          	  rspr a9 SP;
    3424:	90 99 1c          	  add.w a9 a9 0x1c;
    3427:	b2 a3             	  mv.w a3 a10;
    3429:	a0 9f             	  std.w a9 a15;
    342b:	72 b1             	  mv.h a1 a11;
    342d:	0a 02             	  mvi a10 0x2;
    342f:	71 b6 00 01       	  cmp.h a11 0x100;
    3433:	f4 0c 45          	  brgt 0x3478;
    3436:	fe 44 01          	  rspr a4 SP;
    3439:	82 a0 e4 00       	  mvi a2 0xe4a0;
    343d:	90 44 18          	  add.w a4 a4 0x18;
    3440:	bd 54             	  clr.w a5;
    3442:	3e 72 34 00       	  jmp 0x3472;
    3446:	a0 45             	  std.w a4 a5;
    3448:	72 10             	  mv.h a0 a1;
    344a:	70 16 04          	  cmp.h a1 0x4;
    344d:	f4 0d 05          	  brlte 0x3452;
    3450:	00 04             	  mvi a0 0x4;
    3452:	b2 3b             	  mv.w a11 a3;
    3454:	e4 0c ff ff       	  and a12 a0 0xffff;
    3458:	b2 4a             	  mv.w a10 a4;
    345a:	7e 7e 0b 00       	  call 0xb7e;
    345e:	bf 4b             	  ldd.w a11 a4;
    3460:	b2 2a             	  mv.w a10 a2;
    3462:	7b 10 02          	  sub.h a1 a0;
    3465:	90 22 04          	  add.w a2 a2 0x4;
    3468:	f0 03 00          	  sethi a0 0x0;
    346b:	7e b1 1c 00       	  call 0x1cb1;
    346f:	bc 30 30          	  add.w a3 a3 a0;
    3472:	73 14 00 d4       	  cmpbrne.h a1 0x0 0x3446;
    3476:	3d a4             	  clr.b a10;
    3478:	fe 49 01          	  rspr a9 SP;
    347b:	90 99 1c          	  add.w a9 a9 0x1c;
    347e:	bf 9f             	  ldd.w a15 a9;
    3480:	d9 2c 06 00 00    	  mvi a9 0x62c;
    3485:	bf 99             	  ldd.w a9 a9;
    3487:	a6 f9             	  cmp.w a15 a9;
    3489:	f4 0b 07          	  breq 0x3490;
    348c:	7e e9 42 00       	  call 0x42e9;
    3490:	fb 55 08          	  popma a5 0x1 0x8;

00003493 <_spiBufferTransfer_LR10>:
    3493:	f4 30 fc          	  addsp -0x4;
    3496:	d9 2c 06 00 00    	  mvi a9 0x62c;
    349b:	f9 32             	  pushm a3;
    349d:	bf 99             	  ldd.w a9 a9;
    349f:	fe 4f 01          	  rspr a15 SP;
    34a2:	90 ff 10          	  add.w a15 a15 0x10;
    34a5:	b2 b2             	  mv.w a2 a11;
    34a7:	a0 f9             	  std.w a15 a9;
    34a9:	b2 c3             	  mv.w a3 a12;
    34ab:	58 b9 02          	  ldd.h a9 a11 0x4;
    34ae:	58 bb 01          	  ldd.h a11 a11 0x2;
    34b1:	b3 a0 00 56       	  cmpbreq.w a10 0x0 0x3507;
    34b5:	f0 93 00          	  sethi a9 0x0;
    34b8:	0f fc             	  mvi a15 -0x4;
    34ba:	90 99 03          	  add.w a9 a9 0x3;
    34bd:	e4 b0 ff ff       	  and a0 a11 0xffff;
    34c1:	ff 9f 14          	  and a1 a9 a15;
    34c4:	f4 1b 0b          	  brne 0x34cf;
    34c7:	b3 04 00 0c       	  cmpbrne.w a0 0x0 0x34d3;
    34cb:	3e 07 35 00       	  jmp 0x3507;
    34cf:	b3 00 00 0e       	  cmpbreq.w a0 0x0 0x34dd;
    34d3:	b2 da             	  mv.w a10 a13;
    34d5:	7e 15 34 00       	  call 0x3415;
    34d9:	33 a4 00 30       	  cmpbrne.b a10 0x0 0x3509;
    34dd:	b2 2a             	  mv.w a10 a2;
    34df:	8b 20 a1 07       	  mvi a11 0x7a120;
    34e3:	7e 66 33 00       	  call 0x3366;
    34e7:	33 a4 00 22       	  cmpbrne.b a10 0x0 0x3509;
    34eb:	b3 10 00 1e       	  cmpbreq.w a1 0x0 0x3509;
    34ef:	b0 06 00          	  cmp.w a0 0x0;
    34f2:	f0 cc 0b          	  sgetb a12 0xb;
    34f5:	f0 c6 01          	  xor a12 0x1;
    34f8:	b2 3a             	  mv.w a10 a3;
    34fa:	72 1b             	  mv.h a11 a1;
    34fc:	36 c4 05          	  lsl.b a12 0x5;
    34ff:	7e 54 30 00       	  call 0x3054;
    3503:	3e 09 35 00       	  jmp 0x3509;
    3507:	0a 35             	  mvi a10 0x35;
    3509:	fe 49 01          	  rspr a9 SP;
    350c:	90 99 10          	  add.w a9 a9 0x10;
    350f:	bf 9f             	  ldd.w a15 a9;
    3511:	d9 2c 06 00 00    	  mvi a9 0x62c;
    3516:	bf 99             	  ldd.w a9 a9;
    3518:	a6 f9             	  cmp.w a15 a9;
    351a:	f4 0b 07          	  breq 0x3521;
    351d:	7e e9 42 00       	  call 0x42e9;
    3521:	fb 35 04          	  popma a3 0x1 0x4;

00003524 <_spiRomIsEraseLimitReached_LR10>:
    3524:	f4 30 f8          	  addsp -0x8;
    3527:	df 2c 06 00 00    	  mvi a15 0x62c;
    352c:	f9 12             	  pushm a1;
    352e:	bf ff             	  ldd.w a15 a15;
    3530:	fe 49 01          	  rspr a9 SP;
    3533:	90 99 0c          	  add.w a9 a9 0xc;
    3536:	fe 40 01          	  rspr a0 SP;
    3539:	a0 9f             	  std.w a9 a15;
    353b:	90 00 08          	  add.w a0 a0 0x8;
    353e:	b2 b1             	  mv.w a1 a11;
    3540:	b2 0c             	  mv.w a12 a0;
    3542:	7e e8 50 00       	  call 0x50e8;
    3546:	bf 0f             	  ldd.w a15 a0;
    3548:	58 f9 02          	  ldd.h a9 a15 0x4;
    354b:	98 ff 03          	  ldd.w a15 a15 0xc;
    354e:	f0 93 00          	  sethi a9 0x0;
    3551:	b6 94 0c          	  lsl.w a9 0xc;
    3554:	3e 65 35 00       	  jmp 0x3565;
    3558:	a6 91             	  cmp.w a9 a1;
    355a:	f4 0b 15          	  breq 0x356f;
    355d:	98 ff 06          	  ldd.w a15 a15 0x18;
    3560:	b8 99 00 10 00    	  add.w a9 a9 0x1000;
    3565:	b3 f4 00 f3       	  cmpbrne.w a15 0x0 0x3558;
    3569:	0a 35             	  mvi a10 0x35;
    356b:	3e 84 35 00       	  jmp 0x3584;
    356f:	98 fe 02          	  ldd.w a14 a15 0x8;
    3572:	98 f9 05          	  ldd.w a9 a15 0x14;
    3575:	bf ff             	  ldd.w a15 a15;
    3577:	bc 9f 90          	  add.w a9 a9 a15;
    357a:	a6 9e             	  cmp.w a9 a14;
    357c:	f0 9c 08          	  sgetb a9 0x8;
    357f:	f0 96 01          	  xor a9 0x1;
    3582:	32 9a             	  mv.b a10 a9;
    3584:	fe 49 01          	  rspr a9 SP;
    3587:	90 99 0c          	  add.w a9 a9 0xc;
    358a:	bf 9f             	  ldd.w a15 a9;
    358c:	d9 2c 06 00 00    	  mvi a9 0x62c;
    3591:	bf 99             	  ldd.w a9 a9;
    3593:	a6 f9             	  cmp.w a15 a9;
    3595:	f4 0b 07          	  breq 0x359c;
    3598:	7e e9 42 00       	  call 0x42e9;
    359c:	fb 15 08          	  popma a1 0x1 0x8;

0000359f <_spiRomEraseTally_LR10>:
    359f:	f4 30 e0          	  addsp -0x20;
    35a2:	df 2c 06 00 00    	  mvi a15 0x62c;
    35a7:	f9 82             	  pushm a8;
    35a9:	bf ff             	  ldd.w a15 a15;
    35ab:	b0 b1 09          	  stdsp.w a11 0x24;
    35ae:	fe 49 01          	  rspr a9 SP;
    35b1:	90 99 40          	  add.w a9 a9 0x40;
    35b4:	fe 40 01          	  rspr a0 SP;
    35b7:	a0 9f             	  std.w a9 a15;
    35b9:	90 00 3c          	  add.w a0 a0 0x3c;
    35bc:	b2 a4             	  mv.w a4 a10;
    35be:	b2 0c             	  mv.w a12 a0;
    35c0:	7e e8 50 00       	  call 0x50e8;
    35c4:	bf 03             	  ldd.w a3 a0;
    35c6:	58 39 02          	  ldd.h a9 a3 0x4;
    35c9:	98 31 03          	  ldd.w a1 a3 0xc;
    35cc:	f0 93 00          	  sethi a9 0x0;
    35cf:	b6 94 0c          	  lsl.w a9 0xc;
    35d2:	3e e6 35 00       	  jmp 0x35e6;
    35d6:	b4 e0 09          	  lddsp.w a14 0x24;
    35d9:	a6 9e             	  cmp.w a9 a14;
    35db:	f4 0b 13          	  breq 0x35ee;
    35de:	98 11 06          	  ldd.w a1 a1 0x18;
    35e1:	b8 99 00 10 00    	  add.w a9 a9 0x1000;
    35e6:	b3 14 00 f0       	  cmpbrne.w a1 0x0 0x35d6;
    35ea:	3e b8 37 00       	  jmp 0x37b8;
    35ee:	98 19 05          	  ldd.w a9 a1 0x14;
    35f1:	98 1f 03          	  ldd.w a15 a1 0xc;
    35f4:	98 1e 04          	  ldd.w a14 a1 0x10;
    35f7:	b6 95 03          	  lsr.w a9 0x3;
    35fa:	bc 9f 20          	  add.w a2 a9 a15;
    35fd:	a6 2e             	  cmp.w a2 a14;
    35ff:	f4 0c 4f          	  brgt 0x364e;
    3602:	fe 43 01          	  rspr a3 SP;
    3605:	b2 4a             	  mv.w a10 a4;
    3607:	90 33 38          	  add.w a3 a3 0x38;
    360a:	b2 2b             	  mv.w a11 a2;
    360c:	0c 01             	  mvi a12 0x1;
    360e:	b2 3d             	  mv.w a13 a3;
    3610:	7e aa 31 00       	  call 0x31aa;
    3614:	32 a0             	  mv.b a0 a10;
    3616:	33 ad 00 a4 01    	  cmpbrne.b a10 0x0 0x37ba;
    361b:	bf 39             	  ldd.w a9 a3;
    361d:	4f 00 ff          	  mvi a15 -0x100;
    3620:	fe 4e 01          	  rspr a14 SP;
    3623:	90 ee 34          	  add.w a14 a14 0x34;
    3626:	bc 99 90          	  add.w a9 a9 a9;
    3629:	fd 9f 05          	  or a9 a15;
    362c:	b2 4a             	  mv.w a10 a4;
    362e:	b2 2c             	  mv.w a12 a2;
    3630:	b2 eb             	  mv.w a11 a14;
    3632:	a0 e9             	  std.w a14 a9;
    3634:	0d 04             	  mvi a13 0x4;
    3636:	7e 4a 4b 00       	  call 0x4b4a;
    363a:	32 a0             	  mv.b a0 a10;
    363c:	33 ad 00 7e 01    	  cmpbrne.b a10 0x0 0x37ba;
    3641:	98 19 05          	  ldd.w a9 a1 0x14;
    3644:	90 99 01          	  add.w a9 a9 0x1;
    3647:	b5 19 05          	  std.w a1 0x14 a9;
    364a:	3e ba 37 00       	  jmp 0x37ba;
    364e:	d9 d4 2a 00 00    	  mvi a9 0x2ad4;
    3653:	98 9e 04          	  ldd.w a14 a9 0x10;
    3656:	fe 49 01          	  rspr a9 SP;
    3659:	90 99 3c          	  add.w a9 a9 0x3c;
    365c:	b2 9f             	  mv.w a15 a9;
    365e:	a0 9e             	  std.w a9 a14;
    3660:	3e 70 36 00       	  jmp 0x3670;
    3664:	18 19 09          	  ldd.b a9 a1 0x9;
    3667:	33 90 00 13       	  cmpbreq.b a9 0x0 0x367a;
    366b:	98 11 04          	  ldd.w a1 a1 0x10;
    366e:	a0 f1             	  std.w a15 a1;
    3670:	bf f1             	  ldd.w a1 a15;
    3672:	b3 14 00 f2       	  cmpbrne.w a1 0x0 0x3664;
    3676:	3e d4 37 00       	  jmp 0x37d4;
    367a:	35 39 08          	  std.b a3 0x8 a9;
    367d:	3e a8 36 00       	  jmp 0x36a8;
    3681:	18 b9 08          	  ldd.b a9 a11 0x8;
    3684:	33 90 00 13       	  cmpbreq.b a9 0x0 0x3697;
    3688:	98 bb 04          	  ldd.w a11 a11 0x10;
    368b:	a0 1b             	  std.w a1 a11;
    368d:	bf 1b             	  ldd.w a11 a1;
    368f:	b3 b4 00 f2       	  cmpbrne.w a11 0x0 0x3681;
    3693:	3e b8 37 00       	  jmp 0x37b8;
    3697:	bf bb             	  ldd.w a11 a11;
    3699:	b2 4a             	  mv.w a10 a4;
    369b:	7e 98 4a 00       	  call 0x4a98;
    369f:	32 a0             	  mv.b a0 a10;
    36a1:	33 ad 00 19 01    	  cmpbrne.b a10 0x0 0x37ba;
    36a6:	bf 11             	  ldd.w a1 a1;
    36a8:	98 1f 01          	  ldd.w a15 a1 0x4;
    36ab:	bf 3b             	  ldd.w a11 a3;
    36ad:	fe 42 01          	  rspr a2 SP;
    36b0:	b2 4a             	  mv.w a10 a4;
    36b2:	b5 3f 01          	  std.w a3 0x4 a15;
    36b5:	58 19 04          	  ldd.h a9 a1 0x8;
    36b8:	90 22 30          	  add.w a2 a2 0x30;
    36bb:	0c 04             	  mvi a12 0x4;
    36bd:	b2 2d             	  mv.w a13 a2;
    36bf:	75 39 04          	  std.h a3 0x8 a9;
    36c2:	7e aa 31 00       	  call 0x31aa;
    36c6:	32 a0             	  mv.b a0 a10;
    36c8:	33 ad 00 f2 00    	  cmpbrne.b a10 0x0 0x37ba;
    36cd:	bf 1c             	  ldd.w a12 a1;
    36cf:	b2 4a             	  mv.w a10 a4;
    36d1:	b2 2b             	  mv.w a11 a2;
    36d3:	0d 04             	  mvi a13 0x4;
    36d5:	7e 4a 4b 00       	  call 0x4b4a;
    36d9:	32 a0             	  mv.b a0 a10;
    36db:	33 ad 00 df 00    	  cmpbrne.b a10 0x0 0x37ba;
    36e0:	bf 2f             	  ldd.w a15 a2;
    36e2:	d9 ff ff ff 7f    	  mvi a9 0x7fffffff;
    36e7:	b2 2b             	  mv.w a11 a2;
    36e9:	b2 4a             	  mv.w a10 a4;
    36eb:	fd f9 04          	  and a15 a9;
    36ee:	a0 2f             	  std.w a2 a15;
    36f0:	bf 3c             	  ldd.w a12 a3;
    36f2:	0d 04             	  mvi a13 0x4;
    36f4:	7e 4a 4b 00       	  call 0x4b4a;
    36f8:	32 a0             	  mv.b a0 a10;
    36fa:	33 ad 00 c0 00    	  cmpbrne.b a10 0x0 0x37ba;
    36ff:	58 39 02          	  ldd.h a9 a3 0x4;
    3702:	98 12 03          	  ldd.w a2 a1 0xc;
    3705:	fe 47 01          	  rspr a7 SP;
    3708:	fe 48 01          	  rspr a8 SP;
    370b:	f0 93 00          	  sethi a9 0x0;
    370e:	98 31 03          	  ldd.w a1 a3 0xc;
    3711:	90 77 2c          	  add.w a7 a7 0x2c;
    3714:	94 96 0c          	  lsl.w a6 a9 0xc;
    3717:	90 88 28          	  add.w a8 a8 0x28;
    371a:	3e af 37 00       	  jmp 0x37af;
    371e:	b4 e0 09          	  lddsp.w a14 0x24;
    3721:	a6 6e             	  cmp.w a6 a14;
    3723:	f4 1b 0a          	  brne 0x372d;
    3726:	bf 19             	  ldd.w a9 a1;
    3728:	90 99 01          	  add.w a9 a9 0x1;
    372b:	a0 19             	  std.w a1 a9;
    372d:	98 1b 01          	  ldd.w a11 a1 0x4;
    3730:	bf 15             	  ldd.w a5 a1;
    3732:	98 13 05          	  ldd.w a3 a1 0x14;
    3735:	b2 4a             	  mv.w a10 a4;
    3737:	0c 04             	  mvi a12 0x4;
    3739:	b2 7d             	  mv.w a13 a7;
    373b:	7e aa 31 00       	  call 0x31aa;
    373f:	33 ad 00 a1 00    	  cmpbrne.b a10 0x0 0x37e0;
    3744:	bf 7f             	  ldd.w a15 a7;
    3746:	de ff ff ff 00    	  mvi a14 0xffffff;
    374b:	bc 35 30          	  add.w a3 a3 a5;
    374e:	ff 3e 94          	  and a9 a3 a14;
    3751:	de 00 00 00 ff    	  mvi a14 -0x1000000;
    3756:	fd fe 04          	  and a15 a14;
    3759:	fd 9f 05          	  or a9 a15;
    375c:	a0 79             	  std.w a7 a9;
    375e:	98 2c 01          	  ldd.w a12 a2 0x4;
    3761:	b2 4a             	  mv.w a10 a4;
    3763:	b2 7b             	  mv.w a11 a7;
    3765:	0d 04             	  mvi a13 0x4;
    3767:	7e 4a 4b 00       	  call 0x4b4a;
    376b:	33 a4 00 75       	  cmpbrne.b a10 0x0 0x37e0;
    376f:	a0 23             	  std.w a2 a3;
    3771:	98 1b 03          	  ldd.w a11 a1 0xc;
    3774:	b2 4a             	  mv.w a10 a4;
    3776:	0c 04             	  mvi a12 0x4;
    3778:	b2 8d             	  mv.w a13 a8;
    377a:	92 bb 04          	  sub.w a11 a11 0x4;
    377d:	7e aa 31 00       	  call 0x31aa;
    3781:	33 a4 00 5f       	  cmpbrne.b a10 0x0 0x37e0;
    3785:	98 2c 03          	  ldd.w a12 a2 0xc;
    3788:	b2 4a             	  mv.w a10 a4;
    378a:	b2 8b             	  mv.w a11 a8;
    378c:	0d 04             	  mvi a13 0x4;
    378e:	92 cc 04          	  sub.w a12 a12 0x4;
    3791:	7e 4a 4b 00       	  call 0x4b4a;
    3795:	33 a4 00 4b       	  cmpbrne.b a10 0x0 0x37e0;
    3799:	98 1f 02          	  ldd.w a15 a1 0x8;
    379c:	bd 94             	  clr.w a9;
    379e:	b5 29 05          	  std.w a2 0x14 a9;
    37a1:	b8 66 00 10 00    	  add.w a6 a6 0x1000;
    37a6:	b5 2f 02          	  std.w a2 0x8 a15;
    37a9:	98 22 06          	  ldd.w a2 a2 0x18;
    37ac:	98 11 06          	  ldd.w a1 a1 0x18;
    37af:	b3 1d 00 6f ff    	  cmpbrne.w a1 0x0 0x371e;
    37b4:	3e ba 37 00       	  jmp 0x37ba;
    37b8:	00 35             	  mvi a0 0x35;
    37ba:	fe 49 01          	  rspr a9 SP;
    37bd:	90 99 40          	  add.w a9 a9 0x40;
    37c0:	bf 9f             	  ldd.w a15 a9;
    37c2:	d9 2c 06 00 00    	  mvi a9 0x62c;
    37c7:	bf 99             	  ldd.w a9 a9;
    37c9:	32 0a             	  mv.b a10 a0;
    37cb:	a6 f9             	  cmp.w a15 a9;
    37cd:	f4 0b 1d          	  breq 0x37ea;
    37d0:	3e e6 37 00       	  jmp 0x37e6;
    37d4:	fe 41 01          	  rspr a1 SP;
    37d7:	a0 fe             	  std.w a15 a14;
    37d9:	90 11 3c          	  add.w a1 a1 0x3c;
    37dc:	3e 8d 36 00       	  jmp 0x368d;
    37e0:	32 a0             	  mv.b a0 a10;
    37e2:	3e ba 37 00       	  jmp 0x37ba;
    37e6:	7e e9 42 00       	  call 0x42e9;
    37ea:	fb 85 20          	  popma a8 0x1 0x20;

000037ed <_spiRomInitLedgerRegionFromScratch_LR10>:
    37ed:	f4 30 fc          	  addsp -0x4;
    37f0:	df 2c 06 00 00    	  mvi a15 0x62c;
    37f5:	f9 02             	  pushm a0;
    37f7:	bf ff             	  ldd.w a15 a15;
    37f9:	fe 49 01          	  rspr a9 SP;
    37fc:	90 99 04          	  add.w a9 a9 0x4;
    37ff:	b2 a0             	  mv.w a0 a10;
    3801:	a0 9f             	  std.w a9 a15;
    3803:	b3 a0 00 51       	  cmpbreq.w a10 0x0 0x3854;
    3807:	98 a9 06          	  ldd.w a9 a10 0x18;
    380a:	b3 90 00 4a       	  cmpbreq.w a9 0x0 0x3854;
    380e:	d9 0c 14 00 00    	  mvi a9 0x140c;
    3813:	bf 9a             	  ldd.w a10 a9;
    3815:	b8 aa e0 04 00    	  add.w a10 a10 0x4e0;
    381a:	7e 22 1c 00       	  call 0x1c22;
    381e:	e4 a9 ff 0f       	  and a9 a10 0xfff;
    3822:	b3 9a ff 0f 38    	  cmpbreq.w a9 0xfff 0x385a;
    3827:	b3 90 00 33       	  cmpbreq.w a9 0x0 0x385a;
    382b:	e7 aa 6c 01       	  uxtr a10 a10 0x16c;
    382f:	b3 aa ff 0f 2b    	  cmpbreq.w a10 0xfff 0x385a;
    3834:	b3 a0 00 26       	  cmpbreq.w a10 0x0 0x385a;
    3838:	98 0e 06          	  ldd.w a14 a0 0x18;
    383b:	b6 94 0c          	  lsl.w a9 0xc;
    383e:	94 af 0c          	  lsl.w a15 a10 0xc;
    3841:	3d a4             	  clr.b a10;
    3843:	a0 e9             	  std.w a14 a9;
    3845:	98 0e 06          	  ldd.w a14 a0 0x18;
    3848:	bf e9             	  ldd.w a9 a14;
    384a:	bc f9 f0          	  add.w a15 a15 a9;
    384d:	b5 ef 01          	  std.w a14 0x4 a15;
    3850:	3e 5c 38 00       	  jmp 0x385c;
    3854:	0a 35             	  mvi a10 0x35;
    3856:	3e 5c 38 00       	  jmp 0x385c;
    385a:	0a 2e             	  mvi a10 0x2e;
    385c:	fe 49 01          	  rspr a9 SP;
    385f:	90 99 04          	  add.w a9 a9 0x4;
    3862:	bf 9f             	  ldd.w a15 a9;
    3864:	d9 2c 06 00 00    	  mvi a9 0x62c;
    3869:	bf 99             	  ldd.w a9 a9;
    386b:	a6 f9             	  cmp.w a15 a9;
    386d:	f4 0b 07          	  breq 0x3874;
    3870:	7e e9 42 00       	  call 0x42e9;
    3874:	fb 05 04          	  popma a0 0x1 0x4;

00003877 <_spiRomInitEraseLedger_LR10>:
    3877:	f4 30 d8          	  addsp -0x28;
    387a:	df 2c 06 00 00    	  mvi a15 0x62c;
    387f:	f9 82             	  pushm a8;
    3881:	bf ff             	  ldd.w a15 a15;
    3883:	fe 49 01          	  rspr a9 SP;
    3886:	90 99 48          	  add.w a9 a9 0x48;
    3889:	b2 a6             	  mv.w a6 a10;
    388b:	a0 9f             	  std.w a9 a15;
    388d:	b3 a0 00 21       	  cmpbreq.w a10 0x0 0x38ae;
    3891:	98 a0 06          	  ldd.w a0 a10 0x18;
    3894:	09 fd             	  mvi a9 -0x3;
    3896:	bf 0b             	  ldd.w a11 a0;
    3898:	92 bf 01          	  sub.w a15 a11 0x1;
    389b:	a6 f9             	  cmp.w a15 a9;
    389d:	f4 0c 11          	  brgt 0x38ae;
    38a0:	98 0f 01          	  ldd.w a15 a0 0x4;
    38a3:	09 ff             	  mvi a9 -0x1;
    38a5:	a6 f9             	  cmp.w a15 a9;
    38a7:	f4 0b 07          	  breq 0x38ae;
    38aa:	b3 f4 00 11       	  cmpbrne.w a15 0x0 0x38bb;
    38ae:	f8 02             	  halt;
    38b0:	05 02             	  mvi a5 0x2;
    38b2:	b3 6d 00 7d 02    	  cmpbrne.w a6 0x0 0x3b2f;
    38b7:	3e 3c 3b 00       	  jmp 0x3b3c;
    38bb:	92 bb 10          	  sub.w a11 a11 0x10;
    38be:	0c 10             	  mvi a12 0x10;
    38c0:	dd d4 2a 00 00    	  mvi a13 0x2ad4;
    38c5:	7e aa 31 00       	  call 0x31aa;
    38c9:	32 a5             	  mv.b a5 a10;
    38cb:	33 ad 00 64 02    	  cmpbrne.b a10 0x0 0x3b2f;
    38d0:	da d4 2a 00 00    	  mvi a10 0x2ad4;
    38d5:	db 68 00 00 00    	  mvi a11 0x68;
    38da:	0c 08             	  mvi a12 0x8;
    38dc:	7e a8 0b 00       	  call 0xba8;
    38e0:	b3 ad 00 7e 02    	  cmpbrne.w a10 0x0 0x3b5e;
    38e5:	98 09 01          	  ldd.w a9 a0 0x4;
    38e8:	bf 0f             	  ldd.w a15 a0;
    38ea:	a6 f9             	  cmp.w a15 a9;
    38ec:	f5 18 78 02       	  brnc 0x3b64;
    38f0:	e4 fe ff 0f       	  and a14 a15 0xfff;
    38f4:	f5 1b 70 02       	  brne 0x3b64;
    38f8:	98 6f 06          	  ldd.w a15 a6 0x18;
    38fb:	fe 49 01          	  rspr a9 SP;
    38fe:	90 99 44          	  add.w a9 a9 0x44;
    3901:	3d 84             	  clr.b a8;
    3903:	bf ff             	  ldd.w a15 a15;
    3905:	b0 f1 0a          	  stdsp.w a15 0x28;
    3908:	a0 9e             	  std.w a9 a14;
    390a:	bd 94             	  clr.w a9;
    390c:	b0 91 0b          	  stdsp.w a9 0x2c;
    390f:	3e 19 3b 00       	  jmp 0x3b19;
    3913:	3d a4             	  clr.b a10;
    3915:	0b 14             	  mvi a11 0x14;
    3917:	7e e5 40 00       	  call 0x40e5;
    391b:	b2 a3             	  mv.w a3 a10;
    391d:	b3 a4 00 0c       	  cmpbrne.w a10 0x0 0x3929;
    3921:	f8 02             	  halt;
    3923:	05 05             	  mvi a5 0x5;
    3925:	3e 2f 3b 00       	  jmp 0x3b2f;
    3929:	b4 e0 0a          	  lddsp.w a14 0x28;
    392c:	c4 89 ff          	  and a9 a8 0xff;
    392f:	b6 94 0c          	  lsl.w a9 0xc;
    3932:	bc 9e b0          	  add.w a11 a9 a14;
    3935:	bd 94             	  clr.w a9;
    3937:	a0 ab             	  std.w a10 a11;
    3939:	b5 a9 04          	  std.w a10 0x10 a9;
    393c:	e4 b9 ff 0f       	  and a9 a11 0xfff;
    3940:	f5 1b 24 02       	  brne 0x3b64;
    3944:	fe 4d 01          	  rspr a13 SP;
    3947:	b2 6a             	  mv.w a10 a6;
    3949:	0c 04             	  mvi a12 0x4;
    394b:	90 dd 44          	  add.w a13 a13 0x44;
    394e:	7e aa 31 00       	  call 0x31aa;
    3952:	33 a0 00 0a       	  cmpbreq.b a10 0x0 0x395c;
    3956:	32 a5             	  mv.b a5 a10;
    3958:	3e 2b 3b 00       	  jmp 0x3b2b;
    395c:	b4 90 11          	  lddsp.w a9 0x44;
    395f:	f1 94 ff 0f       	  and a9 0xfff;
    3963:	75 39 02          	  std.h a3 0x4 a9;
    3966:	b4 90 11          	  lddsp.w a9 0x44;
    3969:	e7 99 6c 01       	  uxtr a9 a9 0x16c;
    396d:	75 39 03          	  std.h a3 0x6 a9;
    3970:	b4 90 11          	  lddsp.w a9 0x44;
    3973:	b6 95 1f          	  lsr.w a9 0x1f;
    3976:	35 39 08          	  std.b a3 0x8 a9;
    3979:	b4 f0 11          	  lddsp.w a15 0x44;
    397c:	e4 f9 ff 0f       	  and a9 a15 0xfff;
    3980:	b3 9a ff 0f 13    	  cmpbreq.w a9 0xfff 0x3993;
    3985:	e7 f9 6c 01       	  uxtr a9 a15 0x16c;
    3989:	b3 9a ff 0f 0a    	  cmpbreq.w a9 0xfff 0x3993;
    398e:	09 01             	  mvi a9 0x1;
    3990:	35 39 09          	  std.b a3 0x9 a9;
    3993:	bf 39             	  ldd.w a9 a3;
    3995:	b3 99 00 90 00    	  cmpbreq.w a9 0x0 0x3a25;
    399a:	df d4 2a 00 00    	  mvi a15 0x2ad4;
    399f:	18 fb 0d          	  ldd.b a11 a15 0xd;
    39a2:	90 99 04          	  add.w a9 a9 0x4;
    39a5:	4a fc 0f          	  mvi a10 0xffc;
    39a8:	b0 91 09          	  stdsp.w a9 0x24;
    39ab:	f0 b4 ff          	  and a11 0xff;
    39ae:	7e bb 16 00       	  call 0x16bb;
    39b2:	bd 94             	  clr.w a9;
    39b4:	3d 74             	  clr.b a7;
    39b6:	b0 91 0d          	  stdsp.w a9 0x34;
    39b9:	09 fc             	  mvi a9 -0x4;
    39bb:	ff a9 94          	  and a9 a10 a9;
    39be:	b0 91 0c          	  stdsp.w a9 0x30;
    39c1:	3e f1 3a 00       	  jmp 0x3af1;
    39c5:	3d a4             	  clr.b a10;
    39c7:	0b 1c             	  mvi a11 0x1c;
    39c9:	7e e5 40 00       	  call 0x40e5;
    39cd:	b2 a1             	  mv.w a1 a10;
    39cf:	b3 a4 00 0c       	  cmpbrne.w a10 0x0 0x39db;
    39d3:	f8 02             	  halt;
    39d5:	00 05             	  mvi a0 0x5;
    39d7:	3e 58 3b 00       	  jmp 0x3b58;
    39db:	b4 b0 0c          	  lddsp.w a11 0x30;
    39de:	c4 7a ff          	  and a10 a7 0xff;
    39e1:	7e fc 16 00       	  call 0x16fc;
    39e5:	bd e4             	  clr.w a14;
    39e7:	b5 1e 06          	  std.w a1 0x18 a14;
    39ea:	b4 b0 09          	  lddsp.w a11 0x24;
    39ed:	0c 04             	  mvi a12 0x4;
    39ef:	fe 4d 01          	  rspr a13 SP;
    39f2:	90 dd 40          	  add.w a13 a13 0x40;
    39f5:	bc ba b0          	  add.w a11 a11 a10;
    39f8:	b2 6a             	  mv.w a10 a6;
    39fa:	b5 1b 01          	  std.w a1 0x4 a11;
    39fd:	7e aa 31 00       	  call 0x31aa;
    3a01:	32 a0             	  mv.b a0 a10;
    3a03:	33 ad 00 55 01    	  cmpbrne.b a10 0x0 0x3b58;
    3a08:	b4 90 10          	  lddsp.w a9 0x40;
    3a0b:	df ff ff ff 00    	  mvi a15 0xffffff;
    3a10:	fd 9f 04          	  and a9 a15;
    3a13:	a0 19             	  std.w a1 a9;
    3a15:	a6 9f             	  cmp.w a9 a15;
    3a17:	f4 1b 07          	  brne 0x3a1e;
    3a1a:	bd 94             	  clr.w a9;
    3a1c:	a0 19             	  std.w a1 a9;
    3a1e:	98 1b 01          	  ldd.w a11 a1 0x4;
    3a21:	b3 b4 00 0c       	  cmpbrne.w a11 0x0 0x3a2d;
    3a25:	f8 02             	  halt;
    3a27:	00 02             	  mvi a0 0x2;
    3a29:	3e 58 3b 00       	  jmp 0x3b58;
    3a2d:	b4 e0 0c          	  lddsp.w a14 0x30;
    3a30:	18 3f 08          	  ldd.b a15 a3 0x8;
    3a33:	92 b9 01          	  sub.w a9 a11 0x1;
    3a36:	90 b2 04          	  add.w a2 a11 0x4;
    3a39:	bc 9e 40          	  add.w a4 a9 a14;
    3a3c:	33 f0 00 0e       	  cmpbreq.b a15 0x0 0x3a4a;
    3a40:	18 39 09          	  ldd.b a9 a3 0x9;
    3a43:	00 35             	  mvi a0 0x35;
    3a45:	33 9d 00 88 00    	  cmpbrne.b a9 0x0 0x3acd;
    3a4a:	90 29 04          	  add.w a9 a2 0x4;
    3a4d:	bd f4             	  clr.w a15;
    3a4f:	b5 14 04          	  std.w a1 0x10 a4;
    3a52:	b5 19 03          	  std.w a1 0xc a9;
    3a55:	b5 1f 05          	  std.w a1 0x14 a15;
    3a58:	3e d7 3a 00       	  jmp 0x3ad7;
    3a5c:	b2 6a             	  mv.w a10 a6;
    3a5e:	b2 2b             	  mv.w a11 a2;
    3a60:	0c 04             	  mvi a12 0x4;
    3a62:	fe 4d 01          	  rspr a13 SP;
    3a65:	90 dd 3c          	  add.w a13 a13 0x3c;
    3a68:	7e aa 31 00       	  call 0x31aa;
    3a6c:	32 a0             	  mv.b a0 a10;
    3a6e:	33 ad 00 ea 00    	  cmpbrne.b a10 0x0 0x3b58;
    3a73:	b4 90 0f          	  lddsp.w a9 0x3c;
    3a76:	c7 9f 78          	  uxtr a15 a9 0x78;
    3a79:	b3 f4 06 28       	  cmpbrne.w a15 0x6 0x3aa1;
    3a7d:	fe 4d 01          	  rspr a13 SP;
    3a80:	b2 6a             	  mv.w a10 a6;
    3a82:	90 2b 04          	  add.w a11 a2 0x4;
    3a85:	b2 4c             	  mv.w a12 a4;
    3a87:	90 dd 38          	  add.w a13 a13 0x38;
    3a8a:	7e 85 51 00       	  call 0x5185;
    3a8e:	33 ad 00 c8 00    	  cmpbrne.b a10 0x0 0x3b56;
    3a93:	bf 19             	  ldd.w a9 a1;
    3a95:	b4 f0 0e          	  lddsp.w a15 0x38;
    3a98:	bc 9f 90          	  add.w a9 a9 a15;
    3a9b:	a0 19             	  std.w a1 a9;
    3a9d:	3e ca 3a 00       	  jmp 0x3aca;
    3aa1:	b3 f4 07 29       	  cmpbrne.w a15 0x7 0x3aca;
    3aa5:	de ff ff ff 00    	  mvi a14 0xffffff;
    3aaa:	fd 9e 04          	  and a9 a14;
    3aad:	90 2b 04          	  add.w a11 a2 0x4;
    3ab0:	b5 19 02          	  std.w a1 0x8 a9;
    3ab3:	b5 14 04          	  std.w a1 0x10 a4;
    3ab6:	b5 1b 03          	  std.w a1 0xc a11;
    3ab9:	b2 4c             	  mv.w a12 a4;
    3abb:	b2 6a             	  mv.w a10 a6;
    3abd:	90 1d 14          	  add.w a13 a1 0x14;
    3ac0:	7e 85 51 00       	  call 0x5185;
    3ac4:	32 a0             	  mv.b a0 a10;
    3ac6:	3e d2 3a 00       	  jmp 0x3ad2;
    3aca:	90 22 04          	  add.w a2 a2 0x4;
    3acd:	a6 24             	  cmp.w a2 a4;
    3acf:	f4 0d 8d          	  brlte 0x3a5c;
    3ad2:	33 0d 00 86 00    	  cmpbrne.b a0 0x0 0x3b58;
    3ad7:	98 39 03          	  ldd.w a9 a3 0xc;
    3ada:	b3 94 00 0b       	  cmpbrne.w a9 0x0 0x3ae5;
    3ade:	b5 31 03          	  std.w a3 0xc a1;
    3ae1:	3e eb 3a 00       	  jmp 0x3aeb;
    3ae5:	b4 f0 0d          	  lddsp.w a15 0x34;
    3ae8:	b5 f1 06          	  std.w a15 0x18 a1;
    3aeb:	10 77 01          	  add.b a7 a7 0x1;
    3aee:	b0 11 0d          	  stdsp.w a1 0x34;
    3af1:	de d4 2a 00 00    	  mvi a14 0x2ad4;
    3af6:	18 e9 0d          	  ldd.b a9 a14 0xd;
    3af9:	26 79             	  cmp.b a7 a9;
    3afb:	f5 08 ca fe       	  brc 0x39c5;
    3aff:	98 e9 04          	  ldd.w a9 a14 0x10;
    3b02:	b3 94 00 0b       	  cmpbrne.w a9 0x0 0x3b0d;
    3b06:	b5 e3 04          	  std.w a14 0x10 a3;
    3b09:	3e 13 3b 00       	  jmp 0x3b13;
    3b0d:	b4 f0 0b          	  lddsp.w a15 0x2c;
    3b10:	b5 f3 04          	  std.w a15 0x10 a3;
    3b13:	10 88 01          	  add.b a8 a8 0x1;
    3b16:	b0 31 0b          	  stdsp.w a3 0x2c;
    3b19:	de d4 2a 00 00    	  mvi a14 0x2ad4;
    3b1e:	18 e9 0c          	  ldd.b a9 a14 0xc;
    3b21:	26 89             	  cmp.b a8 a9;
    3b23:	f5 08 f0 fd       	  brc 0x3913;
    3b27:	3e 3c 3b 00       	  jmp 0x3b3c;
    3b2b:	33 50 00 11       	  cmpbreq.b a5 0x0 0x3b3c;
    3b2f:	98 69 06          	  ldd.w a9 a6 0x18;
    3b32:	0f ff             	  mvi a15 -0x1;
    3b34:	a0 9f             	  std.w a9 a15;
    3b36:	98 69 06          	  ldd.w a9 a6 0x18;
    3b39:	b5 9f 01          	  std.w a9 0x4 a15;
    3b3c:	fe 49 01          	  rspr a9 SP;
    3b3f:	90 99 48          	  add.w a9 a9 0x48;
    3b42:	bf 9f             	  ldd.w a15 a9;
    3b44:	d9 2c 06 00 00    	  mvi a9 0x62c;
    3b49:	bf 99             	  ldd.w a9 a9;
    3b4b:	32 5a             	  mv.b a10 a5;
    3b4d:	a6 f9             	  cmp.w a15 a9;
    3b4f:	f4 0b 1f          	  breq 0x3b6e;
    3b52:	3e 6a 3b 00       	  jmp 0x3b6a;
    3b56:	32 a0             	  mv.b a0 a10;
    3b58:	32 05             	  mv.b a5 a0;
    3b5a:	3e 2b 3b 00       	  jmp 0x3b2b;
    3b5e:	05 35             	  mvi a5 0x35;
    3b60:	3e 2f 3b 00       	  jmp 0x3b2f;
    3b64:	05 02             	  mvi a5 0x2;
    3b66:	3e 2f 3b 00       	  jmp 0x3b2f;
    3b6a:	7e e9 42 00       	  call 0x42e9;
    3b6e:	fb 85 28          	  popma a8 0x1 0x28;

00003b71 <_initInforomFs>:
    3b71:	f4 30 f4          	  addsp -0xc;
    3b74:	df 2c 06 00 00    	  mvi a15 0x62c;
    3b79:	f9 22             	  pushm a2;
    3b7b:	bf ff             	  ldd.w a15 a15;
    3b7d:	fe 49 01          	  rspr a9 SP;
    3b80:	90 99 14          	  add.w a9 a9 0x14;
    3b83:	fe 42 01          	  rspr a2 SP;
    3b86:	a0 9f             	  std.w a9 a15;
    3b88:	bd 94             	  clr.w a9;
    3b8a:	90 22 0c          	  add.w a2 a2 0xc;
    3b8d:	a0 29             	  std.w a2 a9;
    3b8f:	7e 63 48 00       	  call 0x4863;
    3b93:	33 a0 00 56       	  cmpbreq.b a10 0x0 0x3be9;
    3b97:	0b 04             	  mvi a11 0x4;
    3b99:	da 9c 2a 00 00    	  mvi a10 0x2a9c;
    3b9e:	b2 bc             	  mv.w a12 a11;
    3ba0:	b2 2d             	  mv.w a13 a2;
    3ba2:	7e 39 4e 00       	  call 0x4e39;
    3ba6:	32 a0             	  mv.b a0 a10;
    3ba8:	33 a4 00 43       	  cmpbrne.b a10 0x0 0x3beb;
    3bac:	fe 41 01          	  rspr a1 SP;
    3baf:	90 11 10          	  add.w a1 a1 0x10;
    3bb2:	b2 1a             	  mv.w a10 a1;
    3bb4:	7e 08 3c 00       	  call 0x3c08;
    3bb8:	32 a0             	  mv.b a0 a10;
    3bba:	33 a4 00 31       	  cmpbrne.b a10 0x0 0x3beb;
    3bbe:	bf 1c             	  ldd.w a12 a1;
    3bc0:	bf 2b             	  ldd.w a11 a2;
    3bc2:	bd a4             	  clr.w a10;
    3bc4:	d1 28 14 00 00    	  mvi a1 0x1428;
    3bc9:	7e 79 d1 00       	  call 0xd179;
    3bcd:	a0 1a             	  std.w a1 a10;
    3bcf:	b3 a0 00 1a       	  cmpbreq.w a10 0x0 0x3be9;
    3bd3:	3d b4             	  clr.b a11;
    3bd5:	7e 11 d2 00       	  call 0xd211;
    3bd9:	b3 a0 00 12       	  cmpbreq.w a10 0x0 0x3beb;
    3bdd:	bf 1a             	  ldd.w a10 a1;
    3bdf:	00 ff             	  mvi a0 -0x1;
    3be1:	7e 4b d7 00       	  call 0xd74b;
    3be5:	3e eb 3b 00       	  jmp 0x3beb;
    3be9:	00 ff             	  mvi a0 -0x1;
    3beb:	fe 49 01          	  rspr a9 SP;
    3bee:	90 99 14          	  add.w a9 a9 0x14;
    3bf1:	bf 9f             	  ldd.w a15 a9;
    3bf3:	d9 2c 06 00 00    	  mvi a9 0x62c;
    3bf8:	bf 99             	  ldd.w a9 a9;
    3bfa:	32 0a             	  mv.b a10 a0;
    3bfc:	a6 f9             	  cmp.w a15 a9;
    3bfe:	f4 0b 07          	  breq 0x3c05;
    3c01:	7e e9 42 00       	  call 0x42e9;
    3c05:	fb 25 0c          	  popma a2 0x1 0xc;

00003c08 <_ifrGetGcThreshold_LR10>:
    3c08:	de 2c 06 00 00    	  mvi a14 0x62c;
    3c0d:	bf e9             	  ldd.w a9 a14;
    3c0f:	f4 30 fc          	  addsp -0x4;
    3c12:	fe 4f 01          	  rspr a15 SP;
    3c15:	a0 f9             	  std.w a15 a9;
    3c17:	09 0e             	  mvi a9 0xe;
    3c19:	a0 a9             	  std.w a10 a9;
    3c1b:	bf ff             	  ldd.w a15 a15;
    3c1d:	bf e9             	  ldd.w a9 a14;
    3c1f:	3d a4             	  clr.b a10;
    3c21:	a6 f9             	  cmp.w a15 a9;
    3c23:	f4 0b 07          	  breq 0x3c2a;
    3c26:	7e e9 42 00       	  call 0x42e9;
    3c2a:	f4 30 04          	  addsp 0x4;
    3c2d:	f8 00             	  ret;

00003c2f <_smbpbiDispatch>:
    3c2f:	f4 30 d8          	  addsp -0x28;
    3c32:	df 2c 06 00 00    	  mvi a15 0x62c;
    3c37:	f9 62             	  pushm a6;
    3c39:	bf ff             	  ldd.w a15 a15;
    3c3b:	f4 30 f4          	  addsp -0xc;
    3c3e:	fe 49 01          	  rspr a9 SP;
    3c41:	90 99 4c          	  add.w a9 a9 0x4c;
    3c44:	a0 9f             	  std.w a9 a15;
    3c46:	3f a9             	  ldd.b a9 a10;
    3c48:	b2 a6             	  mv.w a6 a10;
    3c4a:	98 a3 01          	  ldd.w a3 a10 0x4;
    3c4d:	33 90 01 0d       	  cmpbreq.b a9 0x1 0x3c5a;
    3c51:	33 9d 48 60 03    	  cmpbrne.b a9 0x48 0x3fb1;
    3c56:	3e 3c 3e 00       	  jmp 0x3e3c;
    3c5a:	18 30 04          	  ldd.b a0 a3 0x4;
    3c5d:	33 0d 01 1b 01    	  cmpbrne.b a0 0x1 0x3d78;
    3c62:	98 32 03          	  ldd.w a2 a3 0xc;
    3c65:	98 31 04          	  ldd.w a1 a3 0x10;
    3c68:	3d a4             	  clr.b a10;
    3c6a:	4b dc 10          	  mvi a11 0x10dc;
    3c6d:	4c 00 01          	  mvi a12 0x100;
    3c70:	d5 80 06 00 00    	  mvi a5 0x680;
    3c75:	7e cb 40 00       	  call 0x40cb;
    3c79:	a0 5a             	  std.w a5 a10;
    3c7b:	b3 a4 00 0c       	  cmpbrne.w a10 0x0 0x3c87;
    3c7f:	f8 02             	  halt;
    3c81:	01 05             	  mvi a1 0x5;
    3c83:	3e b3 3f 00       	  jmp 0x3fb3;
    3c87:	fe 49 01          	  rspr a9 SP;
    3c8a:	90 99 28          	  add.w a9 a9 0x28;
    3c8d:	d4 f4 2a 00 00    	  mvi a4 0x2af4;
    3c92:	b2 1c             	  mv.w a12 a1;
    3c94:	b5 41 07          	  std.w a4 0x1c a1;
    3c97:	b5 91 01          	  std.w a9 0x4 a1;
    3c9a:	b2 2b             	  mv.w a11 a2;
    3c9c:	35 40 15          	  std.b a4 0x15 a0;
    3c9f:	b5 42 06          	  std.w a4 0x18 a2;
    3ca2:	a0 92             	  std.w a9 a2;
    3ca4:	bd d4             	  clr.w a13;
    3ca6:	4e dc 10          	  mvi a14 0x10dc;
    3ca9:	7e 72 26 00       	  call 0x2672;
    3cad:	32 a1             	  mv.b a1 a10;
    3caf:	33 ad 00 59 01    	  cmpbrne.b a10 0x0 0x3e08;
    3cb4:	bf 59             	  ldd.w a9 a5;
    3cb6:	3f 99             	  ldd.b a9 a9;
    3cb8:	33 90 00 0d       	  cmpbreq.b a9 0x0 0x3cc5;
    3cbc:	98 49 01          	  ldd.w a9 a4 0x4;
    3cbf:	f0 95 08          	  or a9 0x8;
    3cc2:	b5 49 01          	  std.w a4 0x4 a9;
    3cc5:	d9 80 06 00 00    	  mvi a9 0x680;
    3cca:	bf 99             	  ldd.w a9 a9;
    3ccc:	18 99 69          	  ldd.b a9 a9 0x69;
    3ccf:	33 90 00 13       	  cmpbreq.b a9 0x0 0x3ce2;
    3cd3:	df f4 2a 00 00    	  mvi a15 0x2af4;
    3cd8:	98 f9 01          	  ldd.w a9 a15 0x4;
    3cdb:	f1 95 00 40       	  or a9 0x4000;
    3cdf:	b5 f9 01          	  std.w a15 0x4 a9;
    3ce2:	da f4 2a 00 00    	  mvi a10 0x2af4;
    3ce7:	7e ce b9 00       	  call 0xb9ce;
    3ceb:	98 30 02          	  ldd.w a0 a3 0x8;
    3cee:	7e 02 01 00       	  call 0x102;
    3cf2:	d9 eb a6 00 00    	  mvi a9 0xa6eb;
    3cf7:	b2 ac             	  mv.w a12 a10;
    3cf9:	b0 91 00          	  stdsp.w a9 0x0;
    3cfc:	b2 0d             	  mv.w a13 a0;
    3cfe:	bd b4             	  clr.w a11;
    3d00:	bd 04             	  clr.w a0;
    3d02:	da c8 2f 00 00    	  mvi a10 0x2fc8;
    3d07:	b0 01 01          	  stdsp.w a0 0x4;
    3d0a:	30 01 08          	  stdsp.b a0 0x8;
    3d0d:	0e 01             	  mvi a14 0x1;
    3d0f:	7e c8 13 00       	  call 0x13c8;
    3d13:	d9 f4 2a 00 00    	  mvi a9 0x2af4;
    3d18:	df 00 00 00 1e    	  mvi a15 0x1e000000;
    3d1d:	35 90 50          	  std.b a9 0x50 a0;
    3d20:	fe 49 01          	  rspr a9 SP;
    3d23:	90 99 34          	  add.w a9 a9 0x34;
    3d26:	fe 42 01          	  rspr a2 SP;
    3d29:	a0 9f             	  std.w a9 a15;
    3d2b:	90 22 38          	  add.w a2 a2 0x38;
    3d2e:	0a 01             	  mvi a10 0x1;
    3d30:	b2 2b             	  mv.w a11 a2;
    3d32:	7e cd b1 00       	  call 0xb1cd;
    3d36:	33 a4 1f 1b       	  cmpbrne.b a10 0x1f 0x3d51;
    3d3a:	bf 2b             	  ldd.w a11 a2;
    3d3c:	c4 b9 01          	  and a9 a11 0x1;
    3d3f:	f4 1b 14          	  brne 0x3d53;
    3d42:	f0 b5 01          	  or a11 0x1;
    3d45:	0a 01             	  mvi a10 0x1;
    3d47:	a0 2b             	  std.w a2 a11;
    3d49:	7e 0f b2 00       	  call 0xb20f;
    3d4d:	33 a0 1f 06       	  cmpbreq.b a10 0x1f 0x3d53;
    3d51:	f8 09             	  trap1;
    3d53:	bd b4             	  clr.w a11;
    3d55:	0a 02             	  mvi a10 0x2;
    3d57:	7e 0f b2 00       	  call 0xb20f;
    3d5b:	da f4 2a 00 00    	  mvi a10 0x2af4;
    3d60:	7e 5d b8 00       	  call 0xb85d;
    3d64:	fe 4a 01          	  rspr a10 SP;
    3d67:	bd b4             	  clr.w a11;
    3d69:	bd c4             	  clr.w a12;
    3d6b:	0d 01             	  mvi a13 0x1;
    3d6d:	90 aa 34          	  add.w a10 a10 0x34;
    3d70:	7e 53 90 00       	  call 0x9053;
    3d74:	3e 0d 3e 00       	  jmp 0x3e0d;
    3d78:	33 04 02 32       	  cmpbrne.b a0 0x2 0x3daa;
    3d7c:	d9 80 06 00 00    	  mvi a9 0x680;
    3d81:	bf 9a             	  ldd.w a10 a9;
    3d83:	b3 a0 00 7f       	  cmpbreq.w a10 0x0 0x3e02;
    3d87:	d9 0c 2b 00 00    	  mvi a9 0x2b0c;
    3d8c:	98 9c 01          	  ldd.w a12 a9 0x4;
    3d8f:	bf 9b             	  ldd.w a11 a9;
    3d91:	3d f4             	  clr.b a15;
    3d93:	d9 f4 2a 00 00    	  mvi a9 0x2af4;
    3d98:	bd d4             	  clr.w a13;
    3d9a:	35 9f 15          	  std.b a9 0x15 a15;
    3d9d:	4e dc 10          	  mvi a14 0x10dc;
    3da0:	7e 72 26 00       	  call 0x2672;
    3da4:	32 a1             	  mv.b a1 a10;
    3da6:	3e 08 3e 00       	  jmp 0x3e08;
    3daa:	33 0d 03 07 02    	  cmpbrne.b a0 0x3 0x3fb1;
    3daf:	7e 0e 01 00       	  call 0x10e;
    3db3:	18 39 08          	  ldd.b a9 a3 0x8;
    3db6:	33 90 00 24       	  cmpbreq.b a9 0x0 0x3dda;
    3dba:	98 3e 03          	  ldd.w a14 a3 0xc;
    3dbd:	d9 94 2b 00 00    	  mvi a9 0x2b94;
    3dc2:	df 9c 2b 00 00    	  mvi a15 0x2b9c;
    3dc7:	a0 9e             	  std.w a9 a14;
    3dc9:	98 3e 04          	  ldd.w a14 a3 0x10;
    3dcc:	b5 9e 01          	  std.w a9 0x4 a14;
    3dcf:	98 39 05          	  ldd.w a9 a3 0x14;
    3dd2:	a0 f9             	  std.w a15 a9;
    3dd4:	98 3e 06          	  ldd.w a14 a3 0x18;
    3dd7:	b5 fe 01          	  std.w a15 0x4 a14;
    3dda:	18 39 1c          	  ldd.b a9 a3 0x1c;
    3ddd:	33 90 00 21       	  cmpbreq.b a9 0x0 0x3dfe;
    3de1:	df f4 2a 00 00    	  mvi a15 0x2af4;
    3de6:	98 39 08          	  ldd.w a9 a3 0x20;
    3de9:	98 fe 2d          	  ldd.w a14 a15 0xb4;
    3dec:	98 fd 2e          	  ldd.w a13 a15 0xb8;
    3def:	fd 9e 05          	  or a9 a14;
    3df2:	b5 f9 2d          	  std.w a15 0xb4 a9;
    3df5:	98 39 09          	  ldd.w a9 a3 0x24;
    3df8:	fd 9d 05          	  or a9 a13;
    3dfb:	b5 f9 2e          	  std.w a15 0xb8 a9;
    3dfe:	7e 08 01 00       	  call 0x108;
    3e02:	3d 14             	  clr.b a1;
    3e04:	3e 0d 3e 00       	  jmp 0x3e0d;
    3e08:	33 1d 00 ab 01    	  cmpbrne.b a1 0x0 0x3fb3;
    3e0d:	18 6b 01          	  ldd.b a11 a6 0x1;
    3e10:	b2 3a             	  mv.w a10 a3;
    3e12:	7e 81 0f 00       	  call 0xf81;
    3e16:	09 02             	  mvi a9 0x2;
    3e18:	fe 4f 01          	  rspr a15 SP;
    3e1b:	90 ff 48          	  add.w a15 a15 0x48;
    3e1e:	20 f9             	  std.b a15 a9;
    3e20:	3d 94             	  clr.b a9;
    3e22:	35 f9 02          	  std.b a15 0x2 a9;
    3e25:	18 33 03          	  ldd.b a3 a3 0x3;
    3e28:	09 04             	  mvi a9 0x4;
    3e2a:	bd b4             	  clr.w a11;
    3e2c:	b2 fa             	  mv.w a10 a15;
    3e2e:	35 f3 03          	  std.b a15 0x3 a3;
    3e31:	35 f9 01          	  std.b a15 0x1 a9;
    3e34:	7e 71 0f 00       	  call 0xf71;
    3e38:	3e b3 3f 00       	  jmp 0x3fb3;
    3e3c:	fe 40 01          	  rspr a0 SP;
    3e3f:	fe 41 01          	  rspr a1 SP;
    3e42:	90 00 44          	  add.w a0 a0 0x44;
    3e45:	90 11 40          	  add.w a1 a1 0x40;
    3e48:	fe 42 01          	  rspr a2 SP;
    3e4b:	b2 0a             	  mv.w a10 a0;
    3e4d:	90 22 3c          	  add.w a2 a2 0x3c;
    3e50:	b2 1b             	  mv.w a11 a1;
    3e52:	b2 2c             	  mv.w a12 a2;
    3e54:	3d d4             	  clr.b a13;
    3e56:	7e 53 90 00       	  call 0x9053;
    3e5a:	98 39 02          	  ldd.w a9 a3 0x8;
    3e5d:	bf 0f             	  ldd.w a15 a0;
    3e5f:	0a 01             	  mvi a10 0x1;
    3e61:	a6 f9             	  cmp.w a15 a9;
    3e63:	f4 1b 3c          	  brne 0x3e9f;
    3e66:	de 70 05 00 00    	  mvi a14 0x570;
    3e6b:	3f e9             	  ldd.b a9 a14;
    3e6d:	33 90 00 0e       	  cmpbreq.b a9 0x0 0x3e7b;
    3e71:	3d 94             	  clr.b a9;
    3e73:	0a 1e             	  mvi a10 0x1e;
    3e75:	20 e9             	  std.b a14 a9;
    3e77:	3e 9f 3e 00       	  jmp 0x3e9f;
    3e7b:	d9 ff 00 00 20    	  mvi a9 0x200000ff;
    3e80:	ff f9 94          	  and a9 a15 a9;
    3e83:	b3 94 1c 12       	  cmpbrne.w a9 0x1c 0x3e95;
    3e87:	b2 0a             	  mv.w a10 a0;
    3e89:	b2 1b             	  mv.w a11 a1;
    3e8b:	b2 2c             	  mv.w a12 a2;
    3e8d:	7e 64 b6 00       	  call 0xb664;
