AppVersion: 30997635. Process elf to get OBJDUMP.

_out/ls10/g_soeriscvuc_ls10.elf:     file format elf64-littleriscv


Disassembly of section .kernelCode:

0000000020013c00 <__section_kernelCode_data_start>:
    20013c00:	ffffd297          	auipc	t0,0xffffd
    20013c04:	1182b283          	ld	t0,280(t0) # 20010d18 <__section_globalRodataCmn_data_start+0x118>
    20013c08:	10529073          	csrw	stvec,t0
    20013c0c:	ffffd117          	auipc	sp,0xffffd
    20013c10:	0ec13103          	ld	sp,236(sp) # 20010cf8 <__section_globalRodataCmn_data_start+0xf8>
    20013c14:	ff010113          	addi	sp,sp,-16
    20013c18:	00013023          	sd	zero,0(sp)
    20013c1c:	00013423          	sd	zero,8(sp)
    20013c20:	4f5050ef          	jal	ra,20019914 <appMain>
    20013c24:	1990506f          	j	200195bc <vPortPanic>

0000000020013c28 <lwrtosRiscvExtIrqHook>:
    20013c28:	fe010113          	addi	sp,sp,-32
    20013c2c:	00113c23          	sd	ra,24(sp)
    20013c30:	ffffd797          	auipc	a5,0xffffd
    20013c34:	0007b783          	ld	a5,0(a5) # 20010c30 <__section_globalRodataCmn_data_start+0x30>
    20013c38:	0007b703          	ld	a4,0(a5)
    20013c3c:	00e13423          	sd	a4,8(sp)
    20013c40:	00813703          	ld	a4,8(sp)
    20013c44:	0007b783          	ld	a5,0(a5)
    20013c48:	00f70463          	beq	a4,a5,20013c50 <lwrtosRiscvExtIrqHook+0x28>
    20013c4c:	3e90c0ef          	jal	ra,20020834 <__stack_chk_fail>
    20013c50:	01813083          	ld	ra,24(sp)
    20013c54:	02010113          	addi	sp,sp,32
    20013c58:	0040006f          	j	20013c5c <icService_LS10>

0000000020013c5c <icService_LS10>:
    20013c5c:	f9010113          	addi	sp,sp,-112
    20013c60:	05213823          	sd	s2,80(sp)
    20013c64:	ffffd917          	auipc	s2,0xffffd
    20013c68:	fcc93903          	ld	s2,-52(s2) # 20010c30 <__section_globalRodataCmn_data_start+0x30>
    20013c6c:	00093783          	ld	a5,0(s2)
    20013c70:	06813023          	sd	s0,96(sp)
    20013c74:	05313423          	sd	s3,72(sp)
    20013c78:	05413023          	sd	s4,64(sp)
    20013c7c:	03513c23          	sd	s5,56(sp)
    20013c80:	03613823          	sd	s6,48(sp)
    20013c84:	03713423          	sd	s7,40(sp)
    20013c88:	03813023          	sd	s8,32(sp)
    20013c8c:	01913c23          	sd	s9,24(sp)
    20013c90:	00f13423          	sd	a5,8(sp)
    20013c94:	06113423          	sd	ra,104(sp)
    20013c98:	04913c23          	sd	s1,88(sp)
    20013c9c:	014007b7          	lui	a5,0x1400
    20013ca0:	2007a703          	lw	a4,512(a5) # 1400200 <__emem_ptr+0x1ffe00>
    20013ca4:	014557b7          	lui	a5,0x1455
    20013ca8:	a007a483          	lw	s1,-1536(a5) # 1454a00 <__emem_ptr+0x254600>
    20013cac:	b007a783          	lw	a5,-1280(a5)
    20013cb0:	00000993          	li	s3,0
    20013cb4:	00e4f4b3          	and	s1,s1,a4
    20013cb8:	0007879b          	sext.w	a5,a5
    20013cbc:	0004849b          	sext.w	s1,s1
    20013cc0:	fff7c793          	not	a5,a5
    20013cc4:	00f4f4b3          	and	s1,s1,a5
    20013cc8:	00000413          	li	s0,0
    20013ccc:	00100b13          	li	s6,1
    20013cd0:	01400bb7          	lui	s7,0x1400
    20013cd4:	00c00a13          	li	s4,12
    20013cd8:	01200c13          	li	s8,18
    20013cdc:	00100c93          	li	s9,1
    20013ce0:	01300a93          	li	s5,19
    20013ce4:	008b173b          	sllw	a4,s6,s0
    20013ce8:	00e4f7b3          	and	a5,s1,a4
    20013cec:	0007879b          	sext.w	a5,a5
    20013cf0:	02078863          	beqz	a5,20013d20 <icService_LS10+0xc4>
    20013cf4:	10eba023          	sw	a4,256(s7) # 1400100 <__emem_ptr+0x1ffd00>
    20013cf8:	03440263          	beq	s0,s4,20013d1c <icService_LS10+0xc0>
    20013cfc:	008a6a63          	bltu	s4,s0,20013d10 <icService_LS10+0xb4>
    20013d00:	ffe4071b          	addiw	a4,s0,-2
    20013d04:	00ecfe63          	bleu	a4,s9,20013d20 <icService_LS10+0xc4>
    20013d08:	0137e9b3          	or	s3,a5,s3
    20013d0c:	0140006f          	j	20013d20 <icService_LS10+0xc4>
    20013d10:	ff841ce3          	bne	s0,s8,20013d08 <icService_LS10+0xac>
    20013d14:	245030ef          	jal	ra,20017758 <irqHandleMemerr>
    20013d18:	0080006f          	j	20013d20 <icService_LS10+0xc4>
    20013d1c:	1c4040ef          	jal	ra,20017ee0 <cmdqIrqHandler>
    20013d20:	0014041b          	addiw	s0,s0,1
    20013d24:	fd5410e3          	bne	s0,s5,20013ce4 <icService_LS10+0x88>
    20013d28:	00098a63          	beqz	s3,20013d3c <icService_LS10+0xe0>
    20013d2c:	00098593          	mv	a1,s3
    20013d30:	ffffd517          	auipc	a0,0xffffd
    20013d34:	3e850513          	addi	a0,a0,1000 # 20011118 <__section_globalRodataCmn_data_start+0x518>
    20013d38:	2810c0ef          	jal	ra,200207b8 <printf>
    20013d3c:	00813703          	ld	a4,8(sp)
    20013d40:	00093783          	ld	a5,0(s2)
    20013d44:	00100513          	li	a0,1
    20013d48:	00f70463          	beq	a4,a5,20013d50 <icService_LS10+0xf4>
    20013d4c:	2e90c0ef          	jal	ra,20020834 <__stack_chk_fail>
    20013d50:	06813083          	ld	ra,104(sp)
    20013d54:	06013403          	ld	s0,96(sp)
    20013d58:	05813483          	ld	s1,88(sp)
    20013d5c:	05013903          	ld	s2,80(sp)
    20013d60:	04813983          	ld	s3,72(sp)
    20013d64:	04013a03          	ld	s4,64(sp)
    20013d68:	03813a83          	ld	s5,56(sp)
    20013d6c:	03013b03          	ld	s6,48(sp)
    20013d70:	02813b83          	ld	s7,40(sp)
    20013d74:	02013c03          	ld	s8,32(sp)
    20013d78:	01813c83          	ld	s9,24(sp)
    20013d7c:	07010113          	addi	sp,sp,112
    20013d80:	00008067          	ret

0000000020013d84 <lsfSetupMthdctx_LS10>:
    20013d84:	fe010113          	addi	sp,sp,-32
    20013d88:	00113c23          	sd	ra,24(sp)
    20013d8c:	ffffd697          	auipc	a3,0xffffd
    20013d90:	ea46b683          	ld	a3,-348(a3) # 20010c30 <__section_globalRodataCmn_data_start+0x30>
    20013d94:	0006b783          	ld	a5,0(a3)
    20013d98:	0140a737          	lui	a4,0x140a
    20013d9c:	00040637          	lui	a2,0x40
    20013da0:	00f13423          	sd	a5,8(sp)
    20013da4:	50072783          	lw	a5,1280(a4) # 140a500 <__emem_ptr+0x20a100>
    20013da8:	0007879b          	sext.w	a5,a5
    20013dac:	00f7e793          	ori	a5,a5,15
    20013db0:	50f72023          	sw	a5,1280(a4)
    20013db4:	014017b7          	lui	a5,0x1401
    20013db8:	00300713          	li	a4,3
    20013dbc:	20e7a023          	sw	a4,512(a5) # 1401200 <__emem_ptr+0x200e00>
    20013dc0:	01402737          	lui	a4,0x1402
    20013dc4:	40072783          	lw	a5,1024(a4) # 1402400 <__emem_ptr+0x202000>
    20013dc8:	0007879b          	sext.w	a5,a5
    20013dcc:	00c7e7b3          	or	a5,a5,a2
    20013dd0:	40f72023          	sw	a5,1024(a4)
    20013dd4:	40072783          	lw	a5,1024(a4)
    20013dd8:	00813703          	ld	a4,8(sp)
    20013ddc:	0006b783          	ld	a5,0(a3)
    20013de0:	00f70463          	beq	a4,a5,20013de8 <lsfSetupMthdctx_LS10+0x64>
    20013de4:	2510c0ef          	jal	ra,20020834 <__stack_chk_fail>
    20013de8:	01813083          	ld	ra,24(sp)
    20013dec:	02010113          	addi	sp,sp,32
    20013df0:	00008067          	ret

0000000020013df4 <lsfInitApertureSettings_LS10>:
    20013df4:	fe010113          	addi	sp,sp,-32
    20013df8:	00113c23          	sd	ra,24(sp)
    20013dfc:	ffffd797          	auipc	a5,0xffffd
    20013e00:	e347b783          	ld	a5,-460(a5) # 20010c30 <__section_globalRodataCmn_data_start+0x30>
    20013e04:	0007b703          	ld	a4,0(a5)
    20013e08:	00500693          	li	a3,5
    20013e0c:	00e13423          	sd	a4,8(sp)
    20013e10:	01418737          	lui	a4,0x1418
    20013e14:	00d72023          	sw	a3,0(a4) # 1418000 <__emem_ptr+0x217c00>
    20013e18:	00600693          	li	a3,6
    20013e1c:	10d72023          	sw	a3,256(a4)
    20013e20:	00813703          	ld	a4,8(sp)
    20013e24:	0007b783          	ld	a5,0(a5)
    20013e28:	00f70463          	beq	a4,a5,20013e30 <lsfInitApertureSettings_LS10+0x3c>
    20013e2c:	2090c0ef          	jal	ra,20020834 <__stack_chk_fail>
    20013e30:	01813083          	ld	ra,24(sp)
    20013e34:	02010113          	addi	sp,sp,32
    20013e38:	00008067          	ret

0000000020013e3c <lsfPreInit>:
    20013e3c:	fe010113          	addi	sp,sp,-32
    20013e40:	00813823          	sd	s0,16(sp)
    20013e44:	ffffd417          	auipc	s0,0xffffd
    20013e48:	dec43403          	ld	s0,-532(s0) # 20010c30 <__section_globalRodataCmn_data_start+0x30>
    20013e4c:	00043783          	ld	a5,0(s0)
    20013e50:	00113c23          	sd	ra,24(sp)
    20013e54:	00f13423          	sd	a5,8(sp)
    20013e58:	f9dff0ef          	jal	ra,20013df4 <lsfInitApertureSettings_LS10>
    20013e5c:	00813703          	ld	a4,8(sp)
    20013e60:	00043783          	ld	a5,0(s0)
    20013e64:	00f70463          	beq	a4,a5,20013e6c <lsfPreInit+0x30>
    20013e68:	1cd0c0ef          	jal	ra,20020834 <__stack_chk_fail>
    20013e6c:	01013403          	ld	s0,16(sp)
    20013e70:	01813083          	ld	ra,24(sp)
    20013e74:	02010113          	addi	sp,sp,32
    20013e78:	f0dff06f          	j	20013d84 <lsfSetupMthdctx_LS10>

0000000020013e7c <soeGetSWFuseVersion_LS10>:
    20013e7c:	fe010113          	addi	sp,sp,-32
    20013e80:	00113c23          	sd	ra,24(sp)
    20013e84:	ffffd717          	auipc	a4,0xffffd
    20013e88:	dac73703          	ld	a4,-596(a4) # 20010c30 <__section_globalRodataCmn_data_start+0x30>
    20013e8c:	00073783          	ld	a5,0(a4)
    20013e90:	00700613          	li	a2,7
    20013e94:	0a100693          	li	a3,161
    20013e98:	00f13423          	sd	a5,8(sp)
    20013e9c:	006007b7          	lui	a5,0x600
    20013ea0:	00578793          	addi	a5,a5,5 # 600005 <__dmesg_buffer_physaddr+0x461005>
    20013ea4:	00979793          	slli	a5,a5,0x9
    20013ea8:	0007a783          	lw	a5,0(a5)
    20013eac:	0147d79b          	srliw	a5,a5,0x14
    20013eb0:	1ff7f793          	andi	a5,a5,511
    20013eb4:	00c79663          	bne	a5,a2,20013ec0 <soeGetSWFuseVersion_LS10+0x44>
    20013eb8:	00052023          	sw	zero,0(a0)
    20013ebc:	00000693          	li	a3,0
    20013ec0:	00068513          	mv	a0,a3
    20013ec4:	00813683          	ld	a3,8(sp)
    20013ec8:	00073783          	ld	a5,0(a4)
    20013ecc:	00f68463          	beq	a3,a5,20013ed4 <soeGetSWFuseVersion_LS10+0x58>
    20013ed0:	1650c0ef          	jal	ra,20020834 <__stack_chk_fail>
    20013ed4:	01813083          	ld	ra,24(sp)
    20013ed8:	02010113          	addi	sp,sp,32
    20013edc:	00008067          	ret

0000000020013ee0 <soeGetHWFpfVersion_LS10>:
    20013ee0:	fe010113          	addi	sp,sp,-32
    20013ee4:	ffffd797          	auipc	a5,0xffffd
    20013ee8:	d4c7b783          	ld	a5,-692(a5) # 20010c30 <__section_globalRodataCmn_data_start+0x30>
    20013eec:	00113c23          	sd	ra,24(sp)
    20013ef0:	0007b703          	ld	a4,0(a5)
    20013ef4:	00e13423          	sd	a4,8(sp)
    20013ef8:	00078713          	mv	a4,a5
    20013efc:	00200793          	li	a5,2
    20013f00:	02050063          	beqz	a0,20013f20 <soeGetHWFpfVersion_LS10+0x40>
    20013f04:	302097b7          	lui	a5,0x30209
    20013f08:	00279793          	slli	a5,a5,0x2
    20013f0c:	2487a783          	lw	a5,584(a5) # 30209248 <_dmesg_buffer_end+0x101dfa48>
    20013f10:	00000693          	li	a3,0
    20013f14:	0ff7f793          	andi	a5,a5,255
    20013f18:	00079e63          	bnez	a5,20013f34 <soeGetHWFpfVersion_LS10+0x54>
    20013f1c:	00d52023          	sw	a3,0(a0)
    20013f20:	00078513          	mv	a0,a5
    20013f24:	00813683          	ld	a3,8(sp)
    20013f28:	00073783          	ld	a5,0(a4)
    20013f2c:	00f68a63          	beq	a3,a5,20013f40 <soeGetHWFpfVersion_LS10+0x60>
    20013f30:	1050c0ef          	jal	ra,20020834 <__stack_chk_fail>
    20013f34:	0016869b          	addiw	a3,a3,1
    20013f38:	0017d793          	srli	a5,a5,0x1
    20013f3c:	fddff06f          	j	20013f18 <soeGetHWFpfVersion_LS10+0x38>
    20013f40:	01813083          	ld	ra,24(sp)
    20013f44:	02010113          	addi	sp,sp,32
    20013f48:	00008067          	ret

0000000020013f4c <soeCheckFuseRevocationAgainstHWFpfVersion_LS10>:
    20013f4c:	fd010113          	addi	sp,sp,-48
    20013f50:	02813023          	sd	s0,32(sp)
    20013f54:	ffffd417          	auipc	s0,0xffffd
    20013f58:	cdc43403          	ld	s0,-804(s0) # 20010c30 <__section_globalRodataCmn_data_start+0x30>
    20013f5c:	00043783          	ld	a5,0(s0)
    20013f60:	00913c23          	sd	s1,24(sp)
    20013f64:	00050493          	mv	s1,a0
    20013f68:	00410513          	addi	a0,sp,4
    20013f6c:	02113423          	sd	ra,40(sp)
    20013f70:	00f13423          	sd	a5,8(sp)
    20013f74:	00012223          	sw	zero,4(sp)
    20013f78:	f69ff0ef          	jal	ra,20013ee0 <soeGetHWFpfVersion_LS10>
    20013f7c:	00051863          	bnez	a0,20013f8c <soeCheckFuseRevocationAgainstHWFpfVersion_LS10+0x40>
    20013f80:	00412783          	lw	a5,4(sp)
    20013f84:	00f4f463          	bleu	a5,s1,20013f8c <soeCheckFuseRevocationAgainstHWFpfVersion_LS10+0x40>
    20013f88:	0a200513          	li	a0,162
    20013f8c:	00813703          	ld	a4,8(sp)
    20013f90:	00043783          	ld	a5,0(s0)
    20013f94:	00f70463          	beq	a4,a5,20013f9c <soeCheckFuseRevocationAgainstHWFpfVersion_LS10+0x50>
    20013f98:	09d0c0ef          	jal	ra,20020834 <__stack_chk_fail>
    20013f9c:	02813083          	ld	ra,40(sp)
    20013fa0:	02013403          	ld	s0,32(sp)
    20013fa4:	01813483          	ld	s1,24(sp)
    20013fa8:	03010113          	addi	sp,sp,48
    20013fac:	00008067          	ret

0000000020013fb0 <soeCheckForLSRevocation_LS10>:
    20013fb0:	fe010113          	addi	sp,sp,-32
    20013fb4:	00813823          	sd	s0,16(sp)
    20013fb8:	ffffd417          	auipc	s0,0xffffd
    20013fbc:	c7843403          	ld	s0,-904(s0) # 20010c30 <__section_globalRodataCmn_data_start+0x30>
    20013fc0:	00043783          	ld	a5,0(s0)
    20013fc4:	00410513          	addi	a0,sp,4
    20013fc8:	00113c23          	sd	ra,24(sp)
    20013fcc:	00f13423          	sd	a5,8(sp)
    20013fd0:	00012223          	sw	zero,4(sp)
    20013fd4:	ea9ff0ef          	jal	ra,20013e7c <soeGetSWFuseVersion_LS10>
    20013fd8:	00051663          	bnez	a0,20013fe4 <soeCheckForLSRevocation_LS10+0x34>
    20013fdc:	00412503          	lw	a0,4(sp)
    20013fe0:	f6dff0ef          	jal	ra,20013f4c <soeCheckFuseRevocationAgainstHWFpfVersion_LS10>
    20013fe4:	00813703          	ld	a4,8(sp)
    20013fe8:	00043783          	ld	a5,0(s0)
    20013fec:	00f70463          	beq	a4,a5,20013ff4 <soeCheckForLSRevocation_LS10+0x44>
    20013ff0:	0450c0ef          	jal	ra,20020834 <__stack_chk_fail>
    20013ff4:	01813083          	ld	ra,24(sp)
    20013ff8:	01013403          	ld	s0,16(sp)
    20013ffc:	02010113          	addi	sp,sp,32
    20014000:	00008067          	ret

0000000020014004 <lwrtosQueueSendFromISRWithStatus>:
    20014004:	fe010113          	addi	sp,sp,-32
    20014008:	00813823          	sd	s0,16(sp)
    2001400c:	ffffd417          	auipc	s0,0xffffd
    20014010:	c2443403          	ld	s0,-988(s0) # 20010c30 <__section_globalRodataCmn_data_start+0x30>
    20014014:	00043783          	ld	a5,0(s0)
    20014018:	00010613          	mv	a2,sp
    2001401c:	00113c23          	sd	ra,24(sp)
    20014020:	00f13423          	sd	a5,8(sp)
    20014024:	00013023          	sd	zero,0(sp)
    20014028:	45c000ef          	jal	ra,20014484 <xQueueSendFromISR>
    2001402c:	00100793          	li	a5,1
    20014030:	02f51863          	bne	a0,a5,20014060 <lwrtosQueueSendFromISRWithStatus+0x5c>
    20014034:	00013703          	ld	a4,0(sp)
    20014038:	00000793          	li	a5,0
    2001403c:	00a71863          	bne	a4,a0,2001404c <lwrtosQueueSendFromISRWithStatus+0x48>
    20014040:	ffffd697          	auipc	a3,0xffffd
    20014044:	cf06b683          	ld	a3,-784(a3) # 20010d30 <__section_globalRodataCmn_data_start+0x130>
    20014048:	00e68023          	sb	a4,0(a3)
    2001404c:	00078513          	mv	a0,a5
    20014050:	00813703          	ld	a4,8(sp)
    20014054:	00043783          	ld	a5,0(s0)
    20014058:	00f70e63          	beq	a4,a5,20014074 <lwrtosQueueSendFromISRWithStatus+0x70>
    2001405c:	7d80c0ef          	jal	ra,20020834 <__stack_chk_fail>
    20014060:	ffc00713          	li	a4,-4
    20014064:	00400793          	li	a5,4
    20014068:	fee502e3          	beq	a0,a4,2001404c <lwrtosQueueSendFromISRWithStatus+0x48>
    2001406c:	0ff00793          	li	a5,255
    20014070:	fddff06f          	j	2001404c <lwrtosQueueSendFromISRWithStatus+0x48>
    20014074:	01813083          	ld	ra,24(sp)
    20014078:	01013403          	ld	s0,16(sp)
    2001407c:	02010113          	addi	sp,sp,32
    20014080:	00008067          	ret

0000000020014084 <lwrtosTaskNotifySendFromISR>:
    20014084:	fd010113          	addi	sp,sp,-48
    20014088:	02813023          	sd	s0,32(sp)
    2001408c:	ffffd797          	auipc	a5,0xffffd
    20014090:	ba47b783          	ld	a5,-1116(a5) # 20010c30 <__section_globalRodataCmn_data_start+0x30>
    20014094:	02113423          	sd	ra,40(sp)
    20014098:	00913c23          	sd	s1,24(sp)
    2001409c:	0007b703          	ld	a4,0(a5)
    200140a0:	00078413          	mv	s0,a5
    200140a4:	00e13423          	sd	a4,8(sp)
    200140a8:	04068463          	beqz	a3,200140f0 <lwrtosTaskNotifySendFromISR+0x6c>
    200140ac:	00068493          	mv	s1,a3
    200140b0:	00010693          	mv	a3,sp
    200140b4:	429010ef          	jal	ra,20015cdc <xTaskNotifySendFromISR>
    200140b8:	00100793          	li	a5,1
    200140bc:	02f51463          	bne	a0,a5,200140e4 <lwrtosTaskNotifySendFromISR+0x60>
    200140c0:	00013783          	ld	a5,0(sp)
    200140c4:	00000513          	li	a0,0
    200140c8:	fff78793          	addi	a5,a5,-1
    200140cc:	0017b793          	seqz	a5,a5
    200140d0:	00f48023          	sb	a5,0(s1)
    200140d4:	00813703          	ld	a4,8(sp)
    200140d8:	00043783          	ld	a5,0(s0)
    200140dc:	00f70e63          	beq	a4,a5,200140f8 <lwrtosTaskNotifySendFromISR+0x74>
    200140e0:	7540c0ef          	jal	ra,20020834 <__stack_chk_fail>
    200140e4:	00001537          	lui	a0,0x1
    200140e8:	a8650513          	addi	a0,a0,-1402 # a86 <__section_globalRodataCmn_max_size+0x286>
    200140ec:	00100073          	ebreak
    200140f0:	00200513          	li	a0,2
    200140f4:	fe1ff06f          	j	200140d4 <lwrtosTaskNotifySendFromISR+0x50>
    200140f8:	02813083          	ld	ra,40(sp)
    200140fc:	02013403          	ld	s0,32(sp)
    20014100:	01813483          	ld	s1,24(sp)
    20014104:	03010113          	addi	sp,sp,48
    20014108:	00008067          	ret

000000002001410c <prvUnlockQueue>:
    2001410c:	fd010113          	addi	sp,sp,-48
    20014110:	02813023          	sd	s0,32(sp)
    20014114:	00913c23          	sd	s1,24(sp)
    20014118:	01213823          	sd	s2,16(sp)
    2001411c:	ffffd797          	auipc	a5,0xffffd
    20014120:	b147b783          	ld	a5,-1260(a5) # 20010c30 <__section_globalRodataCmn_data_start+0x30>
    20014124:	02113423          	sd	ra,40(sp)
    20014128:	0007b703          	ld	a4,0(a5)
    2001412c:	00050413          	mv	s0,a0
    20014130:	00078913          	mv	s2,a5
    20014134:	00e13423          	sd	a4,8(sp)
    20014138:	05050493          	addi	s1,a0,80
    2001413c:	0a043783          	ld	a5,160(s0)
    20014140:	00f05863          	blez	a5,20014150 <prvUnlockQueue+0x44>
    20014144:	00048513          	mv	a0,s1
    20014148:	400020ef          	jal	ra,20016548 <xListIsListEmpty>
    2001414c:	02050e63          	beqz	a0,20014188 <prvUnlockQueue+0x7c>
    20014150:	fff00793          	li	a5,-1
    20014154:	0af43023          	sd	a5,160(s0)
    20014158:	02040493          	addi	s1,s0,32
    2001415c:	09843783          	ld	a5,152(s0)
    20014160:	00f05863          	blez	a5,20014170 <prvUnlockQueue+0x64>
    20014164:	00048513          	mv	a0,s1
    20014168:	3e0020ef          	jal	ra,20016548 <xListIsListEmpty>
    2001416c:	02050e63          	beqz	a0,200141a8 <prvUnlockQueue+0x9c>
    20014170:	fff00793          	li	a5,-1
    20014174:	08f43c23          	sd	a5,152(s0)
    20014178:	00813703          	ld	a4,8(sp)
    2001417c:	00093783          	ld	a5,0(s2)
    20014180:	04f70463          	beq	a4,a5,200141c8 <prvUnlockQueue+0xbc>
    20014184:	6b00c0ef          	jal	ra,20020834 <__stack_chk_fail>
    20014188:	00048513          	mv	a0,s1
    2001418c:	3c0010ef          	jal	ra,2001554c <xTaskRemoveFromEventList>
    20014190:	00050463          	beqz	a0,20014198 <prvUnlockQueue+0x8c>
    20014194:	711000ef          	jal	ra,200150a4 <vTaskPendYield>
    20014198:	0a043783          	ld	a5,160(s0)
    2001419c:	fff78793          	addi	a5,a5,-1
    200141a0:	0af43023          	sd	a5,160(s0)
    200141a4:	f99ff06f          	j	2001413c <prvUnlockQueue+0x30>
    200141a8:	00048513          	mv	a0,s1
    200141ac:	3a0010ef          	jal	ra,2001554c <xTaskRemoveFromEventList>
    200141b0:	00050463          	beqz	a0,200141b8 <prvUnlockQueue+0xac>
    200141b4:	6f1000ef          	jal	ra,200150a4 <vTaskPendYield>
    200141b8:	09843783          	ld	a5,152(s0)
    200141bc:	fff78793          	addi	a5,a5,-1
    200141c0:	08f43c23          	sd	a5,152(s0)
    200141c4:	f99ff06f          	j	2001415c <prvUnlockQueue+0x50>
    200141c8:	02813083          	ld	ra,40(sp)
    200141cc:	02013403          	ld	s0,32(sp)
    200141d0:	01813483          	ld	s1,24(sp)
    200141d4:	01013903          	ld	s2,16(sp)
    200141d8:	03010113          	addi	sp,sp,48
    200141dc:	00008067          	ret

00000000200141e0 <xQueueIsQueueValid>:
    200141e0:	fe010113          	addi	sp,sp,-32
    200141e4:	00113c23          	sd	ra,24(sp)
    200141e8:	ffffd717          	auipc	a4,0xffffd
    200141ec:	a4873703          	ld	a4,-1464(a4) # 20010c30 <__section_globalRodataCmn_data_start+0x30>
    200141f0:	00073783          	ld	a5,0(a4)
    200141f4:	00f13423          	sd	a5,8(sp)
    200141f8:	11053783          	ld	a5,272(a0)
    200141fc:	00053503          	ld	a0,0(a0)
    20014200:	00813683          	ld	a3,8(sp)
    20014204:	fff7c793          	not	a5,a5
    20014208:	40f50533          	sub	a0,a0,a5
    2001420c:	00073783          	ld	a5,0(a4)
    20014210:	00f68463          	beq	a3,a5,20014218 <xQueueIsQueueValid+0x38>
    20014214:	6200c0ef          	jal	ra,20020834 <__stack_chk_fail>
    20014218:	01813083          	ld	ra,24(sp)
    2001421c:	00153513          	seqz	a0,a0
    20014220:	02010113          	addi	sp,sp,32
    20014224:	00008067          	ret

0000000020014228 <prvCheckCommonParameters>:
    20014228:	fc010113          	addi	sp,sp,-64
    2001422c:	ffffd797          	auipc	a5,0xffffd
    20014230:	a047b783          	ld	a5,-1532(a5) # 20010c30 <__section_globalRodataCmn_data_start+0x30>
    20014234:	02813823          	sd	s0,48(sp)
    20014238:	02113c23          	sd	ra,56(sp)
    2001423c:	02913423          	sd	s1,40(sp)
    20014240:	0007b703          	ld	a4,0(a5)
    20014244:	00b13423          	sd	a1,8(sp)
    20014248:	00078413          	mv	s0,a5
    2001424c:	00e13c23          	sd	a4,24(sp)
    20014250:	fef00793          	li	a5,-17
    20014254:	02050e63          	beqz	a0,20014290 <prvCheckCommonParameters+0x68>
    20014258:	00050493          	mv	s1,a0
    2001425c:	f85ff0ef          	jal	ra,200141e0 <xQueueIsQueueValid>
    20014260:	fef00793          	li	a5,-17
    20014264:	02050663          	beqz	a0,20014290 <prvCheckCommonParameters+0x68>
    20014268:	0a84b683          	ld	a3,168(s1)
    2001426c:	5a5a6737          	lui	a4,0x5a5a6
    20014270:	a5a70713          	addi	a4,a4,-1446 # 5a5a5a5a <_dmesg_buffer_end+0x3a57c25a>
    20014274:	00e69e63          	bne	a3,a4,20014290 <prvCheckCommonParameters+0x68>
    20014278:	00813583          	ld	a1,8(sp)
    2001427c:	00100793          	li	a5,1
    20014280:	00059863          	bnez	a1,20014290 <prvCheckCommonParameters+0x68>
    20014284:	0904b703          	ld	a4,144(s1)
    20014288:	00070463          	beqz	a4,20014290 <prvCheckCommonParameters+0x68>
    2001428c:	ffa00793          	li	a5,-6
    20014290:	00078513          	mv	a0,a5
    20014294:	01813703          	ld	a4,24(sp)
    20014298:	00043783          	ld	a5,0(s0)
    2001429c:	00f70463          	beq	a4,a5,200142a4 <prvCheckCommonParameters+0x7c>
    200142a0:	5940c0ef          	jal	ra,20020834 <__stack_chk_fail>
    200142a4:	03813083          	ld	ra,56(sp)
    200142a8:	03013403          	ld	s0,48(sp)
    200142ac:	02813483          	ld	s1,40(sp)
    200142b0:	04010113          	addi	sp,sp,64
    200142b4:	00008067          	ret

00000000200142b8 <xEventPollUpdateQueueEventPollObjects>:
    200142b8:	fe010113          	addi	sp,sp,-32
    200142bc:	00113c23          	sd	ra,24(sp)
    200142c0:	ffffd797          	auipc	a5,0xffffd
    200142c4:	9707b783          	ld	a5,-1680(a5) # 20010c30 <__section_globalRodataCmn_data_start+0x30>
    200142c8:	0007b703          	ld	a4,0(a5)
    200142cc:	00e13423          	sd	a4,8(sp)
    200142d0:	00813703          	ld	a4,8(sp)
    200142d4:	0007b783          	ld	a5,0(a5)
    200142d8:	00f70463          	beq	a4,a5,200142e0 <xEventPollUpdateQueueEventPollObjects+0x28>
    200142dc:	5580c0ef          	jal	ra,20020834 <__stack_chk_fail>
    200142e0:	01813083          	ld	ra,24(sp)
    200142e4:	00000513          	li	a0,0
    200142e8:	02010113          	addi	sp,sp,32
    200142ec:	00008067          	ret

00000000200142f0 <prvQueueSendDataToQueueFromISR>:
    200142f0:	fb010113          	addi	sp,sp,-80
    200142f4:	03213823          	sd	s2,48(sp)
    200142f8:	ffffd917          	auipc	s2,0xffffd
    200142fc:	93893903          	ld	s2,-1736(s2) # 20010c30 <__section_globalRodataCmn_data_start+0x30>
    20014300:	00093783          	ld	a5,0(s2)
    20014304:	02913c23          	sd	s1,56(sp)
    20014308:	03313423          	sd	s3,40(sp)
    2001430c:	04113423          	sd	ra,72(sp)
    20014310:	04813023          	sd	s0,64(sp)
    20014314:	03413023          	sd	s4,32(sp)
    20014318:	01513c23          	sd	s5,24(sp)
    2001431c:	00f13423          	sd	a5,8(sp)
    20014320:	08053703          	ld	a4,128(a0)
    20014324:	08853783          	ld	a5,136(a0)
    20014328:	00013023          	sd	zero,0(sp)
    2001432c:	00068993          	mv	s3,a3
    20014330:	ffc00493          	li	s1,-4
    20014334:	0af77063          	bleu	a5,a4,200143d4 <prvQueueSendDataToQueueFromISR+0xe4>
    20014338:	00060a93          	mv	s5,a2
    2001433c:	00100a13          	li	s4,1
    20014340:	00050413          	mv	s0,a0
    20014344:	09053603          	ld	a2,144(a0)
    20014348:	0d4a9263          	bne	s5,s4,2001440c <prvQueueSendDataToQueueFromISR+0x11c>
    2001434c:	01853503          	ld	a0,24(a0)
    20014350:	661010ef          	jal	ra,200161b0 <xPortCopyDataFromTask>
    20014354:	00050493          	mv	s1,a0
    20014358:	07551e63          	bne	a0,s5,200143d4 <prvQueueSendDataToQueueFromISR+0xe4>
    2001435c:	08043783          	ld	a5,128(s0)
    20014360:	09043703          	ld	a4,144(s0)
    20014364:	00043683          	ld	a3,0(s0)
    20014368:	00178793          	addi	a5,a5,1
    2001436c:	08f43023          	sd	a5,128(s0)
    20014370:	01843783          	ld	a5,24(s0)
    20014374:	40e787b3          	sub	a5,a5,a4
    20014378:	00f43c23          	sd	a5,24(s0)
    2001437c:	00d7f863          	bleu	a3,a5,2001438c <prvQueueSendDataToQueueFromISR+0x9c>
    20014380:	00843783          	ld	a5,8(s0)
    20014384:	40e787b3          	sub	a5,a5,a4
    20014388:	00f43c23          	sd	a5,24(s0)
    2001438c:	0a043783          	ld	a5,160(s0)
    20014390:	fff00713          	li	a4,-1
    20014394:	0ae79c63          	bne	a5,a4,2001444c <prvQueueSendDataToQueueFromISR+0x15c>
    20014398:	05040493          	addi	s1,s0,80
    2001439c:	00048513          	mv	a0,s1
    200143a0:	1a8020ef          	jal	ra,20016548 <xListIsListEmpty>
    200143a4:	00051c63          	bnez	a0,200143bc <prvQueueSendDataToQueueFromISR+0xcc>
    200143a8:	00048513          	mv	a0,s1
    200143ac:	1a0010ef          	jal	ra,2001554c <xTaskRemoveFromEventList>
    200143b0:	00050663          	beqz	a0,200143bc <prvQueueSendDataToQueueFromISR+0xcc>
    200143b4:	00100793          	li	a5,1
    200143b8:	00f13023          	sd	a5,0(sp)
    200143bc:	00040513          	mv	a0,s0
    200143c0:	ef9ff0ef          	jal	ra,200142b8 <xEventPollUpdateQueueEventPollObjects>
    200143c4:	00100793          	li	a5,1
    200143c8:	00050493          	mv	s1,a0
    200143cc:	08f51663          	bne	a0,a5,20014458 <prvQueueSendDataToQueueFromISR+0x168>
    200143d0:	00a13023          	sd	a0,0(sp)
    200143d4:	00013403          	ld	s0,0(sp)
    200143d8:	00100793          	li	a5,1
    200143dc:	00f41e63          	bne	s0,a5,200143f8 <prvQueueSendDataToQueueFromISR+0x108>
    200143e0:	00800613          	li	a2,8
    200143e4:	00010593          	mv	a1,sp
    200143e8:	00098513          	mv	a0,s3
    200143ec:	54d010ef          	jal	ra,20016138 <xPortCopyDataToTask>
    200143f0:	00850463          	beq	a0,s0,200143f8 <prvQueueSendDataToQueueFromISR+0x108>
    200143f4:	fc000493          	li	s1,-64
    200143f8:	00813703          	ld	a4,8(sp)
    200143fc:	00093783          	ld	a5,0(s2)
    20014400:	00048513          	mv	a0,s1
    20014404:	04f70e63          	beq	a4,a5,20014460 <prvQueueSendDataToQueueFromISR+0x170>
    20014408:	42c0c0ef          	jal	ra,20020834 <__stack_chk_fail>
    2001440c:	01053503          	ld	a0,16(a0)
    20014410:	5a1010ef          	jal	ra,200161b0 <xPortCopyDataFromTask>
    20014414:	00050493          	mv	s1,a0
    20014418:	fb451ee3          	bne	a0,s4,200143d4 <prvQueueSendDataToQueueFromISR+0xe4>
    2001441c:	08043783          	ld	a5,128(s0)
    20014420:	09043703          	ld	a4,144(s0)
    20014424:	00178793          	addi	a5,a5,1
    20014428:	08f43023          	sd	a5,128(s0)
    2001442c:	01043783          	ld	a5,16(s0)
    20014430:	00e787b3          	add	a5,a5,a4
    20014434:	00843703          	ld	a4,8(s0)
    20014438:	00f43823          	sd	a5,16(s0)
    2001443c:	f4e7e8e3          	bltu	a5,a4,2001438c <prvQueueSendDataToQueueFromISR+0x9c>
    20014440:	00043783          	ld	a5,0(s0)
    20014444:	00f43823          	sd	a5,16(s0)
    20014448:	f45ff06f          	j	2001438c <prvQueueSendDataToQueueFromISR+0x9c>
    2001444c:	00178793          	addi	a5,a5,1
    20014450:	0af43023          	sd	a5,160(s0)
    20014454:	f69ff06f          	j	200143bc <prvQueueSendDataToQueueFromISR+0xcc>
    20014458:	00100493          	li	s1,1
    2001445c:	f79ff06f          	j	200143d4 <prvQueueSendDataToQueueFromISR+0xe4>
    20014460:	04813083          	ld	ra,72(sp)
    20014464:	04013403          	ld	s0,64(sp)
    20014468:	03813483          	ld	s1,56(sp)
    2001446c:	03013903          	ld	s2,48(sp)
    20014470:	02813983          	ld	s3,40(sp)
    20014474:	02013a03          	ld	s4,32(sp)
    20014478:	01813a83          	ld	s5,24(sp)
    2001447c:	05010113          	addi	sp,sp,80
    20014480:	00008067          	ret

0000000020014484 <xQueueSendFromISR>:
    20014484:	fc010113          	addi	sp,sp,-64
    20014488:	02813823          	sd	s0,48(sp)
    2001448c:	ffffc417          	auipc	s0,0xffffc
    20014490:	7a443403          	ld	s0,1956(s0) # 20010c30 <__section_globalRodataCmn_data_start+0x30>
    20014494:	00043783          	ld	a5,0(s0)
    20014498:	02913423          	sd	s1,40(sp)
    2001449c:	03213023          	sd	s2,32(sp)
    200144a0:	00f13c23          	sd	a5,24(sp)
    200144a4:	02113c23          	sd	ra,56(sp)
    200144a8:	00050493          	mv	s1,a0
    200144ac:	00058913          	mv	s2,a1
    200144b0:	00c13423          	sd	a2,8(sp)
    200144b4:	d75ff0ef          	jal	ra,20014228 <prvCheckCommonParameters>
    200144b8:	00100713          	li	a4,1
    200144bc:	00040793          	mv	a5,s0
    200144c0:	00813683          	ld	a3,8(sp)
    200144c4:	04e51063          	bne	a0,a4,20014504 <xQueueSendFromISR+0x80>
    200144c8:	02068c63          	beqz	a3,20014500 <xQueueSendFromISR+0x7c>
    200144cc:	01813703          	ld	a4,24(sp)
    200144d0:	00043783          	ld	a5,0(s0)
    200144d4:	00f70463          	beq	a4,a5,200144dc <xQueueSendFromISR+0x58>
    200144d8:	35c0c0ef          	jal	ra,20020834 <__stack_chk_fail>
    200144dc:	03013403          	ld	s0,48(sp)
    200144e0:	03813083          	ld	ra,56(sp)
    200144e4:	00090593          	mv	a1,s2
    200144e8:	00048513          	mv	a0,s1
    200144ec:	02013903          	ld	s2,32(sp)
    200144f0:	02813483          	ld	s1,40(sp)
    200144f4:	00000613          	li	a2,0
    200144f8:	04010113          	addi	sp,sp,64
    200144fc:	df5ff06f          	j	200142f0 <prvQueueSendDataToQueueFromISR>
    20014500:	ffa00513          	li	a0,-6
    20014504:	01813703          	ld	a4,24(sp)
    20014508:	0007b783          	ld	a5,0(a5)
    2001450c:	fcf716e3          	bne	a4,a5,200144d8 <xQueueSendFromISR+0x54>
    20014510:	03813083          	ld	ra,56(sp)
    20014514:	03013403          	ld	s0,48(sp)
    20014518:	02813483          	ld	s1,40(sp)
    2001451c:	02013903          	ld	s2,32(sp)
    20014520:	04010113          	addi	sp,sp,64
    20014524:	00008067          	ret

0000000020014528 <vEventPollInitQueueEventPollObjects>:
    20014528:	fe010113          	addi	sp,sp,-32
    2001452c:	00113c23          	sd	ra,24(sp)
    20014530:	ffffc797          	auipc	a5,0xffffc
    20014534:	7007b783          	ld	a5,1792(a5) # 20010c30 <__section_globalRodataCmn_data_start+0x30>
    20014538:	0007b703          	ld	a4,0(a5)
    2001453c:	00e13423          	sd	a4,8(sp)
    20014540:	00813703          	ld	a4,8(sp)
    20014544:	0007b783          	ld	a5,0(a5)
    20014548:	00f70463          	beq	a4,a5,20014550 <vEventPollInitQueueEventPollObjects+0x28>
    2001454c:	2e80c0ef          	jal	ra,20020834 <__stack_chk_fail>
    20014550:	01813083          	ld	ra,24(sp)
    20014554:	02010113          	addi	sp,sp,32
    20014558:	00008067          	ret

000000002001455c <vMutexInitQueueVariables>:
    2001455c:	fe010113          	addi	sp,sp,-32
    20014560:	00113c23          	sd	ra,24(sp)
    20014564:	ffffc797          	auipc	a5,0xffffc
    20014568:	6cc7b783          	ld	a5,1740(a5) # 20010c30 <__section_globalRodataCmn_data_start+0x30>
    2001456c:	0007b703          	ld	a4,0(a5)
    20014570:	00e13423          	sd	a4,8(sp)
    20014574:	00813703          	ld	a4,8(sp)
    20014578:	0007b783          	ld	a5,0(a5)
    2001457c:	00f70463          	beq	a4,a5,20014584 <vMutexInitQueueVariables+0x28>
    20014580:	2b40c0ef          	jal	ra,20020834 <__stack_chk_fail>
    20014584:	01813083          	ld	ra,24(sp)
    20014588:	02010113          	addi	sp,sp,32
    2001458c:	00008067          	ret

0000000020014590 <vMutexPriorityInherit>:
    20014590:	fe010113          	addi	sp,sp,-32
    20014594:	00113c23          	sd	ra,24(sp)
    20014598:	ffffc797          	auipc	a5,0xffffc
    2001459c:	6987b783          	ld	a5,1688(a5) # 20010c30 <__section_globalRodataCmn_data_start+0x30>
    200145a0:	0007b703          	ld	a4,0(a5)
    200145a4:	00e13423          	sd	a4,8(sp)
    200145a8:	00813703          	ld	a4,8(sp)
    200145ac:	0007b783          	ld	a5,0(a5)
    200145b0:	00f70463          	beq	a4,a5,200145b8 <vMutexPriorityInherit+0x28>
    200145b4:	2800c0ef          	jal	ra,20020834 <__stack_chk_fail>
    200145b8:	01813083          	ld	ra,24(sp)
    200145bc:	02010113          	addi	sp,sp,32
    200145c0:	00008067          	ret

00000000200145c4 <xMutexPriorityDisinherit>:
    200145c4:	fe010113          	addi	sp,sp,-32
    200145c8:	00113c23          	sd	ra,24(sp)
    200145cc:	ffffc797          	auipc	a5,0xffffc
    200145d0:	6647b783          	ld	a5,1636(a5) # 20010c30 <__section_globalRodataCmn_data_start+0x30>
    200145d4:	0007b703          	ld	a4,0(a5)
    200145d8:	00e13423          	sd	a4,8(sp)
    200145dc:	00813703          	ld	a4,8(sp)
    200145e0:	0007b783          	ld	a5,0(a5)
    200145e4:	00f70463          	beq	a4,a5,200145ec <xMutexPriorityDisinherit+0x28>
    200145e8:	24c0c0ef          	jal	ra,20020834 <__stack_chk_fail>
    200145ec:	01813083          	ld	ra,24(sp)
    200145f0:	00000513          	li	a0,0
    200145f4:	02010113          	addi	sp,sp,32
    200145f8:	00008067          	ret

00000000200145fc <xQueueSendDataToQueue>:
    200145fc:	f6010113          	addi	sp,sp,-160
    20014600:	08913423          	sd	s1,136(sp)
    20014604:	ffffc497          	auipc	s1,0xffffc
    20014608:	62c4b483          	ld	s1,1580(s1) # 20010c30 <__section_globalRodataCmn_data_start+0x30>
    2001460c:	0004b783          	ld	a5,0(s1)
    20014610:	09213023          	sd	s2,128(sp)
    20014614:	fff00913          	li	s2,-1
    20014618:	07513423          	sd	s5,104(sp)
    2001461c:	03f91a93          	slli	s5,s2,0x3f
    20014620:	08813823          	sd	s0,144(sp)
    20014624:	07313c23          	sd	s3,120(sp)
    20014628:	07413823          	sd	s4,112(sp)
    2001462c:	07613023          	sd	s6,96(sp)
    20014630:	05713c23          	sd	s7,88(sp)
    20014634:	05813823          	sd	s8,80(sp)
    20014638:	05913423          	sd	s9,72(sp)
    2001463c:	05a13023          	sd	s10,64(sp)
    20014640:	03b13c23          	sd	s11,56(sp)
    20014644:	08113c23          	sd	ra,152(sp)
    20014648:	00050413          	mv	s0,a0
    2001464c:	00058b13          	mv	s6,a1
    20014650:	00c13423          	sd	a2,8(sp)
    20014654:	00068b93          	mv	s7,a3
    20014658:	02f13423          	sd	a5,40(sp)
    2001465c:	00100d93          	li	s11,1
    20014660:	00100993          	li	s3,1
    20014664:	00810c13          	addi	s8,sp,8
    20014668:	01810a13          	addi	s4,sp,24
    2001466c:	02050c93          	addi	s9,a0,32
    20014670:	010a8a93          	addi	s5,s5,16
    20014674:	ffc00d13          	li	s10,-4
    20014678:	00813783          	ld	a5,8(sp)
    2001467c:	04078a63          	beqz	a5,200146d0 <xQueueSendDataToQueue+0xd4>
    20014680:	65c000ef          	jal	ra,20014cdc <vTaskSuspendScheduler>
    20014684:	09843783          	ld	a5,152(s0)
    20014688:	01279463          	bne	a5,s2,20014690 <xQueueSendDataToQueue+0x94>
    2001468c:	08043c23          	sd	zero,152(s0)
    20014690:	0a043783          	ld	a5,160(s0)
    20014694:	01279463          	bne	a5,s2,2001469c <xQueueSendDataToQueue+0xa0>
    20014698:	0a043023          	sd	zero,160(s0)
    2001469c:	013d9663          	bne	s11,s3,200146a8 <xQueueSendDataToQueue+0xac>
    200146a0:	000a0513          	mv	a0,s4
    200146a4:	119000ef          	jal	ra,20014fbc <vTaskSetTimeOut>
    200146a8:	08843703          	ld	a4,136(s0)
    200146ac:	08043783          	ld	a5,128(s0)
    200146b0:	00f71a63          	bne	a4,a5,200146c4 <xQueueSendDataToQueue+0xc8>
    200146b4:	000c0593          	mv	a1,s8
    200146b8:	000a0513          	mv	a0,s4
    200146bc:	155000ef          	jal	ra,20015010 <xTaskCheckForTimeOut>
    200146c0:	0c050a63          	beqz	a0,20014794 <xQueueSendDataToQueue+0x198>
    200146c4:	00040513          	mv	a0,s0
    200146c8:	a45ff0ef          	jal	ra,2001410c <prvUnlockQueue>
    200146cc:	519000ef          	jal	ra,200153e4 <xTaskResumeScheduler>
    200146d0:	08043703          	ld	a4,128(s0)
    200146d4:	08843783          	ld	a5,136(s0)
    200146d8:	14f77663          	bleu	a5,a4,20014824 <xQueueSendDataToQueue+0x228>
    200146dc:	09043603          	ld	a2,144(s0)
    200146e0:	000b0593          	mv	a1,s6
    200146e4:	0d3b9c63          	bne	s7,s3,200147bc <xQueueSendDataToQueue+0x1c0>
    200146e8:	01843503          	ld	a0,24(s0)
    200146ec:	2c5010ef          	jal	ra,200161b0 <xPortCopyDataFromTask>
    200146f0:	00050793          	mv	a5,a0
    200146f4:	13751663          	bne	a0,s7,20014820 <xQueueSendDataToQueue+0x224>
    200146f8:	08043783          	ld	a5,128(s0)
    200146fc:	09043703          	ld	a4,144(s0)
    20014700:	00043683          	ld	a3,0(s0)
    20014704:	00178793          	addi	a5,a5,1
    20014708:	08f43023          	sd	a5,128(s0)
    2001470c:	01843783          	ld	a5,24(s0)
    20014710:	40e787b3          	sub	a5,a5,a4
    20014714:	00f43c23          	sd	a5,24(s0)
    20014718:	00d7f863          	bleu	a3,a5,20014728 <xQueueSendDataToQueue+0x12c>
    2001471c:	00843783          	ld	a5,8(s0)
    20014720:	40e787b3          	sub	a5,a5,a4
    20014724:	00f43c23          	sd	a5,24(s0)
    20014728:	00040513          	mv	a0,s0
    2001472c:	e99ff0ef          	jal	ra,200145c4 <xMutexPriorityDisinherit>
    20014730:	05040913          	addi	s2,s0,80
    20014734:	00050993          	mv	s3,a0
    20014738:	00090513          	mv	a0,s2
    2001473c:	60d010ef          	jal	ra,20016548 <xListIsListEmpty>
    20014740:	00051c63          	bnez	a0,20014758 <xQueueSendDataToQueue+0x15c>
    20014744:	00090513          	mv	a0,s2
    20014748:	605000ef          	jal	ra,2001554c <xTaskRemoveFromEventList>
    2001474c:	00100793          	li	a5,1
    20014750:	00f51463          	bne	a0,a5,20014758 <xQueueSendDataToQueue+0x15c>
    20014754:	00100993          	li	s3,1
    20014758:	00040513          	mv	a0,s0
    2001475c:	b5dff0ef          	jal	ra,200142b8 <xEventPollUpdateQueueEventPollObjects>
    20014760:	00100793          	li	a5,1
    20014764:	00f50463          	beq	a0,a5,2001476c <xQueueSendDataToQueue+0x170>
    20014768:	00f99c63          	bne	s3,a5,20014780 <xQueueSendDataToQueue+0x184>
    2001476c:	fff00893          	li	a7,-1
    20014770:	03f89893          	slli	a7,a7,0x3f
    20014774:	01088893          	addi	a7,a7,16
    20014778:	00000073          	ecall
    2001477c:	00100793          	li	a5,1
    20014780:	00078513          	mv	a0,a5
    20014784:	02813703          	ld	a4,40(sp)
    20014788:	0004b783          	ld	a5,0(s1)
    2001478c:	0af70463          	beq	a4,a5,20014834 <xQueueSendDataToQueue+0x238>
    20014790:	0a40c0ef          	jal	ra,20020834 <__stack_chk_fail>
    20014794:	00813583          	ld	a1,8(sp)
    20014798:	000c8513          	mv	a0,s9
    2001479c:	7e1000ef          	jal	ra,2001577c <vTaskPlaceOnEventList>
    200147a0:	00040513          	mv	a0,s0
    200147a4:	969ff0ef          	jal	ra,2001410c <prvUnlockQueue>
    200147a8:	43d000ef          	jal	ra,200153e4 <xTaskResumeScheduler>
    200147ac:	f20512e3          	bnez	a0,200146d0 <xQueueSendDataToQueue+0xd4>
    200147b0:	000a8893          	mv	a7,s5
    200147b4:	00000073          	ecall
    200147b8:	f19ff06f          	j	200146d0 <xQueueSendDataToQueue+0xd4>
    200147bc:	01043503          	ld	a0,16(s0)
    200147c0:	1f1010ef          	jal	ra,200161b0 <xPortCopyDataFromTask>
    200147c4:	00050793          	mv	a5,a0
    200147c8:	05351c63          	bne	a0,s3,20014820 <xQueueSendDataToQueue+0x224>
    200147cc:	08043783          	ld	a5,128(s0)
    200147d0:	09043703          	ld	a4,144(s0)
    200147d4:	00178793          	addi	a5,a5,1
    200147d8:	08f43023          	sd	a5,128(s0)
    200147dc:	01043783          	ld	a5,16(s0)
    200147e0:	00e787b3          	add	a5,a5,a4
    200147e4:	00843703          	ld	a4,8(s0)
    200147e8:	00f43823          	sd	a5,16(s0)
    200147ec:	f2e7eee3          	bltu	a5,a4,20014728 <xQueueSendDataToQueue+0x12c>
    200147f0:	00043783          	ld	a5,0(s0)
    200147f4:	00f43823          	sd	a5,16(s0)
    200147f8:	f31ff06f          	j	20014728 <xQueueSendDataToQueue+0x12c>
    200147fc:	000c0593          	mv	a1,s8
    20014800:	000a0513          	mv	a0,s4
    20014804:	00d000ef          	jal	ra,20015010 <xTaskCheckForTimeOut>
    20014808:	02051263          	bnez	a0,2001482c <xQueueSendDataToQueue+0x230>
    2001480c:	fee00d93          	li	s11,-18
    20014810:	e69ff06f          	j	20014678 <xQueueSendDataToQueue+0x7c>
    20014814:	fee00713          	li	a4,-18
    20014818:	fee78ae3          	beq	a5,a4,2001480c <xQueueSendDataToQueue+0x210>
    2001481c:	f65ff06f          	j	20014780 <xQueueSendDataToQueue+0x184>
    20014820:	ffa79ae3          	bne	a5,s10,20014814 <xQueueSendDataToQueue+0x218>
    20014824:	00813783          	ld	a5,8(sp)
    20014828:	fc079ae3          	bnez	a5,200147fc <xQueueSendDataToQueue+0x200>
    2001482c:	ffc00793          	li	a5,-4
    20014830:	f51ff06f          	j	20014780 <xQueueSendDataToQueue+0x184>
    20014834:	09813083          	ld	ra,152(sp)
    20014838:	09013403          	ld	s0,144(sp)
    2001483c:	08813483          	ld	s1,136(sp)
    20014840:	08013903          	ld	s2,128(sp)
    20014844:	07813983          	ld	s3,120(sp)
    20014848:	07013a03          	ld	s4,112(sp)
    2001484c:	06813a83          	ld	s5,104(sp)
    20014850:	06013b03          	ld	s6,96(sp)
    20014854:	05813b83          	ld	s7,88(sp)
    20014858:	05013c03          	ld	s8,80(sp)
    2001485c:	04813c83          	ld	s9,72(sp)
    20014860:	04013d03          	ld	s10,64(sp)
    20014864:	03813d83          	ld	s11,56(sp)
    20014868:	0a010113          	addi	sp,sp,160
    2001486c:	00008067          	ret

0000000020014870 <xQueueSend>:
    20014870:	fb010113          	addi	sp,sp,-80
    20014874:	04813023          	sd	s0,64(sp)
    20014878:	ffffc417          	auipc	s0,0xffffc
    2001487c:	3b843403          	ld	s0,952(s0) # 20010c30 <__section_globalRodataCmn_data_start+0x30>
    20014880:	00043783          	ld	a5,0(s0)
    20014884:	02913c23          	sd	s1,56(sp)
    20014888:	03213823          	sd	s2,48(sp)
    2001488c:	03313423          	sd	s3,40(sp)
    20014890:	04113423          	sd	ra,72(sp)
    20014894:	00050493          	mv	s1,a0
    20014898:	00058913          	mv	s2,a1
    2001489c:	00c13423          	sd	a2,8(sp)
    200148a0:	00f13c23          	sd	a5,24(sp)
    200148a4:	6d4000ef          	jal	ra,20014f78 <xTaskIsSchedulerSuspended>
    200148a8:	00040993          	mv	s3,s0
    200148ac:	04051a63          	bnez	a0,20014900 <xQueueSend+0x90>
    200148b0:	00090593          	mv	a1,s2
    200148b4:	00048513          	mv	a0,s1
    200148b8:	971ff0ef          	jal	ra,20014228 <prvCheckCommonParameters>
    200148bc:	00100793          	li	a5,1
    200148c0:	00813603          	ld	a2,8(sp)
    200148c4:	04f51063          	bne	a0,a5,20014904 <xQueueSend+0x94>
    200148c8:	01813703          	ld	a4,24(sp)
    200148cc:	00043783          	ld	a5,0(s0)
    200148d0:	00f70463          	beq	a4,a5,200148d8 <xQueueSend+0x68>
    200148d4:	7610b0ef          	jal	ra,20020834 <__stack_chk_fail>
    200148d8:	04013403          	ld	s0,64(sp)
    200148dc:	04813083          	ld	ra,72(sp)
    200148e0:	02813983          	ld	s3,40(sp)
    200148e4:	00090593          	mv	a1,s2
    200148e8:	00048513          	mv	a0,s1
    200148ec:	03013903          	ld	s2,48(sp)
    200148f0:	03813483          	ld	s1,56(sp)
    200148f4:	00000693          	li	a3,0
    200148f8:	05010113          	addi	sp,sp,80
    200148fc:	d01ff06f          	j	200145fc <xQueueSendDataToQueue>
    20014900:	ff700513          	li	a0,-9
    20014904:	01813703          	ld	a4,24(sp)
    20014908:	0009b783          	ld	a5,0(s3)
    2001490c:	fcf714e3          	bne	a4,a5,200148d4 <xQueueSend+0x64>
    20014910:	04813083          	ld	ra,72(sp)
    20014914:	04013403          	ld	s0,64(sp)
    20014918:	03813483          	ld	s1,56(sp)
    2001491c:	03013903          	ld	s2,48(sp)
    20014920:	02813983          	ld	s3,40(sp)
    20014924:	05010113          	addi	sp,sp,80
    20014928:	00008067          	ret

000000002001492c <vMutexReEvaluateInheritedPriority>:
    2001492c:	fe010113          	addi	sp,sp,-32
    20014930:	00113c23          	sd	ra,24(sp)
    20014934:	ffffc797          	auipc	a5,0xffffc
    20014938:	2fc7b783          	ld	a5,764(a5) # 20010c30 <__section_globalRodataCmn_data_start+0x30>
    2001493c:	0007b703          	ld	a4,0(a5)
    20014940:	00e13423          	sd	a4,8(sp)
    20014944:	00813703          	ld	a4,8(sp)
    20014948:	0007b783          	ld	a5,0(a5)
    2001494c:	00f70463          	beq	a4,a5,20014954 <vMutexReEvaluateInheritedPriority+0x28>
    20014950:	6e50b0ef          	jal	ra,20020834 <__stack_chk_fail>
    20014954:	01813083          	ld	ra,24(sp)
    20014958:	02010113          	addi	sp,sp,32
    2001495c:	00008067          	ret

0000000020014960 <vMutexLogMutexTaken>:
    20014960:	fe010113          	addi	sp,sp,-32
    20014964:	00113c23          	sd	ra,24(sp)
    20014968:	ffffc797          	auipc	a5,0xffffc
    2001496c:	2c87b783          	ld	a5,712(a5) # 20010c30 <__section_globalRodataCmn_data_start+0x30>
    20014970:	0007b703          	ld	a4,0(a5)
    20014974:	00e13423          	sd	a4,8(sp)
    20014978:	00813703          	ld	a4,8(sp)
    2001497c:	0007b783          	ld	a5,0(a5)
    20014980:	00f70463          	beq	a4,a5,20014988 <vMutexLogMutexTaken+0x28>
    20014984:	6b10b0ef          	jal	ra,20020834 <__stack_chk_fail>
    20014988:	01813083          	ld	ra,24(sp)
    2001498c:	02010113          	addi	sp,sp,32
    20014990:	00008067          	ret

0000000020014994 <xQueueReceiveDataFromQueue>:
    20014994:	f5010113          	addi	sp,sp,-176
    20014998:	09213823          	sd	s2,144(sp)
    2001499c:	ffffc917          	auipc	s2,0xffffc
    200149a0:	29493903          	ld	s2,660(s2) # 20010c30 <__section_globalRodataCmn_data_start+0x30>
    200149a4:	00093783          	ld	a5,0(s2)
    200149a8:	09413023          	sd	s4,128(sp)
    200149ac:	fff00a13          	li	s4,-1
    200149b0:	07613823          	sd	s6,112(sp)
    200149b4:	03fa1b13          	slli	s6,s4,0x3f
    200149b8:	0a813023          	sd	s0,160(sp)
    200149bc:	08913c23          	sd	s1,152(sp)
    200149c0:	09313423          	sd	s3,136(sp)
    200149c4:	07513c23          	sd	s5,120(sp)
    200149c8:	07713423          	sd	s7,104(sp)
    200149cc:	07813023          	sd	s8,96(sp)
    200149d0:	05913c23          	sd	s9,88(sp)
    200149d4:	05a13823          	sd	s10,80(sp)
    200149d8:	05b13423          	sd	s11,72(sp)
    200149dc:	0a113423          	sd	ra,168(sp)
    200149e0:	00050413          	mv	s0,a0
    200149e4:	00058c13          	mv	s8,a1
    200149e8:	00c13c23          	sd	a2,24(sp)
    200149ec:	00068c93          	mv	s9,a3
    200149f0:	02f13c23          	sd	a5,56(sp)
    200149f4:	00100493          	li	s1,1
    200149f8:	00100993          	li	s3,1
    200149fc:	01810b93          	addi	s7,sp,24
    20014a00:	02810a93          	addi	s5,sp,40
    20014a04:	05050d13          	addi	s10,a0,80
    20014a08:	010b0b13          	addi	s6,s6,16
    20014a0c:	fed00d93          	li	s11,-19
    20014a10:	01813783          	ld	a5,24(sp)
    20014a14:	04078863          	beqz	a5,20014a64 <xQueueReceiveDataFromQueue+0xd0>
    20014a18:	2c4000ef          	jal	ra,20014cdc <vTaskSuspendScheduler>
    20014a1c:	09843783          	ld	a5,152(s0)
    20014a20:	01479463          	bne	a5,s4,20014a28 <xQueueReceiveDataFromQueue+0x94>
    20014a24:	08043c23          	sd	zero,152(s0)
    20014a28:	0a043783          	ld	a5,160(s0)
    20014a2c:	01479463          	bne	a5,s4,20014a34 <xQueueReceiveDataFromQueue+0xa0>
    20014a30:	0a043023          	sd	zero,160(s0)
    20014a34:	01349663          	bne	s1,s3,20014a40 <xQueueReceiveDataFromQueue+0xac>
    20014a38:	000a8513          	mv	a0,s5
    20014a3c:	580000ef          	jal	ra,20014fbc <vTaskSetTimeOut>
    20014a40:	08043783          	ld	a5,128(s0)
    20014a44:	00079a63          	bnez	a5,20014a58 <xQueueReceiveDataFromQueue+0xc4>
    20014a48:	000b8593          	mv	a1,s7
    20014a4c:	000a8513          	mv	a0,s5
    20014a50:	5c0000ef          	jal	ra,20015010 <xTaskCheckForTimeOut>
    20014a54:	02050c63          	beqz	a0,20014a8c <xQueueReceiveDataFromQueue+0xf8>
    20014a58:	00040513          	mv	a0,s0
    20014a5c:	eb0ff0ef          	jal	ra,2001410c <prvUnlockQueue>
    20014a60:	185000ef          	jal	ra,200153e4 <xTaskResumeScheduler>
    20014a64:	08043783          	ld	a5,128(s0)
    20014a68:	04079e63          	bnez	a5,20014ac4 <xQueueReceiveDataFromQueue+0x130>
    20014a6c:	01813783          	ld	a5,24(sp)
    20014a70:	00078a63          	beqz	a5,20014a84 <xQueueReceiveDataFromQueue+0xf0>
    20014a74:	000b8593          	mv	a1,s7
    20014a78:	000a8513          	mv	a0,s5
    20014a7c:	594000ef          	jal	ra,20015010 <xTaskCheckForTimeOut>
    20014a80:	12050463          	beqz	a0,20014ba8 <xQueueReceiveDataFromQueue+0x214>
    20014a84:	fed00493          	li	s1,-19
    20014a88:	1000006f          	j	20014b88 <xQueueReceiveDataFromQueue+0x1f4>
    20014a8c:	00040513          	mv	a0,s0
    20014a90:	b01ff0ef          	jal	ra,20014590 <vMutexPriorityInherit>
    20014a94:	01813583          	ld	a1,24(sp)
    20014a98:	000d0513          	mv	a0,s10
    20014a9c:	4e1000ef          	jal	ra,2001577c <vTaskPlaceOnEventList>
    20014aa0:	00040513          	mv	a0,s0
    20014aa4:	e68ff0ef          	jal	ra,2001410c <prvUnlockQueue>
    20014aa8:	13d000ef          	jal	ra,200153e4 <xTaskResumeScheduler>
    20014aac:	00051663          	bnez	a0,20014ab8 <xQueueReceiveDataFromQueue+0x124>
    20014ab0:	000b0893          	mv	a7,s6
    20014ab4:	00000073          	ecall
    20014ab8:	00040513          	mv	a0,s0
    20014abc:	e71ff0ef          	jal	ra,2001492c <vMutexReEvaluateInheritedPriority>
    20014ac0:	fa5ff06f          	j	20014a64 <xQueueReceiveDataFromQueue+0xd0>
    20014ac4:	01843703          	ld	a4,24(s0)
    20014ac8:	09043603          	ld	a2,144(s0)
    20014acc:	00843683          	ld	a3,8(s0)
    20014ad0:	00c707b3          	add	a5,a4,a2
    20014ad4:	00d7e463          	bltu	a5,a3,20014adc <xQueueReceiveDataFromQueue+0x148>
    20014ad8:	00043783          	ld	a5,0(s0)
    20014adc:	00078593          	mv	a1,a5
    20014ae0:	000c0513          	mv	a0,s8
    20014ae4:	00e13823          	sd	a4,16(sp)
    20014ae8:	00f13423          	sd	a5,8(sp)
    20014aec:	64c010ef          	jal	ra,20016138 <xPortCopyDataToTask>
    20014af0:	00050493          	mv	s1,a0
    20014af4:	00813783          	ld	a5,8(sp)
    20014af8:	01013703          	ld	a4,16(sp)
    20014afc:	0b351063          	bne	a0,s3,20014b9c <xQueueReceiveDataFromQueue+0x208>
    20014b00:	00f43c23          	sd	a5,24(s0)
    20014b04:	08043783          	ld	a5,128(s0)
    20014b08:	fff78693          	addi	a3,a5,-1
    20014b0c:	08d43023          	sd	a3,128(s0)
    20014b10:	053c9a63          	bne	s9,s3,20014b64 <xQueueReceiveDataFromQueue+0x1d0>
    20014b14:	00040513          	mv	a0,s0
    20014b18:	e49ff0ef          	jal	ra,20014960 <vMutexLogMutexTaken>
    20014b1c:	02040a13          	addi	s4,s0,32
    20014b20:	000a0513          	mv	a0,s4
    20014b24:	225010ef          	jal	ra,20016548 <xListIsListEmpty>
    20014b28:	00000993          	li	s3,0
    20014b2c:	00051863          	bnez	a0,20014b3c <xQueueReceiveDataFromQueue+0x1a8>
    20014b30:	000a0513          	mv	a0,s4
    20014b34:	219000ef          	jal	ra,2001554c <xTaskRemoveFromEventList>
    20014b38:	00050993          	mv	s3,a0
    20014b3c:	00040513          	mv	a0,s0
    20014b40:	f78ff0ef          	jal	ra,200142b8 <xEventPollUpdateQueueEventPollObjects>
    20014b44:	00100793          	li	a5,1
    20014b48:	00f50463          	beq	a0,a5,20014b50 <xQueueReceiveDataFromQueue+0x1bc>
    20014b4c:	02f99e63          	bne	s3,a5,20014b88 <xQueueReceiveDataFromQueue+0x1f4>
    20014b50:	fff00893          	li	a7,-1
    20014b54:	03f89893          	slli	a7,a7,0x3f
    20014b58:	01088893          	addi	a7,a7,16
    20014b5c:	00000073          	ecall
    20014b60:	0280006f          	j	20014b88 <xQueueReceiveDataFromQueue+0x1f4>
    20014b64:	00e43c23          	sd	a4,24(s0)
    20014b68:	08f43023          	sd	a5,128(s0)
    20014b6c:	05040413          	addi	s0,s0,80
    20014b70:	00040513          	mv	a0,s0
    20014b74:	1d5010ef          	jal	ra,20016548 <xListIsListEmpty>
    20014b78:	00051863          	bnez	a0,20014b88 <xQueueReceiveDataFromQueue+0x1f4>
    20014b7c:	00040513          	mv	a0,s0
    20014b80:	1cd000ef          	jal	ra,2001554c <xTaskRemoveFromEventList>
    20014b84:	fd3506e3          	beq	a0,s3,20014b50 <xQueueReceiveDataFromQueue+0x1bc>
    20014b88:	03813703          	ld	a4,56(sp)
    20014b8c:	00093783          	ld	a5,0(s2)
    20014b90:	00048513          	mv	a0,s1
    20014b94:	00f70e63          	beq	a4,a5,20014bb0 <xQueueReceiveDataFromQueue+0x21c>
    20014b98:	49d0b0ef          	jal	ra,20020834 <__stack_chk_fail>
    20014b9c:	edb508e3          	beq	a0,s11,20014a6c <xQueueReceiveDataFromQueue+0xd8>
    20014ba0:	fee00793          	li	a5,-18
    20014ba4:	fef512e3          	bne	a0,a5,20014b88 <xQueueReceiveDataFromQueue+0x1f4>
    20014ba8:	fee00493          	li	s1,-18
    20014bac:	e65ff06f          	j	20014a10 <xQueueReceiveDataFromQueue+0x7c>
    20014bb0:	0a813083          	ld	ra,168(sp)
    20014bb4:	0a013403          	ld	s0,160(sp)
    20014bb8:	09813483          	ld	s1,152(sp)
    20014bbc:	09013903          	ld	s2,144(sp)
    20014bc0:	08813983          	ld	s3,136(sp)
    20014bc4:	08013a03          	ld	s4,128(sp)
    20014bc8:	07813a83          	ld	s5,120(sp)
    20014bcc:	07013b03          	ld	s6,112(sp)
    20014bd0:	06813b83          	ld	s7,104(sp)
    20014bd4:	06013c03          	ld	s8,96(sp)
    20014bd8:	05813c83          	ld	s9,88(sp)
    20014bdc:	05013d03          	ld	s10,80(sp)
    20014be0:	04813d83          	ld	s11,72(sp)
    20014be4:	0b010113          	addi	sp,sp,176
    20014be8:	00008067          	ret

0000000020014bec <xQueueReceive>:
    20014bec:	fb010113          	addi	sp,sp,-80
    20014bf0:	04813023          	sd	s0,64(sp)
    20014bf4:	ffffc417          	auipc	s0,0xffffc
    20014bf8:	03c43403          	ld	s0,60(s0) # 20010c30 <__section_globalRodataCmn_data_start+0x30>
    20014bfc:	00043783          	ld	a5,0(s0)
    20014c00:	02913c23          	sd	s1,56(sp)
    20014c04:	03213823          	sd	s2,48(sp)
    20014c08:	03313423          	sd	s3,40(sp)
    20014c0c:	04113423          	sd	ra,72(sp)
    20014c10:	00050493          	mv	s1,a0
    20014c14:	00058913          	mv	s2,a1
    20014c18:	00c13423          	sd	a2,8(sp)
    20014c1c:	00f13c23          	sd	a5,24(sp)
    20014c20:	358000ef          	jal	ra,20014f78 <xTaskIsSchedulerSuspended>
    20014c24:	00040993          	mv	s3,s0
    20014c28:	04051a63          	bnez	a0,20014c7c <xQueueReceive+0x90>
    20014c2c:	00090593          	mv	a1,s2
    20014c30:	00048513          	mv	a0,s1
    20014c34:	df4ff0ef          	jal	ra,20014228 <prvCheckCommonParameters>
    20014c38:	00100793          	li	a5,1
    20014c3c:	00813603          	ld	a2,8(sp)
    20014c40:	04f51063          	bne	a0,a5,20014c80 <xQueueReceive+0x94>
    20014c44:	01813703          	ld	a4,24(sp)
    20014c48:	00043783          	ld	a5,0(s0)
    20014c4c:	00f70463          	beq	a4,a5,20014c54 <xQueueReceive+0x68>
    20014c50:	3e50b0ef          	jal	ra,20020834 <__stack_chk_fail>
    20014c54:	04013403          	ld	s0,64(sp)
    20014c58:	04813083          	ld	ra,72(sp)
    20014c5c:	02813983          	ld	s3,40(sp)
    20014c60:	00090593          	mv	a1,s2
    20014c64:	00048513          	mv	a0,s1
    20014c68:	03013903          	ld	s2,48(sp)
    20014c6c:	03813483          	ld	s1,56(sp)
    20014c70:	00100693          	li	a3,1
    20014c74:	05010113          	addi	sp,sp,80
    20014c78:	d1dff06f          	j	20014994 <xQueueReceiveDataFromQueue>
    20014c7c:	ff700513          	li	a0,-9
    20014c80:	01813703          	ld	a4,24(sp)
    20014c84:	0009b783          	ld	a5,0(s3)
    20014c88:	fcf714e3          	bne	a4,a5,20014c50 <xQueueReceive+0x64>
    20014c8c:	04813083          	ld	ra,72(sp)
    20014c90:	04013403          	ld	s0,64(sp)
    20014c94:	03813483          	ld	s1,56(sp)
    20014c98:	03013903          	ld	s2,48(sp)
    20014c9c:	02813983          	ld	s3,40(sp)
    20014ca0:	05010113          	addi	sp,sp,80
    20014ca4:	00008067          	ret

0000000020014ca8 <vUpdateRunTimeStatistics>:
    20014ca8:	fe010113          	addi	sp,sp,-32
    20014cac:	00113c23          	sd	ra,24(sp)
    20014cb0:	ffffc797          	auipc	a5,0xffffc
    20014cb4:	f807b783          	ld	a5,-128(a5) # 20010c30 <__section_globalRodataCmn_data_start+0x30>
    20014cb8:	0007b703          	ld	a4,0(a5)
    20014cbc:	00e13423          	sd	a4,8(sp)
    20014cc0:	00813703          	ld	a4,8(sp)
    20014cc4:	0007b783          	ld	a5,0(a5)
    20014cc8:	00f70463          	beq	a4,a5,20014cd0 <vUpdateRunTimeStatistics+0x28>
    20014ccc:	3690b0ef          	jal	ra,20020834 <__stack_chk_fail>
    20014cd0:	01813083          	ld	ra,24(sp)
    20014cd4:	02010113          	addi	sp,sp,32
    20014cd8:	00008067          	ret

0000000020014cdc <vTaskSuspendScheduler>:
    20014cdc:	fe010113          	addi	sp,sp,-32
    20014ce0:	00113c23          	sd	ra,24(sp)
    20014ce4:	ffffc717          	auipc	a4,0xffffc
    20014ce8:	f4c73703          	ld	a4,-180(a4) # 20010c30 <__section_globalRodataCmn_data_start+0x30>
    20014cec:	00073783          	ld	a5,0(a4)
    20014cf0:	00f13423          	sd	a5,8(sp)
    20014cf4:	fffee797          	auipc	a5,0xfffee
    20014cf8:	c3c78793          	addi	a5,a5,-964 # 20002930 <uxSchedulerSuspended>
    20014cfc:	0007b783          	ld	a5,0(a5)
    20014d00:	00178793          	addi	a5,a5,1
    20014d04:	fffee697          	auipc	a3,0xfffee
    20014d08:	c2f6b623          	sd	a5,-980(a3) # 20002930 <uxSchedulerSuspended>
    20014d0c:	00813683          	ld	a3,8(sp)
    20014d10:	00073783          	ld	a5,0(a4)
    20014d14:	00f68463          	beq	a3,a5,20014d1c <vTaskSuspendScheduler+0x40>
    20014d18:	31d0b0ef          	jal	ra,20020834 <__stack_chk_fail>
    20014d1c:	01813083          	ld	ra,24(sp)
    20014d20:	02010113          	addi	sp,sp,32
    20014d24:	00008067          	ret

0000000020014d28 <xTaskGetTickCount>:
    20014d28:	fe010113          	addi	sp,sp,-32
    20014d2c:	00113c23          	sd	ra,24(sp)
    20014d30:	ffffc797          	auipc	a5,0xffffc
    20014d34:	f007b783          	ld	a5,-256(a5) # 20010c30 <__section_globalRodataCmn_data_start+0x30>
    20014d38:	0007b703          	ld	a4,0(a5)
    20014d3c:	00e13423          	sd	a4,8(sp)
    20014d40:	fffee717          	auipc	a4,0xfffee
    20014d44:	c1070713          	addi	a4,a4,-1008 # 20002950 <xTickCount>
    20014d48:	00073503          	ld	a0,0(a4)
    20014d4c:	00813703          	ld	a4,8(sp)
    20014d50:	0007b783          	ld	a5,0(a5)
    20014d54:	00f70463          	beq	a4,a5,20014d5c <xTaskGetTickCount+0x34>
    20014d58:	2dd0b0ef          	jal	ra,20020834 <__stack_chk_fail>
    20014d5c:	01813083          	ld	ra,24(sp)
    20014d60:	02010113          	addi	sp,sp,32
    20014d64:	00008067          	ret

0000000020014d68 <xTaskGetLwrrentTaskHandle>:
    20014d68:	fe010113          	addi	sp,sp,-32
    20014d6c:	00113c23          	sd	ra,24(sp)
    20014d70:	ffffc797          	auipc	a5,0xffffc
    20014d74:	ec07b783          	ld	a5,-320(a5) # 20010c30 <__section_globalRodataCmn_data_start+0x30>
    20014d78:	0007b703          	ld	a4,0(a5)
    20014d7c:	00e13423          	sd	a4,8(sp)
    20014d80:	fffee717          	auipc	a4,0xfffee
    20014d84:	94070713          	addi	a4,a4,-1728 # 200026c0 <pxLwrrentTCB>
    20014d88:	00073503          	ld	a0,0(a4)
    20014d8c:	00813703          	ld	a4,8(sp)
    20014d90:	0007b783          	ld	a5,0(a5)
    20014d94:	00f70463          	beq	a4,a5,20014d9c <xTaskGetLwrrentTaskHandle+0x34>
    20014d98:	29d0b0ef          	jal	ra,20020834 <__stack_chk_fail>
    20014d9c:	01813083          	ld	ra,24(sp)
    20014da0:	02010113          	addi	sp,sp,32
    20014da4:	00008067          	ret

0000000020014da8 <xTaskIsSchedulerStarted>:
    20014da8:	fe010113          	addi	sp,sp,-32
    20014dac:	00113c23          	sd	ra,24(sp)
    20014db0:	ffffc797          	auipc	a5,0xffffc
    20014db4:	e807b783          	ld	a5,-384(a5) # 20010c30 <__section_globalRodataCmn_data_start+0x30>
    20014db8:	0007b703          	ld	a4,0(a5)
    20014dbc:	00e13423          	sd	a4,8(sp)
    20014dc0:	fffee717          	auipc	a4,0xfffee
    20014dc4:	b6870713          	addi	a4,a4,-1176 # 20002928 <xSchedulerRunning>
    20014dc8:	00073503          	ld	a0,0(a4)
    20014dcc:	00813703          	ld	a4,8(sp)
    20014dd0:	0007b783          	ld	a5,0(a5)
    20014dd4:	00f70463          	beq	a4,a5,20014ddc <xTaskIsSchedulerStarted+0x34>
    20014dd8:	25d0b0ef          	jal	ra,20020834 <__stack_chk_fail>
    20014ddc:	01813083          	ld	ra,24(sp)
    20014de0:	02010113          	addi	sp,sp,32
    20014de4:	00008067          	ret

0000000020014de8 <vTaskSelectNextTask>:
    20014de8:	fa010113          	addi	sp,sp,-96
    20014dec:	05213023          	sd	s2,64(sp)
    20014df0:	ffffc917          	auipc	s2,0xffffc
    20014df4:	e4093903          	ld	s2,-448(s2) # 20010c30 <__section_globalRodataCmn_data_start+0x30>
    20014df8:	00093783          	ld	a5,0(s2)
    20014dfc:	04113c23          	sd	ra,88(sp)
    20014e00:	04813823          	sd	s0,80(sp)
    20014e04:	00f13423          	sd	a5,8(sp)
    20014e08:	04913423          	sd	s1,72(sp)
    20014e0c:	03313c23          	sd	s3,56(sp)
    20014e10:	03413823          	sd	s4,48(sp)
    20014e14:	03513423          	sd	s5,40(sp)
    20014e18:	03613023          	sd	s6,32(sp)
    20014e1c:	01713c23          	sd	s7,24(sp)
    20014e20:	01813823          	sd	s8,16(sp)
    20014e24:	fffee797          	auipc	a5,0xfffee
    20014e28:	b0c78793          	addi	a5,a5,-1268 # 20002930 <uxSchedulerSuspended>
    20014e2c:	0007b783          	ld	a5,0(a5)
    20014e30:	04078663          	beqz	a5,20014e7c <vTaskSelectNextTask+0x94>
    20014e34:	00100793          	li	a5,1
    20014e38:	fffee717          	auipc	a4,0xfffee
    20014e3c:	b0f73023          	sd	a5,-1280(a4) # 20002938 <xMissedYield>
    20014e40:	00813703          	ld	a4,8(sp)
    20014e44:	00093783          	ld	a5,0(s2)
    20014e48:	0cf71c63          	bne	a4,a5,20014f20 <vTaskSelectNextTask+0x138>
    20014e4c:	05813083          	ld	ra,88(sp)
    20014e50:	05013403          	ld	s0,80(sp)
    20014e54:	04813483          	ld	s1,72(sp)
    20014e58:	04013903          	ld	s2,64(sp)
    20014e5c:	03813983          	ld	s3,56(sp)
    20014e60:	03013a03          	ld	s4,48(sp)
    20014e64:	02813a83          	ld	s5,40(sp)
    20014e68:	02013b03          	ld	s6,32(sp)
    20014e6c:	01813b83          	ld	s7,24(sp)
    20014e70:	01013c03          	ld	s8,16(sp)
    20014e74:	06010113          	addi	sp,sp,96
    20014e78:	00008067          	ret
    20014e7c:	e2dff0ef          	jal	ra,20014ca8 <vUpdateRunTimeStatistics>
    20014e80:	fffee797          	auipc	a5,0xfffee
    20014e84:	aa078793          	addi	a5,a5,-1376 # 20002920 <uxTopReadyPriority>
    20014e88:	0007b403          	ld	s0,0(a5)
    20014e8c:	fffee997          	auipc	s3,0xfffee
    20014e90:	83c98993          	addi	s3,s3,-1988 # 200026c8 <xReadyTasksLists>
    20014e94:	03000b93          	li	s7,48
    20014e98:	00100b13          	li	s6,1
    20014e9c:	00098a93          	mv	s5,s3
    20014ea0:	fffeec17          	auipc	s8,0xfffee
    20014ea4:	820c0c13          	addi	s8,s8,-2016 # 200026c0 <pxLwrrentTCB>
    20014ea8:	03740a33          	mul	s4,s0,s7
    20014eac:	014984b3          	add	s1,s3,s4
    20014eb0:	00048513          	mv	a0,s1
    20014eb4:	694010ef          	jal	ra,20016548 <xListIsListEmpty>
    20014eb8:	07650663          	beq	a0,s6,20014f24 <vTaskSelectNextTask+0x13c>
    20014ebc:	0084b783          	ld	a5,8(s1)
    20014ec0:	010a0a13          	addi	s4,s4,16
    20014ec4:	014989b3          	add	s3,s3,s4
    20014ec8:	0087b783          	ld	a5,8(a5)
    20014ecc:	00f4b423          	sd	a5,8(s1)
    20014ed0:	0084b783          	ld	a5,8(s1)
    20014ed4:	01379863          	bne	a5,s3,20014ee4 <vTaskSelectNextTask+0xfc>
    20014ed8:	0084b783          	ld	a5,8(s1)
    20014edc:	0087b783          	ld	a5,8(a5)
    20014ee0:	00f4b423          	sd	a5,8(s1)
    20014ee4:	03000793          	li	a5,48
    20014ee8:	02f407b3          	mul	a5,s0,a5
    20014eec:	00fa8ab3          	add	s5,s5,a5
    20014ef0:	008ab783          	ld	a5,8(s5)
    20014ef4:	0187b483          	ld	s1,24(a5)
    20014ef8:	fffee797          	auipc	a5,0xfffee
    20014efc:	a287b423          	sd	s0,-1496(a5) # 20002920 <uxTopReadyPriority>
    20014f00:	00048513          	mv	a0,s1
    20014f04:	fffed797          	auipc	a5,0xfffed
    20014f08:	7a97be23          	sd	s1,1980(a5) # 200026c0 <pxLwrrentTCB>
    20014f0c:	799000ef          	jal	ra,20015ea4 <xPortIsTaskHandleValid>
    20014f10:	f20518e3          	bnez	a0,20014e40 <vTaskSelectNextTask+0x58>
    20014f14:	00813703          	ld	a4,8(sp)
    20014f18:	00093783          	ld	a5,0(s2)
    20014f1c:	02f70263          	beq	a4,a5,20014f40 <vTaskSelectNextTask+0x158>
    20014f20:	1150b0ef          	jal	ra,20020834 <__stack_chk_fail>
    20014f24:	00041a63          	bnez	s0,20014f38 <vTaskSelectNextTask+0x150>
    20014f28:	000c3503          	ld	a0,0(s8)
    20014f2c:	feb00593          	li	a1,-21
    20014f30:	7cd000ef          	jal	ra,20015efc <vPortErrorHook>
    20014f34:	f75ff06f          	j	20014ea8 <vTaskSelectNextTask+0xc0>
    20014f38:	fff40413          	addi	s0,s0,-1
    20014f3c:	f6dff06f          	j	20014ea8 <vTaskSelectNextTask+0xc0>
    20014f40:	05013403          	ld	s0,80(sp)
    20014f44:	05813083          	ld	ra,88(sp)
    20014f48:	04013903          	ld	s2,64(sp)
    20014f4c:	03813983          	ld	s3,56(sp)
    20014f50:	03013a03          	ld	s4,48(sp)
    20014f54:	02813a83          	ld	s5,40(sp)
    20014f58:	02013b03          	ld	s6,32(sp)
    20014f5c:	01813b83          	ld	s7,24(sp)
    20014f60:	01013c03          	ld	s8,16(sp)
    20014f64:	00048513          	mv	a0,s1
    20014f68:	04813483          	ld	s1,72(sp)
    20014f6c:	feb00593          	li	a1,-21
    20014f70:	06010113          	addi	sp,sp,96
    20014f74:	7890006f          	j	20015efc <vPortErrorHook>

0000000020014f78 <xTaskIsSchedulerSuspended>:
    20014f78:	fe010113          	addi	sp,sp,-32
    20014f7c:	00113c23          	sd	ra,24(sp)
    20014f80:	ffffc797          	auipc	a5,0xffffc
    20014f84:	cb07b783          	ld	a5,-848(a5) # 20010c30 <__section_globalRodataCmn_data_start+0x30>
    20014f88:	0007b703          	ld	a4,0(a5)
    20014f8c:	00e13423          	sd	a4,8(sp)
    20014f90:	fffee717          	auipc	a4,0xfffee
    20014f94:	9a070713          	addi	a4,a4,-1632 # 20002930 <uxSchedulerSuspended>
    20014f98:	00073503          	ld	a0,0(a4)
    20014f9c:	00813703          	ld	a4,8(sp)
    20014fa0:	0007b783          	ld	a5,0(a5)
    20014fa4:	00f70463          	beq	a4,a5,20014fac <xTaskIsSchedulerSuspended+0x34>
    20014fa8:	08d0b0ef          	jal	ra,20020834 <__stack_chk_fail>
    20014fac:	01813083          	ld	ra,24(sp)
    20014fb0:	00a03533          	snez	a0,a0
    20014fb4:	02010113          	addi	sp,sp,32
    20014fb8:	00008067          	ret

0000000020014fbc <vTaskSetTimeOut>:
    20014fbc:	fe010113          	addi	sp,sp,-32
    20014fc0:	00113c23          	sd	ra,24(sp)
    20014fc4:	ffffc797          	auipc	a5,0xffffc
    20014fc8:	c6c7b783          	ld	a5,-916(a5) # 20010c30 <__section_globalRodataCmn_data_start+0x30>
    20014fcc:	0007b703          	ld	a4,0(a5)
    20014fd0:	00e13423          	sd	a4,8(sp)
    20014fd4:	fffee717          	auipc	a4,0xfffee
    20014fd8:	96c70713          	addi	a4,a4,-1684 # 20002940 <uxNumOfOverflows>
    20014fdc:	00073703          	ld	a4,0(a4)
    20014fe0:	00e53023          	sd	a4,0(a0)
    20014fe4:	fffee717          	auipc	a4,0xfffee
    20014fe8:	96c70713          	addi	a4,a4,-1684 # 20002950 <xTickCount>
    20014fec:	00073703          	ld	a4,0(a4)
    20014ff0:	00e53423          	sd	a4,8(a0)
    20014ff4:	00813703          	ld	a4,8(sp)
    20014ff8:	0007b783          	ld	a5,0(a5)
    20014ffc:	00f70463          	beq	a4,a5,20015004 <vTaskSetTimeOut+0x48>
    20015000:	0350b0ef          	jal	ra,20020834 <__stack_chk_fail>
    20015004:	01813083          	ld	ra,24(sp)
    20015008:	02010113          	addi	sp,sp,32
    2001500c:	00008067          	ret

0000000020015010 <xTaskCheckForTimeOut>:
    20015010:	fe010113          	addi	sp,sp,-32
    20015014:	00813823          	sd	s0,16(sp)
    20015018:	00113c23          	sd	ra,24(sp)
    2001501c:	ffffc717          	auipc	a4,0xffffc
    20015020:	c1473703          	ld	a4,-1004(a4) # 20010c30 <__section_globalRodataCmn_data_start+0x30>
    20015024:	00073783          	ld	a5,0(a4)
    20015028:	00053803          	ld	a6,0(a0)
    2001502c:	00853683          	ld	a3,8(a0)
    20015030:	00f13423          	sd	a5,8(sp)
    20015034:	fffee797          	auipc	a5,0xfffee
    20015038:	91c78793          	addi	a5,a5,-1764 # 20002950 <xTickCount>
    2001503c:	0007b603          	ld	a2,0(a5)
    20015040:	fffee797          	auipc	a5,0xfffee
    20015044:	90078793          	addi	a5,a5,-1792 # 20002940 <uxNumOfOverflows>
    20015048:	0007b783          	ld	a5,0(a5)
    2001504c:	00070413          	mv	s0,a4
    20015050:	00f80663          	beq	a6,a5,2001505c <xTaskCheckForTimeOut+0x4c>
    20015054:	00100713          	li	a4,1
    20015058:	02d67463          	bleu	a3,a2,20015080 <xTaskCheckForTimeOut+0x70>
    2001505c:	0005b783          	ld	a5,0(a1)
    20015060:	40d60833          	sub	a6,a2,a3
    20015064:	00100713          	li	a4,1
    20015068:	00f87c63          	bleu	a5,a6,20015080 <xTaskCheckForTimeOut+0x70>
    2001506c:	40c787b3          	sub	a5,a5,a2
    20015070:	00d787b3          	add	a5,a5,a3
    20015074:	00f5b023          	sd	a5,0(a1)
    20015078:	f45ff0ef          	jal	ra,20014fbc <vTaskSetTimeOut>
    2001507c:	00000713          	li	a4,0
    20015080:	00070513          	mv	a0,a4
    20015084:	00813703          	ld	a4,8(sp)
    20015088:	00043783          	ld	a5,0(s0)
    2001508c:	00f70463          	beq	a4,a5,20015094 <xTaskCheckForTimeOut+0x84>
    20015090:	7a40b0ef          	jal	ra,20020834 <__stack_chk_fail>
    20015094:	01813083          	ld	ra,24(sp)
    20015098:	01013403          	ld	s0,16(sp)
    2001509c:	02010113          	addi	sp,sp,32
    200150a0:	00008067          	ret

00000000200150a4 <vTaskPendYield>:
    200150a4:	fe010113          	addi	sp,sp,-32
    200150a8:	00113c23          	sd	ra,24(sp)
    200150ac:	ffffc797          	auipc	a5,0xffffc
    200150b0:	b847b783          	ld	a5,-1148(a5) # 20010c30 <__section_globalRodataCmn_data_start+0x30>
    200150b4:	0007b703          	ld	a4,0(a5)
    200150b8:	00e13423          	sd	a4,8(sp)
    200150bc:	00100713          	li	a4,1
    200150c0:	fffee697          	auipc	a3,0xfffee
    200150c4:	86e6bc23          	sd	a4,-1928(a3) # 20002938 <xMissedYield>
    200150c8:	00813703          	ld	a4,8(sp)
    200150cc:	0007b783          	ld	a5,0(a5)
    200150d0:	00f70463          	beq	a4,a5,200150d8 <vTaskPendYield+0x34>
    200150d4:	7600b0ef          	jal	ra,20020834 <__stack_chk_fail>
    200150d8:	01813083          	ld	ra,24(sp)
    200150dc:	02010113          	addi	sp,sp,32
    200150e0:	00008067          	ret

00000000200150e4 <vTaskResetNextTaskUnblockTime>:
    200150e4:	fd010113          	addi	sp,sp,-48
    200150e8:	02813023          	sd	s0,32(sp)
    200150ec:	ffffc417          	auipc	s0,0xffffc
    200150f0:	b4443403          	ld	s0,-1212(s0) # 20010c30 <__section_globalRodataCmn_data_start+0x30>
    200150f4:	00043783          	ld	a5,0(s0)
    200150f8:	00913c23          	sd	s1,24(sp)
    200150fc:	fffed497          	auipc	s1,0xfffed
    20015100:	7ac48493          	addi	s1,s1,1964 # 200028a8 <pxDelayedTaskList>
    20015104:	00f13423          	sd	a5,8(sp)
    20015108:	0004b503          	ld	a0,0(s1)
    2001510c:	02113423          	sd	ra,40(sp)
    20015110:	438010ef          	jal	ra,20016548 <xListIsListEmpty>
    20015114:	00100793          	li	a5,1
    20015118:	02f51063          	bne	a0,a5,20015138 <vTaskResetNextTaskUnblockTime+0x54>
    2001511c:	fff00793          	li	a5,-1
    20015120:	fffee717          	auipc	a4,0xfffee
    20015124:	84f73023          	sd	a5,-1984(a4) # 20002960 <xNextTaskUnblockTime>
    20015128:	00813703          	ld	a4,8(sp)
    2001512c:	00043783          	ld	a5,0(s0)
    20015130:	00f70e63          	beq	a4,a5,2001514c <vTaskResetNextTaskUnblockTime+0x68>
    20015134:	7000b0ef          	jal	ra,20020834 <__stack_chk_fail>
    20015138:	0004b783          	ld	a5,0(s1)
    2001513c:	0187b783          	ld	a5,24(a5)
    20015140:	0187b783          	ld	a5,24(a5)
    20015144:	1307b783          	ld	a5,304(a5)
    20015148:	fd9ff06f          	j	20015120 <vTaskResetNextTaskUnblockTime+0x3c>
    2001514c:	02813083          	ld	ra,40(sp)
    20015150:	02013403          	ld	s0,32(sp)
    20015154:	01813483          	ld	s1,24(sp)
    20015158:	03010113          	addi	sp,sp,48
    2001515c:	00008067          	ret

0000000020015160 <vTaskAddTaskToReadyList>:
    20015160:	fe010113          	addi	sp,sp,-32
    20015164:	00113c23          	sd	ra,24(sp)
    20015168:	ffffc717          	auipc	a4,0xffffc
    2001516c:	ac873703          	ld	a4,-1336(a4) # 20010c30 <__section_globalRodataCmn_data_start+0x30>
    20015170:	00073783          	ld	a5,0(a4)
    20015174:	fffed697          	auipc	a3,0xfffed
    20015178:	7ac68693          	addi	a3,a3,1964 # 20002920 <uxTopReadyPriority>
    2001517c:	00f13423          	sd	a5,8(sp)
    20015180:	0006b683          	ld	a3,0(a3)
    20015184:	19853783          	ld	a5,408(a0)
    20015188:	00f6f663          	bleu	a5,a3,20015194 <vTaskAddTaskToReadyList+0x34>
    2001518c:	fffed697          	auipc	a3,0xfffed
    20015190:	78f6ba23          	sd	a5,1940(a3) # 20002920 <uxTopReadyPriority>
    20015194:	00813683          	ld	a3,8(sp)
    20015198:	00073703          	ld	a4,0(a4)
    2001519c:	00e68463          	beq	a3,a4,200151a4 <vTaskAddTaskToReadyList+0x44>
    200151a0:	6940b0ef          	jal	ra,20020834 <__stack_chk_fail>
    200151a4:	03000713          	li	a4,48
    200151a8:	02e787b3          	mul	a5,a5,a4
    200151ac:	01813083          	ld	ra,24(sp)
    200151b0:	13050593          	addi	a1,a0,304
    200151b4:	fffed517          	auipc	a0,0xfffed
    200151b8:	51450513          	addi	a0,a0,1300 # 200026c8 <xReadyTasksLists>
    200151bc:	02010113          	addi	sp,sp,32
    200151c0:	00f50533          	add	a0,a0,a5
    200151c4:	2280106f          	j	200163ec <vListInsertEnd>

00000000200151c8 <prvTaskIncrementTick>:
    200151c8:	fb010113          	addi	sp,sp,-80
    200151cc:	03213823          	sd	s2,48(sp)
    200151d0:	ffffc917          	auipc	s2,0xffffc
    200151d4:	a6093903          	ld	s2,-1440(s2) # 20010c30 <__section_globalRodataCmn_data_start+0x30>
    200151d8:	00093783          	ld	a5,0(s2)
    200151dc:	04113423          	sd	ra,72(sp)
    200151e0:	04813023          	sd	s0,64(sp)
    200151e4:	00f13423          	sd	a5,8(sp)
    200151e8:	02913c23          	sd	s1,56(sp)
    200151ec:	03313423          	sd	s3,40(sp)
    200151f0:	03413023          	sd	s4,32(sp)
    200151f4:	01513c23          	sd	s5,24(sp)
    200151f8:	01613823          	sd	s6,16(sp)
    200151fc:	fffed797          	auipc	a5,0xfffed
    20015200:	73478793          	addi	a5,a5,1844 # 20002930 <uxSchedulerSuspended>
    20015204:	0007b783          	ld	a5,0(a5)
    20015208:	18079663          	bnez	a5,20015394 <prvTaskIncrementTick+0x1cc>
    2001520c:	fffed797          	auipc	a5,0xfffed
    20015210:	74478793          	addi	a5,a5,1860 # 20002950 <xTickCount>
    20015214:	0007b403          	ld	s0,0(a5)
    20015218:	fffed797          	auipc	a5,0xfffed
    2001521c:	74078793          	addi	a5,a5,1856 # 20002958 <xTickCountMirror>
    20015220:	0007b783          	ld	a5,0(a5)
    20015224:	fff44713          	not	a4,s0
    20015228:	fffedb17          	auipc	s6,0xfffed
    2001522c:	498b0b13          	addi	s6,s6,1176 # 200026c0 <pxLwrrentTCB>
    20015230:	00f70863          	beq	a4,a5,20015240 <prvTaskIncrementTick+0x78>
    20015234:	000b3503          	ld	a0,0(s6)
    20015238:	fec00593          	li	a1,-20
    2001523c:	4c1000ef          	jal	ra,20015efc <vPortErrorHook>
    20015240:	00140413          	addi	s0,s0,1
    20015244:	fffed797          	auipc	a5,0xfffed
    20015248:	7087b623          	sd	s0,1804(a5) # 20002950 <xTickCount>
    2001524c:	fff44793          	not	a5,s0
    20015250:	fffed717          	auipc	a4,0xfffed
    20015254:	70f73423          	sd	a5,1800(a4) # 20002958 <xTickCountMirror>
    20015258:	04041463          	bnez	s0,200152a0 <prvTaskIncrementTick+0xd8>
    2001525c:	fffed797          	auipc	a5,0xfffed
    20015260:	64c78793          	addi	a5,a5,1612 # 200028a8 <pxDelayedTaskList>
    20015264:	fffed717          	auipc	a4,0xfffed
    20015268:	64c70713          	addi	a4,a4,1612 # 200028b0 <pxOverflowDelayedTaskList>
    2001526c:	0007b783          	ld	a5,0(a5)
    20015270:	00073703          	ld	a4,0(a4)
    20015274:	fffed697          	auipc	a3,0xfffed
    20015278:	62e6ba23          	sd	a4,1588(a3) # 200028a8 <pxDelayedTaskList>
    2001527c:	fffed717          	auipc	a4,0xfffed
    20015280:	62f73a23          	sd	a5,1588(a4) # 200028b0 <pxOverflowDelayedTaskList>
    20015284:	fffed797          	auipc	a5,0xfffed
    20015288:	6bc78793          	addi	a5,a5,1724 # 20002940 <uxNumOfOverflows>
    2001528c:	0007b783          	ld	a5,0(a5)
    20015290:	00178793          	addi	a5,a5,1
    20015294:	fffed717          	auipc	a4,0xfffed
    20015298:	6af73623          	sd	a5,1708(a4) # 20002940 <uxNumOfOverflows>
    2001529c:	e49ff0ef          	jal	ra,200150e4 <vTaskResetNextTaskUnblockTime>
    200152a0:	fffed797          	auipc	a5,0xfffed
    200152a4:	6c078793          	addi	a5,a5,1728 # 20002960 <xNextTaskUnblockTime>
    200152a8:	0007b783          	ld	a5,0(a5)
    200152ac:	00000a93          	li	s5,0
    200152b0:	0cf47c63          	bleu	a5,s0,20015388 <prvTaskIncrementTick+0x1c0>
    200152b4:	000b3783          	ld	a5,0(s6)
    200152b8:	03000713          	li	a4,48
    200152bc:	1987b783          	ld	a5,408(a5)
    200152c0:	02e78733          	mul	a4,a5,a4
    200152c4:	fffed797          	auipc	a5,0xfffed
    200152c8:	40478793          	addi	a5,a5,1028 # 200026c8 <xReadyTasksLists>
    200152cc:	00e787b3          	add	a5,a5,a4
    200152d0:	0007b703          	ld	a4,0(a5)
    200152d4:	00100793          	li	a5,1
    200152d8:	00e7f463          	bleu	a4,a5,200152e0 <prvTaskIncrementTick+0x118>
    200152dc:	00100a93          	li	s5,1
    200152e0:	fffed797          	auipc	a5,0xfffed
    200152e4:	66878793          	addi	a5,a5,1640 # 20002948 <uxMissedTicks>
    200152e8:	0007b783          	ld	a5,0(a5)
    200152ec:	00079463          	bnez	a5,200152f4 <prvTaskIncrementTick+0x12c>
    200152f0:	445000ef          	jal	ra,20015f34 <vPortTickHook>
    200152f4:	fffed797          	auipc	a5,0xfffed
    200152f8:	64478793          	addi	a5,a5,1604 # 20002938 <xMissedYield>
    200152fc:	0007b783          	ld	a5,0(a5)
    20015300:	00078463          	beqz	a5,20015308 <prvTaskIncrementTick+0x140>
    20015304:	00100a93          	li	s5,1
    20015308:	00813703          	ld	a4,8(sp)
    2001530c:	00093783          	ld	a5,0(s2)
    20015310:	000a8513          	mv	a0,s5
    20015314:	0af70463          	beq	a4,a5,200153bc <prvTaskIncrementTick+0x1f4>
    20015318:	51c0b0ef          	jal	ra,20020834 <__stack_chk_fail>
    2001531c:	0009b783          	ld	a5,0(s3)
    20015320:	0187b783          	ld	a5,24(a5)
    20015324:	0187b483          	ld	s1,24(a5)
    20015328:	1304b783          	ld	a5,304(s1)
    2001532c:	04f46863          	bltu	s0,a5,2001537c <prvTaskIncrementTick+0x1b4>
    20015330:	13048513          	addi	a0,s1,304
    20015334:	118010ef          	jal	ra,2001644c <vListRemove>
    20015338:	15848a13          	addi	s4,s1,344
    2001533c:	000a0513          	mv	a0,s4
    20015340:	284010ef          	jal	ra,200165c4 <xListIsContainedWithinAList>
    20015344:	00050663          	beqz	a0,20015350 <prvTaskIncrementTick+0x188>
    20015348:	000a0513          	mv	a0,s4
    2001534c:	100010ef          	jal	ra,2001644c <vListRemove>
    20015350:	00048513          	mv	a0,s1
    20015354:	e0dff0ef          	jal	ra,20015160 <vTaskAddTaskToReadyList>
    20015358:	000b3783          	ld	a5,0(s6)
    2001535c:	1984b703          	ld	a4,408(s1)
    20015360:	1987b783          	ld	a5,408(a5)
    20015364:	00f76463          	bltu	a4,a5,2001536c <prvTaskIncrementTick+0x1a4>
    20015368:	00100a93          	li	s5,1
    2001536c:	0009b503          	ld	a0,0(s3)
    20015370:	1d8010ef          	jal	ra,20016548 <xListIsListEmpty>
    20015374:	fa0504e3          	beqz	a0,2001531c <prvTaskIncrementTick+0x154>
    20015378:	fff00793          	li	a5,-1
    2001537c:	fffed717          	auipc	a4,0xfffed
    20015380:	5ef73223          	sd	a5,1508(a4) # 20002960 <xNextTaskUnblockTime>
    20015384:	f31ff06f          	j	200152b4 <prvTaskIncrementTick+0xec>
    20015388:	fffed997          	auipc	s3,0xfffed
    2001538c:	52098993          	addi	s3,s3,1312 # 200028a8 <pxDelayedTaskList>
    20015390:	fddff06f          	j	2001536c <prvTaskIncrementTick+0x1a4>
    20015394:	915ff0ef          	jal	ra,20014ca8 <vUpdateRunTimeStatistics>
    20015398:	fffed797          	auipc	a5,0xfffed
    2001539c:	5b078793          	addi	a5,a5,1456 # 20002948 <uxMissedTicks>
    200153a0:	0007b783          	ld	a5,0(a5)
    200153a4:	00000a93          	li	s5,0
    200153a8:	00178793          	addi	a5,a5,1
    200153ac:	fffed717          	auipc	a4,0xfffed
    200153b0:	58f73e23          	sd	a5,1436(a4) # 20002948 <uxMissedTicks>
    200153b4:	381000ef          	jal	ra,20015f34 <vPortTickHook>
    200153b8:	f3dff06f          	j	200152f4 <prvTaskIncrementTick+0x12c>
    200153bc:	04813083          	ld	ra,72(sp)
    200153c0:	04013403          	ld	s0,64(sp)
    200153c4:	03813483          	ld	s1,56(sp)
    200153c8:	03013903          	ld	s2,48(sp)
    200153cc:	02813983          	ld	s3,40(sp)
    200153d0:	02013a03          	ld	s4,32(sp)
    200153d4:	01813a83          	ld	s5,24(sp)
    200153d8:	01013b03          	ld	s6,16(sp)
    200153dc:	05010113          	addi	sp,sp,80
    200153e0:	00008067          	ret

00000000200153e4 <xTaskResumeScheduler>:
    200153e4:	fc010113          	addi	sp,sp,-64
    200153e8:	01313c23          	sd	s3,24(sp)
    200153ec:	ffffc797          	auipc	a5,0xffffc
    200153f0:	8447b783          	ld	a5,-1980(a5) # 20010c30 <__section_globalRodataCmn_data_start+0x30>
    200153f4:	02113c23          	sd	ra,56(sp)
    200153f8:	02813823          	sd	s0,48(sp)
    200153fc:	02913423          	sd	s1,40(sp)
    20015400:	03213023          	sd	s2,32(sp)
    20015404:	01413823          	sd	s4,16(sp)
    20015408:	0007b703          	ld	a4,0(a5)
    2001540c:	00078993          	mv	s3,a5
    20015410:	fe900793          	li	a5,-23
    20015414:	00e13423          	sd	a4,8(sp)
    20015418:	fffed717          	auipc	a4,0xfffed
    2001541c:	51870713          	addi	a4,a4,1304 # 20002930 <uxSchedulerSuspended>
    20015420:	00073683          	ld	a3,0(a4)
    20015424:	02068063          	beqz	a3,20015444 <xTaskResumeScheduler+0x60>
    20015428:	00073783          	ld	a5,0(a4)
    2001542c:	fff78793          	addi	a5,a5,-1
    20015430:	fffed697          	auipc	a3,0xfffed
    20015434:	50f6b023          	sd	a5,1280(a3) # 20002930 <uxSchedulerSuspended>
    20015438:	00073783          	ld	a5,0(a4)
    2001543c:	00078e63          	beqz	a5,20015458 <xTaskResumeScheduler+0x74>
    20015440:	00000793          	li	a5,0
    20015444:	00078513          	mv	a0,a5
    20015448:	00813703          	ld	a4,8(sp)
    2001544c:	0009b783          	ld	a5,0(s3)
    20015450:	0cf70e63          	beq	a4,a5,2001552c <xTaskResumeScheduler+0x148>
    20015454:	3e00b0ef          	jal	ra,20020834 <__stack_chk_fail>
    20015458:	fffed797          	auipc	a5,0xfffed
    2001545c:	4c078793          	addi	a5,a5,1216 # 20002918 <uxLwrrentNumberOfTasks>
    20015460:	0007b783          	ld	a5,0(a5)
    20015464:	fc078ee3          	beqz	a5,20015440 <xTaskResumeScheduler+0x5c>
    20015468:	00000493          	li	s1,0
    2001546c:	00000413          	li	s0,0
    20015470:	fffed917          	auipc	s2,0xfffed
    20015474:	44890913          	addi	s2,s2,1096 # 200028b8 <xPendingReadyList>
    20015478:	fffeda17          	auipc	s4,0xfffed
    2001547c:	248a0a13          	addi	s4,s4,584 # 200026c0 <pxLwrrentTCB>
    20015480:	0380006f          	j	200154b8 <xTaskResumeScheduler+0xd4>
    20015484:	01893783          	ld	a5,24(s2)
    20015488:	0187b403          	ld	s0,24(a5)
    2001548c:	15840513          	addi	a0,s0,344
    20015490:	7bd000ef          	jal	ra,2001644c <vListRemove>
    20015494:	13040513          	addi	a0,s0,304
    20015498:	7b5000ef          	jal	ra,2001644c <vListRemove>
    2001549c:	00040513          	mv	a0,s0
    200154a0:	cc1ff0ef          	jal	ra,20015160 <vTaskAddTaskToReadyList>
    200154a4:	000a3783          	ld	a5,0(s4)
    200154a8:	19843703          	ld	a4,408(s0)
    200154ac:	1987b783          	ld	a5,408(a5)
    200154b0:	00e7f463          	bleu	a4,a5,200154b8 <xTaskResumeScheduler+0xd4>
    200154b4:	00100493          	li	s1,1
    200154b8:	00093783          	ld	a5,0(s2)
    200154bc:	fc0794e3          	bnez	a5,20015484 <xTaskResumeScheduler+0xa0>
    200154c0:	00040463          	beqz	s0,200154c8 <xTaskResumeScheduler+0xe4>
    200154c4:	c21ff0ef          	jal	ra,200150e4 <vTaskResetNextTaskUnblockTime>
    200154c8:	fffed797          	auipc	a5,0xfffed
    200154cc:	48078793          	addi	a5,a5,1152 # 20002948 <uxMissedTicks>
    200154d0:	0007b403          	ld	s0,0(a5)
    200154d4:	02040063          	beqz	s0,200154f4 <xTaskResumeScheduler+0x110>
    200154d8:	cf1ff0ef          	jal	ra,200151c8 <prvTaskIncrementTick>
    200154dc:	00050463          	beqz	a0,200154e4 <xTaskResumeScheduler+0x100>
    200154e0:	00100493          	li	s1,1
    200154e4:	fff40413          	addi	s0,s0,-1
    200154e8:	fe0418e3          	bnez	s0,200154d8 <xTaskResumeScheduler+0xf4>
    200154ec:	fffed797          	auipc	a5,0xfffed
    200154f0:	4407be23          	sd	zero,1116(a5) # 20002948 <uxMissedTicks>
    200154f4:	fffed797          	auipc	a5,0xfffed
    200154f8:	44478793          	addi	a5,a5,1092 # 20002938 <xMissedYield>
    200154fc:	0007b703          	ld	a4,0(a5)
    20015500:	00100793          	li	a5,1
    20015504:	00f48463          	beq	s1,a5,2001550c <xTaskResumeScheduler+0x128>
    20015508:	f2f71ce3          	bne	a4,a5,20015440 <xTaskResumeScheduler+0x5c>
    2001550c:	fff00893          	li	a7,-1
    20015510:	03f89893          	slli	a7,a7,0x3f
    20015514:	fffed797          	auipc	a5,0xfffed
    20015518:	4207b223          	sd	zero,1060(a5) # 20002938 <xMissedYield>
    2001551c:	01088893          	addi	a7,a7,16
    20015520:	00000073          	ecall
    20015524:	00100793          	li	a5,1
    20015528:	f1dff06f          	j	20015444 <xTaskResumeScheduler+0x60>
    2001552c:	03813083          	ld	ra,56(sp)
    20015530:	03013403          	ld	s0,48(sp)
    20015534:	02813483          	ld	s1,40(sp)
    20015538:	02013903          	ld	s2,32(sp)
    2001553c:	01813983          	ld	s3,24(sp)
    20015540:	01013a03          	ld	s4,16(sp)
    20015544:	04010113          	addi	sp,sp,64
    20015548:	00008067          	ret

000000002001554c <xTaskRemoveFromEventList>:
    2001554c:	fc010113          	addi	sp,sp,-64
    20015550:	02813823          	sd	s0,48(sp)
    20015554:	ffffb417          	auipc	s0,0xffffb
    20015558:	6dc43403          	ld	s0,1756(s0) # 20010c30 <__section_globalRodataCmn_data_start+0x30>
    2001555c:	00043783          	ld	a5,0(s0)
    20015560:	02113c23          	sd	ra,56(sp)
    20015564:	02913423          	sd	s1,40(sp)
    20015568:	00f13c23          	sd	a5,24(sp)
    2001556c:	01853783          	ld	a5,24(a0)
    20015570:	0187b483          	ld	s1,24(a5)
    20015574:	15848593          	addi	a1,s1,344
    20015578:	00058513          	mv	a0,a1
    2001557c:	00b13423          	sd	a1,8(sp)
    20015580:	6cd000ef          	jal	ra,2001644c <vListRemove>
    20015584:	fffed797          	auipc	a5,0xfffed
    20015588:	3ac78793          	addi	a5,a5,940 # 20002930 <uxSchedulerSuspended>
    2001558c:	0007b783          	ld	a5,0(a5)
    20015590:	00813583          	ld	a1,8(sp)
    20015594:	04079063          	bnez	a5,200155d4 <xTaskRemoveFromEventList+0x88>
    20015598:	13048513          	addi	a0,s1,304
    2001559c:	6b1000ef          	jal	ra,2001644c <vListRemove>
    200155a0:	00048513          	mv	a0,s1
    200155a4:	bbdff0ef          	jal	ra,20015160 <vTaskAddTaskToReadyList>
    200155a8:	b3dff0ef          	jal	ra,200150e4 <vTaskResetNextTaskUnblockTime>
    200155ac:	fffed797          	auipc	a5,0xfffed
    200155b0:	11478793          	addi	a5,a5,276 # 200026c0 <pxLwrrentTCB>
    200155b4:	0007b783          	ld	a5,0(a5)
    200155b8:	1984b503          	ld	a0,408(s1)
    200155bc:	01813703          	ld	a4,24(sp)
    200155c0:	1987b783          	ld	a5,408(a5)
    200155c4:	00a7b533          	sltu	a0,a5,a0
    200155c8:	00043783          	ld	a5,0(s0)
    200155cc:	00f70c63          	beq	a4,a5,200155e4 <xTaskRemoveFromEventList+0x98>
    200155d0:	2640b0ef          	jal	ra,20020834 <__stack_chk_fail>
    200155d4:	fffed517          	auipc	a0,0xfffed
    200155d8:	2e450513          	addi	a0,a0,740 # 200028b8 <xPendingReadyList>
    200155dc:	611000ef          	jal	ra,200163ec <vListInsertEnd>
    200155e0:	fcdff06f          	j	200155ac <xTaskRemoveFromEventList+0x60>
    200155e4:	03813083          	ld	ra,56(sp)
    200155e8:	03013403          	ld	s0,48(sp)
    200155ec:	02813483          	ld	s1,40(sp)
    200155f0:	04010113          	addi	sp,sp,64
    200155f4:	00008067          	ret

00000000200155f8 <vTaskAddLwrrentTaskToDelayedList>:
    200155f8:	fb010113          	addi	sp,sp,-80
    200155fc:	02913c23          	sd	s1,56(sp)
    20015600:	ffffb497          	auipc	s1,0xffffb
    20015604:	6304b483          	ld	s1,1584(s1) # 20010c30 <__section_globalRodataCmn_data_start+0x30>
    20015608:	0004b783          	ld	a5,0(s1)
    2001560c:	03213823          	sd	s2,48(sp)
    20015610:	04113423          	sd	ra,72(sp)
    20015614:	00f13c23          	sd	a5,24(sp)
    20015618:	04813023          	sd	s0,64(sp)
    2001561c:	03313423          	sd	s3,40(sp)
    20015620:	fffed797          	auipc	a5,0xfffed
    20015624:	0a078793          	addi	a5,a5,160 # 200026c0 <pxLwrrentTCB>
    20015628:	0007b983          	ld	s3,0(a5)
    2001562c:	fffed917          	auipc	s2,0xfffed
    20015630:	32490913          	addi	s2,s2,804 # 20002950 <xTickCount>
    20015634:	00093403          	ld	s0,0(s2)
    20015638:	13098593          	addi	a1,s3,304
    2001563c:	00b13423          	sd	a1,8(sp)
    20015640:	00a40433          	add	s0,s0,a0
    20015644:	00058513          	mv	a0,a1
    20015648:	605000ef          	jal	ra,2001644c <vListRemove>
    2001564c:	1289b823          	sd	s0,304(s3)
    20015650:	00093783          	ld	a5,0(s2)
    20015654:	00813583          	ld	a1,8(sp)
    20015658:	02f47e63          	bleu	a5,s0,20015694 <vTaskAddLwrrentTaskToDelayedList+0x9c>
    2001565c:	fffed797          	auipc	a5,0xfffed
    20015660:	25478793          	addi	a5,a5,596 # 200028b0 <pxOverflowDelayedTaskList>
    20015664:	0007b503          	ld	a0,0(a5)
    20015668:	01813703          	ld	a4,24(sp)
    2001566c:	0004b783          	ld	a5,0(s1)
    20015670:	00f70463          	beq	a4,a5,20015678 <vTaskAddLwrrentTaskToDelayedList+0x80>
    20015674:	1c00b0ef          	jal	ra,20020834 <__stack_chk_fail>
    20015678:	04013403          	ld	s0,64(sp)
    2001567c:	04813083          	ld	ra,72(sp)
    20015680:	03813483          	ld	s1,56(sp)
    20015684:	03013903          	ld	s2,48(sp)
    20015688:	02813983          	ld	s3,40(sp)
    2001568c:	05010113          	addi	sp,sp,80
    20015690:	4d50006f          	j	20016364 <vListInsertOrdered>
    20015694:	fffed797          	auipc	a5,0xfffed
    20015698:	21478793          	addi	a5,a5,532 # 200028a8 <pxDelayedTaskList>
    2001569c:	0007b503          	ld	a0,0(a5)
    200156a0:	00048913          	mv	s2,s1
    200156a4:	4c1000ef          	jal	ra,20016364 <vListInsertOrdered>
    200156a8:	fffed797          	auipc	a5,0xfffed
    200156ac:	2b878793          	addi	a5,a5,696 # 20002960 <xNextTaskUnblockTime>
    200156b0:	0007b783          	ld	a5,0(a5)
    200156b4:	00f47663          	bleu	a5,s0,200156c0 <vTaskAddLwrrentTaskToDelayedList+0xc8>
    200156b8:	fffed797          	auipc	a5,0xfffed
    200156bc:	2a87b423          	sd	s0,680(a5) # 20002960 <xNextTaskUnblockTime>
    200156c0:	01813703          	ld	a4,24(sp)
    200156c4:	00093783          	ld	a5,0(s2)
    200156c8:	faf716e3          	bne	a4,a5,20015674 <vTaskAddLwrrentTaskToDelayedList+0x7c>
    200156cc:	04813083          	ld	ra,72(sp)
    200156d0:	04013403          	ld	s0,64(sp)
    200156d4:	03813483          	ld	s1,56(sp)
    200156d8:	03013903          	ld	s2,48(sp)
    200156dc:	02813983          	ld	s3,40(sp)
    200156e0:	05010113          	addi	sp,sp,80
    200156e4:	00008067          	ret

00000000200156e8 <xTaskDelay>:
    200156e8:	fd010113          	addi	sp,sp,-48
    200156ec:	02813023          	sd	s0,32(sp)
    200156f0:	ffffb797          	auipc	a5,0xffffb
    200156f4:	5407b783          	ld	a5,1344(a5) # 20010c30 <__section_globalRodataCmn_data_start+0x30>
    200156f8:	02113423          	sd	ra,40(sp)
    200156fc:	00913c23          	sd	s1,24(sp)
    20015700:	0007b703          	ld	a4,0(a5)
    20015704:	00078413          	mv	s0,a5
    20015708:	ff700793          	li	a5,-9
    2001570c:	00e13423          	sd	a4,8(sp)
    20015710:	fffed717          	auipc	a4,0xfffed
    20015714:	22070713          	addi	a4,a4,544 # 20002930 <uxSchedulerSuspended>
    20015718:	00073703          	ld	a4,0(a4)
    2001571c:	02071063          	bnez	a4,2001573c <xTaskDelay+0x54>
    20015720:	00050493          	mv	s1,a0
    20015724:	02051663          	bnez	a0,20015750 <xTaskDelay+0x68>
    20015728:	fff00893          	li	a7,-1
    2001572c:	03f89893          	slli	a7,a7,0x3f
    20015730:	01088893          	addi	a7,a7,16
    20015734:	00000073          	ecall
    20015738:	00100793          	li	a5,1
    2001573c:	00078513          	mv	a0,a5
    20015740:	00813703          	ld	a4,8(sp)
    20015744:	00043783          	ld	a5,0(s0)
    20015748:	02f70063          	beq	a4,a5,20015768 <xTaskDelay+0x80>
    2001574c:	0e80b0ef          	jal	ra,20020834 <__stack_chk_fail>
    20015750:	d8cff0ef          	jal	ra,20014cdc <vTaskSuspendScheduler>
    20015754:	00048513          	mv	a0,s1
    20015758:	ea1ff0ef          	jal	ra,200155f8 <vTaskAddLwrrentTaskToDelayedList>
    2001575c:	c89ff0ef          	jal	ra,200153e4 <xTaskResumeScheduler>
    20015760:	fc0504e3          	beqz	a0,20015728 <xTaskDelay+0x40>
    20015764:	fd5ff06f          	j	20015738 <xTaskDelay+0x50>
    20015768:	02813083          	ld	ra,40(sp)
    2001576c:	02013403          	ld	s0,32(sp)
    20015770:	01813483          	ld	s1,24(sp)
    20015774:	03010113          	addi	sp,sp,48
    20015778:	00008067          	ret

000000002001577c <vTaskPlaceOnEventList>:
    2001577c:	fd010113          	addi	sp,sp,-48
    20015780:	02813023          	sd	s0,32(sp)
    20015784:	ffffb417          	auipc	s0,0xffffb
    20015788:	4ac43403          	ld	s0,1196(s0) # 20010c30 <__section_globalRodataCmn_data_start+0x30>
    2001578c:	00043783          	ld	a5,0(s0)
    20015790:	00913c23          	sd	s1,24(sp)
    20015794:	02113423          	sd	ra,40(sp)
    20015798:	00f13423          	sd	a5,8(sp)
    2001579c:	fffed797          	auipc	a5,0xfffed
    200157a0:	f2478793          	addi	a5,a5,-220 # 200026c0 <pxLwrrentTCB>
    200157a4:	00058493          	mv	s1,a1
    200157a8:	0007b583          	ld	a1,0(a5)
    200157ac:	15858593          	addi	a1,a1,344
    200157b0:	3b5000ef          	jal	ra,20016364 <vListInsertOrdered>
    200157b4:	00813703          	ld	a4,8(sp)
    200157b8:	00043783          	ld	a5,0(s0)
    200157bc:	00f70463          	beq	a4,a5,200157c4 <vTaskPlaceOnEventList+0x48>
    200157c0:	0740b0ef          	jal	ra,20020834 <__stack_chk_fail>
    200157c4:	02013403          	ld	s0,32(sp)
    200157c8:	02813083          	ld	ra,40(sp)
    200157cc:	00048513          	mv	a0,s1
    200157d0:	01813483          	ld	s1,24(sp)
    200157d4:	03010113          	addi	sp,sp,48
    200157d8:	e21ff06f          	j	200155f8 <vTaskAddLwrrentTaskToDelayedList>

00000000200157dc <vTaskProcessSystemTickFromISR>:
    200157dc:	fe010113          	addi	sp,sp,-32
    200157e0:	00813823          	sd	s0,16(sp)
    200157e4:	ffffb417          	auipc	s0,0xffffb
    200157e8:	44c43403          	ld	s0,1100(s0) # 20010c30 <__section_globalRodataCmn_data_start+0x30>
    200157ec:	00043783          	ld	a5,0(s0)
    200157f0:	00113c23          	sd	ra,24(sp)
    200157f4:	00f13423          	sd	a5,8(sp)
    200157f8:	9d1ff0ef          	jal	ra,200151c8 <prvTaskIncrementTick>
    200157fc:	00050a63          	beqz	a0,20015810 <vTaskProcessSystemTickFromISR+0x34>
    20015800:	ffffb797          	auipc	a5,0xffffb
    20015804:	5307b783          	ld	a5,1328(a5) # 20010d30 <__section_globalRodataCmn_data_start+0x130>
    20015808:	00100713          	li	a4,1
    2001580c:	00e78023          	sb	a4,0(a5)
    20015810:	00813703          	ld	a4,8(sp)
    20015814:	00043783          	ld	a5,0(s0)
    20015818:	00f70463          	beq	a4,a5,20015820 <vTaskProcessSystemTickFromISR+0x44>
    2001581c:	0180b0ef          	jal	ra,20020834 <__stack_chk_fail>
    20015820:	01813083          	ld	ra,24(sp)
    20015824:	01013403          	ld	s0,16(sp)
    20015828:	02010113          	addi	sp,sp,32
    2001582c:	00008067          	ret

0000000020015830 <uxMutexFindHighestBlockedTaskPriority>:
    20015830:	fe010113          	addi	sp,sp,-32
    20015834:	00113c23          	sd	ra,24(sp)
    20015838:	ffffb797          	auipc	a5,0xffffb
    2001583c:	3f87b783          	ld	a5,1016(a5) # 20010c30 <__section_globalRodataCmn_data_start+0x30>
    20015840:	0007b703          	ld	a4,0(a5)
    20015844:	1a053503          	ld	a0,416(a0)
    20015848:	00e13423          	sd	a4,8(sp)
    2001584c:	00813703          	ld	a4,8(sp)
    20015850:	0007b783          	ld	a5,0(a5)
    20015854:	00f70463          	beq	a4,a5,2001585c <uxMutexFindHighestBlockedTaskPriority+0x2c>
    20015858:	7dd0a0ef          	jal	ra,20020834 <__stack_chk_fail>
    2001585c:	01813083          	ld	ra,24(sp)
    20015860:	02010113          	addi	sp,sp,32
    20015864:	00008067          	ret

0000000020015868 <xTaskPrioritySet>:
    20015868:	fc010113          	addi	sp,sp,-64
    2001586c:	ffffb797          	auipc	a5,0xffffb
    20015870:	3c47b783          	ld	a5,964(a5) # 20010c30 <__section_globalRodataCmn_data_start+0x30>
    20015874:	01313c23          	sd	s3,24(sp)
    20015878:	02113c23          	sd	ra,56(sp)
    2001587c:	02813823          	sd	s0,48(sp)
    20015880:	02913423          	sd	s1,40(sp)
    20015884:	03213023          	sd	s2,32(sp)
    20015888:	0007b703          	ld	a4,0(a5)
    2001588c:	00078993          	mv	s3,a5
    20015890:	ffe00793          	li	a5,-2
    20015894:	00e13423          	sd	a4,8(sp)
    20015898:	00700713          	li	a4,7
    2001589c:	0ab76463          	bltu	a4,a1,20015944 <xTaskPrioritySet+0xdc>
    200158a0:	00050413          	mv	s0,a0
    200158a4:	00058913          	mv	s2,a1
    200158a8:	00051863          	bnez	a0,200158b8 <xTaskPrioritySet+0x50>
    200158ac:	fffed797          	auipc	a5,0xfffed
    200158b0:	e1478793          	addi	a5,a5,-492 # 200026c0 <pxLwrrentTCB>
    200158b4:	0007b403          	ld	s0,0(a5)
    200158b8:	00040513          	mv	a0,s0
    200158bc:	5e8000ef          	jal	ra,20015ea4 <xPortIsTaskHandleValid>
    200158c0:	ff600793          	li	a5,-10
    200158c4:	08050063          	beqz	a0,20015944 <xTaskPrioritySet+0xdc>
    200158c8:	19843483          	ld	s1,408(s0)
    200158cc:	1b243023          	sd	s2,416(s0)
    200158d0:	00040513          	mv	a0,s0
    200158d4:	f5dff0ef          	jal	ra,20015830 <uxMutexFindHighestBlockedTaskPriority>
    200158d8:	18a43c23          	sd	a0,408(s0)
    200158dc:	00100793          	li	a5,1
    200158e0:	06950263          	beq	a0,s1,20015944 <xTaskPrioritySet+0xdc>
    200158e4:	15843783          	ld	a5,344(s0)
    200158e8:	0007ca63          	bltz	a5,200158fc <xTaskPrioritySet+0x94>
    200158ec:	00800593          	li	a1,8
    200158f0:	412585b3          	sub	a1,a1,s2
    200158f4:	15840513          	addi	a0,s0,344
    200158f8:	3c5000ef          	jal	ra,200164bc <vListRelocateOrderedItem>
    200158fc:	03000513          	li	a0,48
    20015900:	02a484b3          	mul	s1,s1,a0
    20015904:	13040913          	addi	s2,s0,304
    20015908:	fffed517          	auipc	a0,0xfffed
    2001590c:	dc050513          	addi	a0,a0,-576 # 200026c8 <xReadyTasksLists>
    20015910:	00090593          	mv	a1,s2
    20015914:	00950533          	add	a0,a0,s1
    20015918:	46d000ef          	jal	ra,20016584 <xListIsContainedWithin>
    2001591c:	00050a63          	beqz	a0,20015930 <xTaskPrioritySet+0xc8>
    20015920:	00090513          	mv	a0,s2
    20015924:	329000ef          	jal	ra,2001644c <vListRemove>
    20015928:	00040513          	mv	a0,s0
    2001592c:	835ff0ef          	jal	ra,20015160 <vTaskAddTaskToReadyList>
    20015930:	fff00893          	li	a7,-1
    20015934:	03f89893          	slli	a7,a7,0x3f
    20015938:	01088893          	addi	a7,a7,16
    2001593c:	00000073          	ecall
    20015940:	00100793          	li	a5,1
    20015944:	00078513          	mv	a0,a5
    20015948:	00813703          	ld	a4,8(sp)
    2001594c:	0009b783          	ld	a5,0(s3)
    20015950:	00f70463          	beq	a4,a5,20015958 <xTaskPrioritySet+0xf0>
    20015954:	6e10a0ef          	jal	ra,20020834 <__stack_chk_fail>
    20015958:	03813083          	ld	ra,56(sp)
    2001595c:	03013403          	ld	s0,48(sp)
    20015960:	02813483          	ld	s1,40(sp)
    20015964:	02013903          	ld	s2,32(sp)
    20015968:	01813983          	ld	s3,24(sp)
    2001596c:	04010113          	addi	sp,sp,64
    20015970:	00008067          	ret

0000000020015974 <xEventPollUpdateTaskEventPollObjects>:
    20015974:	fe010113          	addi	sp,sp,-32
    20015978:	00113c23          	sd	ra,24(sp)
    2001597c:	ffffb797          	auipc	a5,0xffffb
    20015980:	2b47b783          	ld	a5,692(a5) # 20010c30 <__section_globalRodataCmn_data_start+0x30>
    20015984:	0007b703          	ld	a4,0(a5)
    20015988:	00e13423          	sd	a4,8(sp)
    2001598c:	00813703          	ld	a4,8(sp)
    20015990:	0007b783          	ld	a5,0(a5)
    20015994:	00f70463          	beq	a4,a5,2001599c <xEventPollUpdateTaskEventPollObjects+0x28>
    20015998:	69d0a0ef          	jal	ra,20020834 <__stack_chk_fail>
    2001599c:	01813083          	ld	ra,24(sp)
    200159a0:	00000513          	li	a0,0
    200159a4:	02010113          	addi	sp,sp,32
    200159a8:	00008067          	ret

00000000200159ac <xTaskNotifyWait>:
    200159ac:	f7010113          	addi	sp,sp,-144
    200159b0:	05513c23          	sd	s5,88(sp)
    200159b4:	ffffba97          	auipc	s5,0xffffb
    200159b8:	27caba83          	ld	s5,636(s5) # 20010c30 <__section_globalRodataCmn_data_start+0x30>
    200159bc:	000ab783          	ld	a5,0(s5)
    200159c0:	08113423          	sd	ra,136(sp)
    200159c4:	08813023          	sd	s0,128(sp)
    200159c8:	02f13423          	sd	a5,40(sp)
    200159cc:	06913c23          	sd	s1,120(sp)
    200159d0:	07213823          	sd	s2,112(sp)
    200159d4:	07313423          	sd	s3,104(sp)
    200159d8:	07413023          	sd	s4,96(sp)
    200159dc:	05613823          	sd	s6,80(sp)
    200159e0:	05713423          	sd	s7,72(sp)
    200159e4:	05813023          	sd	s8,64(sp)
    200159e8:	03913c23          	sd	s9,56(sp)
    200159ec:	03a13823          	sd	s10,48(sp)
    200159f0:	fffed797          	auipc	a5,0xfffed
    200159f4:	cd078793          	addi	a5,a5,-816 # 200026c0 <pxLwrrentTCB>
    200159f8:	0007b403          	ld	s0,0(a5)
    200159fc:	fffed797          	auipc	a5,0xfffed
    20015a00:	f3478793          	addi	a5,a5,-204 # 20002930 <uxSchedulerSuspended>
    20015a04:	0007b783          	ld	a5,0(a5)
    20015a08:	00d13423          	sd	a3,8(sp)
    20015a0c:	0e079463          	bnez	a5,20015af4 <xTaskNotifyWait+0x148>
    20015a10:	01810b13          	addi	s6,sp,24
    20015a14:	fff00913          	li	s2,-1
    20015a18:	00050993          	mv	s3,a0
    20015a1c:	03f91913          	slli	s2,s2,0x3f
    20015a20:	000b0513          	mv	a0,s6
    20015a24:	00058493          	mv	s1,a1
    20015a28:	00060b93          	mv	s7,a2
    20015a2c:	00200c93          	li	s9,2
    20015a30:	d8cff0ef          	jal	ra,20014fbc <vTaskSetTimeOut>
    20015a34:	fff9c993          	not	s3,s3
    20015a38:	00100a13          	li	s4,1
    20015a3c:	01090913          	addi	s2,s2,16
    20015a40:	18040d13          	addi	s10,s0,384
    20015a44:	00810c13          	addi	s8,sp,8
    20015a48:	18843783          	ld	a5,392(s0)
    20015a4c:	03978463          	beq	a5,s9,20015a74 <xTaskNotifyWait+0xc8>
    20015a50:	18043783          	ld	a5,384(s0)
    20015a54:	00813503          	ld	a0,8(sp)
    20015a58:	00f9f7b3          	and	a5,s3,a5
    20015a5c:	18f43023          	sd	a5,384(s0)
    20015a60:	19443423          	sd	s4,392(s0)
    20015a64:	00050863          	beqz	a0,20015a74 <xTaskNotifyWait+0xc8>
    20015a68:	b91ff0ef          	jal	ra,200155f8 <vTaskAddLwrrentTaskToDelayedList>
    20015a6c:	00090893          	mv	a7,s2
    20015a70:	00000073          	ecall
    20015a74:	020b9863          	bnez	s7,20015aa4 <xTaskNotifyWait+0xf8>
    20015a78:	18843783          	ld	a5,392(s0)
    20015a7c:	05478263          	beq	a5,s4,20015ac0 <xTaskNotifyWait+0x114>
    20015a80:	18043783          	ld	a5,384(s0)
    20015a84:	fff4c493          	not	s1,s1
    20015a88:	00000593          	li	a1,0
    20015a8c:	00f4f4b3          	and	s1,s1,a5
    20015a90:	18943023          	sd	s1,384(s0)
    20015a94:	00040513          	mv	a0,s0
    20015a98:	eddff0ef          	jal	ra,20015974 <xEventPollUpdateTaskEventPollObjects>
    20015a9c:	00100513          	li	a0,1
    20015aa0:	02c0006f          	j	20015acc <xTaskNotifyWait+0x120>
    20015aa4:	00800613          	li	a2,8
    20015aa8:	000d0593          	mv	a1,s10
    20015aac:	000b8513          	mv	a0,s7
    20015ab0:	688000ef          	jal	ra,20016138 <xPortCopyDataToTask>
    20015ab4:	fd4502e3          	beq	a0,s4,20015a78 <xTaskNotifyWait+0xcc>
    20015ab8:	fc000513          	li	a0,-64
    20015abc:	0100006f          	j	20015acc <xTaskNotifyWait+0x120>
    20015ac0:	00813783          	ld	a5,8(sp)
    20015ac4:	00079e63          	bnez	a5,20015ae0 <xTaskNotifyWait+0x134>
    20015ac8:	fd400513          	li	a0,-44
    20015acc:	18043423          	sd	zero,392(s0)
    20015ad0:	02813703          	ld	a4,40(sp)
    20015ad4:	000ab783          	ld	a5,0(s5)
    20015ad8:	02f70263          	beq	a4,a5,20015afc <xTaskNotifyWait+0x150>
    20015adc:	5590a0ef          	jal	ra,20020834 <__stack_chk_fail>
    20015ae0:	000c0593          	mv	a1,s8
    20015ae4:	000b0513          	mv	a0,s6
    20015ae8:	d28ff0ef          	jal	ra,20015010 <xTaskCheckForTimeOut>
    20015aec:	f4050ee3          	beqz	a0,20015a48 <xTaskNotifyWait+0x9c>
    20015af0:	fd9ff06f          	j	20015ac8 <xTaskNotifyWait+0x11c>
    20015af4:	ff700513          	li	a0,-9
    20015af8:	fd9ff06f          	j	20015ad0 <xTaskNotifyWait+0x124>
    20015afc:	08813083          	ld	ra,136(sp)
    20015b00:	08013403          	ld	s0,128(sp)
    20015b04:	07813483          	ld	s1,120(sp)
    20015b08:	07013903          	ld	s2,112(sp)
    20015b0c:	06813983          	ld	s3,104(sp)
    20015b10:	06013a03          	ld	s4,96(sp)
    20015b14:	05813a83          	ld	s5,88(sp)
    20015b18:	05013b03          	ld	s6,80(sp)
    20015b1c:	04813b83          	ld	s7,72(sp)
    20015b20:	04013c03          	ld	s8,64(sp)
    20015b24:	03813c83          	ld	s9,56(sp)
    20015b28:	03013d03          	ld	s10,48(sp)
    20015b2c:	09010113          	addi	sp,sp,144
    20015b30:	00008067          	ret

0000000020015b34 <xTaskNotifySend>:
    20015b34:	fb010113          	addi	sp,sp,-80
    20015b38:	03213823          	sd	s2,48(sp)
    20015b3c:	ffffb917          	auipc	s2,0xffffb
    20015b40:	0f493903          	ld	s2,244(s2) # 20010c30 <__section_globalRodataCmn_data_start+0x30>
    20015b44:	00093783          	ld	a5,0(s2)
    20015b48:	04113423          	sd	ra,72(sp)
    20015b4c:	04813023          	sd	s0,64(sp)
    20015b50:	00f13c23          	sd	a5,24(sp)
    20015b54:	02913c23          	sd	s1,56(sp)
    20015b58:	03313423          	sd	s3,40(sp)
    20015b5c:	00b13423          	sd	a1,8(sp)
    20015b60:	ffa00793          	li	a5,-6
    20015b64:	02050e63          	beqz	a0,20015ba0 <xTaskNotifySend+0x6c>
    20015b68:	00050413          	mv	s0,a0
    20015b6c:	00060493          	mv	s1,a2
    20015b70:	334000ef          	jal	ra,20015ea4 <xPortIsTaskHandleValid>
    20015b74:	ff600793          	li	a5,-10
    20015b78:	02050463          	beqz	a0,20015ba0 <xTaskNotifySend+0x6c>
    20015b7c:	00813583          	ld	a1,8(sp)
    20015b80:	18843683          	ld	a3,392(s0)
    20015b84:	00200713          	li	a4,2
    20015b88:	06e58863          	beq	a1,a4,20015bf8 <xTaskNotifySend+0xc4>
    20015b8c:	02b74463          	blt	a4,a1,20015bb4 <xTaskNotifySend+0x80>
    20015b90:	04058863          	beqz	a1,20015be0 <xTaskNotifySend+0xac>
    20015b94:	00100793          	li	a5,1
    20015b98:	02f58e63          	beq	a1,a5,20015bd4 <xTaskNotifySend+0xa0>
    20015b9c:	fdb00793          	li	a5,-37
    20015ba0:	00078513          	mv	a0,a5
    20015ba4:	01813703          	ld	a4,24(sp)
    20015ba8:	00093783          	ld	a5,0(s2)
    20015bac:	10f70a63          	beq	a4,a5,20015cc0 <xTaskNotifySend+0x18c>
    20015bb0:	4850a0ef          	jal	ra,20020834 <__stack_chk_fail>
    20015bb4:	00300793          	li	a5,3
    20015bb8:	00f58a63          	beq	a1,a5,20015bcc <xTaskNotifySend+0x98>
    20015bbc:	00400793          	li	a5,4
    20015bc0:	fcf59ee3          	bne	a1,a5,20015b9c <xTaskNotifySend+0x68>
    20015bc4:	fd300793          	li	a5,-45
    20015bc8:	fce68ce3          	beq	a3,a4,20015ba0 <xTaskNotifySend+0x6c>
    20015bcc:	18943023          	sd	s1,384(s0)
    20015bd0:	0100006f          	j	20015be0 <xTaskNotifySend+0xac>
    20015bd4:	18043603          	ld	a2,384(s0)
    20015bd8:	00966633          	or	a2,a2,s1
    20015bdc:	18c43023          	sd	a2,384(s0)
    20015be0:	00200793          	li	a5,2
    20015be4:	18f43423          	sd	a5,392(s0)
    20015be8:	00100793          	li	a5,1
    20015bec:	00f68e63          	beq	a3,a5,20015c08 <xTaskNotifySend+0xd4>
    20015bf0:	00000493          	li	s1,0
    20015bf4:	0880006f          	j	20015c7c <xTaskNotifySend+0x148>
    20015bf8:	18043783          	ld	a5,384(s0)
    20015bfc:	00178793          	addi	a5,a5,1
    20015c00:	18f43023          	sd	a5,384(s0)
    20015c04:	fddff06f          	j	20015be0 <xTaskNotifySend+0xac>
    20015c08:	15840493          	addi	s1,s0,344
    20015c0c:	00048513          	mv	a0,s1
    20015c10:	1b5000ef          	jal	ra,200165c4 <xListIsContainedWithinAList>
    20015c14:	00050a63          	beqz	a0,20015c28 <xTaskNotifySend+0xf4>
    20015c18:	fd200593          	li	a1,-46
    20015c1c:	00040513          	mv	a0,s0
    20015c20:	2dc000ef          	jal	ra,20015efc <vPortErrorHook>
    20015c24:	fcdff06f          	j	20015bf0 <xTaskNotifySend+0xbc>
    20015c28:	13040993          	addi	s3,s0,304
    20015c2c:	00098593          	mv	a1,s3
    20015c30:	fffed517          	auipc	a0,0xfffed
    20015c34:	cb850513          	addi	a0,a0,-840 # 200028e8 <xSuspendedTaskList>
    20015c38:	14d000ef          	jal	ra,20016584 <xListIsContainedWithin>
    20015c3c:	fa051ae3          	bnez	a0,20015bf0 <xTaskNotifySend+0xbc>
    20015c40:	fffed797          	auipc	a5,0xfffed
    20015c44:	cf078793          	addi	a5,a5,-784 # 20002930 <uxSchedulerSuspended>
    20015c48:	0007b783          	ld	a5,0(a5)
    20015c4c:	06079063          	bnez	a5,20015cac <xTaskNotifySend+0x178>
    20015c50:	00098513          	mv	a0,s3
    20015c54:	7f8000ef          	jal	ra,2001644c <vListRemove>
    20015c58:	00040513          	mv	a0,s0
    20015c5c:	d04ff0ef          	jal	ra,20015160 <vTaskAddTaskToReadyList>
    20015c60:	c84ff0ef          	jal	ra,200150e4 <vTaskResetNextTaskUnblockTime>
    20015c64:	fffed797          	auipc	a5,0xfffed
    20015c68:	a5c78793          	addi	a5,a5,-1444 # 200026c0 <pxLwrrentTCB>
    20015c6c:	0007b783          	ld	a5,0(a5)
    20015c70:	19843483          	ld	s1,408(s0)
    20015c74:	1987b783          	ld	a5,408(a5)
    20015c78:	0097b4b3          	sltu	s1,a5,s1
    20015c7c:	01000593          	li	a1,16
    20015c80:	00040513          	mv	a0,s0
    20015c84:	cf1ff0ef          	jal	ra,20015974 <xEventPollUpdateTaskEventPollObjects>
    20015c88:	00100793          	li	a5,1
    20015c8c:	00f50463          	beq	a0,a5,20015c94 <xTaskNotifySend+0x160>
    20015c90:	f0f498e3          	bne	s1,a5,20015ba0 <xTaskNotifySend+0x6c>
    20015c94:	fff00893          	li	a7,-1
    20015c98:	03f89893          	slli	a7,a7,0x3f
    20015c9c:	01088893          	addi	a7,a7,16
    20015ca0:	00000073          	ecall
    20015ca4:	00100793          	li	a5,1
    20015ca8:	ef9ff06f          	j	20015ba0 <xTaskNotifySend+0x6c>
    20015cac:	00048593          	mv	a1,s1
    20015cb0:	fffed517          	auipc	a0,0xfffed
    20015cb4:	c0850513          	addi	a0,a0,-1016 # 200028b8 <xPendingReadyList>
    20015cb8:	734000ef          	jal	ra,200163ec <vListInsertEnd>
    20015cbc:	f35ff06f          	j	20015bf0 <xTaskNotifySend+0xbc>
    20015cc0:	04813083          	ld	ra,72(sp)
    20015cc4:	04013403          	ld	s0,64(sp)
    20015cc8:	03813483          	ld	s1,56(sp)
    20015ccc:	03013903          	ld	s2,48(sp)
    20015cd0:	02813983          	ld	s3,40(sp)
    20015cd4:	05010113          	addi	sp,sp,80
    20015cd8:	00008067          	ret

0000000020015cdc <xTaskNotifySendFromISR>:
    20015cdc:	fb010113          	addi	sp,sp,-80
    20015ce0:	03213823          	sd	s2,48(sp)
    20015ce4:	ffffb917          	auipc	s2,0xffffb
    20015ce8:	f4c93903          	ld	s2,-180(s2) # 20010c30 <__section_globalRodataCmn_data_start+0x30>
    20015cec:	00093783          	ld	a5,0(s2)
    20015cf0:	02913c23          	sd	s1,56(sp)
    20015cf4:	04113423          	sd	ra,72(sp)
    20015cf8:	04813023          	sd	s0,64(sp)
    20015cfc:	03313423          	sd	s3,40(sp)
    20015d00:	03413023          	sd	s4,32(sp)
    20015d04:	00b13423          	sd	a1,8(sp)
    20015d08:	00c13023          	sd	a2,0(sp)
    20015d0c:	00f13c23          	sd	a5,24(sp)
    20015d10:	00013823          	sd	zero,16(sp)
    20015d14:	ffa00493          	li	s1,-6
    20015d18:	06068463          	beqz	a3,20015d80 <xTaskNotifySendFromISR+0xa4>
    20015d1c:	00050413          	mv	s0,a0
    20015d20:	06050063          	beqz	a0,20015d80 <xTaskNotifySendFromISR+0xa4>
    20015d24:	00068993          	mv	s3,a3
    20015d28:	17c000ef          	jal	ra,20015ea4 <xPortIsTaskHandleValid>
    20015d2c:	ff600493          	li	s1,-10
    20015d30:	02050663          	beqz	a0,20015d5c <xTaskNotifySendFromISR+0x80>
    20015d34:	00813583          	ld	a1,8(sp)
    20015d38:	18843703          	ld	a4,392(s0)
    20015d3c:	00200793          	li	a5,2
    20015d40:	08f58063          	beq	a1,a5,20015dc0 <xTaskNotifySendFromISR+0xe4>
    20015d44:	00013603          	ld	a2,0(sp)
    20015d48:	04b7c663          	blt	a5,a1,20015d94 <xTaskNotifySendFromISR+0xb8>
    20015d4c:	08058063          	beqz	a1,20015dcc <xTaskNotifySendFromISR+0xf0>
    20015d50:	00100793          	li	a5,1
    20015d54:	04f58e63          	beq	a1,a5,20015db0 <xTaskNotifySendFromISR+0xd4>
    20015d58:	fdb00493          	li	s1,-37
    20015d5c:	01013403          	ld	s0,16(sp)
    20015d60:	00100793          	li	a5,1
    20015d64:	00f41e63          	bne	s0,a5,20015d80 <xTaskNotifySendFromISR+0xa4>
    20015d68:	00800613          	li	a2,8
    20015d6c:	01010593          	addi	a1,sp,16
    20015d70:	00098513          	mv	a0,s3
    20015d74:	3c4000ef          	jal	ra,20016138 <xPortCopyDataToTask>
    20015d78:	00850463          	beq	a0,s0,20015d80 <xTaskNotifySendFromISR+0xa4>
    20015d7c:	fc000493          	li	s1,-64
    20015d80:	01813703          	ld	a4,24(sp)
    20015d84:	00093783          	ld	a5,0(s2)
    20015d88:	00048513          	mv	a0,s1
    20015d8c:	0ef70c63          	beq	a4,a5,20015e84 <xTaskNotifySendFromISR+0x1a8>
    20015d90:	2a50a0ef          	jal	ra,20020834 <__stack_chk_fail>
    20015d94:	00300693          	li	a3,3
    20015d98:	02d58063          	beq	a1,a3,20015db8 <xTaskNotifySendFromISR+0xdc>
    20015d9c:	00400693          	li	a3,4
    20015da0:	fad59ce3          	bne	a1,a3,20015d58 <xTaskNotifySendFromISR+0x7c>
    20015da4:	fd300493          	li	s1,-45
    20015da8:	00f71863          	bne	a4,a5,20015db8 <xTaskNotifySendFromISR+0xdc>
    20015dac:	fb1ff06f          	j	20015d5c <xTaskNotifySendFromISR+0x80>
    20015db0:	18043783          	ld	a5,384(s0)
    20015db4:	00c7e633          	or	a2,a5,a2
    20015db8:	18c43023          	sd	a2,384(s0)
    20015dbc:	0100006f          	j	20015dcc <xTaskNotifySendFromISR+0xf0>
    20015dc0:	18043783          	ld	a5,384(s0)
    20015dc4:	00178793          	addi	a5,a5,1
    20015dc8:	18f43023          	sd	a5,384(s0)
    20015dcc:	00200793          	li	a5,2
    20015dd0:	18f43423          	sd	a5,392(s0)
    20015dd4:	00100793          	li	a5,1
    20015dd8:	02f71063          	bne	a4,a5,20015df8 <xTaskNotifySendFromISR+0x11c>
    20015ddc:	15840493          	addi	s1,s0,344
    20015de0:	00048513          	mv	a0,s1
    20015de4:	7e0000ef          	jal	ra,200165c4 <xListIsContainedWithinAList>
    20015de8:	02050663          	beqz	a0,20015e14 <xTaskNotifySendFromISR+0x138>
    20015dec:	fd200593          	li	a1,-46
    20015df0:	00040513          	mv	a0,s0
    20015df4:	108000ef          	jal	ra,20015efc <vPortErrorHook>
    20015df8:	01000593          	li	a1,16
    20015dfc:	00040513          	mv	a0,s0
    20015e00:	b75ff0ef          	jal	ra,20015974 <xEventPollUpdateTaskEventPollObjects>
    20015e04:	00100493          	li	s1,1
    20015e08:	f4951ae3          	bne	a0,s1,20015d5c <xTaskNotifySendFromISR+0x80>
    20015e0c:	00913823          	sd	s1,16(sp)
    20015e10:	f4dff06f          	j	20015d5c <xTaskNotifySendFromISR+0x80>
    20015e14:	13040a13          	addi	s4,s0,304
    20015e18:	000a0593          	mv	a1,s4
    20015e1c:	fffed517          	auipc	a0,0xfffed
    20015e20:	acc50513          	addi	a0,a0,-1332 # 200028e8 <xSuspendedTaskList>
    20015e24:	760000ef          	jal	ra,20016584 <xListIsContainedWithin>
    20015e28:	fc0518e3          	bnez	a0,20015df8 <xTaskNotifySendFromISR+0x11c>
    20015e2c:	fffed797          	auipc	a5,0xfffed
    20015e30:	b0478793          	addi	a5,a5,-1276 # 20002930 <uxSchedulerSuspended>
    20015e34:	0007b783          	ld	a5,0(a5)
    20015e38:	02079c63          	bnez	a5,20015e70 <xTaskNotifySendFromISR+0x194>
    20015e3c:	000a0513          	mv	a0,s4
    20015e40:	60c000ef          	jal	ra,2001644c <vListRemove>
    20015e44:	00040513          	mv	a0,s0
    20015e48:	b18ff0ef          	jal	ra,20015160 <vTaskAddTaskToReadyList>
    20015e4c:	fffed797          	auipc	a5,0xfffed
    20015e50:	87478793          	addi	a5,a5,-1932 # 200026c0 <pxLwrrentTCB>
    20015e54:	0007b783          	ld	a5,0(a5)
    20015e58:	19843703          	ld	a4,408(s0)
    20015e5c:	1987b783          	ld	a5,408(a5)
    20015e60:	f8e7fce3          	bleu	a4,a5,20015df8 <xTaskNotifySendFromISR+0x11c>
    20015e64:	00100793          	li	a5,1
    20015e68:	00f13823          	sd	a5,16(sp)
    20015e6c:	f8dff06f          	j	20015df8 <xTaskNotifySendFromISR+0x11c>
    20015e70:	00048593          	mv	a1,s1
    20015e74:	fffed517          	auipc	a0,0xfffed
    20015e78:	a4450513          	addi	a0,a0,-1468 # 200028b8 <xPendingReadyList>
    20015e7c:	570000ef          	jal	ra,200163ec <vListInsertEnd>
    20015e80:	fcdff06f          	j	20015e4c <xTaskNotifySendFromISR+0x170>
    20015e84:	04813083          	ld	ra,72(sp)
    20015e88:	04013403          	ld	s0,64(sp)
    20015e8c:	03813483          	ld	s1,56(sp)
    20015e90:	03013903          	ld	s2,48(sp)
    20015e94:	02813983          	ld	s3,40(sp)
    20015e98:	02013a03          	ld	s4,32(sp)
    20015e9c:	05010113          	addi	sp,sp,80
    20015ea0:	00008067          	ret

0000000020015ea4 <xPortIsTaskHandleValid>:
    20015ea4:	fe010113          	addi	sp,sp,-32
    20015ea8:	ffffb797          	auipc	a5,0xffffb
    20015eac:	d887b783          	ld	a5,-632(a5) # 20010c30 <__section_globalRodataCmn_data_start+0x30>
    20015eb0:	00113c23          	sd	ra,24(sp)
    20015eb4:	0007b703          	ld	a4,0(a5)
    20015eb8:	00e13423          	sd	a4,8(sp)
    20015ebc:	00078713          	mv	a4,a5
    20015ec0:	00000793          	li	a5,0
    20015ec4:	00050c63          	beqz	a0,20015edc <xPortIsTaskHandleValid+0x38>
    20015ec8:	11853783          	ld	a5,280(a0)
    20015ecc:	00853503          	ld	a0,8(a0)
    20015ed0:	fff7c793          	not	a5,a5
    20015ed4:	40a787b3          	sub	a5,a5,a0
    20015ed8:	0017b793          	seqz	a5,a5
    20015edc:	00078513          	mv	a0,a5
    20015ee0:	00813683          	ld	a3,8(sp)
    20015ee4:	00073783          	ld	a5,0(a4)
    20015ee8:	00f68463          	beq	a3,a5,20015ef0 <xPortIsTaskHandleValid+0x4c>
    20015eec:	1490a0ef          	jal	ra,20020834 <__stack_chk_fail>
    20015ef0:	01813083          	ld	ra,24(sp)
    20015ef4:	02010113          	addi	sp,sp,32
    20015ef8:	00008067          	ret

0000000020015efc <vPortErrorHook>:
    20015efc:	fe010113          	addi	sp,sp,-32
    20015f00:	00113c23          	sd	ra,24(sp)
    20015f04:	ffffb797          	auipc	a5,0xffffb
    20015f08:	d2c7b783          	ld	a5,-724(a5) # 20010c30 <__section_globalRodataCmn_data_start+0x30>
    20015f0c:	0007b703          	ld	a4,0(a5)
    20015f10:	00e13423          	sd	a4,8(sp)
    20015f14:	00813703          	ld	a4,8(sp)
    20015f18:	0007b783          	ld	a5,0(a5)
    20015f1c:	00f70463          	beq	a4,a5,20015f24 <vPortErrorHook+0x28>
    20015f20:	1150a0ef          	jal	ra,20020834 <__stack_chk_fail>
    20015f24:	01813083          	ld	ra,24(sp)
    20015f28:	0005859b          	sext.w	a1,a1
    20015f2c:	02010113          	addi	sp,sp,32
    20015f30:	1400406f          	j	2001a070 <lwrtosHookError>

0000000020015f34 <vPortTickHook>:
    20015f34:	fe010113          	addi	sp,sp,-32
    20015f38:	00813823          	sd	s0,16(sp)
    20015f3c:	ffffb417          	auipc	s0,0xffffb
    20015f40:	cf443403          	ld	s0,-780(s0) # 20010c30 <__section_globalRodataCmn_data_start+0x30>
    20015f44:	00043783          	ld	a5,0(s0)
    20015f48:	00113c23          	sd	ra,24(sp)
    20015f4c:	00f13423          	sd	a5,8(sp)
    20015f50:	dd9fe0ef          	jal	ra,20014d28 <xTaskGetTickCount>
    20015f54:	00813703          	ld	a4,8(sp)
    20015f58:	00043783          	ld	a5,0(s0)
    20015f5c:	00f70463          	beq	a4,a5,20015f64 <vPortTickHook+0x30>
    20015f60:	0d50a0ef          	jal	ra,20020834 <__stack_chk_fail>
    20015f64:	01013403          	ld	s0,16(sp)
    20015f68:	01813083          	ld	ra,24(sp)
    20015f6c:	0005051b          	sext.w	a0,a0
    20015f70:	02010113          	addi	sp,sp,32
    20015f74:	35c0b06f          	j	200212d0 <lwrtosHookTimerTick>

0000000020015f78 <vMutexInitHeldList>:
    20015f78:	fe010113          	addi	sp,sp,-32
    20015f7c:	00113c23          	sd	ra,24(sp)
    20015f80:	ffffb797          	auipc	a5,0xffffb
    20015f84:	cb07b783          	ld	a5,-848(a5) # 20010c30 <__section_globalRodataCmn_data_start+0x30>
    20015f88:	0007b703          	ld	a4,0(a5)
    20015f8c:	00e13423          	sd	a4,8(sp)
    20015f90:	00813703          	ld	a4,8(sp)
    20015f94:	0007b783          	ld	a5,0(a5)
    20015f98:	00f70463          	beq	a4,a5,20015fa0 <vMutexInitHeldList+0x28>
    20015f9c:	0990a0ef          	jal	ra,20020834 <__stack_chk_fail>
    20015fa0:	01813083          	ld	ra,24(sp)
    20015fa4:	02010113          	addi	sp,sp,32
    20015fa8:	00008067          	ret

0000000020015fac <xPortGetExceptionNesting>:
    20015fac:	fe010113          	addi	sp,sp,-32
    20015fb0:	00113c23          	sd	ra,24(sp)
    20015fb4:	ffffb797          	auipc	a5,0xffffb
    20015fb8:	c7c7b783          	ld	a5,-900(a5) # 20010c30 <__section_globalRodataCmn_data_start+0x30>
    20015fbc:	0007b703          	ld	a4,0(a5)
    20015fc0:	00e13423          	sd	a4,8(sp)
    20015fc4:	fffed717          	auipc	a4,0xfffed
    20015fc8:	9a470713          	addi	a4,a4,-1628 # 20002968 <xPortExceptionNesting>
    20015fcc:	00073503          	ld	a0,0(a4)
    20015fd0:	00813703          	ld	a4,8(sp)
    20015fd4:	0007b783          	ld	a5,0(a5)
    20015fd8:	00f70463          	beq	a4,a5,20015fe0 <xPortGetExceptionNesting+0x34>
    20015fdc:	0590a0ef          	jal	ra,20020834 <__stack_chk_fail>
    20015fe0:	01813083          	ld	ra,24(sp)
    20015fe4:	02010113          	addi	sp,sp,32
    20015fe8:	00008067          	ret

0000000020015fec <vPortSetupTimer>:
    20015fec:	fe010113          	addi	sp,sp,-32
    20015ff0:	00813823          	sd	s0,16(sp)
    20015ff4:	ffffb417          	auipc	s0,0xffffb
    20015ff8:	c3c43403          	ld	s0,-964(s0) # 20010c30 <__section_globalRodataCmn_data_start+0x30>
    20015ffc:	00043783          	ld	a5,0(s0)
    20016000:	00113c23          	sd	ra,24(sp)
    20016004:	00f13423          	sd	a5,8(sp)
    20016008:	029030ef          	jal	ra,20019830 <lwrtosHookGetTimerPeriod>
    2001600c:	fffed797          	auipc	a5,0xfffed
    20016010:	96a7b623          	sd	a0,-1684(a5) # 20002978 <uxPortSysclkMtimePeriod>
    20016014:	c01027f3          	rdtime	a5
    20016018:	00f50533          	add	a0,a0,a5
    2001601c:	fffed797          	auipc	a5,0xfffed
    20016020:	96a7b223          	sd	a0,-1692(a5) # 20002980 <uxPortSysMtimeCmp>
    20016024:	00813703          	ld	a4,8(sp)
    20016028:	00043783          	ld	a5,0(s0)
    2001602c:	00f70463          	beq	a4,a5,20016034 <vPortSetupTimer+0x48>
    20016030:	0050a0ef          	jal	ra,20020834 <__stack_chk_fail>
    20016034:	01013403          	ld	s0,16(sp)
    20016038:	01813083          	ld	ra,24(sp)
    2001603c:	02010113          	addi	sp,sp,32
    20016040:	5f50106f          	j	20017e34 <sbiSetTimer>

0000000020016044 <vPortProcessSystemTick>:
    20016044:	fd010113          	addi	sp,sp,-48
    20016048:	02113423          	sd	ra,40(sp)
    2001604c:	02813023          	sd	s0,32(sp)
    20016050:	00913c23          	sd	s1,24(sp)
    20016054:	01213823          	sd	s2,16(sp)
    20016058:	ffffb797          	auipc	a5,0xffffb
    2001605c:	bd87b783          	ld	a5,-1064(a5) # 20010c30 <__section_globalRodataCmn_data_start+0x30>
    20016060:	0007b703          	ld	a4,0(a5)
    20016064:	00e13423          	sd	a4,8(sp)
    20016068:	c0102573          	rdtime	a0
    2001606c:	fffed717          	auipc	a4,0xfffed
    20016070:	91470713          	addi	a4,a4,-1772 # 20002980 <uxPortSysMtimeCmp>
    20016074:	fffed697          	auipc	a3,0xfffed
    20016078:	90468693          	addi	a3,a3,-1788 # 20002978 <uxPortSysclkMtimePeriod>
    2001607c:	00073703          	ld	a4,0(a4)
    20016080:	0006b683          	ld	a3,0(a3)
    20016084:	00000493          	li	s1,0
    20016088:	00078413          	mv	s0,a5
    2001608c:	00d70733          	add	a4,a4,a3
    20016090:	00148493          	addi	s1,s1,1
    20016094:	fee57ce3          	bleu	a4,a0,2001608c <vPortProcessSystemTick+0x48>
    20016098:	00d50533          	add	a0,a0,a3
    2001609c:	fffed797          	auipc	a5,0xfffed
    200160a0:	8ee7b223          	sd	a4,-1820(a5) # 20002980 <uxPortSysMtimeCmp>
    200160a4:	00000913          	li	s2,0
    200160a8:	58d010ef          	jal	ra,20017e34 <sbiSetTimer>
    200160ac:	00991a63          	bne	s2,s1,200160c0 <vPortProcessSystemTick+0x7c>
    200160b0:	00813703          	ld	a4,8(sp)
    200160b4:	00043783          	ld	a5,0(s0)
    200160b8:	00f70a63          	beq	a4,a5,200160cc <vPortProcessSystemTick+0x88>
    200160bc:	7780a0ef          	jal	ra,20020834 <__stack_chk_fail>
    200160c0:	f1cff0ef          	jal	ra,200157dc <vTaskProcessSystemTickFromISR>
    200160c4:	00190913          	addi	s2,s2,1
    200160c8:	fe5ff06f          	j	200160ac <vPortProcessSystemTick+0x68>
    200160cc:	02813083          	ld	ra,40(sp)
    200160d0:	02013403          	ld	s0,32(sp)
    200160d4:	01813483          	ld	s1,24(sp)
    200160d8:	01013903          	ld	s2,16(sp)
    200160dc:	03010113          	addi	sp,sp,48
    200160e0:	00008067          	ret

00000000200160e4 <vPortSetWordAlignedBuffer>:
    200160e4:	fe010113          	addi	sp,sp,-32
    200160e8:	00113c23          	sd	ra,24(sp)
    200160ec:	ffffb797          	auipc	a5,0xffffb
    200160f0:	b447b783          	ld	a5,-1212(a5) # 20010c30 <__section_globalRodataCmn_data_start+0x30>
    200160f4:	0007b703          	ld	a4,0(a5)
    200160f8:	00365613          	srli	a2,a2,0x3
    200160fc:	00e13423          	sd	a4,8(sp)
    20016100:	00000713          	li	a4,0
    20016104:	00c71a63          	bne	a4,a2,20016118 <vPortSetWordAlignedBuffer+0x34>
    20016108:	00813703          	ld	a4,8(sp)
    2001610c:	0007b783          	ld	a5,0(a5)
    20016110:	00f70e63          	beq	a4,a5,2001612c <vPortSetWordAlignedBuffer+0x48>
    20016114:	7200a0ef          	jal	ra,20020834 <__stack_chk_fail>
    20016118:	00371693          	slli	a3,a4,0x3
    2001611c:	00d506b3          	add	a3,a0,a3
    20016120:	00b6b023          	sd	a1,0(a3)
    20016124:	00170713          	addi	a4,a4,1
    20016128:	fddff06f          	j	20016104 <vPortSetWordAlignedBuffer+0x20>
    2001612c:	01813083          	ld	ra,24(sp)
    20016130:	02010113          	addi	sp,sp,32
    20016134:	00008067          	ret

0000000020016138 <xPortCopyDataToTask>:
    20016138:	fc010113          	addi	sp,sp,-64
    2001613c:	02813823          	sd	s0,48(sp)
    20016140:	ffffb417          	auipc	s0,0xffffb
    20016144:	af043403          	ld	s0,-1296(s0) # 20010c30 <__section_globalRodataCmn_data_start+0x30>
    20016148:	00043783          	ld	a5,0(s0)
    2001614c:	02913423          	sd	s1,40(sp)
    20016150:	00b13423          	sd	a1,8(sp)
    20016154:	00c13023          	sd	a2,0(sp)
    20016158:	02113c23          	sd	ra,56(sp)
    2001615c:	00050493          	mv	s1,a0
    20016160:	00f13c23          	sd	a5,24(sp)
    20016164:	c45fe0ef          	jal	ra,20014da8 <xTaskIsSchedulerStarted>
    20016168:	00013603          	ld	a2,0(sp)
    2001616c:	00813583          	ld	a1,8(sp)
    20016170:	00050863          	beqz	a0,20016180 <xPortCopyDataToTask+0x48>
    20016174:	ffffb797          	auipc	a5,0xffffb
    20016178:	ad47b783          	ld	a5,-1324(a5) # 20010c48 <__section_globalRodataCmn_data_start+0x48>
    2001617c:	0007b783          	ld	a5,0(a5)
    20016180:	00048513          	mv	a0,s1
    20016184:	2340a0ef          	jal	ra,200203b8 <memcpy>
    20016188:	01813703          	ld	a4,24(sp)
    2001618c:	00043783          	ld	a5,0(s0)
    20016190:	00100513          	li	a0,1
    20016194:	00f70463          	beq	a4,a5,2001619c <xPortCopyDataToTask+0x64>
    20016198:	69c0a0ef          	jal	ra,20020834 <__stack_chk_fail>
    2001619c:	03813083          	ld	ra,56(sp)
    200161a0:	03013403          	ld	s0,48(sp)
    200161a4:	02813483          	ld	s1,40(sp)
    200161a8:	04010113          	addi	sp,sp,64
    200161ac:	00008067          	ret

00000000200161b0 <xPortCopyDataFromTask>:
    200161b0:	fc010113          	addi	sp,sp,-64
    200161b4:	02813823          	sd	s0,48(sp)
    200161b8:	ffffb417          	auipc	s0,0xffffb
    200161bc:	a7843403          	ld	s0,-1416(s0) # 20010c30 <__section_globalRodataCmn_data_start+0x30>
    200161c0:	00043783          	ld	a5,0(s0)
    200161c4:	02913423          	sd	s1,40(sp)
    200161c8:	00b13423          	sd	a1,8(sp)
    200161cc:	00c13023          	sd	a2,0(sp)
    200161d0:	02113c23          	sd	ra,56(sp)
    200161d4:	00050493          	mv	s1,a0
    200161d8:	00f13c23          	sd	a5,24(sp)
    200161dc:	bcdfe0ef          	jal	ra,20014da8 <xTaskIsSchedulerStarted>
    200161e0:	00013603          	ld	a2,0(sp)
    200161e4:	00813583          	ld	a1,8(sp)
    200161e8:	00050863          	beqz	a0,200161f8 <xPortCopyDataFromTask+0x48>
    200161ec:	ffffb797          	auipc	a5,0xffffb
    200161f0:	a5c7b783          	ld	a5,-1444(a5) # 20010c48 <__section_globalRodataCmn_data_start+0x48>
    200161f4:	0007b783          	ld	a5,0(a5)
    200161f8:	00048513          	mv	a0,s1
    200161fc:	1bc0a0ef          	jal	ra,200203b8 <memcpy>
    20016200:	01813703          	ld	a4,24(sp)
    20016204:	00043783          	ld	a5,0(s0)
    20016208:	00100513          	li	a0,1
    2001620c:	00f70463          	beq	a4,a5,20016214 <xPortCopyDataFromTask+0x64>
    20016210:	6240a0ef          	jal	ra,20020834 <__stack_chk_fail>
    20016214:	03813083          	ld	ra,56(sp)
    20016218:	03013403          	ld	s0,48(sp)
    2001621c:	02813483          	ld	s1,40(sp)
    20016220:	04010113          	addi	sp,sp,64
    20016224:	00008067          	ret

0000000020016228 <vPortHandleExtIrq>:
    20016228:	fe010113          	addi	sp,sp,-32
    2001622c:	00113c23          	sd	ra,24(sp)
    20016230:	ffffb797          	auipc	a5,0xffffb
    20016234:	a007b783          	ld	a5,-1536(a5) # 20010c30 <__section_globalRodataCmn_data_start+0x30>
    20016238:	0007b703          	ld	a4,0(a5)
    2001623c:	00e13423          	sd	a4,8(sp)
    20016240:	00813703          	ld	a4,8(sp)
    20016244:	0007b783          	ld	a5,0(a5)
    20016248:	00f70463          	beq	a4,a5,20016250 <vPortHandleExtIrq+0x28>
    2001624c:	5e80a0ef          	jal	ra,20020834 <__stack_chk_fail>
    20016250:	01813083          	ld	ra,24(sp)
    20016254:	02010113          	addi	sp,sp,32
    20016258:	9d1fd06f          	j	20013c28 <lwrtosRiscvExtIrqHook>

000000002001625c <vPortHandleSwIrq>:
    2001625c:	fe010113          	addi	sp,sp,-32
    20016260:	00113c23          	sd	ra,24(sp)
    20016264:	ffffb797          	auipc	a5,0xffffb
    20016268:	9cc7b783          	ld	a5,-1588(a5) # 20010c30 <__section_globalRodataCmn_data_start+0x30>
    2001626c:	0007b703          	ld	a4,0(a5)
    20016270:	00e13423          	sd	a4,8(sp)
    20016274:	00813703          	ld	a4,8(sp)
    20016278:	0007b783          	ld	a5,0(a5)
    2001627c:	00f70463          	beq	a4,a5,20016284 <vPortHandleSwIrq+0x28>
    20016280:	5b40a0ef          	jal	ra,20020834 <__stack_chk_fail>
    20016284:	01813083          	ld	ra,24(sp)
    20016288:	02010113          	addi	sp,sp,32
    2001628c:	4800106f          	j	2001770c <lwrtosRiscvSwIrqHook>

0000000020016290 <vPortHandleTimerIrq>:
    20016290:	fe010113          	addi	sp,sp,-32
    20016294:	00113c23          	sd	ra,24(sp)
    20016298:	ffffb797          	auipc	a5,0xffffb
    2001629c:	9987b783          	ld	a5,-1640(a5) # 20010c30 <__section_globalRodataCmn_data_start+0x30>
    200162a0:	0007b703          	ld	a4,0(a5)
    200162a4:	00e13423          	sd	a4,8(sp)
    200162a8:	00813703          	ld	a4,8(sp)
    200162ac:	0007b783          	ld	a5,0(a5)
    200162b0:	00f70463          	beq	a4,a5,200162b8 <vPortHandleTimerIrq+0x28>
    200162b4:	5800a0ef          	jal	ra,20020834 <__stack_chk_fail>
    200162b8:	01813083          	ld	ra,24(sp)
    200162bc:	02010113          	addi	sp,sp,32
    200162c0:	d85ff06f          	j	20016044 <vPortProcessSystemTick>

00000000200162c4 <vPortHandleException>:
    200162c4:	fc010113          	addi	sp,sp,-64
    200162c8:	02813823          	sd	s0,48(sp)
    200162cc:	ffffb797          	auipc	a5,0xffffb
    200162d0:	9647b783          	ld	a5,-1692(a5) # 20010c30 <__section_globalRodataCmn_data_start+0x30>
    200162d4:	02113c23          	sd	ra,56(sp)
    200162d8:	0007b703          	ld	a4,0(a5)
    200162dc:	00078413          	mv	s0,a5
    200162e0:	02e13423          	sd	a4,40(sp)
    200162e4:	02051463          	bnez	a0,2001630c <vPortHandleException+0x48>
    200162e8:	00d13c23          	sd	a3,24(sp)
    200162ec:	00c13823          	sd	a2,16(sp)
    200162f0:	00b13423          	sd	a1,8(sp)
    200162f4:	00a13023          	sd	a0,0(sp)
    200162f8:	5c8030ef          	jal	ra,200198c0 <appHalt>
    200162fc:	01813683          	ld	a3,24(sp)
    20016300:	01013603          	ld	a2,16(sp)
    20016304:	00813583          	ld	a1,8(sp)
    20016308:	00013503          	ld	a0,0(sp)
    2001630c:	02813703          	ld	a4,40(sp)
    20016310:	00043783          	ld	a5,0(s0)
    20016314:	00f70463          	beq	a4,a5,2001631c <vPortHandleException+0x58>
    20016318:	51c0a0ef          	jal	ra,20020834 <__stack_chk_fail>
    2001631c:	03013403          	ld	s0,48(sp)
    20016320:	03813083          	ld	ra,56(sp)
    20016324:	04010113          	addi	sp,sp,64
    20016328:	4e40106f          	j	2001780c <lwrtosRiscvExceptionHook>

000000002001632c <vListInitialiseItem>:
    2001632c:	fe010113          	addi	sp,sp,-32
    20016330:	00113c23          	sd	ra,24(sp)
    20016334:	ffffb797          	auipc	a5,0xffffb
    20016338:	8fc7b783          	ld	a5,-1796(a5) # 20010c30 <__section_globalRodataCmn_data_start+0x30>
    2001633c:	0007b703          	ld	a4,0(a5)
    20016340:	00e13423          	sd	a4,8(sp)
    20016344:	02053023          	sd	zero,32(a0)
    20016348:	00813703          	ld	a4,8(sp)
    2001634c:	0007b783          	ld	a5,0(a5)
    20016350:	00f70463          	beq	a4,a5,20016358 <vListInitialiseItem+0x2c>
    20016354:	4e00a0ef          	jal	ra,20020834 <__stack_chk_fail>
    20016358:	01813083          	ld	ra,24(sp)
    2001635c:	02010113          	addi	sp,sp,32
    20016360:	00008067          	ret

0000000020016364 <vListInsertOrdered>:
    20016364:	fe010113          	addi	sp,sp,-32
    20016368:	ffffb797          	auipc	a5,0xffffb
    2001636c:	8c87b783          	ld	a5,-1848(a5) # 20010c30 <__section_globalRodataCmn_data_start+0x30>
    20016370:	00113c23          	sd	ra,24(sp)
    20016374:	0007b703          	ld	a4,0(a5)
    20016378:	fff00613          	li	a2,-1
    2001637c:	00e13423          	sd	a4,8(sp)
    20016380:	0005b683          	ld	a3,0(a1)
    20016384:	00078713          	mv	a4,a5
    20016388:	01050793          	addi	a5,a0,16
    2001638c:	04c69263          	bne	a3,a2,200163d0 <vListInsertOrdered+0x6c>
    20016390:	02053783          	ld	a5,32(a0)
    20016394:	0087b683          	ld	a3,8(a5)
    20016398:	00d5b423          	sd	a3,8(a1)
    2001639c:	0085b683          	ld	a3,8(a1)
    200163a0:	00b6b823          	sd	a1,16(a3)
    200163a4:	00f5b823          	sd	a5,16(a1)
    200163a8:	00b7b423          	sd	a1,8(a5)
    200163ac:	02a5b023          	sd	a0,32(a1)
    200163b0:	00053783          	ld	a5,0(a0)
    200163b4:	00178793          	addi	a5,a5,1
    200163b8:	00f53023          	sd	a5,0(a0)
    200163bc:	00813683          	ld	a3,8(sp)
    200163c0:	00073783          	ld	a5,0(a4)
    200163c4:	00f68e63          	beq	a3,a5,200163e0 <vListInsertOrdered+0x7c>
    200163c8:	46c0a0ef          	jal	ra,20020834 <__stack_chk_fail>
    200163cc:	0087b783          	ld	a5,8(a5)
    200163d0:	0087b603          	ld	a2,8(a5)
    200163d4:	00063603          	ld	a2,0(a2) # 40000 <__imem_physical_size+0x12000>
    200163d8:	fec6fae3          	bleu	a2,a3,200163cc <vListInsertOrdered+0x68>
    200163dc:	fb9ff06f          	j	20016394 <vListInsertOrdered+0x30>
    200163e0:	01813083          	ld	ra,24(sp)
    200163e4:	02010113          	addi	sp,sp,32
    200163e8:	00008067          	ret

00000000200163ec <vListInsertEnd>:
    200163ec:	fe010113          	addi	sp,sp,-32
    200163f0:	00113c23          	sd	ra,24(sp)
    200163f4:	ffffb717          	auipc	a4,0xffffb
    200163f8:	83c73703          	ld	a4,-1988(a4) # 20010c30 <__section_globalRodataCmn_data_start+0x30>
    200163fc:	00073783          	ld	a5,0(a4)
    20016400:	00f13423          	sd	a5,8(sp)
    20016404:	00853783          	ld	a5,8(a0)
    20016408:	00f5b423          	sd	a5,8(a1)
    2001640c:	0107b683          	ld	a3,16(a5)
    20016410:	00d5b823          	sd	a3,16(a1)
    20016414:	0107b683          	ld	a3,16(a5)
    20016418:	00b6b423          	sd	a1,8(a3)
    2001641c:	00b7b823          	sd	a1,16(a5)
    20016420:	02a5b023          	sd	a0,32(a1)
    20016424:	00053783          	ld	a5,0(a0)
    20016428:	00178793          	addi	a5,a5,1
    2001642c:	00f53023          	sd	a5,0(a0)
    20016430:	00813683          	ld	a3,8(sp)
    20016434:	00073783          	ld	a5,0(a4)
    20016438:	00f68463          	beq	a3,a5,20016440 <vListInsertEnd+0x54>
    2001643c:	3f80a0ef          	jal	ra,20020834 <__stack_chk_fail>
    20016440:	01813083          	ld	ra,24(sp)
    20016444:	02010113          	addi	sp,sp,32
    20016448:	00008067          	ret

000000002001644c <vListRemove>:
    2001644c:	fe010113          	addi	sp,sp,-32
    20016450:	00113c23          	sd	ra,24(sp)
    20016454:	ffffa797          	auipc	a5,0xffffa
    20016458:	7dc7b783          	ld	a5,2012(a5) # 20010c30 <__section_globalRodataCmn_data_start+0x30>
    2001645c:	0007b703          	ld	a4,0(a5)
    20016460:	00e13423          	sd	a4,8(sp)
    20016464:	01053683          	ld	a3,16(a0)
    20016468:	00853703          	ld	a4,8(a0)
    2001646c:	00d73823          	sd	a3,16(a4)
    20016470:	00853683          	ld	a3,8(a0)
    20016474:	01053703          	ld	a4,16(a0)
    20016478:	00d73423          	sd	a3,8(a4)
    2001647c:	02053703          	ld	a4,32(a0)
    20016480:	00873683          	ld	a3,8(a4)
    20016484:	00a69663          	bne	a3,a0,20016490 <vListRemove+0x44>
    20016488:	01053683          	ld	a3,16(a0)
    2001648c:	00d73423          	sd	a3,8(a4)
    20016490:	02053023          	sd	zero,32(a0)
    20016494:	00073683          	ld	a3,0(a4)
    20016498:	fff68693          	addi	a3,a3,-1
    2001649c:	00d73023          	sd	a3,0(a4)
    200164a0:	00813703          	ld	a4,8(sp)
    200164a4:	0007b783          	ld	a5,0(a5)
    200164a8:	00f70463          	beq	a4,a5,200164b0 <vListRemove+0x64>
    200164ac:	3880a0ef          	jal	ra,20020834 <__stack_chk_fail>
    200164b0:	01813083          	ld	ra,24(sp)
    200164b4:	02010113          	addi	sp,sp,32
    200164b8:	00008067          	ret

00000000200164bc <vListRelocateOrderedItem>:
    200164bc:	fd010113          	addi	sp,sp,-48
    200164c0:	02813023          	sd	s0,32(sp)
    200164c4:	ffffa417          	auipc	s0,0xffffa
    200164c8:	76c43403          	ld	s0,1900(s0) # 20010c30 <__section_globalRodataCmn_data_start+0x30>
    200164cc:	00043783          	ld	a5,0(s0)
    200164d0:	02113423          	sd	ra,40(sp)
    200164d4:	00913c23          	sd	s1,24(sp)
    200164d8:	01213823          	sd	s2,16(sp)
    200164dc:	00f13423          	sd	a5,8(sp)
    200164e0:	00b53023          	sd	a1,0(a0)
    200164e4:	02053903          	ld	s2,32(a0)
    200164e8:	02090e63          	beqz	s2,20016524 <vListRelocateOrderedItem+0x68>
    200164ec:	00050493          	mv	s1,a0
    200164f0:	f5dff0ef          	jal	ra,2001644c <vListRemove>
    200164f4:	00813703          	ld	a4,8(sp)
    200164f8:	00043783          	ld	a5,0(s0)
    200164fc:	00f70463          	beq	a4,a5,20016504 <vListRelocateOrderedItem+0x48>
    20016500:	3340a0ef          	jal	ra,20020834 <__stack_chk_fail>
    20016504:	02013403          	ld	s0,32(sp)
    20016508:	02813083          	ld	ra,40(sp)
    2001650c:	00048593          	mv	a1,s1
    20016510:	00090513          	mv	a0,s2
    20016514:	01813483          	ld	s1,24(sp)
    20016518:	01013903          	ld	s2,16(sp)
    2001651c:	03010113          	addi	sp,sp,48
    20016520:	e45ff06f          	j	20016364 <vListInsertOrdered>
    20016524:	00813703          	ld	a4,8(sp)
    20016528:	00043783          	ld	a5,0(s0)
    2001652c:	fcf71ae3          	bne	a4,a5,20016500 <vListRelocateOrderedItem+0x44>
    20016530:	02813083          	ld	ra,40(sp)
    20016534:	02013403          	ld	s0,32(sp)
    20016538:	01813483          	ld	s1,24(sp)
    2001653c:	01013903          	ld	s2,16(sp)
    20016540:	03010113          	addi	sp,sp,48
    20016544:	00008067          	ret

0000000020016548 <xListIsListEmpty>:
    20016548:	fe010113          	addi	sp,sp,-32
    2001654c:	00113c23          	sd	ra,24(sp)
    20016550:	ffffa797          	auipc	a5,0xffffa
    20016554:	6e07b783          	ld	a5,1760(a5) # 20010c30 <__section_globalRodataCmn_data_start+0x30>
    20016558:	0007b703          	ld	a4,0(a5)
    2001655c:	00e13423          	sd	a4,8(sp)
    20016560:	00053503          	ld	a0,0(a0)
    20016564:	00813703          	ld	a4,8(sp)
    20016568:	0007b783          	ld	a5,0(a5)
    2001656c:	00f70463          	beq	a4,a5,20016574 <xListIsListEmpty+0x2c>
    20016570:	2c40a0ef          	jal	ra,20020834 <__stack_chk_fail>
    20016574:	01813083          	ld	ra,24(sp)
    20016578:	00153513          	seqz	a0,a0
    2001657c:	02010113          	addi	sp,sp,32
    20016580:	00008067          	ret

0000000020016584 <xListIsContainedWithin>:
    20016584:	fe010113          	addi	sp,sp,-32
    20016588:	00113c23          	sd	ra,24(sp)
    2001658c:	ffffa717          	auipc	a4,0xffffa
    20016590:	6a473703          	ld	a4,1700(a4) # 20010c30 <__section_globalRodataCmn_data_start+0x30>
    20016594:	00073783          	ld	a5,0(a4)
    20016598:	00f13423          	sd	a5,8(sp)
    2001659c:	0205b783          	ld	a5,32(a1)
    200165a0:	00813683          	ld	a3,8(sp)
    200165a4:	40a78533          	sub	a0,a5,a0
    200165a8:	00073783          	ld	a5,0(a4)
    200165ac:	00f68463          	beq	a3,a5,200165b4 <xListIsContainedWithin+0x30>
    200165b0:	2840a0ef          	jal	ra,20020834 <__stack_chk_fail>
    200165b4:	01813083          	ld	ra,24(sp)
    200165b8:	00153513          	seqz	a0,a0
    200165bc:	02010113          	addi	sp,sp,32
    200165c0:	00008067          	ret

00000000200165c4 <xListIsContainedWithinAList>:
    200165c4:	fe010113          	addi	sp,sp,-32
    200165c8:	00113c23          	sd	ra,24(sp)
    200165cc:	ffffa797          	auipc	a5,0xffffa
    200165d0:	6647b783          	ld	a5,1636(a5) # 20010c30 <__section_globalRodataCmn_data_start+0x30>
    200165d4:	0007b703          	ld	a4,0(a5)
    200165d8:	00e13423          	sd	a4,8(sp)
    200165dc:	02053503          	ld	a0,32(a0)
    200165e0:	00813703          	ld	a4,8(sp)
    200165e4:	0007b783          	ld	a5,0(a5)
    200165e8:	00f70463          	beq	a4,a5,200165f0 <xListIsContainedWithinAList+0x2c>
    200165ec:	2480a0ef          	jal	ra,20020834 <__stack_chk_fail>
    200165f0:	01813083          	ld	ra,24(sp)
    200165f4:	00a03533          	snez	a0,a0
    200165f8:	02010113          	addi	sp,sp,32
    200165fc:	00008067          	ret

0000000020016600 <debugBufferIsFull>:
    20016600:	fe010113          	addi	sp,sp,-32
    20016604:	00113c23          	sd	ra,24(sp)
    20016608:	ffffa597          	auipc	a1,0xffffa
    2001660c:	6285b583          	ld	a1,1576(a1) # 20010c30 <__section_globalRodataCmn_data_start+0x30>
    20016610:	0005b783          	ld	a5,0(a1)
    20016614:	80000737          	lui	a4,0x80000
    20016618:	fff74713          	not	a4,a4
    2001661c:	00f13423          	sd	a5,8(sp)
    20016620:	fffec797          	auipc	a5,0xfffec
    20016624:	37878793          	addi	a5,a5,888 # 20002998 <debugBuffer>
    20016628:	0087b603          	ld	a2,8(a5)
    2001662c:	00862683          	lw	a3,8(a2)
    20016630:	00462503          	lw	a0,4(a2)
    20016634:	00d776b3          	and	a3,a4,a3
    20016638:	0015051b          	addiw	a0,a0,1
    2001663c:	02d577bb          	remuw	a5,a0,a3
    20016640:	00062703          	lw	a4,0(a2)
    20016644:	02f71263          	bne	a4,a5,20016668 <debugBufferIsFull+0x68>
    20016648:	01431737          	lui	a4,0x1431
    2001664c:	f0072703          	lw	a4,-256(a4) # 1430f00 <__emem_ptr+0x230b00>
    20016650:	fff00813          	li	a6,-1
    20016654:	00100513          	li	a0,1
    20016658:	0007071b          	sext.w	a4,a4
    2001665c:	01070c63          	beq	a4,a6,20016674 <debugBufferIsFull+0x74>
    20016660:	02d7773b          	remuw	a4,a4,a3
    20016664:	00e62023          	sw	a4,0(a2)
    20016668:	00062503          	lw	a0,0(a2)
    2001666c:	40f50533          	sub	a0,a0,a5
    20016670:	00153513          	seqz	a0,a0
    20016674:	00813703          	ld	a4,8(sp)
    20016678:	0005b783          	ld	a5,0(a1)
    2001667c:	00f70463          	beq	a4,a5,20016684 <debugBufferIsFull+0x84>
    20016680:	1b40a0ef          	jal	ra,20020834 <__stack_chk_fail>
    20016684:	01813083          	ld	ra,24(sp)
    20016688:	02010113          	addi	sp,sp,32
    2001668c:	00008067          	ret

0000000020016690 <debugBufferIsNotFull>:
    20016690:	fe010113          	addi	sp,sp,-32
    20016694:	00813823          	sd	s0,16(sp)
    20016698:	ffffa417          	auipc	s0,0xffffa
    2001669c:	59843403          	ld	s0,1432(s0) # 20010c30 <__section_globalRodataCmn_data_start+0x30>
    200166a0:	00043783          	ld	a5,0(s0)
    200166a4:	00113c23          	sd	ra,24(sp)
    200166a8:	00f13423          	sd	a5,8(sp)
    200166ac:	f55ff0ef          	jal	ra,20016600 <debugBufferIsFull>
    200166b0:	00813703          	ld	a4,8(sp)
    200166b4:	00043783          	ld	a5,0(s0)
    200166b8:	00f70463          	beq	a4,a5,200166c0 <debugBufferIsNotFull+0x30>
    200166bc:	1780a0ef          	jal	ra,20020834 <__stack_chk_fail>
    200166c0:	01813083          	ld	ra,24(sp)
    200166c4:	01013403          	ld	s0,16(sp)
    200166c8:	0005051b          	sext.w	a0,a0
    200166cc:	00153513          	seqz	a0,a0
    200166d0:	02010113          	addi	sp,sp,32
    200166d4:	00008067          	ret

00000000200166d8 <debugLogsFlush>:
    200166d8:	fe010113          	addi	sp,sp,-32
    200166dc:	00113c23          	sd	ra,24(sp)
    200166e0:	ffffa797          	auipc	a5,0xffffa
    200166e4:	5507b783          	ld	a5,1360(a5) # 20010c30 <__section_globalRodataCmn_data_start+0x30>
    200166e8:	0007b703          	ld	a4,0(a5)
    200166ec:	00e13423          	sd	a4,8(sp)
    200166f0:	80201073          	csrw	0x802,zero
    200166f4:	01431737          	lui	a4,0x1431
    200166f8:	e0a72023          	sw	a0,-512(a4) # 1430e00 <__emem_ptr+0x230a00>
    200166fc:	00813703          	ld	a4,8(sp)
    20016700:	0007b783          	ld	a5,0(a5)
    20016704:	00f70463          	beq	a4,a5,2001670c <debugLogsFlush+0x34>
    20016708:	12c0a0ef          	jal	ra,20020834 <__stack_chk_fail>
    2001670c:	01813083          	ld	ra,24(sp)
    20016710:	00100513          	li	a0,1
    20016714:	02010113          	addi	sp,sp,32
    20016718:	5950006f          	j	200174ac <irqFireSwGen>

000000002001671c <debugPutByteKernel.part.1>:
    2001671c:	fc010113          	addi	sp,sp,-64
    20016720:	02913423          	sd	s1,40(sp)
    20016724:	fffec497          	auipc	s1,0xfffec
    20016728:	27448493          	addi	s1,s1,628 # 20002998 <debugBuffer>
    2001672c:	03213023          	sd	s2,32(sp)
    20016730:	01313c23          	sd	s3,24(sp)
    20016734:	0084b903          	ld	s2,8(s1)
    20016738:	ffffa997          	auipc	s3,0xffffa
    2001673c:	4f89b983          	ld	s3,1272(s3) # 20010c30 <__section_globalRodataCmn_data_start+0x30>
    20016740:	0009b783          	ld	a5,0(s3)
    20016744:	01413823          	sd	s4,16(sp)
    20016748:	02113c23          	sd	ra,56(sp)
    2001674c:	02813823          	sd	s0,48(sp)
    20016750:	00892403          	lw	s0,8(s2)
    20016754:	00f13423          	sd	a5,8(sp)
    20016758:	800007b7          	lui	a5,0x80000
    2001675c:	fff7c793          	not	a5,a5
    20016760:	00050a13          	mv	s4,a0
    20016764:	0087f433          	and	s0,a5,s0
    20016768:	e99ff0ef          	jal	ra,20016600 <debugBufferIsFull>
    2001676c:	02050663          	beqz	a0,20016798 <debugPutByteKernel.part.1+0x7c>
    20016770:	00492503          	lw	a0,4(s2)
    20016774:	f65ff0ef          	jal	ra,200166d8 <debugLogsFlush>
    20016778:	1dcd6637          	lui	a2,0x1dcd6
    2001677c:	50060613          	addi	a2,a2,1280 # 1dcd6500 <__fbgpa_physical_size+0xfcd6500>
    20016780:	00000593          	li	a1,0
    20016784:	00000517          	auipc	a0,0x0
    20016788:	f0c50513          	addi	a0,a0,-244 # 20016690 <debugBufferIsNotFull>
    2001678c:	56d0a0ef          	jal	ra,200214f8 <osPTimerCondSpinWaitNs_IMPL>
    20016790:	00051463          	bnez	a0,20016798 <debugPutByteKernel.part.1+0x7c>
    20016794:	12c030ef          	jal	ra,200198c0 <appHalt>
    20016798:	0084b703          	ld	a4,8(s1)
    2001679c:	0004b783          	ld	a5,0(s1)
    200167a0:	00476683          	lwu	a3,4(a4)
    200167a4:	00d787b3          	add	a5,a5,a3
    200167a8:	01478023          	sb	s4,0(a5) # ffffffff80000000 <__elf_odp_cow_pa_ptr+0xdfffff80000000>
    200167ac:	00472783          	lw	a5,4(a4)
    200167b0:	0017879b          	addiw	a5,a5,1
    200167b4:	0287f7bb          	remuw	a5,a5,s0
    200167b8:	00f72223          	sw	a5,4(a4)
    200167bc:	00813703          	ld	a4,8(sp)
    200167c0:	0009b783          	ld	a5,0(s3)
    200167c4:	00f70463          	beq	a4,a5,200167cc <debugPutByteKernel.part.1+0xb0>
    200167c8:	06c0a0ef          	jal	ra,20020834 <__stack_chk_fail>
    200167cc:	03813083          	ld	ra,56(sp)
    200167d0:	03013403          	ld	s0,48(sp)
    200167d4:	02813483          	ld	s1,40(sp)
    200167d8:	02013903          	ld	s2,32(sp)
    200167dc:	01813983          	ld	s3,24(sp)
    200167e0:	01013a03          	ld	s4,16(sp)
    200167e4:	04010113          	addi	sp,sp,64
    200167e8:	00008067          	ret

00000000200167ec <debugPutchar>:
    200167ec:	fe010113          	addi	sp,sp,-32
    200167f0:	00113c23          	sd	ra,24(sp)
    200167f4:	ffffa797          	auipc	a5,0xffffa
    200167f8:	43c7b783          	ld	a5,1084(a5) # 20010c30 <__section_globalRodataCmn_data_start+0x30>
    200167fc:	0007b703          	ld	a4,0(a5)
    20016800:	00e13423          	sd	a4,8(sp)
    20016804:	00a00713          	li	a4,10
    20016808:	00e51463          	bne	a0,a4,20016810 <debugPutchar+0x24>
    2001680c:	00000513          	li	a0,0
    20016810:	fffec717          	auipc	a4,0xfffec
    20016814:	20174703          	lbu	a4,513(a4) # 20002a11 <bBufferEnabled>
    20016818:	02070263          	beqz	a4,2001683c <debugPutchar+0x50>
    2001681c:	00813703          	ld	a4,8(sp)
    20016820:	0007b783          	ld	a5,0(a5)
    20016824:	00f70463          	beq	a4,a5,2001682c <debugPutchar+0x40>
    20016828:	00c0a0ef          	jal	ra,20020834 <__stack_chk_fail>
    2001682c:	01813083          	ld	ra,24(sp)
    20016830:	0ff57513          	andi	a0,a0,255
    20016834:	02010113          	addi	sp,sp,32
    20016838:	ee5ff06f          	j	2001671c <debugPutByteKernel.part.1>
    2001683c:	00813703          	ld	a4,8(sp)
    20016840:	0007b783          	ld	a5,0(a5)
    20016844:	fef712e3          	bne	a4,a5,20016828 <debugPutchar+0x3c>
    20016848:	01813083          	ld	ra,24(sp)
    2001684c:	02010113          	addi	sp,sp,32
    20016850:	00008067          	ret

0000000020016854 <debugInit>:
    20016854:	fe010113          	addi	sp,sp,-32
    20016858:	00113c23          	sd	ra,24(sp)
    2001685c:	ffffa697          	auipc	a3,0xffffa
    20016860:	3d46b683          	ld	a3,980(a3) # 20010c30 <__section_globalRodataCmn_data_start+0x30>
    20016864:	0006b783          	ld	a5,0(a3)
    20016868:	00068613          	mv	a2,a3
    2001686c:	00200513          	li	a0,2
    20016870:	00f13423          	sd	a5,8(sp)
    20016874:	fffec797          	auipc	a5,0xfffec
    20016878:	1ac78793          	addi	a5,a5,428 # 20002a20 <debugBufferSize>
    2001687c:	0007b703          	ld	a4,0(a5)
    20016880:	fff00793          	li	a5,-1
    20016884:	0207d793          	srli	a5,a5,0x20
    20016888:	ff070713          	addi	a4,a4,-16
    2001688c:	08f77e63          	bleu	a5,a4,20016928 <debugInit+0xd4>
    20016890:	ffffa797          	auipc	a5,0xffffa
    20016894:	3b07b783          	ld	a5,944(a5) # 20010c40 <__section_globalRodataCmn_data_start+0x40>
    20016898:	fffec697          	auipc	a3,0xfffec
    2001689c:	10f6b023          	sd	a5,256(a3) # 20002998 <debugBuffer>
    200168a0:	00f707b3          	add	a5,a4,a5
    200168a4:	fffec697          	auipc	a3,0xfffec
    200168a8:	0ef6be23          	sd	a5,252(a3) # 200029a0 <debugBuffer+0x8>
    200168ac:	800006b7          	lui	a3,0x80000
    200168b0:	fff6c693          	not	a3,a3
    200168b4:	00d776b3          	and	a3,a4,a3
    200168b8:	00d7a423          	sw	a3,8(a5)
    200168bc:	f007c6b7          	lui	a3,0xf007c
    200168c0:	a116869b          	addiw	a3,a3,-1519
    200168c4:	00d7a623          	sw	a3,12(a5)
    200168c8:	0007a683          	lw	a3,0(a5)
    200168cc:	06069663          	bnez	a3,20016938 <debugInit+0xe4>
    200168d0:	0047a683          	lw	a3,4(a5)
    200168d4:	06069263          	bnez	a3,20016938 <debugInit+0xe4>
    200168d8:	014317b7          	lui	a5,0x1431
    200168dc:	f007a023          	sw	zero,-256(a5) # 1430f00 <__emem_ptr+0x230b00>
    200168e0:	e007a023          	sw	zero,-512(a5)
    200168e4:	fffec797          	auipc	a5,0xfffec
    200168e8:	0b478793          	addi	a5,a5,180 # 20002998 <debugBuffer>
    200168ec:	0087b683          	ld	a3,8(a5)
    200168f0:	0006e783          	lwu	a5,0(a3) # fffffffff007c000 <__elf_odp_cow_pa_ptr+0xdffffff007c000>
    200168f4:	02e7f7b3          	remu	a5,a5,a4
    200168f8:	00f6a023          	sw	a5,0(a3)
    200168fc:	0046e783          	lwu	a5,4(a3)
    20016900:	00e7ec63          	bltu	a5,a4,20016918 <debugInit+0xc4>
    20016904:	02e7f733          	remu	a4,a5,a4
    20016908:	014317b7          	lui	a5,0x1431
    2001690c:	0007071b          	sext.w	a4,a4
    20016910:	00e6a223          	sw	a4,4(a3)
    20016914:	e0e7a023          	sw	a4,-512(a5) # 1430e00 <__emem_ptr+0x230a00>
    20016918:	00100793          	li	a5,1
    2001691c:	fffec717          	auipc	a4,0xfffec
    20016920:	0ef70aa3          	sb	a5,245(a4) # 20002a11 <bBufferEnabled>
    20016924:	00000513          	li	a0,0
    20016928:	00813703          	ld	a4,8(sp)
    2001692c:	00063783          	ld	a5,0(a2)
    20016930:	02f70063          	beq	a4,a5,20016950 <debugInit+0xfc>
    20016934:	701090ef          	jal	ra,20020834 <__stack_chk_fail>
    20016938:	014316b7          	lui	a3,0x1431
    2001693c:	f006a583          	lw	a1,-256(a3) # 1430f00 <__emem_ptr+0x230b00>
    20016940:	00b7a023          	sw	a1,0(a5)
    20016944:	e006a683          	lw	a3,-512(a3)
    20016948:	00d7a223          	sw	a3,4(a5)
    2001694c:	f99ff06f          	j	200168e4 <debugInit+0x90>
    20016950:	01813083          	ld	ra,24(sp)
    20016954:	02010113          	addi	sp,sp,32
    20016958:	00008067          	ret

000000002001695c <dbgPutsKernel>:
    2001695c:	fd010113          	addi	sp,sp,-48
    20016960:	02813023          	sd	s0,32(sp)
    20016964:	ffffa417          	auipc	s0,0xffffa
    20016968:	2cc43403          	ld	s0,716(s0) # 20010c30 <__section_globalRodataCmn_data_start+0x30>
    2001696c:	00043783          	ld	a5,0(s0)
    20016970:	00913c23          	sd	s1,24(sp)
    20016974:	02113423          	sd	ra,40(sp)
    20016978:	00050493          	mv	s1,a0
    2001697c:	00f13423          	sd	a5,8(sp)
    20016980:	170090ef          	jal	ra,2001faf0 <lwrtosTaskCriticalEnter>
    20016984:	0004c503          	lbu	a0,0(s1)
    20016988:	00051c63          	bnez	a0,200169a0 <dbgPutsKernel+0x44>
    2001698c:	204090ef          	jal	ra,2001fb90 <lwrtosTaskCriticalExit>
    20016990:	00813703          	ld	a4,8(sp)
    20016994:	00043783          	ld	a5,0(s0)
    20016998:	00f70c63          	beq	a4,a5,200169b0 <dbgPutsKernel+0x54>
    2001699c:	699090ef          	jal	ra,20020834 <__stack_chk_fail>
    200169a0:	00000593          	li	a1,0
    200169a4:	e49ff0ef          	jal	ra,200167ec <debugPutchar>
    200169a8:	00148493          	addi	s1,s1,1
    200169ac:	fd9ff06f          	j	20016984 <dbgPutsKernel+0x28>
    200169b0:	fffec797          	auipc	a5,0xfffec
    200169b4:	fe878793          	addi	a5,a5,-24 # 20002998 <debugBuffer>
    200169b8:	0087b783          	ld	a5,8(a5)
    200169bc:	02013403          	ld	s0,32(sp)
    200169c0:	02813083          	ld	ra,40(sp)
    200169c4:	01813483          	ld	s1,24(sp)
    200169c8:	0047a503          	lw	a0,4(a5)
    200169cc:	03010113          	addi	sp,sp,48
    200169d0:	d09ff06f          	j	200166d8 <debugLogsFlush>

00000000200169d4 <dbgPrintfKernel>:
    200169d4:	fd010113          	addi	sp,sp,-48
    200169d8:	02813023          	sd	s0,32(sp)
    200169dc:	ffffa417          	auipc	s0,0xffffa
    200169e0:	25443403          	ld	s0,596(s0) # 20010c30 <__section_globalRodataCmn_data_start+0x30>
    200169e4:	00043783          	ld	a5,0(s0)
    200169e8:	02113423          	sd	ra,40(sp)
    200169ec:	00a13423          	sd	a0,8(sp)
    200169f0:	00f13c23          	sd	a5,24(sp)
    200169f4:	00b13023          	sd	a1,0(sp)
    200169f8:	0f8090ef          	jal	ra,2001faf0 <lwrtosTaskCriticalEnter>
    200169fc:	00013683          	ld	a3,0(sp)
    20016a00:	00813603          	ld	a2,8(sp)
    20016a04:	00000593          	li	a1,0
    20016a08:	00000517          	auipc	a0,0x0
    20016a0c:	de450513          	addi	a0,a0,-540 # 200167ec <debugPutchar>
    20016a10:	6d1090ef          	jal	ra,200208e0 <vprintfmt>
    20016a14:	17c090ef          	jal	ra,2001fb90 <lwrtosTaskCriticalExit>
    20016a18:	01813703          	ld	a4,24(sp)
    20016a1c:	00043783          	ld	a5,0(s0)
    20016a20:	00f70463          	beq	a4,a5,20016a28 <dbgPrintfKernel+0x54>
    20016a24:	611090ef          	jal	ra,20020834 <__stack_chk_fail>
    20016a28:	fffec797          	auipc	a5,0xfffec
    20016a2c:	f7078793          	addi	a5,a5,-144 # 20002998 <debugBuffer>
    20016a30:	0087b783          	ld	a5,8(a5)
    20016a34:	02013403          	ld	s0,32(sp)
    20016a38:	02813083          	ld	ra,40(sp)
    20016a3c:	0047a503          	lw	a0,4(a5)
    20016a40:	03010113          	addi	sp,sp,48
    20016a44:	c95ff06f          	j	200166d8 <debugLogsFlush>

0000000020016a48 <traceInit>:
    20016a48:	fe010113          	addi	sp,sp,-32
    20016a4c:	00113c23          	sd	ra,24(sp)
    20016a50:	ffffa717          	auipc	a4,0xffffa
    20016a54:	1e073703          	ld	a4,480(a4) # 20010c30 <__section_globalRodataCmn_data_start+0x30>
    20016a58:	00073783          	ld	a5,0(a4)
    20016a5c:	014506b7          	lui	a3,0x1450
    20016a60:	00b00637          	lui	a2,0xb00
    20016a64:	00f13423          	sd	a5,8(sp)
    20016a68:	0006a783          	lw	a5,0(a3) # 1450000 <__emem_ptr+0x24fc00>
    20016a6c:	0007879b          	sext.w	a5,a5
    20016a70:	00c7f7b3          	and	a5,a5,a2
    20016a74:	00070613          	mv	a2,a4
    20016a78:	06079263          	bnez	a5,20016adc <traceInit+0x94>
    20016a7c:	0006a023          	sw	zero,0(a3)
    20016a80:	1006a683          	lw	a3,256(a3)
    20016a84:	01450737          	lui	a4,0x1450
    20016a88:	deade537          	lui	a0,0xdeade
    20016a8c:	0106d69b          	srliw	a3,a3,0x10
    20016a90:	0ff6f693          	andi	a3,a3,255
    20016a94:	deadd5b7          	lui	a1,0xdeadd
    20016a98:	00168893          	addi	a7,a3,1
    20016a9c:	40070313          	addi	t1,a4,1024 # 1450400 <__emem_ptr+0x250000>
    20016aa0:	ead5051b          	addiw	a0,a0,-339
    20016aa4:	a755859b          	addiw	a1,a1,-1419
    20016aa8:	01879e1b          	slliw	t3,a5,0x18
    20016aac:	21c72023          	sw	t3,512(a4)
    20016ab0:	20072e03          	lw	t3,512(a4)
    20016ab4:	00a32023          	sw	a0,0(t1)
    20016ab8:	30b72023          	sw	a1,768(a4)
    20016abc:	0017879b          	addiw	a5,a5,1
    20016ac0:	ff17e4e3          	bltu	a5,a7,20016aa8 <traceInit+0x60>
    20016ac4:	0186979b          	slliw	a5,a3,0x18
    20016ac8:	20f72023          	sw	a5,512(a4)
    20016acc:	02b107b7          	lui	a5,0x2b10
    20016ad0:	10d72023          	sw	a3,256(a4)
    20016ad4:	f007879b          	addiw	a5,a5,-256
    20016ad8:	00f72023          	sw	a5,0(a4)
    20016adc:	00813703          	ld	a4,8(sp)
    20016ae0:	00063783          	ld	a5,0(a2) # b00000 <__dmesg_buffer_physaddr+0x961000>
    20016ae4:	00000513          	li	a0,0
    20016ae8:	00f70463          	beq	a4,a5,20016af0 <traceInit+0xa8>
    20016aec:	549090ef          	jal	ra,20020834 <__stack_chk_fail>
    20016af0:	01813083          	ld	ra,24(sp)
    20016af4:	02010113          	addi	sp,sp,32
    20016af8:	00008067          	ret

0000000020016afc <traceDump>:
    20016afc:	f7010113          	addi	sp,sp,-144
    20016b00:	08113423          	sd	ra,136(sp)
    20016b04:	08813023          	sd	s0,128(sp)
    20016b08:	06913c23          	sd	s1,120(sp)
    20016b0c:	07213823          	sd	s2,112(sp)
    20016b10:	07313423          	sd	s3,104(sp)
    20016b14:	07413023          	sd	s4,96(sp)
    20016b18:	05513c23          	sd	s5,88(sp)
    20016b1c:	05613823          	sd	s6,80(sp)
    20016b20:	05713423          	sd	s7,72(sp)
    20016b24:	05813023          	sd	s8,64(sp)
    20016b28:	03913c23          	sd	s9,56(sp)
    20016b2c:	03a13823          	sd	s10,48(sp)
    20016b30:	03b13423          	sd	s11,40(sp)
    20016b34:	ffffa797          	auipc	a5,0xffffa
    20016b38:	0fc7b783          	ld	a5,252(a5) # 20010c30 <__section_globalRodataCmn_data_start+0x30>
    20016b3c:	0007b703          	ld	a4,0(a5)
    20016b40:	014506b7          	lui	a3,0x1450
    20016b44:	00e13c23          	sd	a4,24(sp)
    20016b48:	0006a903          	lw	s2,0(a3) # 1450000 <__emem_ptr+0x24fc00>
    20016b4c:	00b00737          	lui	a4,0xb00
    20016b50:	0009091b          	sext.w	s2,s2
    20016b54:	00e97733          	and	a4,s2,a4
    20016b58:	04071c63          	bnez	a4,20016bb0 <traceDump+0xb4>
    20016b5c:	01813703          	ld	a4,24(sp)
    20016b60:	0007b783          	ld	a5,0(a5)
    20016b64:	00f70463          	beq	a4,a5,20016b6c <traceDump+0x70>
    20016b68:	4cd090ef          	jal	ra,20020834 <__stack_chk_fail>
    20016b6c:	08013403          	ld	s0,128(sp)
    20016b70:	08813083          	ld	ra,136(sp)
    20016b74:	07813483          	ld	s1,120(sp)
    20016b78:	07013903          	ld	s2,112(sp)
    20016b7c:	06813983          	ld	s3,104(sp)
    20016b80:	06013a03          	ld	s4,96(sp)
    20016b84:	05813a83          	ld	s5,88(sp)
    20016b88:	05013b03          	ld	s6,80(sp)
    20016b8c:	04813b83          	ld	s7,72(sp)
    20016b90:	04013c03          	ld	s8,64(sp)
    20016b94:	03813c83          	ld	s9,56(sp)
    20016b98:	03013d03          	ld	s10,48(sp)
    20016b9c:	02813d83          	ld	s11,40(sp)
    20016ba0:	fffea517          	auipc	a0,0xfffea
    20016ba4:	51050513          	addi	a0,a0,1296 # 200010b0 <__FUNCTION__.4166+0x3b0>
    20016ba8:	09010113          	addi	sp,sp,144
    20016bac:	40d0906f          	j	200207b8 <printf>
    20016bb0:	00078a93          	mv	s5,a5
    20016bb4:	0006a023          	sw	zero,0(a3)
    20016bb8:	02191793          	slli	a5,s2,0x21
    20016bbc:	0007d863          	bgez	a5,20016bcc <traceDump+0xd0>
    20016bc0:	fffea517          	auipc	a0,0xfffea
    20016bc4:	52050513          	addi	a0,a0,1312 # 200010e0 <__FUNCTION__.4166+0x3e0>
    20016bc8:	3f1090ef          	jal	ra,200207b8 <printf>
    20016bcc:	014507b7          	lui	a5,0x1450
    20016bd0:	2007a483          	lw	s1,512(a5) # 1450200 <__emem_ptr+0x24fe00>
    20016bd4:	1007aa03          	lw	s4,256(a5)
    20016bd8:	0189579b          	srliw	a5,s2,0x18
    20016bdc:	0037f793          	andi	a5,a5,3
    20016be0:	000a0a1b          	sext.w	s4,s4
    20016be4:	010a5b9b          	srliw	s7,s4,0x10
    20016be8:	0ffbfb93          	andi	s7,s7,255
    20016bec:	00100713          	li	a4,1
    20016bf0:	0184d49b          	srliw	s1,s1,0x18
    20016bf4:	001b8c93          	addi	s9,s7,1
    20016bf8:	fffea597          	auipc	a1,0xfffea
    20016bfc:	01058593          	addi	a1,a1,16 # 20000c08 <pvtStrVal.1817>
    20016c00:	02e78463          	beq	a5,a4,20016c28 <traceDump+0x12c>
    20016c04:	fffea597          	auipc	a1,0xfffea
    20016c08:	ffc58593          	addi	a1,a1,-4 # 20000c00 <__section_kernelRodata_data_start>
    20016c0c:	00078e63          	beqz	a5,20016c28 <traceDump+0x12c>
    20016c10:	00200713          	li	a4,2
    20016c14:	fffea597          	auipc	a1,0xfffea
    20016c18:	ffc58593          	addi	a1,a1,-4 # 20000c10 <pvtStrVal.1820>
    20016c1c:	00e78663          	beq	a5,a4,20016c28 <traceDump+0x12c>
    20016c20:	fffea597          	auipc	a1,0xfffea
    20016c24:	ff858593          	addi	a1,a1,-8 # 20000c18 <pvtStrVal.1823>
    20016c28:	fffea517          	auipc	a0,0xfffea
    20016c2c:	52050513          	addi	a0,a0,1312 # 20001148 <__FUNCTION__.4166+0x448>
    20016c30:	fffec417          	auipc	s0,0xfffec
    20016c34:	e6840413          	addi	s0,s0,-408 # 20002a98 <entries.1811>
    20016c38:	381090ef          	jal	ra,200207b8 <printf>
    20016c3c:	00040d13          	mv	s10,s0
    20016c40:	00000993          	li	s3,0
    20016c44:	00040b13          	mv	s6,s0
    20016c48:	01450c37          	lui	s8,0x1450
    20016c4c:	04000d93          	li	s11,64
    20016c50:	fffea717          	auipc	a4,0xfffea
    20016c54:	53870713          	addi	a4,a4,1336 # 20001188 <__FUNCTION__.4166+0x488>
    20016c58:	0a048463          	beqz	s1,20016d00 <traceDump+0x204>
    20016c5c:	fff4849b          	addiw	s1,s1,-1
    20016c60:	109c2023          	sw	s1,256(s8) # 1450100 <__emem_ptr+0x24fd00>
    20016c64:	100c2783          	lw	a5,256(s8)
    20016c68:	400c2583          	lw	a1,1024(s8)
    20016c6c:	300c2783          	lw	a5,768(s8)
    20016c70:	0005859b          	sext.w	a1,a1
    20016c74:	0007879b          	sext.w	a5,a5
    20016c78:	0017f693          	andi	a3,a5,1
    20016c7c:	02069463          	bnez	a3,20016ca4 <traceDump+0x1a8>
    20016c80:	02079793          	slli	a5,a5,0x20
    20016c84:	02059593          	slli	a1,a1,0x20
    20016c88:	0207d793          	srli	a5,a5,0x20
    20016c8c:	00f5e5b3          	or	a1,a1,a5
    20016c90:	079dec63          	bltu	s11,s9,20016d08 <traceDump+0x20c>
    20016c94:	00bd3023          	sd	a1,0(s10)
    20016c98:	0019899b          	addiw	s3,s3,1
    20016c9c:	008d0d13          	addi	s10,s10,8
    20016ca0:	fb99ece3          	bltu	s3,s9,20016c58 <traceDump+0x15c>
    20016ca4:	04000793          	li	a5,64
    20016ca8:	0f97f263          	bleu	s9,a5,20016d8c <traceDump+0x290>
    20016cac:	014507b7          	lui	a5,0x1450
    20016cb0:	1147a023          	sw	s4,256(a5) # 1450100 <__emem_ptr+0x24fd00>
    20016cb4:	0127a023          	sw	s2,0(a5)
    20016cb8:	01813703          	ld	a4,24(sp)
    20016cbc:	000ab783          	ld	a5,0(s5)
    20016cc0:	eaf714e3          	bne	a4,a5,20016b68 <traceDump+0x6c>
    20016cc4:	08813083          	ld	ra,136(sp)
    20016cc8:	08013403          	ld	s0,128(sp)
    20016ccc:	07813483          	ld	s1,120(sp)
    20016cd0:	07013903          	ld	s2,112(sp)
    20016cd4:	06813983          	ld	s3,104(sp)
    20016cd8:	06013a03          	ld	s4,96(sp)
    20016cdc:	05813a83          	ld	s5,88(sp)
    20016ce0:	05013b03          	ld	s6,80(sp)
    20016ce4:	04813b83          	ld	s7,72(sp)
    20016ce8:	04013c03          	ld	s8,64(sp)
    20016cec:	03813c83          	ld	s9,56(sp)
    20016cf0:	03013d03          	ld	s10,48(sp)
    20016cf4:	02813d83          	ld	s11,40(sp)
    20016cf8:	09010113          	addi	sp,sp,144
    20016cfc:	00008067          	ret
    20016d00:	000b8493          	mv	s1,s7
    20016d04:	f5dff06f          	j	20016c60 <traceDump+0x164>
    20016d08:	00070513          	mv	a0,a4
    20016d0c:	2ad090ef          	jal	ra,200207b8 <printf>
    20016d10:	fffea717          	auipc	a4,0xfffea
    20016d14:	47870713          	addi	a4,a4,1144 # 20001188 <__FUNCTION__.4166+0x488>
    20016d18:	f81ff06f          	j	20016c98 <traceDump+0x19c>
    20016d1c:	03843783          	ld	a5,56(s0)
    20016d20:	000b8513          	mv	a0,s7
    20016d24:	04040413          	addi	s0,s0,64
    20016d28:	00f13023          	sd	a5,0(sp)
    20016d2c:	ff043883          	ld	a7,-16(s0)
    20016d30:	fe843803          	ld	a6,-24(s0)
    20016d34:	fe043783          	ld	a5,-32(s0)
    20016d38:	fd843703          	ld	a4,-40(s0)
    20016d3c:	fd043683          	ld	a3,-48(s0)
    20016d40:	fc843603          	ld	a2,-56(s0)
    20016d44:	fc043583          	ld	a1,-64(s0)
    20016d48:	271090ef          	jal	ra,200207b8 <printf>
    20016d4c:	0084849b          	addiw	s1,s1,8
    20016d50:	fc99f6e3          	bleu	s1,s3,20016d1c <traceDump+0x220>
    20016d54:	ff89f413          	andi	s0,s3,-8
    20016d58:	02041413          	slli	s0,s0,0x20
    20016d5c:	02045413          	srli	s0,s0,0x20
    20016d60:	fffea497          	auipc	s1,0xfffea
    20016d64:	42848493          	addi	s1,s1,1064 # 20001188 <__FUNCTION__.4166+0x488>
    20016d68:	0004079b          	sext.w	a5,s0
    20016d6c:	f537f0e3          	bleu	s3,a5,20016cac <traceDump+0x1b0>
    20016d70:	00341793          	slli	a5,s0,0x3
    20016d74:	00fb07b3          	add	a5,s6,a5
    20016d78:	0007b583          	ld	a1,0(a5)
    20016d7c:	00048513          	mv	a0,s1
    20016d80:	00140413          	addi	s0,s0,1
    20016d84:	235090ef          	jal	ra,200207b8 <printf>
    20016d88:	fe1ff06f          	j	20016d68 <traceDump+0x26c>
    20016d8c:	00000493          	li	s1,0
    20016d90:	fffeab97          	auipc	s7,0xfffea
    20016d94:	400b8b93          	addi	s7,s7,1024 # 20001190 <__FUNCTION__.4166+0x490>
    20016d98:	fb5ff06f          	j	20016d4c <traceDump+0x250>

0000000020016d9c <regsDump>:
    20016d9c:	fb010113          	addi	sp,sp,-80
    20016da0:	03213823          	sd	s2,48(sp)
    20016da4:	ffffa917          	auipc	s2,0xffffa
    20016da8:	e8c93903          	ld	s2,-372(s2) # 20010c30 <__section_globalRodataCmn_data_start+0x30>
    20016dac:	00093783          	ld	a5,0(s2)
    20016db0:	02913c23          	sd	s1,56(sp)
    20016db4:	04113423          	sd	ra,72(sp)
    20016db8:	02f13423          	sd	a5,40(sp)
    20016dbc:	04813023          	sd	s0,64(sp)
    20016dc0:	0144f4b7          	lui	s1,0x144f
    20016dc4:	3ce00793          	li	a5,974
    20016dc8:	40f4a023          	sw	a5,1024(s1) # 144f400 <__emem_ptr+0x24f000>
    20016dcc:	0cc0000f          	fence	io,io
    20016dd0:	01450437          	lui	s0,0x1450
    20016dd4:	a0042603          	lw	a2,-1536(s0) # 144fa00 <__emem_ptr+0x24f600>
    20016dd8:	90042683          	lw	a3,-1792(s0)
    20016ddc:	00300593          	li	a1,3
    20016de0:	0006061b          	sext.w	a2,a2
    20016de4:	0006869b          	sext.w	a3,a3
    20016de8:	fffea517          	auipc	a0,0xfffea
    20016dec:	3e850513          	addi	a0,a0,1000 # 200011d0 <__FUNCTION__.4166+0x4d0>
    20016df0:	1c9090ef          	jal	ra,200207b8 <printf>
    20016df4:	4ce00793          	li	a5,1230
    20016df8:	40f4a023          	sw	a5,1024(s1)
    20016dfc:	0cc0000f          	fence	io,io
    20016e00:	a0042603          	lw	a2,-1536(s0)
    20016e04:	90042683          	lw	a3,-1792(s0)
    20016e08:	00400593          	li	a1,4
    20016e0c:	0006061b          	sext.w	a2,a2
    20016e10:	0006869b          	sext.w	a3,a3
    20016e14:	fffea517          	auipc	a0,0xfffea
    20016e18:	3bc50513          	addi	a0,a0,956 # 200011d0 <__FUNCTION__.4166+0x4d0>
    20016e1c:	19d090ef          	jal	ra,200207b8 <printf>
    20016e20:	014557b7          	lui	a5,0x1455
    20016e24:	0144e537          	lui	a0,0x144e
    20016e28:	a007a583          	lw	a1,-1536(a5) # 1454a00 <__emem_ptr+0x254600>
    20016e2c:	c007a603          	lw	a2,-1024(a5)
    20016e30:	b007a683          	lw	a3,-1280(a5)
    20016e34:	50052703          	lw	a4,1280(a0) # 144e500 <__emem_ptr+0x24e100>
    20016e38:	2004a783          	lw	a5,512(s1)
    20016e3c:	20052803          	lw	a6,512(a0)
    20016e40:	01454537          	lui	a0,0x1454
    20016e44:	00052883          	lw	a7,0(a0) # 1454000 <__emem_ptr+0x253c00>
    20016e48:	20052303          	lw	t1,512(a0)
    20016e4c:	10052e03          	lw	t3,256(a0)
    20016e50:	40052503          	lw	a0,1024(a0)
    20016e54:	0003031b          	sext.w	t1,t1
    20016e58:	000e0e1b          	sext.w	t3,t3
    20016e5c:	0005051b          	sext.w	a0,a0
    20016e60:	00a13823          	sd	a0,16(sp)
    20016e64:	01c13423          	sd	t3,8(sp)
    20016e68:	00613023          	sd	t1,0(sp)
    20016e6c:	0008889b          	sext.w	a7,a7
    20016e70:	0008081b          	sext.w	a6,a6
    20016e74:	0007879b          	sext.w	a5,a5
    20016e78:	0007071b          	sext.w	a4,a4
    20016e7c:	0006869b          	sext.w	a3,a3
    20016e80:	0006061b          	sext.w	a2,a2
    20016e84:	0005859b          	sext.w	a1,a1
    20016e88:	fffea517          	auipc	a0,0xfffea
    20016e8c:	36850513          	addi	a0,a0,872 # 200011f0 <__FUNCTION__.4166+0x4f0>
    20016e90:	129090ef          	jal	ra,200207b8 <printf>
    20016e94:	01404537          	lui	a0,0x1404
    20016e98:	01401337          	lui	t1,0x1401
    20016e9c:	014007b7          	lui	a5,0x1400
    20016ea0:	00032583          	lw	a1,0(t1) # 1401000 <__emem_ptr+0x200c00>
    20016ea4:	10032603          	lw	a2,256(t1)
    20016ea8:	2007a683          	lw	a3,512(a5) # 1400200 <__emem_ptr+0x1ffe00>
    20016eac:	30052703          	lw	a4,768(a0) # 1404300 <__emem_ptr+0x203f00>
    20016eb0:	60052783          	lw	a5,1536(a0)
    20016eb4:	40052803          	lw	a6,1024(a0)
    20016eb8:	50052883          	lw	a7,1280(a0)
    20016ebc:	70052503          	lw	a0,1792(a0)
    20016ec0:	30032303          	lw	t1,768(t1)
    20016ec4:	0007879b          	sext.w	a5,a5
    20016ec8:	0005051b          	sext.w	a0,a0
    20016ecc:	0003031b          	sext.w	t1,t1
    20016ed0:	00a13023          	sd	a0,0(sp)
    20016ed4:	0007071b          	sext.w	a4,a4
    20016ed8:	0005859b          	sext.w	a1,a1
    20016edc:	00613423          	sd	t1,8(sp)
    20016ee0:	0008889b          	sext.w	a7,a7
    20016ee4:	0008081b          	sext.w	a6,a6
    20016ee8:	0006869b          	sext.w	a3,a3
    20016eec:	0006061b          	sext.w	a2,a2
    20016ef0:	fffea517          	auipc	a0,0xfffea
    20016ef4:	40050513          	addi	a0,a0,1024 # 200012f0 <__FUNCTION__.4166+0x5f0>
    20016ef8:	0c1090ef          	jal	ra,200207b8 <printf>
    20016efc:	014197b7          	lui	a5,0x1419
    20016f00:	9007a583          	lw	a1,-1792(a5) # 1418900 <__emem_ptr+0x218500>
    20016f04:	02813703          	ld	a4,40(sp)
    20016f08:	00093783          	ld	a5,0(s2)
    20016f0c:	00f70463          	beq	a4,a5,20016f14 <regsDump+0x178>
    20016f10:	125090ef          	jal	ra,20020834 <__stack_chk_fail>
    20016f14:	04013403          	ld	s0,64(sp)
    20016f18:	04813083          	ld	ra,72(sp)
    20016f1c:	03813483          	ld	s1,56(sp)
    20016f20:	03013903          	ld	s2,48(sp)
    20016f24:	0005859b          	sext.w	a1,a1
    20016f28:	fffea517          	auipc	a0,0xfffea
    20016f2c:	4b050513          	addi	a0,a0,1200 # 200013d8 <__FUNCTION__.4166+0x6d8>
    20016f30:	05010113          	addi	sp,sp,80
    20016f34:	0850906f          	j	200207b8 <printf>

0000000020016f38 <dmaInit>:
    20016f38:	fd010113          	addi	sp,sp,-48
    20016f3c:	02813023          	sd	s0,32(sp)
    20016f40:	ffffa417          	auipc	s0,0xffffa
    20016f44:	cf043403          	ld	s0,-784(s0) # 20010c30 <__section_globalRodataCmn_data_start+0x30>
    20016f48:	00043783          	ld	a5,0(s0)
    20016f4c:	00913c23          	sd	s1,24(sp)
    20016f50:	02113423          	sd	ra,40(sp)
    20016f54:	00f13423          	sd	a5,8(sp)
    20016f58:	01404737          	lui	a4,0x1404
    20016f5c:	fffec797          	auipc	a5,0xfffec
    20016f60:	d2a7ae23          	sw	a0,-708(a5) # 20002c98 <dmaIndex>
    20016f64:	30072783          	lw	a5,768(a4) # 1404300 <__emem_ptr+0x203f00>
    20016f68:	fffec497          	auipc	s1,0xfffec
    20016f6c:	d3048493          	addi	s1,s1,-720 # 20002c98 <dmaIndex>
    20016f70:	00000613          	li	a2,0
    20016f74:	0007879b          	sext.w	a5,a5
    20016f78:	ffe7f793          	andi	a5,a5,-2
    20016f7c:	30f72023          	sw	a5,768(a4)
    20016f80:	0004a783          	lw	a5,0(s1)
    20016f84:	00014737          	lui	a4,0x14
    20016f88:	1807071b          	addiw	a4,a4,384
    20016f8c:	00e787bb          	addw	a5,a5,a4
    20016f90:	0087979b          	slliw	a5,a5,0x8
    20016f94:	02079793          	slli	a5,a5,0x20
    20016f98:	0207d793          	srli	a5,a5,0x20
    20016f9c:	0007a703          	lw	a4,0(a5)
    20016fa0:	fffec597          	auipc	a1,0xfffec
    20016fa4:	d0058593          	addi	a1,a1,-768 # 20002ca0 <dmaBufOffset>
    20016fa8:	fffeb517          	auipc	a0,0xfffeb
    20016fac:	45850513          	addi	a0,a0,1112 # 20002400 <__section_kernelData_data_start>
    20016fb0:	0007071b          	sext.w	a4,a4
    20016fb4:	00476713          	ori	a4,a4,4
    20016fb8:	00e7a023          	sw	a4,0(a5)
    20016fbc:	309030ef          	jal	ra,2001aac4 <mpuVirtToPhys>
    20016fc0:	02051663          	bnez	a0,20016fec <dmaInit+0xb4>
    20016fc4:	fffea597          	auipc	a1,0xfffea
    20016fc8:	43458593          	addi	a1,a1,1076 # 200013f8 <__FUNCTION__.2224>
    20016fcc:	fffea517          	auipc	a0,0xfffea
    20016fd0:	48c50513          	addi	a0,a0,1164 # 20001458 <__FUNCTION__.2256+0x38>
    20016fd4:	7e4090ef          	jal	ra,200207b8 <printf>
    20016fd8:	0ff00513          	li	a0,255
    20016fdc:	00813703          	ld	a4,8(sp)
    20016fe0:	00043783          	ld	a5,0(s0)
    20016fe4:	04f70463          	beq	a4,a5,2001702c <dmaInit+0xf4>
    20016fe8:	04d090ef          	jal	ra,20020834 <__stack_chk_fail>
    20016fec:	ffffa797          	auipc	a5,0xffffa
    20016ff0:	cf47b783          	ld	a5,-780(a5) # 20010ce0 <__section_globalRodataCmn_data_start+0xe0>
    20016ff4:	0084b703          	ld	a4,8(s1)
    20016ff8:	0007b783          	ld	a5,0(a5)
    20016ffc:	00f76e63          	bltu	a4,a5,20017018 <dmaInit+0xe0>
    20017000:	ffffa697          	auipc	a3,0xffffa
    20017004:	c806b683          	ld	a3,-896(a3) # 20010c80 <__section_globalRodataCmn_data_start+0x80>
    20017008:	0006b683          	ld	a3,0(a3)
    2001700c:	00000513          	li	a0,0
    20017010:	00d787b3          	add	a5,a5,a3
    20017014:	fcf764e3          	bltu	a4,a5,20016fdc <dmaInit+0xa4>
    20017018:	fffea597          	auipc	a1,0xfffea
    2001701c:	3e058593          	addi	a1,a1,992 # 200013f8 <__FUNCTION__.2224>
    20017020:	fffea517          	auipc	a0,0xfffea
    20017024:	45850513          	addi	a0,a0,1112 # 20001478 <__FUNCTION__.2256+0x58>
    20017028:	fadff06f          	j	20016fd4 <dmaInit+0x9c>
    2001702c:	02813083          	ld	ra,40(sp)
    20017030:	02013403          	ld	s0,32(sp)
    20017034:	01813483          	ld	s1,24(sp)
    20017038:	03010113          	addi	sp,sp,48
    2001703c:	00008067          	ret

0000000020017040 <dmaConfigureFbif_NoContext>:
    20017040:	fe010113          	addi	sp,sp,-32
    20017044:	00113c23          	sd	ra,24(sp)
    20017048:	ffffa797          	auipc	a5,0xffffa
    2001704c:	be87b783          	ld	a5,-1048(a5) # 20010c30 <__section_globalRodataCmn_data_start+0x30>
    20017050:	0007b703          	ld	a4,0(a5)
    20017054:	00e13423          	sd	a4,8(sp)
    20017058:	00813703          	ld	a4,8(sp)
    2001705c:	0007b783          	ld	a5,0(a5)
    20017060:	00f70463          	beq	a4,a5,20017068 <dmaConfigureFbif_NoContext+0x28>
    20017064:	7d0090ef          	jal	ra,20020834 <__stack_chk_fail>
    20017068:	01813083          	ld	ra,24(sp)
    2001706c:	0ff00513          	li	a0,255
    20017070:	02010113          	addi	sp,sp,32
    20017074:	00008067          	ret

0000000020017078 <dmaMemTransfer>:
    20017078:	f3010113          	addi	sp,sp,-208
    2001707c:	0a913c23          	sd	s1,184(sp)
    20017080:	ffffa497          	auipc	s1,0xffffa
    20017084:	bb04b483          	ld	s1,-1104(s1) # 20010c30 <__section_globalRodataCmn_data_start+0x30>
    20017088:	07b13423          	sd	s11,104(sp)
    2001708c:	00078d93          	mv	s11,a5
    20017090:	0004b783          	ld	a5,0(s1)
    20017094:	0c113423          	sd	ra,200(sp)
    20017098:	0c813023          	sd	s0,192(sp)
    2001709c:	0b213823          	sd	s2,176(sp)
    200170a0:	0b313423          	sd	s3,168(sp)
    200170a4:	0b413023          	sd	s4,160(sp)
    200170a8:	09513c23          	sd	s5,152(sp)
    200170ac:	09613823          	sd	s6,144(sp)
    200170b0:	09713423          	sd	s7,136(sp)
    200170b4:	09813023          	sd	s8,128(sp)
    200170b8:	07913c23          	sd	s9,120(sp)
    200170bc:	07a13823          	sd	s10,112(sp)
    200170c0:	04f13c23          	sd	a5,88(sp)
    200170c4:	02051663          	bnez	a0,200170f0 <dmaMemTransfer+0x78>
    200170c8:	fffea597          	auipc	a1,0xfffea
    200170cc:	35858593          	addi	a1,a1,856 # 20001420 <__FUNCTION__.2256>
    200170d0:	fffea517          	auipc	a0,0xfffea
    200170d4:	42850513          	addi	a0,a0,1064 # 200014f8 <__FUNCTION__.2256+0xd8>
    200170d8:	6e0090ef          	jal	ra,200207b8 <printf>
    200170dc:	00200513          	li	a0,2
    200170e0:	05813703          	ld	a4,88(sp)
    200170e4:	0004b783          	ld	a5,0(s1)
    200170e8:	30f70863          	beq	a4,a5,200173f8 <dmaMemTransfer+0x380>
    200170ec:	748090ef          	jal	ra,20020834 <__stack_chk_fail>
    200170f0:	02069693          	slli	a3,a3,0x20
    200170f4:	0206d693          	srli	a3,a3,0x20
    200170f8:	00b685b3          	add	a1,a3,a1
    200170fc:	02071693          	slli	a3,a4,0x20
    20017100:	0206d693          	srli	a3,a3,0x20
    20017104:	00b6e6b3          	or	a3,a3,a1
    20017108:	00d566b3          	or	a3,a0,a3
    2001710c:	0036f693          	andi	a3,a3,3
    20017110:	00050993          	mv	s3,a0
    20017114:	02068263          	beqz	a3,20017138 <dmaMemTransfer+0xc0>
    20017118:	00400613          	li	a2,4
    2001711c:	fffea597          	auipc	a1,0xfffea
    20017120:	30458593          	addi	a1,a1,772 # 20001420 <__FUNCTION__.2256>
    20017124:	fffea517          	auipc	a0,0xfffea
    20017128:	3f450513          	addi	a0,a0,1012 # 20001518 <__FUNCTION__.2256+0xf8>
    2001712c:	68c090ef          	jal	ra,200207b8 <printf>
    20017130:	03f00513          	li	a0,63
    20017134:	fadff06f          	j	200170e0 <dmaMemTransfer+0x68>
    20017138:	00000513          	li	a0,0
    2001713c:	fa0702e3          	beqz	a4,200170e0 <dmaMemTransfer+0x68>
    20017140:	01003833          	snez	a6,a6
    20017144:	00000e93          	li	t4,0
    20017148:	00281813          	slli	a6,a6,0x2
    2001714c:	000d9663          	bnez	s11,20017158 <dmaMemTransfer+0xe0>
    20017150:	02086813          	ori	a6,a6,32
    20017154:	0008081b          	sext.w	a6,a6
    20017158:	01d6579b          	srliw	a5,a2,0x1d
    2001715c:	00c7979b          	slliw	a5,a5,0xc
    20017160:	00f867b3          	or	a5,a6,a5
    20017164:	0ff5f413          	andi	s0,a1,255
    20017168:	00078a1b          	sext.w	s4,a5
    2001716c:	408585b3          	sub	a1,a1,s0
    20017170:	80201073          	csrw	0x802,zero
    20017174:	05010693          	addi	a3,sp,80
    20017178:	0285d793          	srli	a5,a1,0x28
    2001717c:	0085d913          	srli	s2,a1,0x8
    20017180:	00d13823          	sd	a3,16(sp)
    20017184:	04810693          	addi	a3,sp,72
    20017188:	00f13423          	sd	a5,8(sp)
    2001718c:	0009091b          	sext.w	s2,s2
    20017190:	00100793          	li	a5,1
    20017194:	00d13c23          	sd	a3,24(sp)
    20017198:	ffffaa97          	auipc	s5,0xffffa
    2001719c:	ba0aba83          	ld	s5,-1120(s5) # 20010d38 <__section_globalRodataCmn_data_start+0x138>
    200171a0:	ffffab17          	auipc	s6,0xffffa
    200171a4:	b40b3b03          	ld	s6,-1216(s6) # 20010ce0 <__section_globalRodataCmn_data_start+0xe0>
    200171a8:	ffffab97          	auipc	s7,0xffffa
    200171ac:	ad8bbb83          	ld	s7,-1320(s7) # 20010c80 <__section_globalRodataCmn_data_start+0x80>
    200171b0:	ffffac17          	auipc	s8,0xffffa
    200171b4:	a88c3c03          	ld	s8,-1400(s8) # 20010c38 <__section_globalRodataCmn_data_start+0x38>
    200171b8:	fffeac97          	auipc	s9,0xfffea
    200171bc:	278c8c93          	addi	s9,s9,632 # 20001430 <__FUNCTION__.2256+0x10>
    200171c0:	fffead17          	auipc	s10,0xfffea
    200171c4:	278d0d13          	addi	s10,s10,632 # 20001438 <__FUNCTION__.2256+0x18>
    200171c8:	08078863          	beqz	a5,20017258 <dmaMemTransfer+0x1e0>
    200171cc:	01013603          	ld	a2,16(sp)
    200171d0:	01813583          	ld	a1,24(sp)
    200171d4:	00098513          	mv	a0,s3
    200171d8:	02e13023          	sd	a4,32(sp)
    200171dc:	0e9030ef          	jal	ra,2001aac4 <mpuVirtToPhys>
    200171e0:	02013703          	ld	a4,32(sp)
    200171e4:	02051a63          	bnez	a0,20017218 <dmaMemTransfer+0x1a0>
    200171e8:	00098613          	mv	a2,s3
    200171ec:	fffea597          	auipc	a1,0xfffea
    200171f0:	23458593          	addi	a1,a1,564 # 20001420 <__FUNCTION__.2256>
    200171f4:	fffea517          	auipc	a0,0xfffea
    200171f8:	35c50513          	addi	a0,a0,860 # 20001550 <__FUNCTION__.2256+0x130>
    200171fc:	5bc090ef          	jal	ra,200207b8 <printf>
    20017200:	00200513          	li	a0,2
    20017204:	00a13423          	sd	a0,8(sp)
    20017208:	6a1020ef          	jal	ra,2001a0a8 <dmaWaitForIdle>
    2001720c:	80201073          	csrw	0x802,zero
    20017210:	00813503          	ld	a0,8(sp)
    20017214:	ecdff06f          	j	200170e0 <dmaMemTransfer+0x68>
    20017218:	04813603          	ld	a2,72(sp)
    2001721c:	000ab783          	ld	a5,0(s5)
    20017220:	10f66663          	bltu	a2,a5,2001732c <dmaMemTransfer+0x2b4>
    20017224:	000c3683          	ld	a3,0(s8)
    20017228:	00d787b3          	add	a5,a5,a3
    2001722c:	10f67063          	bleu	a5,a2,2001732c <dmaMemTransfer+0x2b4>
    20017230:	000d9c63          	bnez	s11,20017248 <dmaMemTransfer+0x1d0>
    20017234:	fffea597          	auipc	a1,0xfffea
    20017238:	1ec58593          	addi	a1,a1,492 # 20001420 <__FUNCTION__.2256>
    2001723c:	fffea517          	auipc	a0,0xfffea
    20017240:	33450513          	addi	a0,a0,820 # 20001570 <__FUNCTION__.2256+0x150>
    20017244:	fb9ff06f          	j	200171fc <dmaMemTransfer+0x184>
    20017248:	fff008b7          	lui	a7,0xfff00
    2001724c:	011608b3          	add	a7,a2,a7
    20017250:	010a6a13          	ori	s4,s4,16
    20017254:	10000e93          	li	t4,256
    20017258:	04813783          	ld	a5,72(sp)
    2001725c:	02041613          	slli	a2,s0,0x20
    20017260:	02065613          	srli	a2,a2,0x20
    20017264:	00f66633          	or	a2,a2,a5
    20017268:	10066613          	ori	a2,a2,256
    2001726c:	40c007b3          	neg	a5,a2
    20017270:	00c7f633          	and	a2,a5,a2
    20017274:	02071793          	slli	a5,a4,0x20
    20017278:	0207d793          	srli	a5,a5,0x20
    2001727c:	0ec7e863          	bltu	a5,a2,2001736c <dmaMemTransfer+0x2f4>
    20017280:	000d3783          	ld	a5,0(s10)
    20017284:	00265693          	srli	a3,a2,0x2
    20017288:	000cb583          	ld	a1,0(s9)
    2001728c:	00f6f7b3          	and	a5,a3,a5
    20017290:	00f03fb3          	snez	t6,a5
    20017294:	fffea797          	auipc	a5,0xfffea
    20017298:	1ac78793          	addi	a5,a5,428 # 20001440 <__FUNCTION__.2256+0x20>
    2001729c:	0007b783          	ld	a5,0(a5)
    200172a0:	00b6f5b3          	and	a1,a3,a1
    200172a4:	00b035b3          	snez	a1,a1
    200172a8:	00f6f7b3          	and	a5,a3,a5
    200172ac:	00f03f33          	snez	t5,a5
    200172b0:	fffea797          	auipc	a5,0xfffea
    200172b4:	19878793          	addi	a5,a5,408 # 20001448 <__FUNCTION__.2256+0x28>
    200172b8:	0007b783          	ld	a5,0(a5)
    200172bc:	00459593          	slli	a1,a1,0x4
    200172c0:	003f9f93          	slli	t6,t6,0x3
    200172c4:	00f6f7b3          	and	a5,a3,a5
    200172c8:	00f03533          	snez	a0,a5
    200172cc:	fffea797          	auipc	a5,0xfffea
    200172d0:	18478793          	addi	a5,a5,388 # 20001450 <__FUNCTION__.2256+0x30>
    200172d4:	0007b783          	ld	a5,0(a5)
    200172d8:	002f1f13          	slli	t5,t5,0x2
    200172dc:	00151513          	slli	a0,a0,0x1
    200172e0:	00f6f6b3          	and	a3,a3,a5
    200172e4:	00d036b3          	snez	a3,a3
    200172e8:	00d5e5b3          	or	a1,a1,a3
    200172ec:	01f5e7b3          	or	a5,a1,t6
    200172f0:	01e7e7b3          	or	a5,a5,t5
    200172f4:	00a7e7b3          	or	a5,a5,a0
    200172f8:	0087979b          	slliw	a5,a5,0x8
    200172fc:	8ffa7e13          	andi	t3,s4,-1793
    20017300:	7007f793          	andi	a5,a5,1792
    20017304:	01c7e7b3          	or	a5,a5,t3
    20017308:	00078a1b          	sext.w	s4,a5
    2001730c:	07d67463          	bleu	t4,a2,20017374 <dmaMemTransfer+0x2fc>
    20017310:	000e8693          	mv	a3,t4
    20017314:	fffea597          	auipc	a1,0xfffea
    20017318:	10c58593          	addi	a1,a1,268 # 20001420 <__FUNCTION__.2256>
    2001731c:	fffea517          	auipc	a0,0xfffea
    20017320:	2b450513          	addi	a0,a0,692 # 200015d0 <__FUNCTION__.2256+0x1b0>
    20017324:	494090ef          	jal	ra,200207b8 <printf>
    20017328:	ed9ff06f          	j	20017200 <dmaMemTransfer+0x188>
    2001732c:	000b3783          	ld	a5,0(s6)
    20017330:	02f66263          	bltu	a2,a5,20017354 <dmaMemTransfer+0x2dc>
    20017334:	000bb683          	ld	a3,0(s7)
    20017338:	00d787b3          	add	a5,a5,a3
    2001733c:	00f67c63          	bleu	a5,a2,20017354 <dmaMemTransfer+0x2dc>
    20017340:	ffe808b7          	lui	a7,0xffe80
    20017344:	011608b3          	add	a7,a2,a7
    20017348:	fefa7a13          	andi	s4,s4,-17
    2001734c:	00400e93          	li	t4,4
    20017350:	f09ff06f          	j	20017258 <dmaMemTransfer+0x1e0>
    20017354:	fffea597          	auipc	a1,0xfffea
    20017358:	0cc58593          	addi	a1,a1,204 # 20001420 <__FUNCTION__.2256>
    2001735c:	fffea517          	auipc	a0,0xfffea
    20017360:	23c50513          	addi	a0,a0,572 # 20001598 <__FUNCTION__.2256+0x178>
    20017364:	454090ef          	jal	ra,200207b8 <printf>
    20017368:	e99ff06f          	j	20017200 <dmaMemTransfer+0x188>
    2001736c:	00165613          	srli	a2,a2,0x1
    20017370:	f0dff06f          	j	2001727c <dmaMemTransfer+0x204>
    20017374:	02e13c23          	sd	a4,56(sp)
    20017378:	03113823          	sd	a7,48(sp)
    2001737c:	03d13423          	sd	t4,40(sp)
    20017380:	02c13023          	sd	a2,32(sp)
    20017384:	5a9020ef          	jal	ra,2001a12c <dmaWaitForNotFull>
    20017388:	03013883          	ld	a7,48(sp)
    2001738c:	014047b7          	lui	a5,0x1404
    20017390:	0008869b          	sext.w	a3,a7
    20017394:	50d7a023          	sw	a3,1280(a5) # 1404500 <__emem_ptr+0x204100>
    20017398:	7087a023          	sw	s0,1792(a5)
    2001739c:	4127a023          	sw	s2,1024(a5)
    200173a0:	00813703          	ld	a4,8(sp)
    200173a4:	014056b7          	lui	a3,0x1405
    200173a8:	a0e6a023          	sw	a4,-1536(a3) # 1404a00 <__emem_ptr+0x204600>
    200173ac:	6147a023          	sw	s4,1536(a5)
    200173b0:	02013603          	ld	a2,32(sp)
    200173b4:	04813783          	ld	a5,72(sp)
    200173b8:	03813703          	ld	a4,56(sp)
    200173bc:	00c888b3          	add	a7,a7,a2
    200173c0:	00c787b3          	add	a5,a5,a2
    200173c4:	04f13423          	sd	a5,72(sp)
    200173c8:	05013783          	ld	a5,80(sp)
    200173cc:	00c989b3          	add	s3,s3,a2
    200173d0:	02813e83          	ld	t4,40(sp)
    200173d4:	40c787b3          	sub	a5,a5,a2
    200173d8:	0006061b          	sext.w	a2,a2
    200173dc:	04f13823          	sd	a5,80(sp)
    200173e0:	40c7073b          	subw	a4,a4,a2
    200173e4:	0017b793          	seqz	a5,a5
    200173e8:	0086043b          	addw	s0,a2,s0
    200173ec:	dc071ee3          	bnez	a4,200171c8 <dmaMemTransfer+0x150>
    200173f0:	00000513          	li	a0,0
    200173f4:	e11ff06f          	j	20017204 <dmaMemTransfer+0x18c>
    200173f8:	0c813083          	ld	ra,200(sp)
    200173fc:	0c013403          	ld	s0,192(sp)
    20017400:	0b813483          	ld	s1,184(sp)
    20017404:	0b013903          	ld	s2,176(sp)
    20017408:	0a813983          	ld	s3,168(sp)
    2001740c:	0a013a03          	ld	s4,160(sp)
    20017410:	09813a83          	ld	s5,152(sp)
    20017414:	09013b03          	ld	s6,144(sp)
    20017418:	08813b83          	ld	s7,136(sp)
    2001741c:	08013c03          	ld	s8,128(sp)
    20017420:	07813c83          	ld	s9,120(sp)
    20017424:	07013d03          	ld	s10,112(sp)
    20017428:	06813d83          	ld	s11,104(sp)
    2001742c:	0d010113          	addi	sp,sp,208
    20017430:	00008067          	ret

0000000020017434 <dmaMemTransferSyscallHandler_NoContext>:
    20017434:	fe010113          	addi	sp,sp,-32
    20017438:	00113c23          	sd	ra,24(sp)
    2001743c:	ffff9897          	auipc	a7,0xffff9
    20017440:	7f48b883          	ld	a7,2036(a7) # 20010c30 <__section_globalRodataCmn_data_start+0x30>
    20017444:	0008b303          	ld	t1,0(a7)
    20017448:	00613423          	sd	t1,8(sp)
    2001744c:	00813303          	ld	t1,8(sp)
    20017450:	0008b883          	ld	a7,0(a7)
    20017454:	01130463          	beq	t1,a7,2001745c <dmaMemTransferSyscallHandler_NoContext+0x28>
    20017458:	3dc090ef          	jal	ra,20020834 <__stack_chk_fail>
    2001745c:	01813083          	ld	ra,24(sp)
    20017460:	02010113          	addi	sp,sp,32
    20017464:	c15ff06f          	j	20017078 <dmaMemTransfer>

0000000020017468 <exceptionInit>:
    20017468:	fe010113          	addi	sp,sp,-32
    2001746c:	00113c23          	sd	ra,24(sp)
    20017470:	ffff9797          	auipc	a5,0xffff9
    20017474:	7c07b783          	ld	a5,1984(a5) # 20010c30 <__section_globalRodataCmn_data_start+0x30>
    20017478:	0007b703          	ld	a4,0(a5)
    2001747c:	00e13423          	sd	a4,8(sp)
    20017480:	ffffa717          	auipc	a4,0xffffa
    20017484:	85073703          	ld	a4,-1968(a4) # 20010cd0 <__section_globalRodataCmn_data_start+0xd0>
    20017488:	10571073          	csrw	stvec,a4
    2001748c:	00813703          	ld	a4,8(sp)
    20017490:	0007b783          	ld	a5,0(a5)
    20017494:	00f70463          	beq	a4,a5,2001749c <exceptionInit+0x34>
    20017498:	39c090ef          	jal	ra,20020834 <__stack_chk_fail>
    2001749c:	01813083          	ld	ra,24(sp)
    200174a0:	00000513          	li	a0,0
    200174a4:	02010113          	addi	sp,sp,32
    200174a8:	00008067          	ret

00000000200174ac <irqFireSwGen>:
    200174ac:	fe010113          	addi	sp,sp,-32
    200174b0:	00113c23          	sd	ra,24(sp)
    200174b4:	ffff9797          	auipc	a5,0xffff9
    200174b8:	77c7b783          	ld	a5,1916(a5) # 20010c30 <__section_globalRodataCmn_data_start+0x30>
    200174bc:	0007b703          	ld	a4,0(a5)
    200174c0:	00e13423          	sd	a4,8(sp)
    200174c4:	02050063          	beqz	a0,200174e4 <irqFireSwGen+0x38>
    200174c8:	00100713          	li	a4,1
    200174cc:	02e50663          	beq	a0,a4,200174f8 <irqFireSwGen+0x4c>
    200174d0:	00200513          	li	a0,2
    200174d4:	00813703          	ld	a4,8(sp)
    200174d8:	0007b783          	ld	a5,0(a5)
    200174dc:	02f70463          	beq	a4,a5,20017504 <irqFireSwGen+0x58>
    200174e0:	354090ef          	jal	ra,20020834 <__stack_chk_fail>
    200174e4:	01400737          	lui	a4,0x1400
    200174e8:	04000693          	li	a3,64
    200174ec:	00d72023          	sw	a3,0(a4) # 1400000 <__emem_ptr+0x1ffc00>
    200174f0:	00000513          	li	a0,0
    200174f4:	fe1ff06f          	j	200174d4 <irqFireSwGen+0x28>
    200174f8:	01400737          	lui	a4,0x1400
    200174fc:	08000693          	li	a3,128
    20017500:	fedff06f          	j	200174ec <irqFireSwGen+0x40>
    20017504:	01813083          	ld	ra,24(sp)
    20017508:	02010113          	addi	sp,sp,32
    2001750c:	00008067          	ret

0000000020017510 <kernelVerboseOops>:
    20017510:	f7010113          	addi	sp,sp,-144
    20017514:	08813023          	sd	s0,128(sp)
    20017518:	06913c23          	sd	s1,120(sp)
    2001751c:	07213823          	sd	s2,112(sp)
    20017520:	07313423          	sd	s3,104(sp)
    20017524:	08113423          	sd	ra,136(sp)
    20017528:	ffff9797          	auipc	a5,0xffff9
    2001752c:	7087b783          	ld	a5,1800(a5) # 20010c30 <__section_globalRodataCmn_data_start+0x30>
    20017530:	0007b703          	ld	a4,0(a5)
    20017534:	ffff9497          	auipc	s1,0xffff9
    20017538:	7144b483          	ld	s1,1812(s1) # 20010c48 <__section_globalRodataCmn_data_start+0x48>
    2001753c:	00050913          	mv	s2,a0
    20017540:	04e13c23          	sd	a4,88(sp)
    20017544:	01402737          	lui	a4,0x1402
    20017548:	00072583          	lw	a1,0(a4) # 1402000 <__emem_ptr+0x201c00>
    2001754c:	0004b683          	ld	a3,0(s1)
    20017550:	0004b603          	ld	a2,0(s1)
    20017554:	00050413          	mv	s0,a0
    20017558:	0005859b          	sext.w	a1,a1
    2001755c:	00078993          	mv	s3,a5
    20017560:	00000713          	li	a4,0
    20017564:	00060663          	beqz	a2,20017570 <kernelVerboseOops+0x60>
    20017568:	0004b783          	ld	a5,0(s1)
    2001756c:	1907b703          	ld	a4,400(a5)
    20017570:	0f893783          	ld	a5,248(s2)
    20017574:	00090613          	mv	a2,s2
    20017578:	fffea517          	auipc	a0,0xfffea
    2001757c:	08850513          	addi	a0,a0,136 # 20001600 <__FUNCTION__.2256+0x1e0>
    20017580:	238090ef          	jal	ra,200207b8 <printf>
    20017584:	00091a63          	bnez	s2,20017598 <kernelVerboseOops+0x88>
    20017588:	0004b783          	ld	a5,0(s1)
    2001758c:	0e078e63          	beqz	a5,20017688 <kernelVerboseOops+0x178>
    20017590:	0004b403          	ld	s0,0(s1)
    20017594:	0e040a63          	beqz	s0,20017688 <kernelVerboseOops+0x178>
    20017598:	06843503          	ld	a0,104(s0)
    2001759c:	01843883          	ld	a7,24(s0)
    200175a0:	01043803          	ld	a6,16(s0)
    200175a4:	00843783          	ld	a5,8(s0)
    200175a8:	00043703          	ld	a4,0(s0)
    200175ac:	11043683          	ld	a3,272(s0)
    200175b0:	10843603          	ld	a2,264(s0)
    200175b4:	10043583          	ld	a1,256(s0)
    200175b8:	04a13423          	sd	a0,72(sp)
    200175bc:	06043503          	ld	a0,96(s0)
    200175c0:	04a13023          	sd	a0,64(sp)
    200175c4:	05843503          	ld	a0,88(s0)
    200175c8:	02a13c23          	sd	a0,56(sp)
    200175cc:	05043503          	ld	a0,80(s0)
    200175d0:	02a13823          	sd	a0,48(sp)
    200175d4:	04843503          	ld	a0,72(s0)
    200175d8:	02a13423          	sd	a0,40(sp)
    200175dc:	04043503          	ld	a0,64(s0)
    200175e0:	02a13023          	sd	a0,32(sp)
    200175e4:	03843503          	ld	a0,56(s0)
    200175e8:	00a13c23          	sd	a0,24(sp)
    200175ec:	03043503          	ld	a0,48(s0)
    200175f0:	00a13823          	sd	a0,16(sp)
    200175f4:	02843503          	ld	a0,40(s0)
    200175f8:	00a13423          	sd	a0,8(sp)
    200175fc:	02043503          	ld	a0,32(s0)
    20017600:	00a13023          	sd	a0,0(sp)
    20017604:	fffea517          	auipc	a0,0xfffea
    20017608:	03c50513          	addi	a0,a0,60 # 20001640 <__FUNCTION__.2256+0x220>
    2001760c:	1ac090ef          	jal	ra,200207b8 <printf>
    20017610:	0f043503          	ld	a0,240(s0)
    20017614:	0a043883          	ld	a7,160(s0)
    20017618:	09843803          	ld	a6,152(s0)
    2001761c:	09043783          	ld	a5,144(s0)
    20017620:	08843703          	ld	a4,136(s0)
    20017624:	08043683          	ld	a3,128(s0)
    20017628:	07843603          	ld	a2,120(s0)
    2001762c:	07043583          	ld	a1,112(s0)
    20017630:	04a13423          	sd	a0,72(sp)
    20017634:	0e843503          	ld	a0,232(s0)
    20017638:	04a13023          	sd	a0,64(sp)
    2001763c:	0e043503          	ld	a0,224(s0)
    20017640:	02a13c23          	sd	a0,56(sp)
    20017644:	0d843503          	ld	a0,216(s0)
    20017648:	02a13823          	sd	a0,48(sp)
    2001764c:	0d043503          	ld	a0,208(s0)
    20017650:	02a13423          	sd	a0,40(sp)
    20017654:	0c843503          	ld	a0,200(s0)
    20017658:	02a13023          	sd	a0,32(sp)
    2001765c:	0c043503          	ld	a0,192(s0)
    20017660:	00a13c23          	sd	a0,24(sp)
    20017664:	0b843503          	ld	a0,184(s0)
    20017668:	00a13823          	sd	a0,16(sp)
    2001766c:	0b043503          	ld	a0,176(s0)
    20017670:	00a13423          	sd	a0,8(sp)
    20017674:	0a843503          	ld	a0,168(s0)
    20017678:	00a13023          	sd	a0,0(sp)
    2001767c:	fffea517          	auipc	a0,0xfffea
    20017680:	0bc50513          	addi	a0,a0,188 # 20001738 <__FUNCTION__.2256+0x318>
    20017684:	134090ef          	jal	ra,200207b8 <printf>
    20017688:	598030ef          	jal	ra,2001ac20 <mpuDump>
    2001768c:	c70ff0ef          	jal	ra,20016afc <traceDump>
    20017690:	05813703          	ld	a4,88(sp)
    20017694:	0009b783          	ld	a5,0(s3)
    20017698:	00f70463          	beq	a4,a5,200176a0 <kernelVerboseOops+0x190>
    2001769c:	198090ef          	jal	ra,20020834 <__stack_chk_fail>
    200176a0:	08013403          	ld	s0,128(sp)
    200176a4:	08813083          	ld	ra,136(sp)
    200176a8:	07813483          	ld	s1,120(sp)
    200176ac:	07013903          	ld	s2,112(sp)
    200176b0:	06813983          	ld	s3,104(sp)
    200176b4:	09010113          	addi	sp,sp,144
    200176b8:	ee4ff06f          	j	20016d9c <regsDump>

00000000200176bc <kernelVerboseCrash>:
    200176bc:	fe010113          	addi	sp,sp,-32
    200176c0:	00813823          	sd	s0,16(sp)
    200176c4:	ffff9417          	auipc	s0,0xffff9
    200176c8:	56c43403          	ld	s0,1388(s0) # 20010c30 <__section_globalRodataCmn_data_start+0x30>
    200176cc:	00043783          	ld	a5,0(s0)
    200176d0:	fffea517          	auipc	a0,0xfffea
    200176d4:	20050513          	addi	a0,a0,512 # 200018d0 <__FUNCTION__.2256+0x4b0>
    200176d8:	00113c23          	sd	ra,24(sp)
    200176dc:	00f13423          	sd	a5,8(sp)
    200176e0:	0d8090ef          	jal	ra,200207b8 <printf>
    200176e4:	00018513          	mv	a0,gp
    200176e8:	e29ff0ef          	jal	ra,20017510 <kernelVerboseOops>
    200176ec:	00813703          	ld	a4,8(sp)
    200176f0:	00043783          	ld	a5,0(s0)
    200176f4:	00f70463          	beq	a4,a5,200176fc <kernelVerboseCrash+0x40>
    200176f8:	13c090ef          	jal	ra,20020834 <__stack_chk_fail>
    200176fc:	01013403          	ld	s0,16(sp)
    20017700:	01813083          	ld	ra,24(sp)
    20017704:	02010113          	addi	sp,sp,32
    20017708:	1b80206f          	j	200198c0 <appHalt>

000000002001770c <lwrtosRiscvSwIrqHook>:
    2001770c:	fe010113          	addi	sp,sp,-32
    20017710:	00813823          	sd	s0,16(sp)
    20017714:	ffff9417          	auipc	s0,0xffff9
    20017718:	51c43403          	ld	s0,1308(s0) # 20010c30 <__section_globalRodataCmn_data_start+0x30>
    2001771c:	00043783          	ld	a5,0(s0)
    20017720:	fffea517          	auipc	a0,0xfffea
    20017724:	1d050513          	addi	a0,a0,464 # 200018f0 <__FUNCTION__.2256+0x4d0>
    20017728:	00113c23          	sd	ra,24(sp)
    2001772c:	00f13423          	sd	a5,8(sp)
    20017730:	088090ef          	jal	ra,200207b8 <printf>
    20017734:	00813703          	ld	a4,8(sp)
    20017738:	00043783          	ld	a5,0(s0)
    2001773c:	00f70463          	beq	a4,a5,20017744 <lwrtosRiscvSwIrqHook+0x38>
    20017740:	0f4090ef          	jal	ra,20020834 <__stack_chk_fail>
    20017744:	01013403          	ld	s0,16(sp)
    20017748:	01813083          	ld	ra,24(sp)
    2001774c:	00000513          	li	a0,0
    20017750:	02010113          	addi	sp,sp,32
    20017754:	f69ff06f          	j	200176bc <kernelVerboseCrash>

0000000020017758 <irqHandleMemerr>:
    20017758:	fd010113          	addi	sp,sp,-48
    2001775c:	00913c23          	sd	s1,24(sp)
    20017760:	ffff9497          	auipc	s1,0xffff9
    20017764:	4d04b483          	ld	s1,1232(s1) # 20010c30 <__section_globalRodataCmn_data_start+0x30>
    20017768:	0004b783          	ld	a5,0(s1)
    2001776c:	fffea517          	auipc	a0,0xfffea
    20017770:	1a450513          	addi	a0,a0,420 # 20001910 <__FUNCTION__.2256+0x4f0>
    20017774:	02813023          	sd	s0,32(sp)
    20017778:	00f13423          	sd	a5,8(sp)
    2001777c:	02113423          	sd	ra,40(sp)
    20017780:	01454437          	lui	s0,0x1454
    20017784:	034090ef          	jal	ra,200207b8 <printf>
    20017788:	00042783          	lw	a5,0(s0) # 1454000 <__emem_ptr+0x253c00>
    2001778c:	01f7d79b          	srliw	a5,a5,0x1f
    20017790:	02078a63          	beqz	a5,200177c4 <irqHandleMemerr+0x6c>
    20017794:	30042783          	lw	a5,768(s0)
    20017798:	20042583          	lw	a1,512(s0)
    2001779c:	10042603          	lw	a2,256(s0)
    200177a0:	02079793          	slli	a5,a5,0x20
    200177a4:	02059593          	slli	a1,a1,0x20
    200177a8:	0205d593          	srli	a1,a1,0x20
    200177ac:	0006061b          	sext.w	a2,a2
    200177b0:	00f5e5b3          	or	a1,a1,a5
    200177b4:	fffea517          	auipc	a0,0xfffea
    200177b8:	18450513          	addi	a0,a0,388 # 20001938 <__FUNCTION__.2256+0x518>
    200177bc:	7fd080ef          	jal	ra,200207b8 <printf>
    200177c0:	00042023          	sw	zero,0(s0)
    200177c4:	01454437          	lui	s0,0x1454
    200177c8:	40042783          	lw	a5,1024(s0) # 1454400 <__emem_ptr+0x254000>
    200177cc:	01f7d79b          	srliw	a5,a5,0x1f
    200177d0:	00078a63          	beqz	a5,200177e4 <irqHandleMemerr+0x8c>
    200177d4:	fffea517          	auipc	a0,0xfffea
    200177d8:	19c50513          	addi	a0,a0,412 # 20001970 <__FUNCTION__.2256+0x550>
    200177dc:	7dd080ef          	jal	ra,200207b8 <printf>
    200177e0:	40042023          	sw	zero,1024(s0)
    200177e4:	00813703          	ld	a4,8(sp)
    200177e8:	0004b783          	ld	a5,0(s1)
    200177ec:	00f70463          	beq	a4,a5,200177f4 <irqHandleMemerr+0x9c>
    200177f0:	044090ef          	jal	ra,20020834 <__stack_chk_fail>
    200177f4:	02013403          	ld	s0,32(sp)
    200177f8:	02813083          	ld	ra,40(sp)
    200177fc:	01813483          	ld	s1,24(sp)
    20017800:	00000513          	li	a0,0
    20017804:	03010113          	addi	sp,sp,48
    20017808:	eb5ff06f          	j	200176bc <kernelVerboseCrash>

000000002001780c <lwrtosRiscvExceptionHook>:
    2001780c:	f8010113          	addi	sp,sp,-128
    20017810:	06913423          	sd	s1,104(sp)
    20017814:	ffff9497          	auipc	s1,0xffff9
    20017818:	41c4b483          	ld	s1,1052(s1) # 20010c30 <__section_globalRodataCmn_data_start+0x30>
    2001781c:	0004b783          	ld	a5,0(s1)
    20017820:	06813823          	sd	s0,112(sp)
    20017824:	07213023          	sd	s2,96(sp)
    20017828:	05313c23          	sd	s3,88(sp)
    2001782c:	06113c23          	sd	ra,120(sp)
    20017830:	04f13423          	sd	a5,72(sp)
    20017834:	00058413          	mv	s0,a1
    20017838:	00068993          	mv	s3,a3
    2001783c:	00050913          	mv	s2,a0
    20017840:	00051863          	bnez	a0,20017850 <lwrtosRiscvExceptionHook+0x44>
    20017844:	ffff9797          	auipc	a5,0xffff9
    20017848:	4047b783          	ld	a5,1028(a5) # 20010c48 <__section_globalRodataCmn_data_start+0x48>
    2001784c:	0007b903          	ld	s2,0(a5)
    20017850:	fffe9797          	auipc	a5,0xfffe9
    20017854:	3d078793          	addi	a5,a5,976 # 20000c20 <pvtStrVal.2308>
    20017858:	00f13423          	sd	a5,8(sp)
    2001785c:	fffe9797          	auipc	a5,0xfffe9
    20017860:	3e478793          	addi	a5,a5,996 # 20000c40 <pvtStrVal.2310>
    20017864:	00f13823          	sd	a5,16(sp)
    20017868:	fffe9797          	auipc	a5,0xfffe9
    2001786c:	3f878793          	addi	a5,a5,1016 # 20000c60 <pvtStrVal.2312>
    20017870:	00f13c23          	sd	a5,24(sp)
    20017874:	fffe9797          	auipc	a5,0xfffe9
    20017878:	40478793          	addi	a5,a5,1028 # 20000c78 <pvtStrVal.2314>
    2001787c:	02f13023          	sd	a5,32(sp)
    20017880:	fffe9797          	auipc	a5,0xfffe9
    20017884:	40878793          	addi	a5,a5,1032 # 20000c88 <pvtStrVal.2316>
    20017888:	02f13423          	sd	a5,40(sp)
    2001788c:	fffe9797          	auipc	a5,0xfffe9
    20017890:	41478793          	addi	a5,a5,1044 # 20000ca0 <pvtStrVal.2318>
    20017894:	02f13823          	sd	a5,48(sp)
    20017898:	fffe9797          	auipc	a5,0xfffe9
    2001789c:	42078793          	addi	a5,a5,1056 # 20000cb8 <pvtStrVal.2320>
    200178a0:	02f13c23          	sd	a5,56(sp)
    200178a4:	fffe9797          	auipc	a5,0xfffe9
    200178a8:	43478793          	addi	a5,a5,1076 # 20000cd8 <pvtStrVal.2322>
    200178ac:	04f13023          	sd	a5,64(sp)
    200178b0:	00000693          	li	a3,0
    200178b4:	00090463          	beqz	s2,200178bc <lwrtosRiscvExceptionHook+0xb0>
    200178b8:	0f893683          	ld	a3,248(s2)
    200178bc:	00040593          	mv	a1,s0
    200178c0:	fffea517          	auipc	a0,0xfffea
    200178c4:	0d050513          	addi	a0,a0,208 # 20001990 <__FUNCTION__.2256+0x570>
    200178c8:	6f1080ef          	jal	ra,200207b8 <printf>
    200178cc:	00200793          	li	a5,2
    200178d0:	06f41263          	bne	s0,a5,20017934 <lwrtosRiscvExceptionHook+0x128>
    200178d4:	00098593          	mv	a1,s3
    200178d8:	fffea517          	auipc	a0,0xfffea
    200178dc:	0e050513          	addi	a0,a0,224 # 200019b8 <__FUNCTION__.2256+0x598>
    200178e0:	6d9080ef          	jal	ra,200207b8 <printf>
    200178e4:	05010713          	addi	a4,sp,80
    200178e8:	00341793          	slli	a5,s0,0x3
    200178ec:	00f707b3          	add	a5,a4,a5
    200178f0:	fb87b583          	ld	a1,-72(a5)
    200178f4:	fffea517          	auipc	a0,0xfffea
    200178f8:	0ec50513          	addi	a0,a0,236 # 200019e0 <__FUNCTION__.2256+0x5c0>
    200178fc:	6bd080ef          	jal	ra,200207b8 <printf>
    20017900:	00300793          	li	a5,3
    20017904:	06f40063          	beq	s0,a5,20017964 <lwrtosRiscvExceptionHook+0x158>
    20017908:	04813703          	ld	a4,72(sp)
    2001790c:	0004b783          	ld	a5,0(s1)
    20017910:	00040513          	mv	a0,s0
    20017914:	06f71e63          	bne	a4,a5,20017990 <lwrtosRiscvExceptionHook+0x184>
    20017918:	07013403          	ld	s0,112(sp)
    2001791c:	07813083          	ld	ra,120(sp)
    20017920:	06813483          	ld	s1,104(sp)
    20017924:	06013903          	ld	s2,96(sp)
    20017928:	05813983          	ld	s3,88(sp)
    2001792c:	08010113          	addi	sp,sp,128
    20017930:	d8dff06f          	j	200176bc <kernelVerboseCrash>
    20017934:	00300793          	li	a5,3
    20017938:	faf406e3          	beq	s0,a5,200178e4 <lwrtosRiscvExceptionHook+0xd8>
    2001793c:	00098593          	mv	a1,s3
    20017940:	fffea517          	auipc	a0,0xfffea
    20017944:	09050513          	addi	a0,a0,144 # 200019d0 <__FUNCTION__.2256+0x5b0>
    20017948:	671080ef          	jal	ra,200207b8 <printf>
    2001794c:	00700793          	li	a5,7
    20017950:	f887fae3          	bleu	s0,a5,200178e4 <lwrtosRiscvExceptionHook+0xd8>
    20017954:	fffea517          	auipc	a0,0xfffea
    20017958:	ee450513          	addi	a0,a0,-284 # 20001838 <__FUNCTION__.2256+0x418>
    2001795c:	65d080ef          	jal	ra,200207b8 <printf>
    20017960:	fa9ff06f          	j	20017908 <lwrtosRiscvExceptionHook+0xfc>
    20017964:	04893583          	ld	a1,72(s2)
    20017968:	0015f793          	andi	a5,a1,1
    2001796c:	00079a63          	bnez	a5,20017980 <lwrtosRiscvExceptionHook+0x174>
    20017970:	0015d59b          	srliw	a1,a1,0x1
    20017974:	fffea517          	auipc	a0,0xfffea
    20017978:	07450513          	addi	a0,a0,116 # 200019e8 <__FUNCTION__.2256+0x5c8>
    2001797c:	63d080ef          	jal	ra,200207b8 <printf>
    20017980:	04813703          	ld	a4,72(sp)
    20017984:	0004b783          	ld	a5,0(s1)
    20017988:	00300513          	li	a0,3
    2001798c:	f8f706e3          	beq	a4,a5,20017918 <lwrtosRiscvExceptionHook+0x10c>
    20017990:	6a5080ef          	jal	ra,20020834 <__stack_chk_fail>

0000000020017994 <mmInitTaskMemory>:
    20017994:	fb010113          	addi	sp,sp,-80
    20017998:	02913c23          	sd	s1,56(sp)
    2001799c:	ffff9497          	auipc	s1,0xffff9
    200179a0:	2944b483          	ld	s1,660(s1) # 20010c30 <__section_globalRodataCmn_data_start+0x30>
    200179a4:	03313423          	sd	s3,40(sp)
    200179a8:	00078993          	mv	s3,a5
    200179ac:	0004b783          	ld	a5,0(s1)
    200179b0:	03213823          	sd	s2,48(sp)
    200179b4:	00058913          	mv	s2,a1
    200179b8:	00090513          	mv	a0,s2
    200179bc:	00060593          	mv	a1,a2
    200179c0:	00068613          	mv	a2,a3
    200179c4:	04813023          	sd	s0,64(sp)
    200179c8:	03413023          	sd	s4,32(sp)
    200179cc:	00e13423          	sd	a4,8(sp)
    200179d0:	00f13c23          	sd	a5,24(sp)
    200179d4:	04113423          	sd	ra,72(sp)
    200179d8:	200030ef          	jal	ra,2001abd8 <mpuTaskInit>
    200179dc:	00813703          	ld	a4,8(sp)
    200179e0:	ffff9797          	auipc	a5,0xffff9
    200179e4:	3887b783          	ld	a5,904(a5) # 20010d68 <__section_globalRodataCmn_data_start+0x168>
    200179e8:	00078a13          	mv	s4,a5
    200179ec:	00e786b3          	add	a3,a5,a4
    200179f0:	0006c603          	lbu	a2,0(a3)
    200179f4:	00100693          	li	a3,1
    200179f8:	fff00413          	li	s0,-1
    200179fc:	08c6fe63          	bleu	a2,a3,20017a98 <mmInitTaskMemory+0x104>
    20017a00:	fffeb797          	auipc	a5,0xfffeb
    20017a04:	fa878793          	addi	a5,a5,-88 # 200029a8 <mmWprId>
    20017a08:	0007b683          	ld	a3,0(a5)
    20017a0c:	1f0007b7          	lui	a5,0x1f000
    20017a10:	ffff9597          	auipc	a1,0xffff9
    20017a14:	2885b583          	ld	a1,648(a1) # 20010c98 <__section_globalRodataCmn_data_start+0x98>
    20017a18:	01869693          	slli	a3,a3,0x18
    20017a1c:	00f6f6b3          	and	a3,a3,a5
    20017a20:	00271793          	slli	a5,a4,0x2
    20017a24:	00f585b3          	add	a1,a1,a5
    20017a28:	0005e783          	lwu	a5,0(a1)
    20017a2c:	ffd60613          	addi	a2,a2,-3
    20017a30:	00371713          	slli	a4,a4,0x3
    20017a34:	ffff9597          	auipc	a1,0xffff9
    20017a38:	2d45b583          	ld	a1,724(a1) # 20010d08 <__section_globalRodataCmn_data_start+0x108>
    20017a3c:	00c03633          	snez	a2,a2
    20017a40:	ffff9817          	auipc	a6,0xffff9
    20017a44:	30883803          	ld	a6,776(a6) # 20010d48 <__section_globalRodataCmn_data_start+0x148>
    20017a48:	ffff9517          	auipc	a0,0xffff9
    20017a4c:	2f853503          	ld	a0,760(a0) # 20010d40 <__section_globalRodataCmn_data_start+0x140>
    20017a50:	00f6e6b3          	or	a3,a3,a5
    20017a54:	00e80833          	add	a6,a6,a4
    20017a58:	00e50533          	add	a0,a0,a4
    20017a5c:	01261613          	slli	a2,a2,0x12
    20017a60:	00e58733          	add	a4,a1,a4
    20017a64:	00c6e6b3          	or	a3,a3,a2
    20017a68:	00053583          	ld	a1,0(a0)
    20017a6c:	00083603          	ld	a2,0(a6)
    20017a70:	00073503          	ld	a0,0(a4)
    20017a74:	49d020ef          	jal	ra,2001a710 <mpuEntryNew>
    20017a78:	fff00793          	li	a5,-1
    20017a7c:	00050413          	mv	s0,a0
    20017a80:	00f51c63          	bne	a0,a5,20017a98 <mmInitTaskMemory+0x104>
    20017a84:	0ff00513          	li	a0,255
    20017a88:	01813703          	ld	a4,24(sp)
    20017a8c:	0004b783          	ld	a5,0(s1)
    20017a90:	0ef70c63          	beq	a4,a5,20017b88 <mmInitTaskMemory+0x1f4>
    20017a94:	5a1080ef          	jal	ra,20020834 <__stack_chk_fail>
    20017a98:	013a07b3          	add	a5,s4,s3
    20017a9c:	0007c703          	lbu	a4,0(a5) # 1f000000 <__fbgpa_physical_size+0x11000000>
    20017aa0:	00100793          	li	a5,1
    20017aa4:	0ae7fa63          	bleu	a4,a5,20017b58 <mmInitTaskMemory+0x1c4>
    20017aa8:	fffeb797          	auipc	a5,0xfffeb
    20017aac:	f0078793          	addi	a5,a5,-256 # 200029a8 <mmWprId>
    20017ab0:	0007b683          	ld	a3,0(a5)
    20017ab4:	1f0007b7          	lui	a5,0x1f000
    20017ab8:	00299613          	slli	a2,s3,0x2
    20017abc:	01869693          	slli	a3,a3,0x18
    20017ac0:	00f6f6b3          	and	a3,a3,a5
    20017ac4:	ffff9797          	auipc	a5,0xffff9
    20017ac8:	1d47b783          	ld	a5,468(a5) # 20010c98 <__section_globalRodataCmn_data_start+0x98>
    20017acc:	00c787b3          	add	a5,a5,a2
    20017ad0:	0007e783          	lwu	a5,0(a5)
    20017ad4:	00399993          	slli	s3,s3,0x3
    20017ad8:	ffff9617          	auipc	a2,0xffff9
    20017adc:	27063603          	ld	a2,624(a2) # 20010d48 <__section_globalRodataCmn_data_start+0x148>
    20017ae0:	00f6e6b3          	or	a3,a3,a5
    20017ae4:	ffff9597          	auipc	a1,0xffff9
    20017ae8:	25c5b583          	ld	a1,604(a1) # 20010d40 <__section_globalRodataCmn_data_start+0x140>
    20017aec:	ffff9797          	auipc	a5,0xffff9
    20017af0:	21c7b783          	ld	a5,540(a5) # 20010d08 <__section_globalRodataCmn_data_start+0x108>
    20017af4:	01360633          	add	a2,a2,s3
    20017af8:	013585b3          	add	a1,a1,s3
    20017afc:	ffe70713          	addi	a4,a4,-2
    20017b00:	013789b3          	add	s3,a5,s3
    20017b04:	0009b503          	ld	a0,0(s3)
    20017b08:	00e03733          	snez	a4,a4
    20017b0c:	00063603          	ld	a2,0(a2)
    20017b10:	0005b583          	ld	a1,0(a1)
    20017b14:	01271713          	slli	a4,a4,0x12
    20017b18:	00e6e6b3          	or	a3,a3,a4
    20017b1c:	3f5020ef          	jal	ra,2001a710 <mpuEntryNew>
    20017b20:	fff00793          	li	a5,-1
    20017b24:	00050993          	mv	s3,a0
    20017b28:	00f51a63          	bne	a0,a5,20017b3c <mmInitTaskMemory+0x1a8>
    20017b2c:	f4a40ce3          	beq	s0,a0,20017a84 <mmInitTaskMemory+0xf0>
    20017b30:	00040513          	mv	a0,s0
    20017b34:	5ad020ef          	jal	ra,2001a8e0 <mpuEntryRelease>
    20017b38:	f4dff06f          	j	20017a84 <mmInitTaskMemory+0xf0>
    20017b3c:	02f41463          	bne	s0,a5,20017b64 <mmInitTaskMemory+0x1d0>
    20017b40:	00098593          	mv	a1,s3
    20017b44:	00090513          	mv	a0,s2
    20017b48:	2d5030ef          	jal	ra,2001b61c <mpuTaskEntryAddPreInit>
    20017b4c:	00098513          	mv	a0,s3
    20017b50:	591020ef          	jal	ra,2001a8e0 <mpuEntryRelease>
    20017b54:	02c0006f          	j	20017b80 <mmInitTaskMemory+0x1ec>
    20017b58:	fff00793          	li	a5,-1
    20017b5c:	02f40263          	beq	s0,a5,20017b80 <mmInitTaskMemory+0x1ec>
    20017b60:	fff00993          	li	s3,-1
    20017b64:	00040593          	mv	a1,s0
    20017b68:	00090513          	mv	a0,s2
    20017b6c:	2b1030ef          	jal	ra,2001b61c <mpuTaskEntryAddPreInit>
    20017b70:	00040513          	mv	a0,s0
    20017b74:	56d020ef          	jal	ra,2001a8e0 <mpuEntryRelease>
    20017b78:	fff00793          	li	a5,-1
    20017b7c:	fcf992e3          	bne	s3,a5,20017b40 <mmInitTaskMemory+0x1ac>
    20017b80:	00000513          	li	a0,0
    20017b84:	f05ff06f          	j	20017a88 <mmInitTaskMemory+0xf4>
    20017b88:	04813083          	ld	ra,72(sp)
    20017b8c:	04013403          	ld	s0,64(sp)
    20017b90:	03813483          	ld	s1,56(sp)
    20017b94:	03013903          	ld	s2,48(sp)
    20017b98:	02813983          	ld	s3,40(sp)
    20017b9c:	02013a03          	ld	s4,32(sp)
    20017ba0:	05010113          	addi	sp,sp,80
    20017ba4:	00008067          	ret

0000000020017ba8 <tlsInit>:
    20017ba8:	fe010113          	addi	sp,sp,-32
    20017bac:	00113c23          	sd	ra,24(sp)
    20017bb0:	ffff9797          	auipc	a5,0xffff9
    20017bb4:	0807b783          	ld	a5,128(a5) # 20010c30 <__section_globalRodataCmn_data_start+0x30>
    20017bb8:	0007b703          	ld	a4,0(a5)
    20017bbc:	00e13423          	sd	a4,8(sp)
    20017bc0:	fffeb717          	auipc	a4,0xfffeb
    20017bc4:	de073823          	sd	zero,-528(a4) # 200029b0 <kernelTls>
    20017bc8:	10100713          	li	a4,257
    20017bcc:	fffeb697          	auipc	a3,0xfffeb
    20017bd0:	dee69623          	sh	a4,-532(a3) # 200029b8 <kernelTls+0x8>
    20017bd4:	fffeb717          	auipc	a4,0xfffeb
    20017bd8:	de073623          	sd	zero,-532(a4) # 200029c0 <kernelTls+0x10>
    20017bdc:	fffeb717          	auipc	a4,0xfffeb
    20017be0:	de073623          	sd	zero,-532(a4) # 200029c8 <kernelTls+0x18>
    20017be4:	fffeb717          	auipc	a4,0xfffeb
    20017be8:	dcc70713          	addi	a4,a4,-564 # 200029b0 <kernelTls>
    20017bec:	00070213          	mv	tp,a4
    20017bf0:	00813703          	ld	a4,8(sp)
    20017bf4:	0007b783          	ld	a5,0(a5)
    20017bf8:	00f70463          	beq	a4,a5,20017c00 <tlsInit+0x58>
    20017bfc:	439080ef          	jal	ra,20020834 <__stack_chk_fail>
    20017c00:	01813083          	ld	ra,24(sp)
    20017c04:	02010113          	addi	sp,sp,32
    20017c08:	00008067          	ret

0000000020017c0c <lwrtosHookSyscall>:
    20017c0c:	fc010113          	addi	sp,sp,-64
    20017c10:	02913423          	sd	s1,40(sp)
    20017c14:	ffff9497          	auipc	s1,0xffff9
    20017c18:	01c4b483          	ld	s1,28(s1) # 20010c30 <__section_globalRodataCmn_data_start+0x30>
    20017c1c:	0004b783          	ld	a5,0(s1)
    20017c20:	02813823          	sd	s0,48(sp)
    20017c24:	02113c23          	sd	ra,56(sp)
    20017c28:	00f13c23          	sd	a5,24(sp)
    20017c2c:	00050413          	mv	s0,a0
    20017c30:	01113423          	sd	a7,8(sp)
    20017c34:	b78fe0ef          	jal	ra,20015fac <xPortGetExceptionNesting>
    20017c38:	fff00793          	li	a5,-1
    20017c3c:	00100713          	li	a4,1
    20017c40:	03f79793          	slli	a5,a5,0x3f
    20017c44:	00813603          	ld	a2,8(sp)
    20017c48:	06a77063          	bleu	a0,a4,20017ca8 <lwrtosHookSyscall+0x9c>
    20017c4c:	01f78793          	addi	a5,a5,31
    20017c50:	04c7f463          	bleu	a2,a5,20017c98 <lwrtosHookSyscall+0x8c>
    20017c54:	fc100593          	li	a1,-63
    20017c58:	0015d593          	srli	a1,a1,0x1
    20017c5c:	00b605b3          	add	a1,a2,a1
    20017c60:	fffea517          	auipc	a0,0xfffea
    20017c64:	f8850513          	addi	a0,a0,-120 # 20001be8 <__FUNCTION__.2256+0x7c8>
    20017c68:	351080ef          	jal	ra,200207b8 <printf>
    20017c6c:	00000513          	li	a0,0
    20017c70:	a4dff0ef          	jal	ra,200176bc <kernelVerboseCrash>
    20017c74:	03500513          	li	a0,53
    20017c78:	0f81b783          	ld	a5,248(gp)
    20017c7c:	01813703          	ld	a4,24(sp)
    20017c80:	04a1b423          	sd	a0,72(gp)
    20017c84:	00478793          	addi	a5,a5,4
    20017c88:	0ef1bc23          	sd	a5,248(gp)
    20017c8c:	0004b783          	ld	a5,0(s1)
    20017c90:	18f70863          	beq	a4,a5,20017e20 <lwrtosHookSyscall+0x214>
    20017c94:	3a1080ef          	jal	ra,20020834 <__stack_chk_fail>
    20017c98:	00060593          	mv	a1,a2
    20017c9c:	fffea517          	auipc	a0,0xfffea
    20017ca0:	f8450513          	addi	a0,a0,-124 # 20001c20 <__FUNCTION__.2256+0x800>
    20017ca4:	fc5ff06f          	j	20017c68 <lwrtosHookSyscall+0x5c>
    20017ca8:	02278693          	addi	a3,a5,34
    20017cac:	14d60463          	beq	a2,a3,20017df4 <lwrtosHookSyscall+0x1e8>
    20017cb0:	06c6ec63          	bltu	a3,a2,20017d28 <lwrtosHookSyscall+0x11c>
    20017cb4:	01778693          	addi	a3,a5,23
    20017cb8:	02c6ec63          	bltu	a3,a2,20017cf0 <lwrtosHookSyscall+0xe4>
    20017cbc:	01378693          	addi	a3,a5,19
    20017cc0:	04d67663          	bleu	a3,a2,20017d0c <lwrtosHookSyscall+0x100>
    20017cc4:	01078693          	addi	a3,a5,16
    20017cc8:	0cd60663          	beq	a2,a3,20017d94 <lwrtosHookSyscall+0x188>
    20017ccc:	01178793          	addi	a5,a5,17
    20017cd0:	0cf60a63          	beq	a2,a5,20017da4 <lwrtosHookSyscall+0x198>
    20017cd4:	ffff9797          	auipc	a5,0xffff9
    20017cd8:	f747b783          	ld	a5,-140(a5) # 20010c48 <__section_globalRodataCmn_data_start+0x48>
    20017cdc:	0007b583          	ld	a1,0(a5)
    20017ce0:	fffea517          	auipc	a0,0xfffea
    20017ce4:	fc850513          	addi	a0,a0,-56 # 20001ca8 <__FUNCTION__.2256+0x888>
    20017ce8:	2d1080ef          	jal	ra,200207b8 <printf>
    20017cec:	0300006f          	j	20017d1c <lwrtosHookSyscall+0x110>
    20017cf0:	02078793          	addi	a5,a5,32
    20017cf4:	0cf60663          	beq	a2,a5,20017dc0 <lwrtosHookSyscall+0x1b4>
    20017cf8:	0ec7e863          	bltu	a5,a2,20017de8 <lwrtosHookSyscall+0x1dc>
    20017cfc:	fcf00793          	li	a5,-49
    20017d00:	0017d793          	srli	a5,a5,0x1
    20017d04:	00f607b3          	add	a5,a2,a5
    20017d08:	fcf766e3          	bltu	a4,a5,20017cd4 <lwrtosHookSyscall+0xc8>
    20017d0c:	00060593          	mv	a1,a2
    20017d10:	fffea517          	auipc	a0,0xfffea
    20017d14:	f5850513          	addi	a0,a0,-168 # 20001c68 <__FUNCTION__.2256+0x848>
    20017d18:	2a1080ef          	jal	ra,200207b8 <printf>
    20017d1c:	00000513          	li	a0,0
    20017d20:	99dff0ef          	jal	ra,200176bc <kernelVerboseCrash>
    20017d24:	0940006f          	j	20017db8 <lwrtosHookSyscall+0x1ac>
    20017d28:	03478693          	addi	a3,a5,52
    20017d2c:	0ed60663          	beq	a2,a3,20017e18 <lwrtosHookSyscall+0x20c>
    20017d30:	02c6e263          	bltu	a3,a2,20017d54 <lwrtosHookSyscall+0x148>
    20017d34:	02478713          	addi	a4,a5,36
    20017d38:	0ce60a63          	beq	a2,a4,20017e0c <lwrtosHookSyscall+0x200>
    20017d3c:	0ce66263          	bltu	a2,a4,20017e00 <lwrtosHookSyscall+0x1f4>
    20017d40:	02678793          	addi	a5,a5,38
    20017d44:	f8f618e3          	bne	a2,a5,20017cd4 <lwrtosHookSyscall+0xc8>
    20017d48:	0ff47513          	andi	a0,s0,255
    20017d4c:	f60ff0ef          	jal	ra,200174ac <irqFireSwGen>
    20017d50:	0680006f          	j	20017db8 <lwrtosHookSyscall+0x1ac>
    20017d54:	03778693          	addi	a3,a5,55
    20017d58:	06d60a63          	beq	a2,a3,20017dcc <lwrtosHookSyscall+0x1c0>
    20017d5c:	02c6e063          	bltu	a3,a2,20017d7c <lwrtosHookSyscall+0x170>
    20017d60:	03678793          	addi	a5,a5,54
    20017d64:	f6f618e3          	bne	a2,a5,20017cd4 <lwrtosHookSyscall+0xc8>
    20017d68:	ffff9797          	auipc	a5,0xffff9
    20017d6c:	ee07b783          	ld	a5,-288(a5) # 20010c48 <__section_globalRodataCmn_data_start+0x48>
    20017d70:	0007b503          	ld	a0,0(a5)
    20017d74:	f9cff0ef          	jal	ra,20017510 <kernelVerboseOops>
    20017d78:	0400006f          	j	20017db8 <lwrtosHookSyscall+0x1ac>
    20017d7c:	03878713          	addi	a4,a5,56
    20017d80:	04e60c63          	beq	a2,a4,20017dd8 <lwrtosHookSyscall+0x1cc>
    20017d84:	03e78793          	addi	a5,a5,62
    20017d88:	f4f616e3          	bne	a2,a5,20017cd4 <lwrtosHookSyscall+0xc8>
    20017d8c:	10500073          	wfi
    20017d90:	0280006f          	j	20017db8 <lwrtosHookSyscall+0x1ac>
    20017d94:	ffff9797          	auipc	a5,0xffff9
    20017d98:	f9c7b783          	ld	a5,-100(a5) # 20010d30 <__section_globalRodataCmn_data_start+0x130>
    20017d9c:	00e78023          	sb	a4,0(a5)
    20017da0:	0180006f          	j	20017db8 <lwrtosHookSyscall+0x1ac>
    20017da4:	ffff9797          	auipc	a5,0xffff9
    20017da8:	ea47b783          	ld	a5,-348(a5) # 20010c48 <__section_globalRodataCmn_data_start+0x48>
    20017dac:	0007b503          	ld	a0,0(a5)
    20017db0:	ff800593          	li	a1,-8
    20017db4:	948fe0ef          	jal	ra,20015efc <vPortErrorHook>
    20017db8:	00000513          	li	a0,0
    20017dbc:	ebdff06f          	j	20017c78 <lwrtosHookSyscall+0x6c>
    20017dc0:	00040513          	mv	a0,s0
    20017dc4:	19d080ef          	jal	ra,20020760 <puts>
    20017dc8:	ff1ff06f          	j	20017db8 <lwrtosHookSyscall+0x1ac>
    20017dcc:	ffff9797          	auipc	a5,0xffff9
    20017dd0:	e947b783          	ld	a5,-364(a5) # 20010c60 <__section_globalRodataCmn_data_start+0x60>
    20017dd4:	fc9ff06f          	j	20017d9c <lwrtosHookSyscall+0x190>
    20017dd8:	ffff9797          	auipc	a5,0xffff9
    20017ddc:	e887b783          	ld	a5,-376(a5) # 20010c60 <__section_globalRodataCmn_data_start+0x60>
    20017de0:	00078023          	sb	zero,0(a5)
    20017de4:	fd5ff06f          	j	20017db8 <lwrtosHookSyscall+0x1ac>
    20017de8:	00040513          	mv	a0,s0
    20017dec:	238000ef          	jal	ra,20018024 <cmdqRegisterNotifier>
    20017df0:	e89ff06f          	j	20017c78 <lwrtosHookSyscall+0x6c>
    20017df4:	00040513          	mv	a0,s0
    20017df8:	3b0000ef          	jal	ra,200181a8 <cmdqUnregisterNotifier>
    20017dfc:	e7dff06f          	j	20017c78 <lwrtosHookSyscall+0x6c>
    20017e00:	00040513          	mv	a0,s0
    20017e04:	2a0000ef          	jal	ra,200180a4 <cmdqEnableNotifier>
    20017e08:	e71ff06f          	j	20017c78 <lwrtosHookSyscall+0x6c>
    20017e0c:	00040513          	mv	a0,s0
    20017e10:	314000ef          	jal	ra,20018124 <cmdqDisableNotifier>
    20017e14:	e65ff06f          	j	20017c78 <lwrtosHookSyscall+0x6c>
    20017e18:	255010ef          	jal	ra,2001986c <appShutdown>
    20017e1c:	f9dff06f          	j	20017db8 <lwrtosHookSyscall+0x1ac>
    20017e20:	03813083          	ld	ra,56(sp)
    20017e24:	03013403          	ld	s0,48(sp)
    20017e28:	02813483          	ld	s1,40(sp)
    20017e2c:	04010113          	addi	sp,sp,64
    20017e30:	00008067          	ret

0000000020017e34 <sbiSetTimer>:
    20017e34:	fc010113          	addi	sp,sp,-64
    20017e38:	03213023          	sd	s2,32(sp)
    20017e3c:	ffff9917          	auipc	s2,0xffff9
    20017e40:	df493903          	ld	s2,-524(s2) # 20010c30 <__section_globalRodataCmn_data_start+0x30>
    20017e44:	00093783          	ld	a5,0(s2)
    20017e48:	02113c23          	sd	ra,56(sp)
    20017e4c:	02813823          	sd	s0,48(sp)
    20017e50:	02913423          	sd	s1,40(sp)
    20017e54:	00f13c23          	sd	a5,24(sp)
    20017e58:	00000893          	li	a7,0
    20017e5c:	00000813          	li	a6,0
    20017e60:	00018413          	mv	s0,gp
    20017e64:	00020493          	mv	s1,tp
    20017e68:	00000073          	ecall
    20017e6c:	00048213          	mv	tp,s1
    20017e70:	00040193          	mv	gp,s0
    20017e74:	01813703          	ld	a4,24(sp)
    20017e78:	00093783          	ld	a5,0(s2)
    20017e7c:	00a13423          	sd	a0,8(sp)
    20017e80:	00b13823          	sd	a1,16(sp)
    20017e84:	00f70463          	beq	a4,a5,20017e8c <sbiSetTimer+0x58>
    20017e88:	1ad080ef          	jal	ra,20020834 <__stack_chk_fail>
    20017e8c:	03813083          	ld	ra,56(sp)
    20017e90:	03013403          	ld	s0,48(sp)
    20017e94:	02813483          	ld	s1,40(sp)
    20017e98:	02013903          	ld	s2,32(sp)
    20017e9c:	04010113          	addi	sp,sp,64
    20017ea0:	00008067          	ret

0000000020017ea4 <sbiShutdown>:
    20017ea4:	fd010113          	addi	sp,sp,-48
    20017ea8:	02113423          	sd	ra,40(sp)
    20017eac:	02813023          	sd	s0,32(sp)
    20017eb0:	00913c23          	sd	s1,24(sp)
    20017eb4:	ffff9797          	auipc	a5,0xffff9
    20017eb8:	d7c7b783          	ld	a5,-644(a5) # 20010c30 <__section_globalRodataCmn_data_start+0x30>
    20017ebc:	0007b783          	ld	a5,0(a5)
    20017ec0:	00800893          	li	a7,8
    20017ec4:	00000813          	li	a6,0
    20017ec8:	00f13423          	sd	a5,8(sp)
    20017ecc:	00018413          	mv	s0,gp
    20017ed0:	00020493          	mv	s1,tp
    20017ed4:	00000073          	ecall
    20017ed8:	00048213          	mv	tp,s1
    20017edc:	00040193          	mv	gp,s0

0000000020017ee0 <cmdqIrqHandler>:
    20017ee0:	f9010113          	addi	sp,sp,-112
    20017ee4:	05313423          	sd	s3,72(sp)
    20017ee8:	ffff9997          	auipc	s3,0xffff9
    20017eec:	d489b983          	ld	s3,-696(s3) # 20010c30 <__section_globalRodataCmn_data_start+0x30>
    20017ef0:	0009b783          	ld	a5,0(s3)
    20017ef4:	06113423          	sd	ra,104(sp)
    20017ef8:	06813023          	sd	s0,96(sp)
    20017efc:	00f13423          	sd	a5,8(sp)
    20017f00:	04913c23          	sd	s1,88(sp)
    20017f04:	05213823          	sd	s2,80(sp)
    20017f08:	05413023          	sd	s4,64(sp)
    20017f0c:	03513c23          	sd	s5,56(sp)
    20017f10:	03613823          	sd	s6,48(sp)
    20017f14:	03713423          	sd	s7,40(sp)
    20017f18:	03813023          	sd	s8,32(sp)
    20017f1c:	01913c23          	sd	s9,24(sp)
    20017f20:	01a13823          	sd	s10,16(sp)
    20017f24:	014287b7          	lui	a5,0x1428
    20017f28:	01429737          	lui	a4,0x1429
    20017f2c:	0007a483          	lw	s1,0(a5) # 1428000 <__emem_ptr+0x227c00>
    20017f30:	90072403          	lw	s0,-1792(a4) # 1428900 <__emem_ptr+0x228500>
    20017f34:	0004849b          	sext.w	s1,s1
    20017f38:	0004041b          	sext.w	s0,s0
    20017f3c:	009474b3          	and	s1,s0,s1
    20017f40:	08048e63          	beqz	s1,20017fdc <cmdqIrqHandler+0xfc>
    20017f44:	0097a023          	sw	s1,0(a5)
    20017f48:	00000913          	li	s2,0
    20017f4c:	00100b13          	li	s6,1
    20017f50:	fffebb97          	auipc	s7,0xfffeb
    20017f54:	a80b8b93          	addi	s7,s7,-1408 # 200029d0 <cmdqListeners>
    20017f58:	00710c13          	addi	s8,sp,7
    20017f5c:	ffff9c97          	auipc	s9,0xffff9
    20017f60:	dd4cbc83          	ld	s9,-556(s9) # 20010d30 <__section_globalRodataCmn_data_start+0x130>
    20017f64:	fffead17          	auipc	s10,0xfffea
    20017f68:	d6cd0d13          	addi	s10,s10,-660 # 20001cd0 <__FUNCTION__.2256+0x8b0>
    20017f6c:	00800a93          	li	s5,8
    20017f70:	012b163b          	sllw	a2,s6,s2
    20017f74:	00c4f7b3          	and	a5,s1,a2
    20017f78:	0007879b          	sext.w	a5,a5
    20017f7c:	04078863          	beqz	a5,20017fcc <cmdqIrqHandler+0xec>
    20017f80:	00391a13          	slli	s4,s2,0x3
    20017f84:	014b8a33          	add	s4,s7,s4
    20017f88:	000a3503          	ld	a0,0(s4)
    20017f8c:	fff64793          	not	a5,a2
    20017f90:	0087f433          	and	s0,a5,s0
    20017f94:	0004041b          	sext.w	s0,s0
    20017f98:	02050a63          	beqz	a0,20017fcc <cmdqIrqHandler+0xec>
    20017f9c:	02061613          	slli	a2,a2,0x20
    20017fa0:	000c0693          	mv	a3,s8
    20017fa4:	02065613          	srli	a2,a2,0x20
    20017fa8:	00100593          	li	a1,1
    20017fac:	8d8fc0ef          	jal	ra,20014084 <lwrtosTaskNotifySendFromISR>
    20017fb0:	00050a63          	beqz	a0,20017fc4 <cmdqIrqHandler+0xe4>
    20017fb4:	00090593          	mv	a1,s2
    20017fb8:	000d0513          	mv	a0,s10
    20017fbc:	7fc080ef          	jal	ra,200207b8 <printf>
    20017fc0:	000a3023          	sd	zero,0(s4)
    20017fc4:	00714783          	lbu	a5,7(sp)
    20017fc8:	00fc8023          	sb	a5,0(s9)
    20017fcc:	00190913          	addi	s2,s2,1
    20017fd0:	fb5910e3          	bne	s2,s5,20017f70 <cmdqIrqHandler+0x90>
    20017fd4:	014297b7          	lui	a5,0x1429
    20017fd8:	9087a023          	sw	s0,-1792(a5) # 1428900 <__emem_ptr+0x228500>
    20017fdc:	00813703          	ld	a4,8(sp)
    20017fe0:	0009b783          	ld	a5,0(s3)
    20017fe4:	00f70463          	beq	a4,a5,20017fec <cmdqIrqHandler+0x10c>
    20017fe8:	04d080ef          	jal	ra,20020834 <__stack_chk_fail>
    20017fec:	06813083          	ld	ra,104(sp)
    20017ff0:	06013403          	ld	s0,96(sp)
    20017ff4:	05813483          	ld	s1,88(sp)
    20017ff8:	05013903          	ld	s2,80(sp)
    20017ffc:	04813983          	ld	s3,72(sp)
    20018000:	04013a03          	ld	s4,64(sp)
    20018004:	03813a83          	ld	s5,56(sp)
    20018008:	03013b03          	ld	s6,48(sp)
    2001800c:	02813b83          	ld	s7,40(sp)
    20018010:	02013c03          	ld	s8,32(sp)
    20018014:	01813c83          	ld	s9,24(sp)
    20018018:	01013d03          	ld	s10,16(sp)
    2001801c:	07010113          	addi	sp,sp,112
    20018020:	00008067          	ret

0000000020018024 <cmdqRegisterNotifier>:
    20018024:	fd010113          	addi	sp,sp,-48
    20018028:	02813023          	sd	s0,32(sp)
    2001802c:	00913c23          	sd	s1,24(sp)
    20018030:	ffff9797          	auipc	a5,0xffff9
    20018034:	c007b783          	ld	a5,-1024(a5) # 20010c30 <__section_globalRodataCmn_data_start+0x30>
    20018038:	02113423          	sd	ra,40(sp)
    2001803c:	0007b703          	ld	a4,0(a5)
    20018040:	00050493          	mv	s1,a0
    20018044:	00078413          	mv	s0,a5
    20018048:	00e13423          	sd	a4,8(sp)
    2001804c:	00700713          	li	a4,7
    20018050:	01400513          	li	a0,20
    20018054:	02976663          	bltu	a4,s1,20018080 <cmdqRegisterNotifier+0x5c>
    20018058:	00349513          	slli	a0,s1,0x3
    2001805c:	fffeb497          	auipc	s1,0xfffeb
    20018060:	97448493          	addi	s1,s1,-1676 # 200029d0 <cmdqListeners>
    20018064:	00a484b3          	add	s1,s1,a0
    20018068:	0004b783          	ld	a5,0(s1)
    2001806c:	00500513          	li	a0,5
    20018070:	00079863          	bnez	a5,20018080 <cmdqRegisterNotifier+0x5c>
    20018074:	4d1070ef          	jal	ra,2001fd44 <lwrtosTaskGetLwrrentTaskHandle>
    20018078:	00a4b023          	sd	a0,0(s1)
    2001807c:	00000513          	li	a0,0
    20018080:	00813703          	ld	a4,8(sp)
    20018084:	00043783          	ld	a5,0(s0)
    20018088:	00f70463          	beq	a4,a5,20018090 <cmdqRegisterNotifier+0x6c>
    2001808c:	7a8080ef          	jal	ra,20020834 <__stack_chk_fail>
    20018090:	02813083          	ld	ra,40(sp)
    20018094:	02013403          	ld	s0,32(sp)
    20018098:	01813483          	ld	s1,24(sp)
    2001809c:	03010113          	addi	sp,sp,48
    200180a0:	00008067          	ret

00000000200180a4 <cmdqEnableNotifier>:
    200180a4:	fe010113          	addi	sp,sp,-32
    200180a8:	00113c23          	sd	ra,24(sp)
    200180ac:	ffff9717          	auipc	a4,0xffff9
    200180b0:	b8473703          	ld	a4,-1148(a4) # 20010c30 <__section_globalRodataCmn_data_start+0x30>
    200180b4:	00073783          	ld	a5,0(a4)
    200180b8:	01400693          	li	a3,20
    200180bc:	00f13423          	sd	a5,8(sp)
    200180c0:	00700793          	li	a5,7
    200180c4:	04a7e063          	bltu	a5,a0,20018104 <cmdqEnableNotifier+0x60>
    200180c8:	00351693          	slli	a3,a0,0x3
    200180cc:	fffeb797          	auipc	a5,0xfffeb
    200180d0:	90478793          	addi	a5,a5,-1788 # 200029d0 <cmdqListeners>
    200180d4:	00d787b3          	add	a5,a5,a3
    200180d8:	0007b783          	ld	a5,0(a5)
    200180dc:	01200693          	li	a3,18
    200180e0:	02078263          	beqz	a5,20018104 <cmdqEnableNotifier+0x60>
    200180e4:	01429637          	lui	a2,0x1429
    200180e8:	90062783          	lw	a5,-1792(a2) # 1428900 <__emem_ptr+0x228500>
    200180ec:	00100693          	li	a3,1
    200180f0:	00a696bb          	sllw	a3,a3,a0
    200180f4:	00d7e7b3          	or	a5,a5,a3
    200180f8:	0007879b          	sext.w	a5,a5
    200180fc:	90f62023          	sw	a5,-1792(a2)
    20018100:	00000693          	li	a3,0
    20018104:	00068513          	mv	a0,a3
    20018108:	00813683          	ld	a3,8(sp)
    2001810c:	00073783          	ld	a5,0(a4)
    20018110:	00f68463          	beq	a3,a5,20018118 <cmdqEnableNotifier+0x74>
    20018114:	720080ef          	jal	ra,20020834 <__stack_chk_fail>
    20018118:	01813083          	ld	ra,24(sp)
    2001811c:	02010113          	addi	sp,sp,32
    20018120:	00008067          	ret

0000000020018124 <cmdqDisableNotifier>:
    20018124:	fe010113          	addi	sp,sp,-32
    20018128:	00113c23          	sd	ra,24(sp)
    2001812c:	ffff9717          	auipc	a4,0xffff9
    20018130:	b0473703          	ld	a4,-1276(a4) # 20010c30 <__section_globalRodataCmn_data_start+0x30>
    20018134:	00073783          	ld	a5,0(a4)
    20018138:	01400693          	li	a3,20
    2001813c:	00f13423          	sd	a5,8(sp)
    20018140:	00700793          	li	a5,7
    20018144:	04a7e263          	bltu	a5,a0,20018188 <cmdqDisableNotifier+0x64>
    20018148:	00351693          	slli	a3,a0,0x3
    2001814c:	fffeb797          	auipc	a5,0xfffeb
    20018150:	88478793          	addi	a5,a5,-1916 # 200029d0 <cmdqListeners>
    20018154:	00d787b3          	add	a5,a5,a3
    20018158:	0007b783          	ld	a5,0(a5)
    2001815c:	01200693          	li	a3,18
    20018160:	02078463          	beqz	a5,20018188 <cmdqDisableNotifier+0x64>
    20018164:	014296b7          	lui	a3,0x1429
    20018168:	9006a603          	lw	a2,-1792(a3) # 1428900 <__emem_ptr+0x228500>
    2001816c:	00100793          	li	a5,1
    20018170:	00a797bb          	sllw	a5,a5,a0
    20018174:	fff7c793          	not	a5,a5
    20018178:	00c7f7b3          	and	a5,a5,a2
    2001817c:	0007879b          	sext.w	a5,a5
    20018180:	90f6a023          	sw	a5,-1792(a3)
    20018184:	00000693          	li	a3,0
    20018188:	00068513          	mv	a0,a3
    2001818c:	00813683          	ld	a3,8(sp)
    20018190:	00073783          	ld	a5,0(a4)
    20018194:	00f68463          	beq	a3,a5,2001819c <cmdqDisableNotifier+0x78>
    20018198:	69c080ef          	jal	ra,20020834 <__stack_chk_fail>
    2001819c:	01813083          	ld	ra,24(sp)
    200181a0:	02010113          	addi	sp,sp,32
    200181a4:	00008067          	ret

00000000200181a8 <cmdqUnregisterNotifier>:
    200181a8:	fd010113          	addi	sp,sp,-48
    200181ac:	ffff9797          	auipc	a5,0xffff9
    200181b0:	a847b783          	ld	a5,-1404(a5) # 20010c30 <__section_globalRodataCmn_data_start+0x30>
    200181b4:	02813023          	sd	s0,32(sp)
    200181b8:	02113423          	sd	ra,40(sp)
    200181bc:	00913c23          	sd	s1,24(sp)
    200181c0:	0007b703          	ld	a4,0(a5)
    200181c4:	00078413          	mv	s0,a5
    200181c8:	01400793          	li	a5,20
    200181cc:	00e13423          	sd	a4,8(sp)
    200181d0:	00700713          	li	a4,7
    200181d4:	02a76663          	bltu	a4,a0,20018200 <cmdqUnregisterNotifier+0x58>
    200181d8:	00351793          	slli	a5,a0,0x3
    200181dc:	fffea497          	auipc	s1,0xfffea
    200181e0:	7f448493          	addi	s1,s1,2036 # 200029d0 <cmdqListeners>
    200181e4:	00f484b3          	add	s1,s1,a5
    200181e8:	0004b703          	ld	a4,0(s1)
    200181ec:	01200793          	li	a5,18
    200181f0:	00070863          	beqz	a4,20018200 <cmdqUnregisterNotifier+0x58>
    200181f4:	f31ff0ef          	jal	ra,20018124 <cmdqDisableNotifier>
    200181f8:	00000793          	li	a5,0
    200181fc:	0004b023          	sd	zero,0(s1)
    20018200:	00078513          	mv	a0,a5
    20018204:	00813703          	ld	a4,8(sp)
    20018208:	00043783          	ld	a5,0(s0)
    2001820c:	00f70463          	beq	a4,a5,20018214 <cmdqUnregisterNotifier+0x6c>
    20018210:	624080ef          	jal	ra,20020834 <__stack_chk_fail>
    20018214:	02813083          	ld	ra,40(sp)
    20018218:	02013403          	ld	s0,32(sp)
    2001821c:	01813483          	ld	s1,24(sp)
    20018220:	03010113          	addi	sp,sp,48
    20018224:	00008067          	ret

0000000020018228 <irqInit>:
    20018228:	fb010113          	addi	sp,sp,-80
    2001822c:	01513c23          	sd	s5,24(sp)
    20018230:	ffff9a97          	auipc	s5,0xffff9
    20018234:	a00aba83          	ld	s5,-1536(s5) # 20010c30 <__section_globalRodataCmn_data_start+0x30>
    20018238:	000ab783          	ld	a5,0(s5)
    2001823c:	04113423          	sd	ra,72(sp)
    20018240:	04813023          	sd	s0,64(sp)
    20018244:	00f13423          	sd	a5,8(sp)
    20018248:	01455437          	lui	s0,0x1455
    2001824c:	02913c23          	sd	s1,56(sp)
    20018250:	03213823          	sd	s2,48(sp)
    20018254:	03313423          	sd	s3,40(sp)
    20018258:	03413023          	sd	s4,32(sp)
    2001825c:	01613823          	sd	s6,16(sp)
    20018260:	091070ef          	jal	ra,2001faf0 <lwrtosTaskCriticalEnter>
    20018264:	01400b37          	lui	s6,0x1400
    20018268:	b0042903          	lw	s2,-1280(s0) # 1454b00 <__emem_ptr+0x254700>
    2001826c:	fffea517          	auipc	a0,0xfffea
    20018270:	a9c50513          	addi	a0,a0,-1380 # 20001d08 <__FUNCTION__.2256+0x8e8>
    20018274:	c0042983          	lw	s3,-1024(s0)
    20018278:	300b2483          	lw	s1,768(s6) # 1400300 <__emem_ptr+0x1fff00>
    2001827c:	d0042a03          	lw	s4,-768(s0)
    20018280:	538080ef          	jal	ra,200207b8 <printf>
    20018284:	fff377b7          	lui	a5,0xfff37
    20018288:	ff378793          	addi	a5,a5,-13 # fffffffffff36ff3 <__elf_odp_cow_pa_ptr+0xdffffffff36ff3>
    2001828c:	0009091b          	sext.w	s2,s2
    20018290:	00f97933          	and	s2,s2,a5
    20018294:	ffff77b7          	lui	a5,0xffff7
