AppVersion: 30973581

_out/lr10/g_soeuc_lr10.out:     file format elf32-falcon


Disassembly of section .text:

00000000 <_start>:
       0:	d0 c0 fe 00 00    	  mvi a0 0xfec0;
       5:	fe 04 00          	  wspr SP a0;
       8:	7e 16 17 00       	  call 0x1716;
       c:	f8 02             	  halt;

0000000e <_lwrtosYield>:
       e:	f8 08             	  trap0;
      10:	f8 00             	  ret;

00000012 <_lwrtosTaskGetLwTcbExt>:
      12:	b3 a4 00 0a       	  cmpbrne.w a10 0x0 0x1c;
      16:	89 b4 0f 00       	  mvi a9 0xfb4;
      1a:	bf 9a             	  ldd.w a10 a9;
      1c:	b3 a0 00 11       	  cmpbreq.w a10 0x0 0x2d;
      20:	b3 b0 00 0d       	  cmpbreq.w a11 0x0 0x2d;
      24:	98 aa 01          	  ldd.w a10 a10 0x4;
      27:	a0 ba             	  std.w a11 a10;
      29:	3d a4             	  clr.b a10;
      2b:	f8 00             	  ret;
      2d:	f8 02             	  halt;
      2f:	0a ff             	  mvi a10 -0x1;
      31:	f8 00             	  ret;

00000033 <_lwrtosQueueSendFromISRWithStatus>:
      33:	bd 94             	  clr.w a9;
      35:	f4 30 fc          	  addsp -0x4;
      38:	f9 02             	  pushm a0;
      3a:	fe 40 01          	  rspr a0 SP;
      3d:	90 00 04          	  add.w a0 a0 0x4;
      40:	a0 09             	  std.w a0 a9;
      42:	b2 0d             	  mv.w a13 a0;
      44:	7e 23 03 00       	  call 0x323;
      48:	b2 af             	  mv.w a15 a10;
      4a:	b3 a4 01 16       	  cmpbrne.w a10 0x1 0x60;
      4e:	bf 0d             	  ldd.w a13 a0;
      50:	b3 d4 01 0a       	  cmpbrne.w a13 0x1 0x5a;
      54:	89 e1 2f 00       	  mvi a9 0x2fe1;
      58:	20 9d             	  std.b a9 a13;
      5a:	3d a4             	  clr.b a10;
      5c:	3e 6b 00 00       	  jmp 0x6b;
      60:	0a 04             	  mvi a10 0x4;
      62:	09 fc             	  mvi a9 -0x4;
      64:	a6 f9             	  cmp.w a15 a9;
      66:	f4 0b 05          	  breq 0x6b;
      69:	0a ff             	  mvi a10 -0x1;
      6b:	fb 05 04          	  popma a0 0x1 0x4;

0000006e <_lwrtosQueueSendFromISR>:
      6e:	7e 33 00 00       	  call 0x33;
      72:	33 a0 04 0a       	  cmpbreq.b a10 0x4 0x7c;
      76:	33 a0 00 06       	  cmpbreq.b a10 0x0 0x7c;
      7a:	f8 02             	  halt;
      7c:	f8 00             	  ret;

0000007e <_lwrtosQueueSend>:
      7e:	7e b3 03 00       	  call 0x3b3;
      82:	b2 af             	  mv.w a15 a10;
      84:	b3 a4 01 08       	  cmpbrne.w a10 0x1 0x8c;
      88:	3d a4             	  clr.b a10;
      8a:	f8 00             	  ret;
      8c:	0a 04             	  mvi a10 0x4;
      8e:	09 fc             	  mvi a9 -0x4;
      90:	a6 f9             	  cmp.w a15 a9;
      92:	f4 0b 07          	  breq 0x99;
      95:	f8 02             	  halt;
      97:	0a ff             	  mvi a10 -0x1;
      99:	f8 00             	  ret;

0000009b <_lwrtosSemaphoreGive>:
      9b:	bd b4             	  clr.w a11;
      9d:	bd c4             	  clr.w a12;
      9f:	bd d4             	  clr.w a13;
      a1:	7e 7e 00 00       	  call 0x7e;
      a5:	f8 00             	  ret;

000000a7 <_lwrtosQueueSendBlocking>:
      a7:	f9 22             	  pushm a2;
      a9:	b2 a2             	  mv.w a2 a10;
      ab:	b2 b1             	  mv.w a1 a11;
      ad:	b2 c0             	  mv.w a0 a12;
      af:	b2 2a             	  mv.w a10 a2;
      b1:	b2 1b             	  mv.w a11 a1;
      b3:	b2 0c             	  mv.w a12 a0;
      b5:	0d ff             	  mvi a13 -0x1;
      b7:	7e 7e 00 00       	  call 0x7e;
      bb:	33 a4 00 f4       	  cmpbrne.b a10 0x0 0xaf;
      bf:	fb 21             	  popm a2 0x1;

000000c1 <_lwrtosQueueReceive>:
      c1:	7e 90 01 00       	  call 0x190;
      c5:	b2 af             	  mv.w a15 a10;
      c7:	b3 a4 01 08       	  cmpbrne.w a10 0x1 0xcf;
      cb:	3d a4             	  clr.b a10;
      cd:	f8 00             	  ret;
      cf:	0a 04             	  mvi a10 0x4;
      d1:	09 ed             	  mvi a9 -0x13;
      d3:	a6 f9             	  cmp.w a15 a9;
      d5:	f4 0b 07          	  breq 0xdc;
      d8:	f8 02             	  halt;
      da:	0a ff             	  mvi a10 -0x1;
      dc:	f8 00             	  ret;

000000de <_lwrtosSemaphoreTake>:
      de:	b2 bd             	  mv.w a13 a11;
      e0:	bd c4             	  clr.w a12;
      e2:	bd b4             	  clr.w a11;
      e4:	7e c1 00 00       	  call 0xc1;
      e8:	f8 00             	  ret;

000000ea <_lwrtosTaskGetLwrrentTaskHandle>:
      ea:	7e 03 05 00       	  call 0x503;
      ee:	f8 00             	  ret;

000000f0 <_lwrtosLwrrentTaskDelayTicks>:
      f0:	7e fc 09 00       	  call 0x9fc;
      f4:	b3 a4 01 08       	  cmpbrne.w a10 0x1 0xfc;
      f8:	3d a4             	  clr.b a10;
      fa:	f8 00             	  ret;
      fc:	f8 02             	  halt;
      fe:	0a ff             	  mvi a10 -0x1;
     100:	f8 00             	  ret;

00000102 <_lwrtosTaskGetTickCount32>:
     102:	7e fb 04 00       	  call 0x4fb;
     106:	f8 00             	  ret;

00000108 <_lwrtosTaskCriticalExit>:
     108:	7e 9b 0a 00       	  call 0xa9b;
     10c:	f8 00             	  ret;

0000010e <_lwrtosTaskCriticalEnter>:
     10e:	7e 74 0a 00       	  call 0xa74;
     112:	f8 00             	  ret;

00000114 <_prvUnlockQueue>:
     114:	f9 12             	  pushm a1;
     116:	b2 a0             	  mv.w a0 a10;
     118:	7e 74 0a 00       	  call 0xa74;
     11c:	90 01 24          	  add.w a1 a0 0x24;
     11f:	3e 3f 01 00       	  jmp 0x13f;
     123:	98 09 09          	  ldd.w a9 a0 0x24;
     126:	b3 90 00 24       	  cmpbreq.w a9 0x0 0x14a;
     12a:	7e f5 05 00       	  call 0x5f5;
     12e:	b3 a0 00 08       	  cmpbreq.w a10 0x0 0x136;
     132:	7e 2f 05 00       	  call 0x52f;
     136:	98 09 12          	  ldd.w a9 a0 0x48;
     139:	92 99 01          	  sub.w a9 a9 0x1;
     13c:	b5 09 12          	  std.w a0 0x48 a9;
     13f:	98 09 12          	  ldd.w a9 a0 0x48;
     142:	b2 1a             	  mv.w a10 a1;
     144:	b0 96 00          	  cmp.w a9 0x0;
     147:	f4 1c dc          	  brsgt 0x123;
     14a:	09 ff             	  mvi a9 -0x1;
     14c:	90 01 10          	  add.w a1 a0 0x10;
     14f:	b5 09 12          	  std.w a0 0x48 a9;
     152:	7e 9b 0a 00       	  call 0xa9b;
     156:	7e 74 0a 00       	  call 0xa74;
     15a:	3e 7a 01 00       	  jmp 0x17a;
     15e:	98 09 04          	  ldd.w a9 a0 0x10;
     161:	b3 90 00 24       	  cmpbreq.w a9 0x0 0x185;
     165:	7e f5 05 00       	  call 0x5f5;
     169:	b3 a0 00 08       	  cmpbreq.w a10 0x0 0x171;
     16d:	7e 2f 05 00       	  call 0x52f;
     171:	98 09 11          	  ldd.w a9 a0 0x44;
     174:	92 99 01          	  sub.w a9 a9 0x1;
     177:	b5 09 11          	  std.w a0 0x44 a9;
     17a:	98 09 11          	  ldd.w a9 a0 0x44;
     17d:	b2 1a             	  mv.w a10 a1;
     17f:	b0 96 00          	  cmp.w a9 0x0;
     182:	f4 1c dc          	  brsgt 0x15e;
     185:	09 ff             	  mvi a9 -0x1;
     187:	b5 09 11          	  std.w a0 0x44 a9;
     18a:	7e 9b 0a 00       	  call 0xa9b;
     18e:	fb 11             	  popm a1 0x1;

00000190 <_xQueueReceive>:
     190:	f4 30 f4          	  addsp -0xc;
     193:	f9 82             	  pushm a8;
     195:	fe 49 01          	  rspr a9 SP;
     198:	90 99 2c          	  add.w a9 a9 0x2c;
     19b:	b2 a0             	  mv.w a0 a10;
     19d:	b2 b5             	  mv.w a5 a11;
     19f:	b2 c4             	  mv.w a4 a12;
     1a1:	a0 9d             	  std.w a9 a13;
     1a3:	01 f7             	  mvi a1 -0x9;
     1a5:	7e 0b 05 00       	  call 0x50b;
     1a9:	b3 ad 00 46 01    	  cmpbrne.w a10 0x0 0x2ef;
     1ae:	b3 09 00 3f 01    	  cmpbreq.w a0 0x0 0x2ed;
     1b3:	98 09 14          	  ldd.w a9 a0 0x50;
     1b6:	bf 0f             	  ldd.w a15 a0;
     1b8:	b9 99 00          	  cpl.w a9 a9;
     1bb:	a6 f9             	  cmp.w a15 a9;
     1bd:	f5 1b 30 01       	  brne 0x2ed;
     1c1:	b3 54 00 0e       	  cmpbrne.w a5 0x0 0x1cf;
     1c5:	98 09 10          	  ldd.w a9 a0 0x40;
     1c8:	01 fa             	  mvi a1 -0x6;
     1ca:	b3 9d 00 25 01    	  cmpbrne.w a9 0x0 0x2ef;
     1cf:	98 09 10          	  ldd.w a9 a0 0x40;
     1d2:	41 0c fe          	  mvi a1 -0x1f4;
     1d5:	a6 49             	  cmp.w a4 a9;
     1d7:	f5 0c 18 01       	  brgt 0x2ef;
     1db:	fe 42 01          	  rspr a2 SP;
     1de:	fe 43 01          	  rspr a3 SP;
     1e1:	90 07 10          	  add.w a7 a0 0x10;
     1e4:	90 06 24          	  add.w a6 a0 0x24;
     1e7:	01 01             	  mvi a1 0x1;
     1e9:	90 22 2c          	  add.w a2 a2 0x2c;
     1ec:	90 33 24          	  add.w a3 a3 0x24;
     1ef:	bd 84             	  clr.w a8;
     1f1:	3e f7 01 00       	  jmp 0x1f7;
     1f5:	01 ee             	  mvi a1 -0x12;
     1f7:	bf 29             	  ldd.w a9 a2;
     1f9:	b3 90 00 6f       	  cmpbreq.w a9 0x0 0x268;
     1fd:	7e 98 05 00       	  call 0x598;
     201:	7e 74 0a 00       	  call 0xa74;
     205:	98 09 11          	  ldd.w a9 a0 0x44;
     208:	0f ff             	  mvi a15 -0x1;
     20a:	a6 9f             	  cmp.w a9 a15;
     20c:	f4 1b 06          	  brne 0x212;
     20f:	b5 08 11          	  std.w a0 0x44 a8;
     212:	98 09 12          	  ldd.w a9 a0 0x48;
     215:	0f ff             	  mvi a15 -0x1;
     217:	a6 9f             	  cmp.w a9 a15;
     219:	f4 1b 06          	  brne 0x21f;
     21c:	b5 08 12          	  std.w a0 0x48 a8;
     21f:	7e 9b 0a 00       	  call 0xa9b;
     223:	b3 14 01 0a       	  cmpbrne.w a1 0x1 0x22d;
     227:	b2 3a             	  mv.w a10 a3;
     229:	7e 1c 05 00       	  call 0x51c;
     22d:	98 09 0e          	  ldd.w a9 a0 0x38;
     230:	b3 94 00 2e       	  cmpbrne.w a9 0x0 0x25e;
     234:	b2 3a             	  mv.w a10 a3;
     236:	b2 2b             	  mv.w a11 a2;
     238:	7e 39 05 00       	  call 0x539;
     23c:	b3 a4 00 22       	  cmpbrne.w a10 0x0 0x25e;
     240:	bf 2b             	  ldd.w a11 a2;
     242:	b2 6a             	  mv.w a10 a6;
     244:	7e 42 06 00       	  call 0x642;
     248:	b2 0a             	  mv.w a10 a0;
     24a:	7e 14 01 00       	  call 0x114;
     24e:	7e 2e 09 00       	  call 0x92e;
     252:	b3 a4 00 16       	  cmpbrne.w a10 0x0 0x268;
     256:	7e 0e 00 00       	  call 0xe;
     25a:	3e 68 02 00       	  jmp 0x268;
     25e:	b2 0a             	  mv.w a10 a0;
     260:	7e 14 01 00       	  call 0x114;
     264:	7e 2e 09 00       	  call 0x92e;
     268:	7e 74 0a 00       	  call 0xa74;
     26c:	98 09 0e          	  ldd.w a9 a0 0x38;
     26f:	01 ed             	  mvi a1 -0x13;
     271:	b3 90 00 4e       	  cmpbreq.w a9 0x0 0x2bf;
     275:	98 09 03          	  ldd.w a9 a0 0xc;
     278:	98 0f 10          	  ldd.w a15 a0 0x40;
     27b:	98 0e 01          	  ldd.w a14 a0 0x4;
     27e:	bc 9f 90          	  add.w a9 a9 a15;
     281:	b5 09 03          	  std.w a0 0xc a9;
     284:	a6 9e             	  cmp.w a9 a14;
     286:	f4 08 08          	  brc 0x28e;
     289:	bf 09             	  ldd.w a9 a0;
     28b:	b5 09 03          	  std.w a0 0xc a9;
     28e:	98 09 0e          	  ldd.w a9 a0 0x38;
     291:	98 0b 03          	  ldd.w a11 a0 0xc;
     294:	b2 5a             	  mv.w a10 a5;
     296:	b2 4c             	  mv.w a12 a4;
     298:	92 99 01          	  sub.w a9 a9 0x1;
     29b:	b5 09 0e          	  std.w a0 0x38 a9;
     29e:	7e 7e 0b 00       	  call 0xb7e;
     2a2:	98 09 04          	  ldd.w a9 a0 0x10;
     2a5:	b3 90 00 18       	  cmpbreq.w a9 0x0 0x2bd;
     2a9:	b2 7a             	  mv.w a10 a7;
     2ab:	7e f5 05 00       	  call 0x5f5;
     2af:	b2 a1             	  mv.w a1 a10;
     2b1:	b3 a4 01 0c       	  cmpbrne.w a10 0x1 0x2bd;
     2b5:	7e 0e 00 00       	  call 0xe;
     2b9:	3e bf 02 00       	  jmp 0x2bf;
     2bd:	01 01             	  mvi a1 0x1;
     2bf:	7e 9b 0a 00       	  call 0xa9b;
     2c3:	0f ed             	  mvi a15 -0x13;
     2c5:	a6 1f             	  cmp.w a1 a15;
     2c7:	f4 1b 1a          	  brne 0x2e1;
     2ca:	bf 29             	  ldd.w a9 a2;
     2cc:	b3 90 00 23       	  cmpbreq.w a9 0x0 0x2ef;
     2d0:	b2 3a             	  mv.w a10 a3;
     2d2:	b2 2b             	  mv.w a11 a2;
     2d4:	7e 39 05 00       	  call 0x539;
     2d8:	b3 a9 00 1d ff    	  cmpbreq.w a10 0x0 0x1f5;
     2dd:	3e ef 02 00       	  jmp 0x2ef;
     2e1:	09 ee             	  mvi a9 -0x12;
     2e3:	a6 19             	  cmp.w a1 a9;
     2e5:	f5 0b 12 ff       	  breq 0x1f7;
     2e9:	3e ef 02 00       	  jmp 0x2ef;
     2ed:	01 ef             	  mvi a1 -0x11;
     2ef:	b2 1a             	  mv.w a10 a1;
     2f1:	fb 85 0c          	  popma a8 0x1 0xc;

000002f4 <_prvCopyDataToQueue>:
     2f4:	f9 02             	  pushm a0;
     2f6:	b2 a0             	  mv.w a0 a10;
     2f8:	98 aa 02          	  ldd.w a10 a10 0x8;
     2fb:	7e 7e 0b 00       	  call 0xb7e;
     2ff:	98 09 0e          	  ldd.w a9 a0 0x38;
     302:	98 0f 02          	  ldd.w a15 a0 0x8;
     305:	98 0e 10          	  ldd.w a14 a0 0x40;
     308:	98 0d 01          	  ldd.w a13 a0 0x4;
     30b:	90 99 01          	  add.w a9 a9 0x1;
     30e:	b5 09 0e          	  std.w a0 0x38 a9;
     311:	bc fe f0          	  add.w a15 a15 a14;
     314:	b5 0f 02          	  std.w a0 0x8 a15;
     317:	a6 fd             	  cmp.w a15 a13;
     319:	f4 08 08          	  brc 0x321;
     31c:	bf 09             	  ldd.w a9 a0;
     31e:	b5 09 02          	  std.w a0 0x8 a9;
     321:	fb 01             	  popm a0 0x1;

00000323 <_xQueueSendFromISR>:
     323:	f9 12             	  pushm a1;
     325:	b2 a0             	  mv.w a0 a10;
     327:	b2 d1             	  mv.w a1 a13;
     329:	b3 a0 00 73       	  cmpbreq.w a10 0x0 0x39c;
     32d:	98 a9 14          	  ldd.w a9 a10 0x50;
     330:	bf af             	  ldd.w a15 a10;
     332:	b9 99 00          	  cpl.w a9 a9;
     335:	a6 f9             	  cmp.w a15 a9;
     337:	f4 1b 65          	  brne 0x39c;
     33a:	b3 b4 00 0b       	  cmpbrne.w a11 0x0 0x345;
     33e:	98 a9 10          	  ldd.w a9 a10 0x40;
     341:	b3 94 00 61       	  cmpbrne.w a9 0x0 0x3a2;
     345:	b3 10 00 5d       	  cmpbreq.w a1 0x0 0x3a2;
     349:	98 09 10          	  ldd.w a9 a0 0x40;
     34c:	a6 c9             	  cmp.w a12 a9;
     34e:	f4 0c 5a          	  brgt 0x3a8;
     351:	b3 b0 00 08       	  cmpbreq.w a11 0x0 0x359;
     355:	b3 c0 00 53       	  cmpbreq.w a12 0x0 0x3a8;
     359:	98 0f 0e          	  ldd.w a15 a0 0x38;
     35c:	98 09 0f          	  ldd.w a9 a0 0x3c;
     35f:	0a fc             	  mvi a10 -0x4;
     361:	a6 f9             	  cmp.w a15 a9;
     363:	f4 18 4e          	  brnc 0x3b1;
     366:	b2 0a             	  mv.w a10 a0;
     368:	7e f4 02 00       	  call 0x2f4;
     36c:	98 0f 12          	  ldd.w a15 a0 0x48;
     36f:	09 ff             	  mvi a9 -0x1;
     371:	a6 f9             	  cmp.w a15 a9;
     373:	f4 1b 1f          	  brne 0x392;
     376:	98 09 09          	  ldd.w a9 a0 0x24;
     379:	b3 90 00 36       	  cmpbreq.w a9 0x0 0x3af;
     37d:	90 0a 24          	  add.w a10 a0 0x24;
     380:	7e f5 05 00       	  call 0x5f5;
     384:	b3 a0 00 2b       	  cmpbreq.w a10 0x0 0x3af;
     388:	09 01             	  mvi a9 0x1;
     38a:	a0 19             	  std.w a1 a9;
     38c:	b2 9a             	  mv.w a10 a9;
     38e:	3e b1 03 00       	  jmp 0x3b1;
     392:	90 f9 01          	  add.w a9 a15 0x1;
     395:	b5 09 12          	  std.w a0 0x48 a9;
     398:	3e af 03 00       	  jmp 0x3af;
     39c:	0a ef             	  mvi a10 -0x11;
     39e:	3e b1 03 00       	  jmp 0x3b1;
     3a2:	0a fa             	  mvi a10 -0x6;
     3a4:	3e b1 03 00       	  jmp 0x3b1;
     3a8:	4a 0c fe          	  mvi a10 -0x1f4;
     3ab:	3e b1 03 00       	  jmp 0x3b1;
     3af:	0a 01             	  mvi a10 0x1;
     3b1:	fb 11             	  popm a1 0x1;

000003b3 <_xQueueSend>:
     3b3:	f4 30 f4          	  addsp -0xc;
     3b6:	f9 82             	  pushm a8;
     3b8:	fe 49 01          	  rspr a9 SP;
     3bb:	90 99 24          	  add.w a9 a9 0x24;
     3be:	b2 a1             	  mv.w a1 a10;
     3c0:	b2 b5             	  mv.w a5 a11;
     3c2:	b2 c4             	  mv.w a4 a12;
     3c4:	a0 9d             	  std.w a9 a13;
     3c6:	00 f7             	  mvi a0 -0x9;
     3c8:	7e 0b 05 00       	  call 0x50b;
     3cc:	b3 ad 00 2a 01    	  cmpbrne.w a10 0x0 0x4f6;
     3d1:	b3 19 00 1c 01    	  cmpbreq.w a1 0x0 0x4ed;
     3d6:	98 19 14          	  ldd.w a9 a1 0x50;
     3d9:	bf 1f             	  ldd.w a15 a1;
     3db:	b9 99 00          	  cpl.w a9 a9;
     3de:	a6 f9             	  cmp.w a15 a9;
     3e0:	f5 1b 0d 01       	  brne 0x4ed;
     3e4:	b3 54 00 0e       	  cmpbrne.w a5 0x0 0x3f2;
     3e8:	98 19 10          	  ldd.w a9 a1 0x40;
     3eb:	00 fa             	  mvi a0 -0x6;
     3ed:	b3 9d 00 09 01    	  cmpbrne.w a9 0x0 0x4f6;
     3f2:	98 19 10          	  ldd.w a9 a1 0x40;
     3f5:	a6 49             	  cmp.w a4 a9;
     3f7:	f5 0c fc 00       	  brgt 0x4f3;
     3fb:	b3 50 00 09       	  cmpbreq.w a5 0x0 0x404;
     3ff:	b3 49 00 f4 00    	  cmpbreq.w a4 0x0 0x4f3;
     404:	fe 43 01          	  rspr a3 SP;
     407:	fe 46 01          	  rspr a6 SP;
     40a:	90 18 24          	  add.w a8 a1 0x24;
     40d:	90 17 10          	  add.w a7 a1 0x10;
     410:	02 01             	  mvi a2 0x1;
     412:	90 33 24          	  add.w a3 a3 0x24;
     415:	90 66 28          	  add.w a6 a6 0x28;
     418:	bf 39             	  ldd.w a9 a3;
     41a:	b3 90 00 77       	  cmpbreq.w a9 0x0 0x491;
     41e:	7e 98 05 00       	  call 0x598;
     422:	7e 74 0a 00       	  call 0xa74;
     426:	98 19 11          	  ldd.w a9 a1 0x44;
     429:	0f ff             	  mvi a15 -0x1;
     42b:	a6 9f             	  cmp.w a9 a15;
     42d:	f4 1b 08          	  brne 0x435;
     430:	bd 94             	  clr.w a9;
     432:	b5 19 11          	  std.w a1 0x44 a9;
     435:	98 19 12          	  ldd.w a9 a1 0x48;
     438:	0f ff             	  mvi a15 -0x1;
     43a:	a6 9f             	  cmp.w a9 a15;
     43c:	f4 1b 08          	  brne 0x444;
     43f:	bd 94             	  clr.w a9;
     441:	b5 19 12          	  std.w a1 0x48 a9;
     444:	7e 9b 0a 00       	  call 0xa9b;
     448:	b3 24 01 0a       	  cmpbrne.w a2 0x1 0x452;
     44c:	b2 6a             	  mv.w a10 a6;
     44e:	7e 1c 05 00       	  call 0x51c;
     452:	98 1f 0f          	  ldd.w a15 a1 0x3c;
     455:	98 19 0e          	  ldd.w a9 a1 0x38;
     458:	a6 f9             	  cmp.w a15 a9;
     45a:	f4 1b 2d          	  brne 0x487;
     45d:	b2 6a             	  mv.w a10 a6;
     45f:	b2 3b             	  mv.w a11 a3;
     461:	7e 39 05 00       	  call 0x539;
     465:	b3 a4 00 22       	  cmpbrne.w a10 0x0 0x487;
     469:	bf 3b             	  ldd.w a11 a3;
     46b:	b2 7a             	  mv.w a10 a7;
     46d:	7e 42 06 00       	  call 0x642;
     471:	b2 1a             	  mv.w a10 a1;
     473:	7e 14 01 00       	  call 0x114;
     477:	7e 2e 09 00       	  call 0x92e;
     47b:	b3 a4 00 16       	  cmpbrne.w a10 0x0 0x491;
     47f:	7e 0e 00 00       	  call 0xe;
     483:	3e 91 04 00       	  jmp 0x491;
     487:	b2 1a             	  mv.w a10 a1;
     489:	7e 14 01 00       	  call 0x114;
     48d:	7e 2e 09 00       	  call 0x92e;
     491:	7e 74 0a 00       	  call 0xa74;
     495:	98 1f 0e          	  ldd.w a15 a1 0x38;
     498:	98 19 0f          	  ldd.w a9 a1 0x3c;
     49b:	00 fc             	  mvi a0 -0x4;
     49d:	a6 f9             	  cmp.w a15 a9;
     49f:	f4 18 2a          	  brnc 0x4c9;
     4a2:	b2 1a             	  mv.w a10 a1;
     4a4:	b2 5b             	  mv.w a11 a5;
     4a6:	b2 4c             	  mv.w a12 a4;
     4a8:	7e f4 02 00       	  call 0x2f4;
     4ac:	98 19 09          	  ldd.w a9 a1 0x24;
     4af:	b3 90 00 18       	  cmpbreq.w a9 0x0 0x4c7;
     4b3:	b2 8a             	  mv.w a10 a8;
     4b5:	7e f5 05 00       	  call 0x5f5;
     4b9:	b2 a0             	  mv.w a0 a10;
     4bb:	b3 a4 01 0c       	  cmpbrne.w a10 0x1 0x4c7;
     4bf:	7e 0e 00 00       	  call 0xe;
     4c3:	3e c9 04 00       	  jmp 0x4c9;
     4c7:	00 01             	  mvi a0 0x1;
     4c9:	7e 9b 0a 00       	  call 0xa9b;
     4cd:	0f fc             	  mvi a15 -0x4;
     4cf:	a6 0f             	  cmp.w a0 a15;
     4d1:	f4 1b 25          	  brne 0x4f6;
     4d4:	bf 39             	  ldd.w a9 a3;
     4d6:	b3 90 00 20       	  cmpbreq.w a9 0x0 0x4f6;
     4da:	b2 6a             	  mv.w a10 a6;
     4dc:	b2 3b             	  mv.w a11 a3;
     4de:	02 ee             	  mvi a2 -0x12;
     4e0:	7e 39 05 00       	  call 0x539;
     4e4:	b3 a9 00 34 ff    	  cmpbreq.w a10 0x0 0x418;
     4e9:	3e f6 04 00       	  jmp 0x4f6;
     4ed:	00 ef             	  mvi a0 -0x11;
     4ef:	3e f6 04 00       	  jmp 0x4f6;
     4f3:	40 0c fe          	  mvi a0 -0x1f4;
     4f6:	b2 0a             	  mv.w a10 a0;
     4f8:	fb 85 0c          	  popma a8 0x1 0xc;

000004fb <_xTaskGetTickCount>:
     4fb:	89 c0 0f 00       	  mvi a9 0xfc0;
     4ff:	bf 9a             	  ldd.w a10 a9;
     501:	f8 00             	  ret;

00000503 <_xTaskGetLwrrentTaskHandle>:
     503:	89 b4 0f 00       	  mvi a9 0xfb4;
     507:	bf 9a             	  ldd.w a10 a9;
     509:	f8 00             	  ret;

0000050b <_xTaskIsSchedulerSuspended>:
     50b:	89 c4 0f 00       	  mvi a9 0xfc4;
     50f:	bf 99             	  ldd.w a9 a9;
     511:	b0 96 00          	  cmp.w a9 0x0;
     514:	f0 ac 0b          	  sgetb a10 0xb;
     517:	f0 a6 01          	  xor a10 0x1;
     51a:	f8 00             	  ret;

0000051c <_vTaskSetTimeOut>:
     51c:	89 c8 0f 00       	  mvi a9 0xfc8;
     520:	bf 99             	  ldd.w a9 a9;
     522:	a0 a9             	  std.w a10 a9;
     524:	89 c0 0f 00       	  mvi a9 0xfc0;
     528:	bf 99             	  ldd.w a9 a9;
     52a:	b5 a9 01          	  std.w a10 0x4 a9;
     52d:	f8 00             	  ret;

0000052f <_vTaskPendYield>:
     52f:	0f 01             	  mvi a15 0x1;
     531:	89 cc 0f 00       	  mvi a9 0xfcc;
     535:	a0 9f             	  std.w a9 a15;
     537:	f8 00             	  ret;

00000539 <_xTaskCheckForTimeOut>:
     539:	f9 22             	  pushm a2;
     53b:	b2 a0             	  mv.w a0 a10;
     53d:	b2 b2             	  mv.w a2 a11;
     53f:	7e 74 0a 00       	  call 0xa74;
     543:	89 c8 0f 00       	  mvi a9 0xfc8;
     547:	bf 9f             	  ldd.w a15 a9;
     549:	bf 09             	  ldd.w a9 a0;
     54b:	a6 f9             	  cmp.w a15 a9;
     54d:	f4 0b 11          	  breq 0x55e;
     550:	89 c0 0f 00       	  mvi a9 0xfc0;
     554:	bf 9f             	  ldd.w a15 a9;
     556:	98 09 01          	  ldd.w a9 a0 0x4;
     559:	a6 f9             	  cmp.w a15 a9;
     55b:	f4 18 33          	  brnc 0x58e;
     55e:	8d c0 0f 00       	  mvi a13 0xfc0;
     562:	98 0e 01          	  ldd.w a14 a0 0x4;
     565:	bf d9             	  ldd.w a9 a13;
     567:	bf 2f             	  ldd.w a15 a2;
     569:	bb 9e 02          	  sub.w a9 a14;
     56c:	a6 9f             	  cmp.w a9 a15;
     56e:	f4 18 20          	  brnc 0x58e;
     571:	bf d9             	  ldd.w a9 a13;
     573:	bd 14             	  clr.w a1;
     575:	bc e9 92          	  sub.w a9 a14 a9;
     578:	bc 9f 90          	  add.w a9 a9 a15;
     57b:	a0 29             	  std.w a2 a9;
     57d:	89 c8 0f 00       	  mvi a9 0xfc8;
     581:	bf 99             	  ldd.w a9 a9;
     583:	a0 09             	  std.w a0 a9;
     585:	bf d9             	  ldd.w a9 a13;
     587:	b5 09 01          	  std.w a0 0x4 a9;
     58a:	3e 90 05 00       	  jmp 0x590;
     58e:	01 01             	  mvi a1 0x1;
     590:	7e 9b 0a 00       	  call 0xa9b;
     594:	b2 1a             	  mv.w a10 a1;
     596:	fb 21             	  popm a2 0x1;

00000598 <_vTaskSuspendScheduler>:
     598:	7e 74 0a 00       	  call 0xa74;
     59c:	8f c4 0f 00       	  mvi a15 0xfc4;
     5a0:	bf f9             	  ldd.w a9 a15;
     5a2:	90 99 01          	  add.w a9 a9 0x1;
     5a5:	a0 f9             	  std.w a15 a9;
     5a7:	7e 9b 0a 00       	  call 0xa9b;
     5ab:	f8 00             	  ret;

000005ad <_vIdleTask>:
     5ad:	f9 02             	  pushm a0;
     5af:	80 d4 0f 00       	  mvi a0 0xfd4;
     5b3:	bf 09             	  ldd.w a9 a0;
     5b5:	b0 96 01          	  cmp.w a9 0x1;
     5b8:	f4 0d 07          	  brlte 0x5bf;
     5bb:	7e 0e 00 00       	  call 0xe;
     5bf:	7e 8f 0a 00       	  call 0xa8f;
     5c3:	3e b3 05 00       	  jmp 0x5b3;

000005c7 <_prvAddTaskToReadyList>:
     5c7:	8e 74 10 00       	  mvi a14 0x1074;
     5cb:	18 a9 41          	  ldd.b a9 a10 0x41;
     5ce:	bf ef             	  ldd.w a15 a14;
     5d0:	b2 ab             	  mv.w a11 a10;
     5d2:	c4 9a ff          	  and a10 a9 0xff;
     5d5:	a6 af             	  cmp.w a10 a15;
     5d7:	f4 0d 05          	  brlte 0x5dc;
     5da:	a0 ea             	  std.w a14 a10;
     5dc:	94 a9 04          	  lsl.w a9 a10 0x4;
     5df:	b6 a4 02          	  lsl.w a10 0x2;
     5e2:	bc a9 a0          	  add.w a10 a10 a9;
     5e5:	89 d4 0f 00       	  mvi a9 0xfd4;
     5e9:	90 bb 10          	  add.w a11 a11 0x10;
     5ec:	bc a9 a0          	  add.w a10 a10 a9;
     5ef:	7e ee 0b 00       	  call 0xbee;
     5f3:	f8 00             	  ret;

000005f5 <_xTaskRemoveFromEventList>:
     5f5:	f9 12             	  pushm a1;
     5f7:	98 a9 03          	  ldd.w a9 a10 0xc;
     5fa:	98 90 03          	  ldd.w a0 a9 0xc;
     5fd:	90 01 24          	  add.w a1 a0 0x24;
     600:	b2 1a             	  mv.w a10 a1;
     602:	7e 51 0c 00       	  call 0xc51;
     606:	89 c4 0f 00       	  mvi a9 0xfc4;
     60a:	bf 99             	  ldd.w a9 a9;
     60c:	b3 94 00 15       	  cmpbrne.w a9 0x0 0x621;
     610:	90 0a 10          	  add.w a10 a0 0x10;
     613:	7e 51 0c 00       	  call 0xc51;
     617:	b2 0a             	  mv.w a10 a0;
     619:	7e c7 05 00       	  call 0x5c7;
     61d:	3e 2b 06 00       	  jmp 0x62b;
     621:	b2 1b             	  mv.w a11 a1;
     623:	8a 78 10 00       	  mvi a10 0x1078;
     627:	7e ee 0b 00       	  call 0xbee;
     62b:	89 b4 0f 00       	  mvi a9 0xfb4;
     62f:	bf 99             	  ldd.w a9 a9;
     631:	18 0f 41          	  ldd.b a15 a0 0x41;
     634:	bd a4             	  clr.w a10;
     636:	18 99 41          	  ldd.b a9 a9 0x41;
     639:	26 f9             	  cmp.b a15 a9;
     63b:	f4 0d 05          	  brlte 0x640;
     63e:	0a 01             	  mvi a10 0x1;
     640:	fb 11             	  popm a1 0x1;

00000642 <_vTaskPlaceOnEventList>:
     642:	f9 22             	  pushm a2;
     644:	82 b4 0f 00       	  mvi a2 0xfb4;
     648:	bf 29             	  ldd.w a9 a2;
     64a:	b2 b0             	  mv.w a0 a11;
     64c:	81 c0 0f 00       	  mvi a1 0xfc0;
     650:	90 9b 24          	  add.w a11 a9 0x24;
     653:	7e 0f 0c 00       	  call 0xc0f;
     657:	bf 19             	  ldd.w a9 a1;
     659:	bf 2a             	  ldd.w a10 a2;
     65b:	bc 09 00          	  add.w a0 a0 a9;
     65e:	90 aa 10          	  add.w a10 a10 0x10;
     661:	7e 51 0c 00       	  call 0xc51;
     665:	bf 29             	  ldd.w a9 a2;
     667:	b5 90 04          	  std.w a9 0x10 a0;
     66a:	bf 19             	  ldd.w a9 a1;
     66c:	a6 09             	  cmp.w a0 a9;
     66e:	f4 18 0b          	  brnc 0x679;
     671:	89 8c 10 00       	  mvi a9 0x108c;
     675:	3e 7d 06 00       	  jmp 0x67d;
     679:	89 90 10 00       	  mvi a9 0x1090;
     67d:	bf 9a             	  ldd.w a10 a9;
     67f:	bf 2b             	  ldd.w a11 a2;
     681:	90 bb 10          	  add.w a11 a11 0x10;
     684:	7e 0f 0c 00       	  call 0xc0f;
     688:	fb 21             	  popm a2 0x1;

0000068a <_vTaskSelectNextTask>:
     68a:	f4 30 fc          	  addsp -0x4;
     68d:	89 c4 0f 00       	  mvi a9 0xfc4;
     691:	f9 82             	  pushm a8;
     693:	bf 99             	  ldd.w a9 a9;
     695:	b3 90 00 10       	  cmpbreq.w a9 0x0 0x6a5;
     699:	0f 01             	  mvi a15 0x1;
     69b:	89 cc 0f 00       	  mvi a9 0xfcc;
     69f:	a0 9f             	  std.w a9 a15;
     6a1:	3e 45 08 00       	  jmp 0x845;
     6a5:	89 b4 0f 00       	  mvi a9 0xfb4;
     6a9:	fe 48 01          	  rspr a8 SP;
     6ac:	b2 91             	  mv.w a1 a9;
     6ae:	bf 95             	  ldd.w a5 a9;
     6b0:	3d 24             	  clr.b a2;
     6b2:	3d 34             	  clr.b a3;
     6b4:	bd 64             	  clr.w a6;
     6b6:	80 74 10 00       	  mvi a0 0x1074;
     6ba:	87 bc 0f 00       	  mvi a7 0xfbc;
     6be:	84 b8 0f 00       	  mvi a4 0xfb8;
     6c2:	90 88 24          	  add.w a8 a8 0x24;
     6c5:	3e d2 06 00       	  jmp 0x6d2;
     6c9:	bf 09             	  ldd.w a9 a0;
     6cb:	3d 24             	  clr.b a2;
     6cd:	92 99 01          	  sub.w a9 a9 0x1;
     6d0:	a0 09             	  std.w a0 a9;
     6d2:	bf 09             	  ldd.w a9 a0;
     6d4:	8e d4 0f 00       	  mvi a14 0xfd4;
     6d8:	94 9f 04          	  lsl.w a15 a9 0x4;
     6db:	b6 94 02          	  lsl.w a9 0x2;
     6de:	bc 9f 90          	  add.w a9 a9 a15;
     6e1:	bc 9e 90          	  add.w a9 a9 a14;
     6e4:	bf 99             	  ldd.w a9 a9;
     6e6:	b3 99 00 3d 01    	  cmpbreq.w a9 0x0 0x823;
     6eb:	bf 7f             	  ldd.w a15 a7;
     6ed:	bf 49             	  ldd.w a9 a4;
     6ef:	b9 99 00          	  cpl.w a9 a9;
     6f2:	a6 f9             	  cmp.w a15 a9;
     6f4:	f4 0b 0f          	  breq 0x703;
     6f7:	bf 1a             	  ldd.w a10 a1;
     6f9:	0b ec             	  mvi a11 -0x14;
     6fb:	7e 95 0a 00       	  call 0xa95;
     6ff:	3e 42 07 00       	  jmp 0x742;
     703:	bf 49             	  ldd.w a9 a4;
     705:	b3 90 00 3d       	  cmpbreq.w a9 0x0 0x742;
     709:	98 59 08          	  ldd.w a9 a5 0x20;
     70c:	bf 0f             	  ldd.w a15 a0;
     70e:	94 fe 04          	  lsl.w a14 a15 0x4;
     711:	b6 f4 02          	  lsl.w a15 0x2;
     714:	bc fe f0          	  add.w a15 a15 a14;
     717:	8e d4 0f 00       	  mvi a14 0xfd4;
     71b:	bc fe f0          	  add.w a15 a15 a14;
     71e:	a6 9f             	  cmp.w a9 a15;
     720:	f4 1b 22          	  brne 0x742;
     723:	bf 49             	  ldd.w a9 a4;
     725:	bd b4             	  clr.w a11;
     727:	92 99 01          	  sub.w a9 a9 0x1;
     72a:	a0 49             	  std.w a4 a9;
     72c:	bf 49             	  ldd.w a9 a4;
     72e:	b9 99 00          	  cpl.w a9 a9;
     731:	a0 79             	  std.w a7 a9;
     733:	a0 15             	  std.w a1 a5;
     735:	bf 1a             	  ldd.w a10 a1;
     737:	7e 89 0a 00       	  call 0xa89;
     73b:	b0 a6 00          	  cmp.w a10 0x0;
     73e:	f5 1f f9 00       	  brsgte 0x837;
     742:	bf 0f             	  ldd.w a15 a0;
     744:	bf 09             	  ldd.w a9 a0;
     746:	94 fd 04          	  lsl.w a13 a15 0x4;
     749:	94 9e 04          	  lsl.w a14 a9 0x4;
     74c:	b6 94 02          	  lsl.w a9 0x2;
     74f:	bc 9e 90          	  add.w a9 a9 a14;
     752:	8e d4 0f 00       	  mvi a14 0xfd4;
     756:	bc 9e 90          	  add.w a9 a9 a14;
     759:	98 99 01          	  ldd.w a9 a9 0x4;
     75c:	b6 f4 02          	  lsl.w a15 0x2;
     75f:	bc fd f0          	  add.w a15 a15 a13;
     762:	bc fe f0          	  add.w a15 a15 a14;
     765:	98 99 01          	  ldd.w a9 a9 0x4;
     768:	b5 f9 01          	  std.w a15 0x4 a9;
     76b:	bf 09             	  ldd.w a9 a0;
     76d:	94 9f 04          	  lsl.w a15 a9 0x4;
     770:	b6 94 02          	  lsl.w a9 0x2;
     773:	bc 9f 90          	  add.w a9 a9 a15;
     776:	bc 9e 90          	  add.w a9 a9 a14;
     779:	98 9e 01          	  ldd.w a14 a9 0x4;
     77c:	bf 09             	  ldd.w a9 a0;
     77e:	94 9f 04          	  lsl.w a15 a9 0x4;
     781:	b6 94 02          	  lsl.w a9 0x2;
     784:	bc 9f 90          	  add.w a9 a9 a15;
     787:	8f dc 0f 00       	  mvi a15 0xfdc;
     78b:	bc 9f 90          	  add.w a9 a9 a15;
     78e:	a6 e9             	  cmp.w a14 a9;
     790:	f4 1b 2c          	  brne 0x7bc;
     793:	bf 0f             	  ldd.w a15 a0;
     795:	bf 09             	  ldd.w a9 a0;
     797:	94 fd 04          	  lsl.w a13 a15 0x4;
     79a:	94 9e 04          	  lsl.w a14 a9 0x4;
     79d:	b6 94 02          	  lsl.w a9 0x2;
     7a0:	bc 9e 90          	  add.w a9 a9 a14;
     7a3:	8e d4 0f 00       	  mvi a14 0xfd4;
     7a7:	bc 9e 90          	  add.w a9 a9 a14;
     7aa:	98 99 01          	  ldd.w a9 a9 0x4;
     7ad:	b6 f4 02          	  lsl.w a15 0x2;
     7b0:	bc fd f0          	  add.w a15 a15 a13;
     7b3:	bc fe f0          	  add.w a15 a15 a14;
     7b6:	98 99 01          	  ldd.w a9 a9 0x4;
     7b9:	b5 f9 01          	  std.w a15 0x4 a9;
     7bc:	bf 09             	  ldd.w a9 a0;
     7be:	94 9f 04          	  lsl.w a15 a9 0x4;
     7c1:	b6 94 02          	  lsl.w a9 0x2;
     7c4:	bc 9f 90          	  add.w a9 a9 a15;
     7c7:	8f d4 0f 00       	  mvi a15 0xfd4;
     7cb:	bc 9f 90          	  add.w a9 a9 a15;
     7ce:	98 99 01          	  ldd.w a9 a9 0x4;
     7d1:	98 99 03          	  ldd.w a9 a9 0xc;
     7d4:	a0 19             	  std.w a1 a9;
     7d6:	bf 1a             	  ldd.w a10 a1;
     7d8:	7e 61 0a 00       	  call 0xa61;
     7dc:	b3 a4 00 10       	  cmpbrne.w a10 0x0 0x7ec;
     7e0:	bf 1a             	  ldd.w a10 a1;
     7e2:	0b eb             	  mvi a11 -0x15;
     7e4:	7e 95 0a 00       	  call 0xa95;
     7e8:	3e fa 07 00       	  jmp 0x7fa;
     7ec:	bf 1a             	  ldd.w a10 a1;
     7ee:	b2 8b             	  mv.w a11 a8;
     7f0:	7e 89 0a 00       	  call 0xa89;
     7f4:	b0 a6 00          	  cmp.w a10 0x0;
     7f7:	f4 1f 40          	  brsgte 0x837;
     7fa:	10 22 01          	  add.b a2 a2 0x1;
     7fd:	10 33 01          	  add.b a3 a3 0x1;
     800:	33 34 01 06       	  cmpbrne.b a3 0x1 0x806;
     804:	bf 06             	  ldd.w a6 a0;
     806:	bf 09             	  ldd.w a9 a0;
     808:	c4 2e ff          	  and a14 a2 0xff;
     80b:	94 9f 04          	  lsl.w a15 a9 0x4;
     80e:	b6 94 02          	  lsl.w a9 0x2;
     811:	bc 9f 90          	  add.w a9 a9 a15;
     814:	8f d4 0f 00       	  mvi a15 0xfd4;
     818:	bc 9f 90          	  add.w a9 a9 a15;
     81b:	bf 99             	  ldd.w a9 a9;
     81d:	a6 e9             	  cmp.w a14 a9;
     81f:	f5 1b b3 fe       	  brne 0x6d2;
     823:	bf 09             	  ldd.w a9 a0;
     825:	b3 9d 00 a4 fe    	  cmpbrne.w a9 0x0 0x6c9;
     82a:	bf 1a             	  ldd.w a10 a1;
     82c:	4b 0b fe          	  mvi a11 -0x1f5;
     82f:	7e 95 0a 00       	  call 0xa95;
     833:	3e d2 06 00       	  jmp 0x6d2;
     837:	33 30 00 0a       	  cmpbreq.b a3 0x0 0x841;
     83b:	89 74 10 00       	  mvi a9 0x1074;
     83f:	a0 96             	  std.w a9 a6;
     841:	7e d0 0a 00       	  call 0xad0;
     845:	fb 85 04          	  popma a8 0x1 0x4;

00000848 <_vTaskIncrementTick>:
     848:	f9 22             	  pushm a2;
     84a:	89 c4 0f 00       	  mvi a9 0xfc4;
     84e:	bf 99             	  ldd.w a9 a9;
     850:	b3 9d 00 cd 00    	  cmpbrne.w a9 0x0 0x91d;
     855:	89 a8 10 00       	  mvi a9 0x10a8;
     859:	bf 9f             	  ldd.w a15 a9;
     85b:	89 c0 0f 00       	  mvi a9 0xfc0;
     85f:	bf 99             	  ldd.w a9 a9;
     861:	b9 99 00          	  cpl.w a9 a9;
     864:	a6 f9             	  cmp.w a15 a9;
     866:	f4 0b 0f          	  breq 0x875;
     869:	89 b4 0f 00       	  mvi a9 0xfb4;
     86d:	bf 9a             	  ldd.w a10 a9;
     86f:	0b ec             	  mvi a11 -0x14;
     871:	7e 95 0a 00       	  call 0xa95;
     875:	8e c0 0f 00       	  mvi a14 0xfc0;
     879:	bf e9             	  ldd.w a9 a14;
     87b:	8f a8 10 00       	  mvi a15 0x10a8;
     87f:	90 99 01          	  add.w a9 a9 0x1;
     882:	a0 e9             	  std.w a14 a9;
     884:	bf e9             	  ldd.w a9 a14;
     886:	b9 99 00          	  cpl.w a9 a9;
     889:	a0 f9             	  std.w a15 a9;
     88b:	bf e9             	  ldd.w a9 a14;
     88d:	b3 94 00 1f       	  cmpbrne.w a9 0x0 0x8ac;
     891:	8f 90 10 00       	  mvi a15 0x1090;
     895:	8e 8c 10 00       	  mvi a14 0x108c;
     899:	bf fc             	  ldd.w a12 a15;
     89b:	bf e9             	  ldd.w a9 a14;
     89d:	8d c8 0f 00       	  mvi a13 0xfc8;
     8a1:	a0 f9             	  std.w a15 a9;
     8a3:	a0 ec             	  std.w a14 a12;
     8a5:	bf d9             	  ldd.w a9 a13;
     8a7:	90 99 01          	  add.w a9 a9 0x1;
     8aa:	a0 d9             	  std.w a13 a9;
     8ac:	8f 90 10 00       	  mvi a15 0x1090;
     8b0:	bf f9             	  ldd.w a9 a15;
     8b2:	bf 99             	  ldd.w a9 a9;
     8b4:	b3 94 00 0a       	  cmpbrne.w a9 0x0 0x8be;
     8b8:	bd 04             	  clr.w a0;
     8ba:	3e 00 09 00       	  jmp 0x900;
     8be:	bf f9             	  ldd.w a9 a15;
     8c0:	98 99 03          	  ldd.w a9 a9 0xc;
     8c3:	98 90 03          	  ldd.w a0 a9 0xc;
     8c6:	3e 00 09 00       	  jmp 0x900;
     8ca:	bf 2f             	  ldd.w a15 a2;
     8cc:	98 09 04          	  ldd.w a9 a0 0x10;
     8cf:	a6 f9             	  cmp.w a15 a9;
     8d1:	f4 08 3e          	  brc 0x90f;
     8d4:	7e 51 0c 00       	  call 0xc51;
     8d8:	98 09 0d          	  ldd.w a9 a0 0x34;
     8db:	90 0a 24          	  add.w a10 a0 0x24;
     8de:	b3 90 00 08       	  cmpbreq.w a9 0x0 0x8e6;
     8e2:	7e 51 0c 00       	  call 0xc51;
     8e6:	b2 0a             	  mv.w a10 a0;
     8e8:	7e c7 05 00       	  call 0x5c7;
     8ec:	bf 19             	  ldd.w a9 a1;
     8ee:	bf 99             	  ldd.w a9 a9;
     8f0:	b3 90 00 1f       	  cmpbreq.w a9 0x0 0x90f;
     8f4:	bf 19             	  ldd.w a9 a1;
     8f6:	98 99 03          	  ldd.w a9 a9 0xc;
     8f9:	98 90 03          	  ldd.w a0 a9 0xc;
     8fc:	3e 08 09 00       	  jmp 0x908;
     900:	82 c0 0f 00       	  mvi a2 0xfc0;
     904:	81 90 10 00       	  mvi a1 0x1090;
     908:	90 0a 10          	  add.w a10 a0 0x10;
     90b:	b3 04 00 bf       	  cmpbrne.w a0 0x0 0x8ca;
     90f:	89 ac 10 00       	  mvi a9 0x10ac;
     913:	bf 99             	  ldd.w a9 a9;
     915:	b3 94 00 17       	  cmpbrne.w a9 0x0 0x92c;
     919:	3e 28 09 00       	  jmp 0x928;
     91d:	8f ac 10 00       	  mvi a15 0x10ac;
     921:	bf f9             	  ldd.w a9 a15;
     923:	90 99 01          	  add.w a9 a9 0x1;
     926:	a0 f9             	  std.w a15 a9;
     928:	7e 87 0a 00       	  call 0xa87;
     92c:	fb 21             	  popm a2 0x1;

0000092e <_xTaskResumeScheduler>:
     92e:	f9 32             	  pushm a3;
     930:	81 c4 0f 00       	  mvi a1 0xfc4;
     934:	bf 19             	  ldd.w a9 a1;
     936:	00 e9             	  mvi a0 -0x17;
     938:	b3 99 00 c0 00    	  cmpbreq.w a9 0x0 0x9f8;
     93d:	7e 74 0a 00       	  call 0xa74;
     941:	bf 19             	  ldd.w a9 a1;
     943:	92 99 01          	  sub.w a9 a9 0x1;
     946:	a0 19             	  std.w a1 a9;
     948:	bf 19             	  ldd.w a9 a1;
     94a:	b3 9d 00 a8 00    	  cmpbrne.w a9 0x0 0x9f2;
     94f:	89 b0 10 00       	  mvi a9 0x10b0;
     953:	bf 99             	  ldd.w a9 a9;
     955:	b3 99 00 9d 00    	  cmpbreq.w a9 0x0 0x9f2;
     95a:	8f 78 10 00       	  mvi a15 0x1078;
     95e:	bf f9             	  ldd.w a9 a15;
     960:	b3 94 00 0a       	  cmpbrne.w a9 0x0 0x96a;
     964:	bd 04             	  clr.w a0;
     966:	3e 70 09 00       	  jmp 0x970;
     96a:	98 f9 03          	  ldd.w a9 a15 0xc;
     96d:	98 90 03          	  ldd.w a0 a9 0xc;
     970:	bd 14             	  clr.w a1;
     972:	83 b4 0f 00       	  mvi a3 0xfb4;
     976:	82 78 10 00       	  mvi a2 0x1078;
     97a:	3e aa 09 00       	  jmp 0x9aa;
     97e:	7e 51 0c 00       	  call 0xc51;
     982:	90 0a 10          	  add.w a10 a0 0x10;
     985:	7e 51 0c 00       	  call 0xc51;
     989:	b2 0a             	  mv.w a10 a0;
     98b:	7e c7 05 00       	  call 0x5c7;
     98f:	bf 39             	  ldd.w a9 a3;
     991:	18 0f 41          	  ldd.b a15 a0 0x41;
     994:	bf 2e             	  ldd.w a14 a2;
     996:	18 99 41          	  ldd.b a9 a9 0x41;
     999:	26 f9             	  cmp.b a15 a9;
     99b:	f4 0d 05          	  brlte 0x9a0;
     99e:	01 01             	  mvi a1 0x1;
     9a0:	b3 e0 00 11       	  cmpbreq.w a14 0x0 0x9b1;
     9a4:	98 29 03          	  ldd.w a9 a2 0xc;
     9a7:	98 90 03          	  ldd.w a0 a9 0xc;
     9aa:	90 0a 24          	  add.w a10 a0 0x24;
     9ad:	b3 04 00 d1       	  cmpbrne.w a0 0x0 0x97e;
     9b1:	8f ac 10 00       	  mvi a15 0x10ac;
     9b5:	bf f9             	  ldd.w a9 a15;
     9b7:	b3 90 00 1b       	  cmpbreq.w a9 0x0 0x9d2;
     9bb:	b2 f0             	  mv.w a0 a15;
     9bd:	7e 48 08 00       	  call 0x848;
     9c1:	bf 09             	  ldd.w a9 a0;
     9c3:	92 99 01          	  sub.w a9 a9 0x1;
     9c6:	a0 09             	  std.w a0 a9;
     9c8:	bf 09             	  ldd.w a9 a0;
     9ca:	b3 94 00 f3       	  cmpbrne.w a9 0x0 0x9bd;
     9ce:	3e e0 09 00       	  jmp 0x9e0;
     9d2:	b3 10 01 0e       	  cmpbreq.w a1 0x1 0x9e0;
     9d6:	89 cc 0f 00       	  mvi a9 0xfcc;
     9da:	bf 99             	  ldd.w a9 a9;
     9dc:	b3 94 01 16       	  cmpbrne.w a9 0x1 0x9f2;
     9e0:	bd f4             	  clr.w a15;
     9e2:	89 cc 0f 00       	  mvi a9 0xfcc;
     9e6:	00 01             	  mvi a0 0x1;
     9e8:	a0 9f             	  std.w a9 a15;
     9ea:	7e 0e 00 00       	  call 0xe;
     9ee:	3e f4 09 00       	  jmp 0x9f4;
     9f2:	bd 04             	  clr.w a0;
     9f4:	7e 9b 0a 00       	  call 0xa9b;
     9f8:	b2 0a             	  mv.w a10 a0;
     9fa:	fb 31             	  popm a3 0x1;

000009fc <_xTaskDelay>:
     9fc:	f9 32             	  pushm a3;
     9fe:	89 c4 0f 00       	  mvi a9 0xfc4;
     a02:	bf 99             	  ldd.w a9 a9;
     a04:	b2 a3             	  mv.w a3 a10;
     a06:	0f f7             	  mvi a15 -0x9;
     a08:	b3 94 00 55       	  cmpbrne.w a9 0x0 0xa5d;
     a0c:	b3 a0 00 4b       	  cmpbreq.w a10 0x0 0xa57;
     a10:	7e 98 05 00       	  call 0x598;
     a14:	81 c0 0f 00       	  mvi a1 0xfc0;
     a18:	82 b4 0f 00       	  mvi a2 0xfb4;
     a1c:	bf 10             	  ldd.w a0 a1;
     a1e:	bf 2a             	  ldd.w a10 a2;
     a20:	bc 30 00          	  add.w a0 a3 a0;
     a23:	90 aa 10          	  add.w a10 a10 0x10;
     a26:	7e 51 0c 00       	  call 0xc51;
     a2a:	bf 29             	  ldd.w a9 a2;
     a2c:	b5 90 04          	  std.w a9 0x10 a0;
     a2f:	bf 19             	  ldd.w a9 a1;
     a31:	a6 09             	  cmp.w a0 a9;
     a33:	f4 18 0b          	  brnc 0xa3e;
     a36:	89 8c 10 00       	  mvi a9 0x108c;
     a3a:	3e 42 0a 00       	  jmp 0xa42;
     a3e:	89 90 10 00       	  mvi a9 0x1090;
     a42:	bf 9a             	  ldd.w a10 a9;
     a44:	bf 2b             	  ldd.w a11 a2;
     a46:	90 bb 10          	  add.w a11 a11 0x10;
     a49:	7e 0f 0c 00       	  call 0xc0f;
     a4d:	7e 2e 09 00       	  call 0x92e;
     a51:	0f 01             	  mvi a15 0x1;
     a53:	b3 a4 00 0a       	  cmpbrne.w a10 0x0 0xa5d;
     a57:	7e 0e 00 00       	  call 0xe;
     a5b:	0f 01             	  mvi a15 0x1;
     a5d:	b2 fa             	  mv.w a10 a15;
     a5f:	fb 31             	  popm a3 0x1;

00000a61 <_xPortIsTaskHandleValid>:
     a61:	b3 a0 00 11       	  cmpbreq.w a10 0x0 0xa72;
     a65:	98 a9 03          	  ldd.w a9 a10 0xc;
     a68:	bf af             	  ldd.w a15 a10;
     a6a:	b9 99 00          	  cpl.w a9 a9;
     a6d:	a6 f9             	  cmp.w a15 a9;
     a6f:	f0 ac 0b          	  sgetb a10 0xb;
     a72:	f8 00             	  ret;

00000a74 <_vPortEnterCritical>:
     a74:	f4 32 10          	  sclrb 0x10;
     a77:	f4 32 11          	  sclrb 0x11;
     a7a:	8f a0 05 00       	  mvi a15 0x5a0;
     a7e:	bf f9             	  ldd.w a9 a15;
     a80:	90 99 01          	  add.w a9 a9 0x1;
     a83:	a0 f9             	  std.w a15 a9;
     a85:	f8 00             	  ret;

00000a87 <_vPortTickHook>:
     a87:	f8 00             	  ret;

00000a89 <_xPortLoadTask>:
     a89:	7e 10 10 00       	  call 0x1010;
     a8d:	f8 00             	  ret;

00000a8f <_vPortIdleHook>:
     a8f:	7e 85 18 00       	  call 0x1885;
     a93:	f8 00             	  ret;

00000a95 <_vPortErrorHook>:
     a95:	7e b4 18 00       	  call 0x18b4;
     a99:	f8 00             	  ret;

00000a9b <_vPortExitCritical>:
     a9b:	8f a0 05 00       	  mvi a15 0x5a0;
     a9f:	bf f9             	  ldd.w a9 a15;
     aa1:	b3 94 00 1a       	  cmpbrne.w a9 0x0 0xabb;
     aa5:	f4 32 10          	  sclrb 0x10;
     aa8:	f4 32 11          	  sclrb 0x11;
     aab:	bd a4             	  clr.w a10;
     aad:	0b ee             	  mvi a11 -0x12;
     aaf:	7e 95 0a 00       	  call 0xa95;
     ab3:	f4 31 10          	  ssetb 0x10;
     ab6:	f4 31 11          	  ssetb 0x11;
     ab9:	f8 00             	  ret;
     abb:	bf f9             	  ldd.w a9 a15;
     abd:	92 99 01          	  sub.w a9 a9 0x1;
     ac0:	a0 f9             	  std.w a15 a9;
     ac2:	bf f9             	  ldd.w a9 a15;
     ac4:	b3 94 00 0a       	  cmpbrne.w a9 0x0 0xace;
     ac8:	f4 31 10          	  ssetb 0x10;
     acb:	f4 31 11          	  ssetb 0x11;
     ace:	f8 00             	  ret;

00000ad0 <_vPortFlcnPrivLevelSet>:
     ad0:	7e 40 41 00       	  call 0x4140;
     ad4:	f8 00             	  ret;

00000ad6 <_prvExceptionHandler>:
     ad6:	fe c9 01          	  rspr a9 EXCI;
     ad9:	b6 95 14          	  lsr.w a9 0x14;
     adc:	33 90 08 3c       	  cmpbreq.b a9 0x8 0xb18;
     ae0:	30 96 08          	  cmp.b a9 0x8;
     ae3:	f4 0c 13          	  brgt 0xaf6;
     ae6:	33 90 02 20       	  cmpbreq.b a9 0x2 0xb06;
     aea:	33 90 03 34       	  cmpbreq.b a9 0x3 0xb1e;
     aee:	33 90 00 18       	  cmpbreq.b a9 0x0 0xb06;
     af2:	3e 1c 0b 00       	  jmp 0xb1c;
     af6:	33 90 0f 28       	  cmpbreq.b a9 0xf 0xb1e;
     afa:	33 90 10 18       	  cmpbreq.b a9 0x10 0xb12;
     afe:	33 94 0a 1e       	  cmpbrne.b a9 0xa 0xb1c;
     b02:	3e 0c 0b 00       	  jmp 0xb0c;
     b06:	7e 8a 06 00       	  call 0x68a;
     b0a:	f8 00             	  ret;
     b0c:	7e bc 13 00       	  call 0x13bc;
     b10:	f8 00             	  ret;
     b12:	7e b0 13 00       	  call 0x13b0;
     b16:	f8 00             	  ret;
     b18:	f8 02             	  halt;
     b1a:	f8 00             	  ret;
     b1c:	f8 02             	  halt;
     b1e:	f8 00             	  ret;

00000b20 <_vEVRoutineEntryC>:
     b20:	7e 55 41 00       	  call 0x4155;
     b24:	7e d6 0a 00       	  call 0xad6;
     b28:	7e 40 41 00       	  call 0x4140;
     b2c:	f8 00             	  ret;

00000b2e <_vIV1RoutineEntryC>:
     b2e:	f9 02             	  pushm a0;
     b30:	7e 55 41 00       	  call 0x4155;
     b34:	49 00 02          	  mvi a9 0x200;
     b37:	cf 99 00          	  ldx a9 a9 0x0;
     b3a:	80 dc 10 00       	  mvi a0 0x10dc;
     b3e:	bf 0f             	  ldd.w a15 a0;
     b40:	fd 9f 04          	  and a9 a15;
     b43:	f4 0b 17          	  breq 0xb5a;
     b46:	7e 48 08 00       	  call 0x848;
     b4a:	7e 8a 06 00       	  call 0x68a;
     b4e:	bf 0f             	  ldd.w a15 a0;
     b50:	49 00 01          	  mvi a9 0x100;
     b53:	fa 9f 00          	  stx a9 a15;
     b56:	3e 62 0b 00       	  jmp 0xb62;
     b5a:	bd a4             	  clr.w a10;
     b5c:	0b da             	  mvi a11 -0x26;
     b5e:	7e 95 0a 00       	  call 0xa95;
     b62:	7e 40 41 00       	  call 0x4140;
     b66:	fb 01             	  popm a0 0x1;

00000b68 <_vIV0RoutineEntryC>:
     b68:	7e 55 41 00       	  call 0x4155;
     b6c:	7e 5a 18 00       	  call 0x185a;
     b70:	b3 a0 00 08       	  cmpbreq.w a10 0x0 0xb78;
     b74:	7e 8a 06 00       	  call 0x68a;
     b78:	7e 40 41 00       	  call 0x4140;
     b7c:	f8 00             	  ret;

00000b7e <_memcpy>:
     b7e:	bd 94             	  clr.w a9;
     b80:	3e 8d 0b 00       	  jmp 0xb8d;
     b84:	3c b9 f8          	  ldd.b a15 a11 a9;
     b87:	3c af 99          	  std.b a10 a9 a15;
     b8a:	90 99 01          	  add.w a9 a9 0x1;
     b8d:	a6 9c             	  cmp.w a9 a12;
     b8f:	f4 08 f5          	  brc 0xb84;
     b92:	f8 00             	  ret;

00000b94 <_memset>:
     b94:	b2 a9             	  mv.w a9 a10;
     b96:	3e a2 0b 00       	  jmp 0xba2;
     b9a:	20 9b             	  std.b a9 a11;
     b9c:	92 cc 01          	  sub.w a12 a12 0x1;
     b9f:	90 99 01          	  add.w a9 a9 0x1;
     ba2:	b3 c4 00 f8       	  cmpbrne.w a12 0x0 0xb9a;
     ba6:	f8 00             	  ret;

00000ba8 <_memcmp>:
     ba8:	bd e4             	  clr.w a14;
     baa:	3e c7 0b 00       	  jmp 0xbc7;
     bae:	3c ae f8          	  ldd.b a15 a10 a14;
     bb1:	3c be 98          	  ldd.b a9 a11 a14;
     bb4:	90 ee 01          	  add.w a14 a14 0x1;
     bb7:	26 f9             	  cmp.b a15 a9;
     bb9:	f4 0b 0e          	  breq 0xbc7;
     bbc:	f0 f4 ff          	  and a15 0xff;
     bbf:	f0 94 ff          	  and a9 0xff;
     bc2:	bc f9 a2          	  sub.w a10 a15 a9;
     bc5:	f8 00             	  ret;
     bc7:	a6 ec             	  cmp.w a14 a12;
     bc9:	f4 08 e5          	  brc 0xbae;
     bcc:	bd a4             	  clr.w a10;
     bce:	f8 00             	  ret;

00000bd0 <_vListInitialise>:
     bd0:	90 af 08          	  add.w a15 a10 0x8;
     bd3:	b5 af 01          	  std.w a10 0x4 a15;
     bd6:	09 ff             	  mvi a9 -0x1;
     bd8:	b5 a9 02          	  std.w a10 0x8 a9;
     bdb:	b5 af 03          	  std.w a10 0xc a15;
     bde:	b5 af 04          	  std.w a10 0x10 a15;
     be1:	bd 94             	  clr.w a9;
     be3:	a0 a9             	  std.w a10 a9;
     be5:	f8 00             	  ret;

00000be7 <_vListInitialiseItem>:
     be7:	bd 94             	  clr.w a9;
     be9:	b5 a9 04          	  std.w a10 0x10 a9;
     bec:	f8 00             	  ret;

00000bee <_vListInsertEnd>:
     bee:	98 af 01          	  ldd.w a15 a10 0x4;
     bf1:	b5 bf 01          	  std.w a11 0x4 a15;
     bf4:	98 f9 02          	  ldd.w a9 a15 0x8;
     bf7:	b5 b9 02          	  std.w a11 0x8 a9;
     bfa:	98 f9 02          	  ldd.w a9 a15 0x8;
     bfd:	b5 9b 01          	  std.w a9 0x4 a11;
     c00:	b5 fb 02          	  std.w a15 0x8 a11;
     c03:	b5 ba 04          	  std.w a11 0x10 a10;
     c06:	bf a9             	  ldd.w a9 a10;
     c08:	90 99 01          	  add.w a9 a9 0x1;
     c0b:	a0 a9             	  std.w a10 a9;
     c0d:	f8 00             	  ret;

00000c0f <_vListInsertOrdered>:
     c0f:	bf be             	  ldd.w a14 a11;
     c11:	09 ff             	  mvi a9 -0x1;
     c13:	a6 e9             	  cmp.w a14 a9;
     c15:	f4 1b 0a          	  brne 0xc1f;
     c18:	98 af 04          	  ldd.w a15 a10 0x10;
     c1b:	3e 33 0c 00       	  jmp 0xc33;
     c1f:	90 af 08          	  add.w a15 a10 0x8;
     c22:	3e 29 0c 00       	  jmp 0xc29;
     c26:	98 ff 01          	  ldd.w a15 a15 0x4;
     c29:	98 f9 01          	  ldd.w a9 a15 0x4;
     c2c:	bf 99             	  ldd.w a9 a9;
     c2e:	a6 9e             	  cmp.w a9 a14;
     c30:	f4 0d f6          	  brlte 0xc26;
     c33:	98 f9 01          	  ldd.w a9 a15 0x4;
     c36:	b5 b9 01          	  std.w a11 0x4 a9;
     c39:	98 b9 01          	  ldd.w a9 a11 0x4;
     c3c:	b5 9b 02          	  std.w a9 0x8 a11;
     c3f:	b5 bf 02          	  std.w a11 0x8 a15;
     c42:	b5 fb 01          	  std.w a15 0x4 a11;
     c45:	b5 ba 04          	  std.w a11 0x10 a10;
     c48:	bf a9             	  ldd.w a9 a10;
     c4a:	90 99 01          	  add.w a9 a9 0x1;
     c4d:	a0 a9             	  std.w a10 a9;
     c4f:	f8 00             	  ret;

00000c51 <_vListRemove>:
     c51:	98 af 01          	  ldd.w a15 a10 0x4;
     c54:	98 a9 02          	  ldd.w a9 a10 0x8;
     c57:	b5 f9 02          	  std.w a15 0x8 a9;
     c5a:	98 af 02          	  ldd.w a15 a10 0x8;
     c5d:	98 a9 01          	  ldd.w a9 a10 0x4;
     c60:	b5 f9 01          	  std.w a15 0x4 a9;
     c63:	98 af 04          	  ldd.w a15 a10 0x10;
     c66:	98 f9 01          	  ldd.w a9 a15 0x4;
     c69:	a6 9a             	  cmp.w a9 a10;
     c6b:	f4 1b 09          	  brne 0xc74;
     c6e:	98 a9 02          	  ldd.w a9 a10 0x8;
     c71:	b5 f9 01          	  std.w a15 0x4 a9;
     c74:	bd 94             	  clr.w a9;
     c76:	b5 a9 04          	  std.w a10 0x10 a9;
     c79:	bf f9             	  ldd.w a9 a15;
     c7b:	92 99 01          	  sub.w a9 a9 0x1;
     c7e:	a0 f9             	  std.w a15 a9;
     c80:	f8 00             	  ret;

00000c82 <_s_dmaTransfer>:
     c82:	f9 72             	  pushm a7;
     c84:	98 b9 02          	  ldd.w a9 a11 0x8;
     c87:	b2 a5             	  mv.w a5 a10;
     c89:	b2 b1             	  mv.w a1 a11;
     c8b:	b2 c2             	  mv.w a2 a12;
     c8d:	95 9a 1d          	  lsr.w a10 a9 0x1d;
     c90:	34 90 24          	  lddsp.b a9 0x24;
     c93:	b2 d4             	  mv.w a4 a13;
     c95:	32 e7             	  mv.b a7 a14;
     c97:	32 a6             	  mv.b a6 a10;
     c99:	33 90 00 0f       	  cmpbreq.b a9 0x0 0xca8;
     c9d:	00 23             	  mvi a0 0x23;
     c9f:	7e d7 18 00       	  call 0x18d7;
     ca3:	33 a9 00 12 01    	  cmpbreq.b a10 0x0 0xdb5;
     ca8:	bf 19             	  ldd.w a9 a1;
     caa:	98 11 01          	  ldd.w a1 a1 0x4;
     cad:	bc 29 20          	  add.w a2 a2 a9;
     cb0:	a6 29             	  cmp.w a2 a9;
     cb2:	f4 18 21          	  brnc 0xcd3;
     cb5:	09 ff             	  mvi a9 -0x1;
     cb7:	a6 19             	  cmp.w a1 a9;
     cb9:	f4 0b 0a          	  breq 0xcc3;
     cbc:	90 11 01          	  add.w a1 a1 0x1;
     cbf:	3e d3 0c 00       	  jmp 0xcd3;
     cc3:	7e ea 00 00       	  call 0xea;
     cc7:	0b 02             	  mvi a11 0x2;
     cc9:	00 02             	  mvi a0 0x2;
     ccb:	7e b4 18 00       	  call 0x18b4;
     ccf:	3e b5 0d 00       	  jmp 0xdb5;
     cd3:	c4 23 ff          	  and a3 a2 0xff;
     cd6:	ff 45 95          	  or a9 a4 a5;
     cd9:	00 3f             	  mvi a0 0x3f;
     cdb:	fd 93 05          	  or a9 a3;
     cde:	f0 94 03          	  and a9 0x3;
     ce1:	f5 1b d4 00       	  brne 0xdb5;
     ce5:	7e 74 0a 00       	  call 0xa74;
     ce9:	7e 06 0e 00       	  call 0xe06;
     ced:	fe fa 01          	  rspr a10 DMB1;
     cf0:	95 19 08          	  lsr.w a9 a1 0x8;
     cf3:	fe 9f 00          	  wspr DMB1 a9;
     cf6:	fe 7b 01          	  rspr a11 DMB;
     cf9:	fe bc 01          	  rspr a12 CTX;
     cfc:	94 19 18          	  lsl.w a9 a1 0x18;
     cff:	95 2f 08          	  lsr.w a15 a2 0x8;
     d02:	fd 9f 05          	  or a9 a15;
     d05:	fe 97 00          	  wspr DMB a9;
     d08:	c4 69 ff          	  and a9 a6 0xff;
     d0b:	e4 cf ff ff       	  and a15 a12 0xffff;
     d0f:	33 70 00 0f       	  cmpbreq.b a7 0x0 0xd1e;
     d13:	f1 f4 ff f8       	  and a15 0xf8ff;
     d17:	b6 94 08          	  lsl.w a9 0x8;
     d1a:	3e 25 0d 00       	  jmp 0xd25;
     d1e:	f1 f4 ff 8f       	  and a15 0x8fff;
     d22:	b6 94 0c          	  lsl.w a9 0xc;
     d25:	ff f9 95          	  or a9 a15 a9;
     d28:	fe 9b 00          	  wspr CTX a9;
     d2b:	3e 92 0d 00       	  jmp 0xd92;
     d2f:	e5 59 00 01       	  or a9 a5 0x100;
     d33:	fd 93 05          	  or a9 a3;
     d36:	b9 9f 01          	  neg.w a15 a9;
     d39:	fd f9 04          	  and a15 a9;
     d3c:	3e 43 0d 00       	  jmp 0xd43;
     d40:	b6 f5 01          	  lsr.w a15 0x1;
     d43:	a6 f4             	  cmp.w a15 a4;
     d45:	f4 0c fb          	  brgt 0xd40;
     d48:	95 fd 03          	  lsr.w a13 a15 0x3;
     d4b:	bd e4             	  clr.w a14;
     d4d:	3e 54 0d 00       	  jmp 0xd54;
     d51:	b6 d5 01          	  lsr.w a13 0x1;
     d54:	32 e9             	  mv.b a9 a14;
     d56:	b3 d0 00 0c       	  cmpbreq.w a13 0x0 0xd62;
     d5a:	90 ee 01          	  add.w a14 a14 0x1;
     d5d:	b3 ee 00 01 f4    	  cmpbrne.w a14 0x100 0xd51;
     d62:	f0 94 ff          	  and a9 0xff;
     d65:	e4 5e ff ff       	  and a14 a5 0xffff;
     d69:	33 70 00 14       	  cmpbreq.b a7 0x0 0xd7d;
     d6d:	f0 94 07          	  and a9 0x7;
     d70:	b6 94 10          	  lsl.w a9 0x10;
     d73:	fd 9e 05          	  or a9 a14;
     d76:	fa 39 05          	  dmread a3 a9;
     d79:	3e 89 0d 00       	  jmp 0xd89;
     d7d:	f0 94 07          	  and a9 0x7;
     d80:	b6 94 10          	  lsl.w a9 0x10;
     d83:	fd 9e 05          	  or a9 a14;
     d86:	fa 39 06          	  dmwrite a3 a9;
     d89:	bb 4f 02          	  sub.w a4 a15;
     d8c:	bc 3f 30          	  add.w a3 a3 a15;
     d8f:	bc 5f 50          	  add.w a5 a5 a15;
     d92:	b3 44 00 9d       	  cmpbrne.w a4 0x0 0xd2f;
     d96:	fe af 00          	  wspr DMB1 a10;
     d99:	fe b7 00          	  wspr DMB a11;
     d9c:	fe cb 00          	  wspr CTX a12;
     d9f:	f8 03             	  dmwait;
     da1:	00 17             	  mvi a0 0x17;
     da3:	7e 5a 19 00       	  call 0x195a;
     da7:	33 a4 00 06       	  cmpbrne.b a10 0x0 0xdad;
     dab:	3d 04             	  clr.b a0;
     dad:	7e 9b 0a 00       	  call 0xa9b;
     db1:	7e dd 0d 00       	  call 0xddd;
     db5:	32 0a             	  mv.b a10 a0;
     db7:	fb 71             	  popm a7 0x1;

00000db9 <_dmaWrite_IMPL>:
     db9:	09 01             	  mvi a9 0x1;
     dbb:	f4 30 fc          	  addsp -0x4;
     dbe:	3d e4             	  clr.b a14;
     dc0:	30 91 00          	  stdsp.b a9 0x0;
     dc3:	7e 82 0c 00       	  call 0xc82;
     dc7:	f4 30 04          	  addsp 0x4;
     dca:	f8 00             	  ret;

00000dcc <_dmaRead_IMPL>:
     dcc:	f4 30 fc          	  addsp -0x4;
     dcf:	0e 01             	  mvi a14 0x1;
     dd1:	30 e1 00          	  stdsp.b a14 0x0;
     dd4:	7e 82 0c 00       	  call 0xc82;
     dd8:	f4 30 04          	  addsp 0x4;
     ddb:	f8 00             	  ret;

00000ddd <_lwosDmaLockRelease_IMPL>:
     ddd:	7e 74 0a 00       	  call 0xa74;
     de1:	8f e0 10 00       	  mvi a15 0x10e0;
     de5:	bf f9             	  ldd.w a9 a15;
     de7:	b3 90 00 0f       	  cmpbreq.w a9 0x0 0xdf6;
     deb:	bf f9             	  ldd.w a9 a15;
     ded:	92 99 01          	  sub.w a9 a9 0x1;
     df0:	a0 f9             	  std.w a15 a9;
     df2:	3e 00 0e 00       	  jmp 0xe00;
     df6:	7e ea 00 00       	  call 0xea;
     dfa:	0b 03             	  mvi a11 0x3;
     dfc:	7e b4 18 00       	  call 0x18b4;
     e00:	7e 9b 0a 00       	  call 0xa9b;
     e04:	f8 00             	  ret;

00000e06 <_lwosDmaLockAcquire_IMPL>:
     e06:	7e 74 0a 00       	  call 0xa74;
     e0a:	8e e0 10 00       	  mvi a14 0x10e0;
     e0e:	bf ef             	  ldd.w a15 a14;
     e10:	09 ff             	  mvi a9 -0x1;
     e12:	a6 f9             	  cmp.w a15 a9;
     e14:	f4 0b 0e          	  breq 0xe22;
     e17:	bf e9             	  ldd.w a9 a14;
     e19:	90 99 01          	  add.w a9 a9 0x1;
     e1c:	a0 e9             	  std.w a14 a9;
     e1e:	3e 2c 0e 00       	  jmp 0xe2c;
     e22:	7e ea 00 00       	  call 0xea;
     e26:	0b 03             	  mvi a11 0x3;
     e28:	7e b4 18 00       	  call 0x18b4;
     e2c:	7e 9b 0a 00       	  call 0xa9b;
     e30:	f8 00             	  ret;

00000e32 <_osCmdmgmtQueueWrite_DMEM>:
     e32:	f9 12             	  pushm a1;
     e34:	b2 b9             	  mv.w a9 a11;
     e36:	bf af             	  ldd.w a15 a10;
     e38:	3f 9e             	  ldd.b a14 a9;
     e3a:	b2 a0             	  mv.w a0 a10;
     e3c:	92 d1 04          	  sub.w a1 a13 0x4;
     e3f:	b2 cb             	  mv.w a11 a12;
     e41:	20 fe             	  std.b a15 a14;
     e43:	18 9e 01          	  ldd.b a14 a9 0x1;
     e46:	b2 1c             	  mv.w a12 a1;
     e48:	35 fe 01          	  std.b a15 0x1 a14;
     e4b:	18 9e 02          	  ldd.b a14 a9 0x2;
     e4e:	35 fe 02          	  std.b a15 0x2 a14;
     e51:	18 99 03          	  ldd.b a9 a9 0x3;
     e54:	35 f9 03          	  std.b a15 0x3 a9;
     e57:	bf aa             	  ldd.w a10 a10;
     e59:	90 aa 04          	  add.w a10 a10 0x4;
     e5c:	a0 0a             	  std.w a0 a10;
     e5e:	7e 7e 0b 00       	  call 0xb7e;
     e62:	bf 09             	  ldd.w a9 a0;
     e64:	bc 91 90          	  add.w a9 a9 a1;
     e67:	a0 09             	  std.w a0 a9;
     e69:	fb 11             	  popm a1 0x1;

00000e6b <_osCmdmgmtQueuePost_IMPL>:
     e6b:	f4 30 f4          	  addsp -0xc;
     e6e:	f9 62             	  pushm a6;
     e70:	b2 a3             	  mv.w a3 a10;
     e72:	b2 b2             	  mv.w a2 a11;
     e74:	b2 c6             	  mv.w a6 a12;
     e76:	32 d5             	  mv.b a5 a13;
     e78:	b3 b4 00 0c       	  cmpbrne.w a11 0x0 0xe84;
     e7c:	f8 09             	  trap1;
     e7e:	3d 04             	  clr.b a0;
     e80:	3e 51 0f 00       	  jmp 0xf51;
     e84:	18 b9 01          	  ldd.b a9 a11 0x1;
     e87:	00 01             	  mvi a0 0x1;
     e89:	f0 94 ff          	  and a9 0xff;
     e8c:	90 99 03          	  add.w a9 a9 0x3;
     e8f:	e4 91 fc 01       	  and a1 a9 0x1fc;
     e93:	f5 0b be 00       	  breq 0xf51;
     e97:	bf aa             	  ldd.w a10 a10;
     e99:	0b ff             	  mvi a11 -0x1;
     e9b:	7e de 00 00       	  call 0xde;
     e9f:	98 3a 03          	  ldd.w a10 a3 0xc;
     ea2:	f9 a5             	  call a10;
     ea4:	fe 49 01          	  rspr a9 SP;
     ea7:	90 99 20          	  add.w a9 a9 0x20;
     eaa:	a0 9a             	  std.w a9 a10;
     eac:	b2 94             	  mv.w a4 a9;
     eae:	3e b8 0e 00       	  jmp 0xeb8;
     eb2:	0a 01             	  mvi a10 0x1;
     eb4:	7e f0 00 00       	  call 0xf0;
     eb8:	98 3a 05          	  ldd.w a10 a3 0x14;
     ebb:	bf 40             	  ldd.w a0 a4;
     ebd:	f9 a5             	  call a10;
     ebf:	bc 10 f0          	  add.w a15 a1 a0;
     ec2:	a6 a0             	  cmp.w a10 a0;
     ec4:	f4 0d 0d          	  brlte 0xed1;
     ec7:	a6 fa             	  cmp.w a15 a10;
     ec9:	f5 18 8d 00       	  brnc 0xf56;
     ecd:	3e 0b 0f 00       	  jmp 0xf0b;
     ed1:	98 39 02          	  ldd.w a9 a3 0x8;
     ed4:	a6 f9             	  cmp.w a15 a9;
     ed6:	f4 08 35          	  brc 0xf0b;
     ed9:	98 39 01          	  ldd.w a9 a3 0x4;
     edc:	bc 19 90          	  add.w a9 a1 a9;
     edf:	a6 9a             	  cmp.w a9 a10;
     ee1:	f4 18 75          	  brnc 0xf56;
     ee4:	98 3e 06          	  ldd.w a14 a3 0x18;
     ee7:	3d 94             	  clr.b a9;
     ee9:	fe 4f 01          	  rspr a15 SP;
     eec:	90 ff 1c          	  add.w a15 a15 0x1c;
     eef:	35 f9 03          	  std.b a15 0x3 a9;
     ef2:	20 f9             	  std.b a15 a9;
     ef4:	35 f9 02          	  std.b a15 0x2 a9;
     ef7:	09 04             	  mvi a9 0x4;
     ef9:	b2 fb             	  mv.w a11 a15;
     efb:	35 f9 01          	  std.b a15 0x1 a9;
     efe:	b2 4a             	  mv.w a10 a4;
     f00:	bd c4             	  clr.w a12;
     f02:	0d 04             	  mvi a13 0x4;
     f04:	f9 e5             	  call a14;
     f06:	98 39 01          	  ldd.w a9 a3 0x4;
     f09:	a0 49             	  std.w a4 a9;
     f0b:	98 39 06          	  ldd.w a9 a3 0x18;
     f0e:	b2 1d             	  mv.w a13 a1;
     f10:	b2 6c             	  mv.w a12 a6;
     f12:	b2 2b             	  mv.w a11 a2;
     f14:	fe 40 01          	  rspr a0 SP;
     f17:	90 00 20          	  add.w a0 a0 0x20;
     f1a:	b2 0a             	  mv.w a10 a0;
     f1c:	f9 95             	  call a9;
     f1e:	fe 41 01          	  rspr a1 SP;
     f21:	fe 42 01          	  rspr a2 SP;
     f24:	90 11 27          	  add.w a1 a1 0x27;
     f27:	90 22 26          	  add.w a2 a2 0x26;
     f2a:	b2 1a             	  mv.w a10 a1;
     f2c:	b2 2b             	  mv.w a11 a2;
     f2e:	7e f7 40 00       	  call 0x40f7;
     f32:	0a 02             	  mvi a10 0x2;
     f34:	32 ab             	  mv.b a11 a10;
     f36:	7e 11 41 00       	  call 0x4111;
     f3a:	bf 0a             	  ldd.w a10 a0;
     f3c:	98 39 04          	  ldd.w a9 a3 0x10;
     f3f:	00 01             	  mvi a0 0x1;
     f41:	f9 95             	  call a9;
     f43:	3f 1a             	  ldd.b a10 a1;
     f45:	3f 2b             	  ldd.b a11 a2;
     f47:	7e 11 41 00       	  call 0x4111;
     f4b:	bf 3a             	  ldd.w a10 a3;
     f4d:	7e 9b 00 00       	  call 0x9b;
     f51:	32 0a             	  mv.b a10 a0;
     f53:	fb 65 0c          	  popma a6 0x1 0xc;
     f56:	33 5d 00 5c ff    	  cmpbrne.b a5 0x0 0xeb2;
     f5b:	3d 04             	  clr.b a0;
     f5d:	3e 4b 0f 00       	  jmp 0xf4b;

00000f61 <_osCmdmgmtRmQueuePostNonBlocking_IMPL>:
     f61:	b2 bc             	  mv.w a12 a11;
     f63:	3d d4             	  clr.b a13;
     f65:	b2 ab             	  mv.w a11 a10;
     f67:	8a e4 10 00       	  mvi a10 0x10e4;
     f6b:	7e 6b 0e 00       	  call 0xe6b;
     f6f:	f8 00             	  ret;

00000f71 <_osCmdmgmtRmQueuePostBlocking_IMPL>:
     f71:	b2 bc             	  mv.w a12 a11;
     f73:	0d 01             	  mvi a13 0x1;
     f75:	b2 ab             	  mv.w a11 a10;
     f77:	8a e4 10 00       	  mvi a10 0x10e4;
     f7b:	7e 6b 0e 00       	  call 0xe6b;
     f7f:	f8 00             	  ret;

00000f81 <_osCmdmgmtCmdQSweep>:
     f81:	f9 12             	  pushm a1;
     f83:	b2 a0             	  mv.w a0 a10;
     f85:	32 b1             	  mv.b a1 a11;
     f87:	b3 a4 00 0a       	  cmpbrne.w a10 0x0 0xf91;
     f8b:	f8 09             	  trap1;
     f8d:	3e 0e 10 00       	  jmp 0x100e;
     f91:	89 d8 2f 00       	  mvi a9 0x2fd8;
     f95:	bf 9a             	  ldd.w a10 a9;
     f97:	0b ff             	  mvi a11 -0x1;
     f99:	7e de 00 00       	  call 0xde;
     f9d:	c4 19 ff          	  and a9 a1 0xff;
     fa0:	8f 00 01 03       	  mvi a15 0x30100;
     fa4:	94 9e 09          	  lsl.w a14 a9 0x9;
     fa7:	bc ef e0          	  add.w a14 a14 a15;
     faa:	cf ef 00          	  ldx a15 a14 0x0;
     fad:	b8 99 80 01 00    	  add.w a9 a9 0x180;
     fb2:	b6 94 09          	  lsl.w a9 0x9;
     fb5:	cf 9d 00          	  ldx a13 a9 0x0;
     fb8:	18 09 02          	  ldd.b a9 a0 0x2;
     fbb:	f0 95 20          	  or a9 0x20;
     fbe:	35 09 02          	  std.b a0 0x2 a9;
     fc1:	a6 0f             	  cmp.w a0 a15;
     fc3:	f4 1b 41          	  brne 0x1004;
     fc6:	3e f6 0f 00       	  jmp 0xff6;
     fca:	18 f9 02          	  ldd.b a9 a15 0x2;
     fcd:	f0 94 20          	  and a9 0x20;
     fd0:	f4 0b 34          	  breq 0x1004;
     fd3:	3f f9             	  ldd.b a9 a15;
     fd5:	33 94 00 0b       	  cmpbrne.b a9 0x0 0xfe0;
     fd9:	bc cb f8          	  ldd.w a15 a12 a11;
     fdc:	3e ef 0f 00       	  jmp 0xfef;
     fe0:	18 f9 01          	  ldd.b a9 a15 0x1;
     fe3:	f0 94 ff          	  and a9 0xff;
     fe6:	90 99 03          	  add.w a9 a9 0x3;
     fe9:	fd 9a 04          	  and a9 a10;
     fec:	bc f9 f0          	  add.w a15 a15 a9;
     fef:	f6 ef 00          	  stx a14 0x0 a15;
     ff2:	3e ff 0f 00       	  jmp 0xfff;
     ff6:	c4 1b ff          	  and a11 a1 0xff;
     ff9:	0a fc             	  mvi a10 -0x4;
     ffb:	8c c0 2f 00       	  mvi a12 0x2fc0;
     fff:	a6 fd             	  cmp.w a15 a13;
    1001:	f4 1b c9          	  brne 0xfca;
    1004:	89 d8 2f 00       	  mvi a9 0x2fd8;
    1008:	bf 9a             	  ldd.w a10 a9;
    100a:	7e 9b 00 00       	  call 0x9b;
    100e:	fb 11             	  popm a1 0x1;

00001010 <_osTaskLoad>:
    1010:	f9 02             	  pushm a0;
    1012:	8b 10 11 00       	  mvi a11 0x1110;
    1016:	7e 12 00 00       	  call 0x12;
    101a:	32 a0             	  mv.b a0 a10;
    101c:	33 a0 00 0f       	  cmpbreq.b a10 0x0 0x102b;
    1020:	7e ea 00 00       	  call 0xea;
    1024:	c4 0b ff          	  and a11 a0 0xff;
    1027:	7e b4 18 00       	  call 0x18b4;
    102b:	89 10 11 00       	  mvi a9 0x1110;
    102f:	bf 90             	  ldd.w a0 a9;
    1031:	89 14 11 00       	  mvi a9 0x1114;
    1035:	bf 9f             	  ldd.w a15 a9;
    1037:	89 00 11 00       	  mvi a9 0x1100;
    103b:	18 0e 18          	  ldd.b a14 a0 0x18;
    103e:	35 9e 0e          	  std.b a9 0xe a14;
    1041:	a6 0f             	  cmp.w a0 a15;
    1043:	f4 1b 10          	  brne 0x1053;
    1046:	18 09 19          	  ldd.b a9 a0 0x19;
    1049:	33 94 00 0a       	  cmpbrne.b a9 0x0 0x1053;
    104d:	bd a4             	  clr.w a10;
    104f:	3e 7a 10 00       	  jmp 0x107a;
    1053:	18 0b 1d          	  ldd.b a11 a0 0x1d;
    1056:	33 b4 00 0a       	  cmpbrne.b a11 0x0 0x1060;
    105a:	bd a4             	  clr.w a10;
    105c:	3e 6f 10 00       	  jmp 0x106f;
    1060:	90 0a 20          	  add.w a10 a0 0x20;
    1063:	3d c4             	  clr.b a12;
    1065:	7e 60 13 00       	  call 0x1360;
    1069:	b0 a6 00          	  cmp.w a10 0x0;
    106c:	f4 1e 0e          	  brslt 0x107a;
    106f:	3d 94             	  clr.b a9;
    1071:	35 09 19          	  std.b a0 0x19 a9;
    1074:	89 14 11 00       	  mvi a9 0x1114;
    1078:	a0 90             	  std.w a9 a0;
    107a:	fb 01             	  popm a0 0x1;

0000107c <_lwosOvlMruListRemove>:
    107c:	f0 a4 ff          	  and a10 0xff;
    107f:	89 31 32 00       	  mvi a9 0x3231;
    1083:	8c 24 32 00       	  mvi a12 0x3224;
    1087:	bc a9 d0          	  add.w a13 a10 a9;
    108a:	bc ac a0          	  add.w a10 a10 a12;
    108d:	3f df             	  ldd.b a15 a13;
    108f:	3f ae             	  ldd.b a14 a10;
    1091:	8c 31 32 00       	  mvi a12 0x3231;
    1095:	c4 e9 ff          	  and a9 a14 0xff;
    1098:	bc 9c 90          	  add.w a9 a9 a12;
    109b:	20 9f             	  std.b a9 a15;
    109d:	89 24 32 00       	  mvi a9 0x3224;
    10a1:	f0 f4 ff          	  and a15 0xff;
    10a4:	bc f9 f0          	  add.w a15 a15 a9;
    10a7:	20 fe             	  std.b a15 a14;
    10a9:	3d 94             	  clr.b a9;
    10ab:	20 d9             	  std.b a13 a9;
    10ad:	f8 00             	  ret;

000010af <_lwosOvlMruListMoveToFront>:
    10af:	f9 22             	  pushm a2;
    10b1:	89 31 32 00       	  mvi a9 0x3231;
    10b5:	c4 a0 ff          	  and a0 a10 0xff;
    10b8:	bc 09 20          	  add.w a2 a0 a9;
    10bb:	3f 2e             	  ldd.b a14 a2;
    10bd:	32 a1             	  mv.b a1 a10;
    10bf:	33 e0 00 0c       	  cmpbreq.b a14 0x0 0x10cb;
    10c3:	7e 7c 10 00       	  call 0x107c;
    10c7:	3e e0 10 00       	  jmp 0x10e0;
    10cb:	8f 18 11 00       	  mvi a15 0x1118;
    10cf:	3f f9             	  ldd.b a9 a15;
    10d1:	26 a9             	  cmp.b a10 a9;
    10d3:	f4 1b 0d          	  brne 0x10e0;
    10d6:	7d 94             	  clr.h a9;
    10d8:	20 fe             	  std.b a15 a14;
    10da:	75 f9 02          	  std.h a15 0x4 a9;
    10dd:	75 f9 01          	  std.h a15 0x2 a9;
    10e0:	89 31 32 00       	  mvi a9 0x3231;
    10e4:	3f 9f             	  ldd.b a15 a9;
    10e6:	20 91             	  std.b a9 a1;
    10e8:	89 24 32 00       	  mvi a9 0x3224;
    10ec:	bc 09 00          	  add.w a0 a0 a9;
    10ef:	3d 94             	  clr.b a9;
    10f1:	20 09             	  std.b a0 a9;
    10f3:	20 2f             	  std.b a2 a15;
    10f5:	89 24 32 00       	  mvi a9 0x3224;
    10f9:	f0 f4 ff          	  and a15 0xff;
    10fc:	bc f9 f0          	  add.w a15 a15 a9;
    10ff:	20 f1             	  std.b a15 a1;
    1101:	fb 21             	  popm a2 0x1;

00001103 <_lwosOvlMruListMoveToFrontAll>:
    1103:	f9 52             	  pushm a5;
    1105:	8f 18 11 00       	  mvi a15 0x1118;
    1109:	3d 94             	  clr.b a9;
    110b:	32 b4             	  mv.b a4 a11;
    110d:	32 c3             	  mv.b a3 a12;
    110f:	b2 a2             	  mv.w a2 a10;
    1111:	b2 f5             	  mv.w a5 a15;
    1113:	35 f9 01          	  std.b a15 0x1 a9;
    1116:	3d 14             	  clr.b a1;
    1118:	3e 3a 11 00       	  jmp 0x113a;
    111c:	3f 20             	  ldd.b a0 a2;
    111e:	10 11 01          	  add.b a1 a1 0x1;
    1121:	90 22 01          	  add.w a2 a2 0x1;
    1124:	33 00 00 16       	  cmpbreq.b a0 0x0 0x113a;
    1128:	32 0a             	  mv.b a10 a0;
    112a:	32 3b             	  mv.b a11 a3;
    112c:	7e af 10 00       	  call 0x10af;
    1130:	18 59 01          	  ldd.b a9 a5 0x1;
    1133:	33 94 00 07       	  cmpbrne.b a9 0x0 0x113a;
    1137:	35 50 01          	  std.b a5 0x1 a0;
    113a:	26 14             	  cmp.b a1 a4;
    113c:	f4 08 e0          	  brc 0x111c;
    113f:	fb 51             	  popm a5 0x1;

00001141 <_lwosTaskOverlayAttach>:
    1141:	f4 30 fc          	  addsp -0x4;
    1144:	f9 12             	  pushm a1;
    1146:	32 b1             	  mv.b a1 a11;
    1148:	fe 40 01          	  rspr a0 SP;
    114b:	90 00 08          	  add.w a0 a0 0x8;
    114e:	b2 0b             	  mv.w a11 a0;
    1150:	7e 12 00 00       	  call 0x12;
    1154:	bf 00             	  ldd.w a0 a0;
    1156:	18 0e 1d          	  ldd.b a14 a0 0x1d;
    1159:	33 14 00 06       	  cmpbrne.b a1 0x0 0x115f;
    115d:	f8 02             	  halt;
    115f:	4f 0b 00          	  mvi a15 0xb;
    1162:	f1 f3 00 00       	  sethi a15 0x0;
    1166:	c4 19 ff          	  and a9 a1 0xff;
    1169:	a6 9f             	  cmp.w a9 a15;
    116b:	f4 0c 0b          	  brgt 0x1176;
    116e:	32 ed             	  mv.b a13 a14;
    1170:	3d f4             	  clr.b a15;
    1172:	3e 9f 11 00       	  jmp 0x119f;
    1176:	f8 02             	  halt;
    1178:	3d f4             	  clr.b a15;
    117a:	32 ed             	  mv.b a13 a14;
    117c:	3e 9f 11 00       	  jmp 0x119f;
    1180:	12 ee 01          	  sub.b a14 a14 0x1;
    1183:	c4 e9 ff          	  and a9 a14 0xff;
    1186:	bc 09 90          	  add.w a9 a0 a9;
    1189:	18 99 20          	  ldd.b a9 a9 0x20;
    118c:	26 91             	  cmp.b a9 a1;
    118e:	f4 1b 09          	  brne 0x1197;
    1191:	3d a4             	  clr.b a10;
    1193:	3e c9 11 00       	  jmp 0x11c9;
    1197:	33 94 00 08       	  cmpbrne.b a9 0x0 0x119f;
    119b:	32 ed             	  mv.b a13 a14;
    119d:	0f 01             	  mvi a15 0x1;
    119f:	33 e4 00 e1       	  cmpbrne.b a14 0x0 0x1180;
    11a3:	33 f0 00 11       	  cmpbreq.b a15 0x0 0x11b4;
    11a7:	c4 d9 ff          	  and a9 a13 0xff;
    11aa:	bc 09 90          	  add.w a9 a0 a9;
    11ad:	35 91 20          	  std.b a9 0x20 a1;
    11b0:	3e b6 11 00       	  jmp 0x11b6;
    11b4:	f8 02             	  halt;
    11b6:	fe 49 01          	  rspr a9 SP;
    11b9:	90 99 08          	  add.w a9 a9 0x8;
    11bc:	bf 9f             	  ldd.w a15 a9;
    11be:	0a 01             	  mvi a10 0x1;
    11c0:	18 f9 19          	  ldd.b a9 a15 0x19;
    11c3:	fd 9a 05          	  or a9 a10;
    11c6:	35 f9 19          	  std.b a15 0x19 a9;
    11c9:	fb 15 04          	  popma a1 0x1 0x4;

000011cc <_lwosTaskOverlayAttachAndFail>:
    11cc:	7e 41 11 00       	  call 0x1141;
    11d0:	33 a4 00 06       	  cmpbrne.b a10 0x0 0x11d6;
    11d4:	f8 02             	  halt;
    11d6:	f8 00             	  ret;

000011d8 <_lwosTaskOverlayDetach>:
    11d8:	f4 30 fc          	  addsp -0x4;
    11db:	f9 12             	  pushm a1;
    11dd:	b2 a0             	  mv.w a0 a10;
    11df:	32 b1             	  mv.b a1 a11;
    11e1:	7e 74 0a 00       	  call 0xa74;
    11e5:	b2 0a             	  mv.w a10 a0;
    11e7:	fe 40 01          	  rspr a0 SP;
    11ea:	90 00 08          	  add.w a0 a0 0x8;
    11ed:	b2 0b             	  mv.w a11 a0;
    11ef:	7e 12 00 00       	  call 0x12;
    11f3:	bf 00             	  ldd.w a0 a0;
    11f5:	3d f4             	  clr.b a15;
    11f7:	18 0d 1d          	  ldd.b a13 a0 0x1d;
    11fa:	3e 16 12 00       	  jmp 0x1216;
    11fe:	18 e9 20          	  ldd.b a9 a14 0x20;
    1201:	10 ff 01          	  add.b a15 a15 0x1;
    1204:	90 ee 20          	  add.w a14 a14 0x20;
    1207:	26 91             	  cmp.b a9 a1;
    1209:	f4 1b 0d          	  brne 0x1216;
    120c:	3d 94             	  clr.b a9;
    120e:	00 01             	  mvi a0 0x1;
    1210:	20 e9             	  std.b a14 a9;
    1212:	3e 23 12 00       	  jmp 0x1223;
    1216:	c4 f9 ff          	  and a9 a15 0xff;
    1219:	bc 09 e0          	  add.w a14 a0 a9;
    121c:	26 fd             	  cmp.b a15 a13;
    121e:	f4 08 e0          	  brc 0x11fe;
    1221:	3d 04             	  clr.b a0;
    1223:	7e 9b 0a 00       	  call 0xa9b;
    1227:	32 0a             	  mv.b a10 a0;
    1229:	fb 15 04          	  popma a1 0x1 0x4;

0000122c <_lwosTaskOverlayDetachAndFail>:
    122c:	7e d8 11 00       	  call 0x11d8;
    1230:	33 a4 00 06       	  cmpbrne.b a10 0x0 0x1236;
    1234:	f8 02             	  halt;
    1236:	f8 00             	  ret;

00001238 <_lwosOvlImemLoad>:
    1238:	f9 82             	  pushm a8;
    123a:	f0 a4 ff          	  and a10 0xff;
    123d:	8f 00 32 00       	  mvi a15 0x3200;
    1241:	8e 18 32 00       	  mvi a14 0x3218;
    1245:	7c fa 58          	  ldd.h a5 a15 a10;
    1248:	3c ea 98          	  ldd.b a9 a14 a10;
    124b:	b2 b7             	  mv.w a7 a11;
    124d:	32 c6             	  mv.b a6 a12;
    124f:	bd 34             	  clr.w a3;
    1251:	f0 94 ff          	  and a9 0xff;
    1254:	88 a4 05 00       	  mvi a8 0x5a4;
    1258:	7c 59 20          	  add.h a2 a5 a9;
    125b:	81 18 11 00       	  mvi a1 0x1118;
    125f:	3e 54 13 00       	  jmp 0x1354;
    1263:	52 22 01          	  sub.h a2 a2 0x1;
    1266:	e4 29 ff ff       	  and a9 a2 0xffff;
    126a:	94 94 08          	  lsl.w a4 a9 0x8;
    126d:	fe 4f 03          	  imtag a15 a4;
    1270:	95 f9 1f          	  lsr.w a9 a15 0x1f;
    1273:	b3 90 01 10       	  cmpbreq.w a9 0x1 0x1283;
    1277:	d0 00 00 00 03    	  mvi a0 0x3000000;
    127c:	ff f0 94          	  and a9 a15 a0;
    127f:	f5 1b d5 00       	  brne 0x1354;
    1283:	bf 89             	  ldd.w a9 a8;
    1285:	8e 00 01 00       	  mvi a14 0x100;
    1289:	95 9f 08          	  lsr.w a15 a9 0x8;
    128c:	e4 f9 ff ff       	  and a9 a15 0xffff;
    1290:	a6 9e             	  cmp.w a9 a14;
    1292:	f5 18 10 00       	  brnc 0x12a2;
    1296:	90 99 01          	  add.w a9 a9 0x1;
    1299:	b6 94 08          	  lsl.w a9 0x8;
    129c:	a0 89             	  std.w a8 a9;
    129e:	3e 47 13 00       	  jmp 0x1347;
    12a2:	58 1f 01          	  ldd.h a15 a1 0x2;
    12a5:	58 19 02          	  ldd.h a9 a1 0x4;
    12a8:	66 f9             	  cmp.h a15 a9;
    12aa:	f4 1b 45          	  brne 0x12ef;
    12ad:	49 0b 00          	  mvi a9 0xb;
    12b0:	f1 93 00 00       	  sethi a9 0x0;
    12b4:	8f 24 32 00       	  mvi a15 0x3224;
    12b8:	bc 9f 90          	  add.w a9 a9 a15;
    12bb:	18 90 01          	  ldd.b a0 a9 0x1;
    12be:	18 19 01          	  ldd.b a9 a1 0x1;
    12c1:	26 09             	  cmp.b a0 a9;
    12c3:	f4 1b 05          	  brne 0x12c8;
    12c6:	f8 02             	  halt;
    12c8:	32 0a             	  mv.b a10 a0;
    12ca:	3d b4             	  clr.b a11;
    12cc:	7e 7c 10 00       	  call 0x107c;
    12d0:	8e 18 32 00       	  mvi a14 0x3218;
    12d4:	c4 09 ff          	  and a9 a0 0xff;
    12d7:	3c e9 f8          	  ldd.b a15 a14 a9;
    12da:	8e 00 32 00       	  mvi a14 0x3200;
    12de:	7c e9 98          	  ldd.h a9 a14 a9;
    12e1:	20 10             	  std.b a1 a0;
    12e3:	f0 f4 ff          	  and a15 0xff;
    12e6:	75 19 01          	  std.h a1 0x2 a9;
    12e9:	7c 9f f0          	  add.h a15 a9 a15;
    12ec:	75 1f 02          	  std.h a1 0x4 a15;
    12ef:	58 19 02          	  ldd.h a9 a1 0x4;
    12f2:	52 9b 01          	  sub.h a11 a9 0x1;
    12f5:	e4 b9 ff ff       	  and a9 a11 0xffff;
    12f9:	75 1b 02          	  std.h a1 0x4 a11;
    12fc:	b6 94 08          	  lsl.w a9 0x8;
    12ff:	fe 9a 03          	  imtag a10 a9;
    1302:	95 a9 1f          	  lsr.w a9 a10 0x1f;
    1305:	b3 90 01 9d       	  cmpbreq.w a9 0x1 0x12a2;
    1309:	b2 7c             	  mv.w a12 a7;
    130b:	3d d4             	  clr.b a13;
    130d:	3e 3f 13 00       	  jmp 0x133f;
    1311:	3f c9             	  ldd.b a9 a12;
    1313:	10 dd 01          	  add.b a13 a13 0x1;
    1316:	90 cc 01          	  add.w a12 a12 0x1;
    1319:	c4 9f ff          	  and a15 a9 0xff;
    131c:	33 90 00 23       	  cmpbreq.b a9 0x0 0x133f;
    1320:	80 00 32 00       	  mvi a0 0x3200;
    1324:	7c 0f e8          	  ldd.h a14 a0 a15;
    1327:	80 18 32 00       	  mvi a0 0x3218;
    132b:	3c 0f 98          	  ldd.b a9 a0 a15;
    132e:	66 be             	  cmp.h a11 a14;
    1330:	f4 08 0f          	  brc 0x133f;
    1333:	f0 94 ff          	  and a9 0xff;
    1336:	7c e9 90          	  add.h a9 a14 a9;
    1339:	66 b9             	  cmp.h a11 a9;
    133b:	f5 08 67 ff       	  brc 0x12a2;
    133f:	26 d6             	  cmp.b a13 a6;
    1341:	f4 08 d0          	  brc 0x1311;
    1344:	c4 af ff          	  and a15 a10 0xff;
    1347:	e4 f9 ff ff       	  and a9 a15 0xffff;
    134b:	b6 94 08          	  lsl.w a9 0x8;
    134e:	fa 49 04          	  imread a4 a9;
    1351:	90 33 01          	  add.w a3 a3 0x1;
    1354:	66 25             	  cmp.h a2 a5;
    1356:	f5 0c 0d ff       	  brgt 0x1263;
    135a:	f8 07             	  imwait;
    135c:	b2 3a             	  mv.w a10 a3;
    135e:	fb 81             	  popm a8 0x1;

00001360 <_lwosOvlImemLoadList>:
    1360:	f9 52             	  pushm a5;
    1362:	32 c5             	  mv.b a5 a12;
    1364:	b2 a4             	  mv.w a4 a10;
    1366:	32 b3             	  mv.b a3 a11;
    1368:	b3 a0 00 08       	  cmpbreq.w a10 0x0 0x1370;
    136c:	33 b4 00 0c       	  cmpbrne.b a11 0x0 0x1378;
    1370:	f8 02             	  halt;
    1372:	0a ff             	  mvi a10 -0x1;
    1374:	3e ae 13 00       	  jmp 0x13ae;
    1378:	3d c4             	  clr.b a12;
    137a:	b2 41             	  mv.w a1 a4;
    137c:	7e 03 11 00       	  call 0x1103;
    1380:	bd 24             	  clr.w a2;
    1382:	3d 04             	  clr.b a0;
    1384:	3e a7 13 00       	  jmp 0x13a7;
    1388:	3f 1a             	  ldd.b a10 a1;
    138a:	10 00 01          	  add.b a0 a0 0x1;
    138d:	90 11 01          	  add.w a1 a1 0x1;
    1390:	33 a0 00 17       	  cmpbreq.b a10 0x0 0x13a7;
    1394:	b2 4b             	  mv.w a11 a4;
    1396:	32 3c             	  mv.b a12 a3;
    1398:	32 5d             	  mv.b a13 a5;
    139a:	7e 38 12 00       	  call 0x1238;
    139e:	bc 2a 20          	  add.w a2 a2 a10;
    13a1:	b0 a6 00          	  cmp.w a10 0x0;
    13a4:	f4 1e 0a          	  brslt 0x13ae;
    13a7:	26 03             	  cmp.b a0 a3;
    13a9:	f4 08 df          	  brc 0x1388;
    13ac:	b2 2a             	  mv.w a10 a2;
    13ae:	fb 51             	  popm a5 0x1;

000013b0 <_lwrtosHookDmemMiss>:
    13b0:	7e ea 00 00       	  call 0xea;
    13b4:	0b 2f             	  mvi a11 0x2f;
    13b6:	7e b4 18 00       	  call 0x18b4;
    13ba:	f8 00             	  ret;

000013bc <_lwrtosHookImemMiss>:
    13bc:	7e ea 00 00       	  call 0xea;
    13c0:	0b 2f             	  mvi a11 0x2f;
    13c2:	7e b4 18 00       	  call 0x18b4;
    13c6:	f8 00             	  ret;

000013c8 <_osTimerScheduleCallback>:
    13c8:	f9 22             	  pushm a2;
    13ca:	3f a9             	  ldd.b a9 a10;
    13cc:	b2 c1             	  mv.w a1 a12;
    13ce:	b2 d0             	  mv.w a0 a13;
    13d0:	b4 c0 04          	  lddsp.w a12 0x10;
    13d3:	32 ed             	  mv.b a13 a14;
    13d5:	f0 94 ff          	  and a9 0xff;
    13d8:	a6 b9             	  cmp.w a11 a9;
    13da:	f4 08 05          	  brc 0x13df;
    13dd:	f8 02             	  halt;
    13df:	94 bf 02          	  lsl.w a15 a11 0x2;
    13e2:	94 b9 04          	  lsl.w a9 a11 0x4;
    13e5:	98 ae 02          	  ldd.w a14 a10 0x8;
    13e8:	b3 c0 00 52       	  cmpbreq.w a12 0x0 0x143a;
    13ec:	bc f9 f0          	  add.w a15 a15 a9;
    13ef:	3c ed f9          	  std.b a14 a15 a13;
    13f2:	98 a9 02          	  ldd.w a9 a10 0x8;
    13f5:	34 20 18          	  lddsp.b a2 0x18;
    13f8:	cc 0d 1e          	  udiv a13 a0 0x1e;
    13fb:	0e 01             	  mvi a14 0x1;
    13fd:	bc 9f 90          	  add.w a9 a9 a15;
    1400:	35 92 01          	  std.b a9 0x1 a2;
    1403:	98 a9 02          	  ldd.w a9 a10 0x8;
    1406:	bb eb 04          	  lsl.w a14 a11;
    1409:	bc 9f 90          	  add.w a9 a9 a15;
    140c:	b5 91 01          	  std.w a9 0x4 a1;
    140f:	98 a9 02          	  ldd.w a9 a10 0x8;
    1412:	bc 9f 90          	  add.w a9 a9 a15;
    1415:	b5 9d 02          	  std.w a9 0x8 a13;
    1418:	98 a9 02          	  ldd.w a9 a10 0x8;
    141b:	bc 9f 90          	  add.w a9 a9 a15;
    141e:	b5 9c 03          	  std.w a9 0xc a12;
    1421:	98 a9 02          	  ldd.w a9 a10 0x8;
    1424:	bc 9f 90          	  add.w a9 a9 a15;
    1427:	b4 f0 05          	  lddsp.w a15 0x14;
    142a:	b5 9f 04          	  std.w a9 0x10 a15;
    142d:	98 a9 01          	  ldd.w a9 a10 0x4;
    1430:	fd 9e 05          	  or a9 a14;
    1433:	b5 a9 01          	  std.w a10 0x4 a9;
    1436:	3e 54 14 00       	  jmp 0x1454;
    143a:	bc f9 90          	  add.w a9 a15 a9;
    143d:	bc e9 90          	  add.w a9 a14 a9;
    1440:	b5 9c 03          	  std.w a9 0xc a12;
    1443:	98 af 01          	  ldd.w a15 a10 0x4;
    1446:	09 01             	  mvi a9 0x1;
    1448:	bb 9b 04          	  lsl.w a9 a11;
    144b:	b9 99 00          	  cpl.w a9 a9;
    144e:	fd f9 04          	  and a15 a9;
    1451:	b5 af 01          	  std.w a10 0x4 a15;
    1454:	32 ba             	  mv.b a10 a11;
    1456:	fb 21             	  popm a2 0x1;

00001458 <__osTimerGetEntryDelay>:
    1458:	f9 02             	  pushm a0;
    145a:	b2 a0             	  mv.w a0 a10;
    145c:	7e 02 01 00       	  call 0x102;
    1460:	98 09 01          	  ldd.w a9 a0 0x4;
    1463:	98 0f 02          	  ldd.w a15 a0 0x8;
    1466:	bc f9 90          	  add.w a9 a15 a9;
    1469:	bc 9a a2          	  sub.w a10 a9 a10;
    146c:	a6 af             	  cmp.w a10 a15;
    146e:	f4 0d 05          	  brlte 0x1473;
    1471:	bd a4             	  clr.w a10;
    1473:	fb 01             	  popm a0 0x1;

00001475 <_osTimerGetNextDelay>:
    1475:	f9 32             	  pushm a3;
    1477:	b2 a3             	  mv.w a3 a10;
    1479:	02 ff             	  mvi a2 -0x1;
    147b:	98 a0 01          	  ldd.w a0 a10 0x4;
    147e:	3d 14             	  clr.b a1;
    1480:	3e ad 14 00       	  jmp 0x14ad;
    1484:	c4 09 01          	  and a9 a0 0x1;
    1487:	f4 0b 20          	  breq 0x14a7;
    148a:	98 39 02          	  ldd.w a9 a3 0x8;
    148d:	c4 1a ff          	  and a10 a1 0xff;
    1490:	94 af 04          	  lsl.w a15 a10 0x4;
    1493:	b6 a4 02          	  lsl.w a10 0x2;
    1496:	bc af a0          	  add.w a10 a10 a15;
    1499:	bc 9a a0          	  add.w a10 a9 a10;
    149c:	7e 58 14 00       	  call 0x1458;
    14a0:	a6 2a             	  cmp.w a2 a10;
    14a2:	f4 0d 05          	  brlte 0x14a7;
    14a5:	b2 a2             	  mv.w a2 a10;
    14a7:	10 11 01          	  add.b a1 a1 0x1;
    14aa:	b6 05 01          	  lsr.w a0 0x1;
    14ad:	b3 04 00 d7       	  cmpbrne.w a0 0x0 0x1484;
    14b1:	b2 2a             	  mv.w a10 a2;
    14b3:	fb 31             	  popm a3 0x1;

000014b5 <_osTimerCallExpiredCallbacks>:
    14b5:	f9 82             	  pushm a8;
    14b7:	b2 a5             	  mv.w a5 a10;
    14b9:	3d 64             	  clr.b a6;
    14bb:	98 a4 01          	  ldd.w a4 a10 0x4;
    14be:	08 01             	  mvi a8 0x1;
    14c0:	3e 7a 15 00       	  jmp 0x157a;
    14c4:	c4 49 01          	  and a9 a4 0x1;
    14c7:	f5 0b ad 00       	  breq 0x1574;
    14cb:	98 53 02          	  ldd.w a3 a5 0x8;
    14ce:	c4 61 ff          	  and a1 a6 0xff;
    14d1:	94 19 02          	  lsl.w a9 a1 0x2;
    14d4:	94 1f 04          	  lsl.w a15 a1 0x4;
    14d7:	bc 9f 20          	  add.w a2 a9 a15;
    14da:	bc 32 00          	  add.w a0 a3 a2;
    14dd:	b2 0a             	  mv.w a10 a0;
    14df:	7e 58 14 00       	  call 0x1458;
    14e3:	b3 ad 00 91 00    	  cmpbrne.w a10 0x0 0x1574;
    14e8:	98 09 01          	  ldd.w a9 a0 0x4;
    14eb:	98 0f 02          	  ldd.w a15 a0 0x8;
    14ee:	bc f9 70          	  add.w a7 a15 a9;
    14f1:	b5 07 01          	  std.w a0 0x4 a7;
    14f4:	3c 32 98          	  ldd.b a9 a3 a2;
    14f7:	f0 94 03          	  and a9 0x3;
    14fa:	b3 94 02 26       	  cmpbrne.w a9 0x2 0x1520;
    14fe:	7e 02 01 00       	  call 0x102;
    1502:	98 09 01          	  ldd.w a9 a0 0x4;
    1505:	98 0f 02          	  ldd.w a15 a0 0x8;
    1508:	bc a9 c2          	  sub.w a12 a10 a9;
    150b:	a6 cf             	  cmp.w a12 a15;
    150d:	f4 08 2c          	  brc 0x1539;
    1510:	ff cf 9d          	  umod a9 a12 a15;
    1513:	ff cf 1c          	  udiv a1 a12 a15;
    1516:	bc a9 92          	  sub.w a9 a10 a9;
    1519:	b5 09 01          	  std.w a0 0x4 a9;
    151c:	3e 3b 15 00       	  jmp 0x153b;
    1520:	b3 94 00 19       	  cmpbrne.w a9 0x0 0x1539;
    1524:	98 5f 01          	  ldd.w a15 a5 0x4;
    1527:	bc 81 94          	  lsl.w a9 a8 a1;
    152a:	bd 14             	  clr.w a1;
    152c:	b9 99 00          	  cpl.w a9 a9;
    152f:	fd f9 04          	  and a15 a9;
    1532:	b5 5f 01          	  std.w a5 0x4 a15;
    1535:	3e 3b 15 00       	  jmp 0x153b;
    1539:	bd 14             	  clr.w a1;
    153b:	98 09 03          	  ldd.w a9 a0 0xc;
    153e:	b3 90 00 36       	  cmpbreq.w a9 0x0 0x1574;
    1542:	18 0b 01          	  ldd.b a11 a0 0x1;
    1545:	33 b0 00 12       	  cmpbreq.b a11 0x0 0x1557;
    1549:	bd a4             	  clr.w a10;
    154b:	3d c4             	  clr.b a12;
    154d:	3d d4             	  clr.b a13;
    154f:	7e cc 11 00       	  call 0x11cc;
    1553:	7e 0e 00 00       	  call 0xe;
    1557:	98 09 03          	  ldd.w a9 a0 0xc;
    155a:	98 0a 04          	  ldd.w a10 a0 0x10;
    155d:	b2 7b             	  mv.w a11 a7;
    155f:	b2 1c             	  mv.w a12 a1;
    1561:	f9 95             	  call a9;
    1563:	18 0b 01          	  ldd.b a11 a0 0x1;
    1566:	33 b0 00 0e       	  cmpbreq.b a11 0x0 0x1574;
    156a:	bd a4             	  clr.w a10;
    156c:	3d c4             	  clr.b a12;
    156e:	3d d4             	  clr.b a13;
    1570:	7e 2c 12 00       	  call 0x122c;
    1574:	10 66 01          	  add.b a6 a6 0x1;
    1577:	b6 45 01          	  lsr.w a4 0x1;
    157a:	b3 4d 00 4a ff    	  cmpbrne.w a4 0x0 0x14c4;
    157f:	fb 81             	  popm a8 0x1;

00001581 <_osPTimerTimeNsLwrrentGet_IMPL>:
    1581:	4d 00 0c          	  mvi a13 0xc00;
    1584:	4c 00 0b          	  mvi a12 0xb00;
    1587:	cf df 00          	  ldx a15 a13 0x0;
    158a:	cf ce 00          	  ldx a14 a12 0x0;
    158d:	cf d9 00          	  ldx a9 a13 0x0;
    1590:	a6 f9             	  cmp.w a15 a9;
    1592:	f4 1b f5          	  brne 0x1587;
    1595:	a0 ae             	  std.w a10 a14;
    1597:	b5 af 01          	  std.w a10 0x4 a15;
    159a:	f8 00             	  ret;

0000159c <_osPTimerTimeNsElapsedGet>:
    159c:	49 00 0b          	  mvi a9 0xb00;
    159f:	cf 99 00          	  ldx a9 a9 0x0;
    15a2:	bf aa             	  ldd.w a10 a10;
    15a4:	bc 9a a2          	  sub.w a10 a9 a10;
    15a7:	f8 00             	  ret;

000015a9 <_osPTimerCondSpinWaitNs_IMPL>:
    15a9:	f9 42             	  pushm a4;
    15ab:	b2 a0             	  mv.w a0 a10;
    15ad:	b2 b3             	  mv.w a3 a11;
    15af:	b2 c1             	  mv.w a1 a12;
    15b1:	b3 c0 00 29       	  cmpbreq.w a12 0x0 0x15da;
    15b5:	49 00 0b          	  mvi a9 0xb00;
    15b8:	cf 92 00          	  ldx a2 a9 0x0;
    15bb:	b2 94             	  mv.w a4 a9;
    15bd:	b3 00 00 12       	  cmpbreq.w a0 0x0 0x15cf;
    15c1:	b2 3a             	  mv.w a10 a3;
    15c3:	f9 05             	  call a0;
    15c5:	33 a0 00 0a       	  cmpbreq.b a10 0x0 0x15cf;
    15c9:	0a 01             	  mvi a10 0x1;
    15cb:	3e e8 15 00       	  jmp 0x15e8;
    15cf:	cf 49 00          	  ldx a9 a4 0x0;
    15d2:	bb 92 02          	  sub.w a9 a2;
    15d5:	a6 91             	  cmp.w a9 a1;
    15d7:	f4 08 e6          	  brc 0x15bd;
    15da:	b3 04 00 0a       	  cmpbrne.w a0 0x0 0x15e4;
    15de:	3d a4             	  clr.b a10;
    15e0:	3e e8 15 00       	  jmp 0x15e8;
    15e4:	b2 3a             	  mv.w a10 a3;
    15e6:	f9 05             	  call a0;
    15e8:	fb 41             	  popm a4 0x1;

000015ea <_handler_constants_init>:
    15ea:	00 00             	  mvi a0 0x0;
    15ec:	41 00 4e          	  mvi a1 0x4e00;
    15ef:	d2 a0 05 00 00    	  mvi a2 0x5a0;
    15f4:	f8 00             	  ret;

000015f6 <_handler_context_save>:
    15f6:	fc 90             	  pop a9;
    15f8:	7e ea 15 00       	  call 0x15ea;
    15fc:	fe 88 01          	  rspr a8 CSW;
    15ff:	f9 80             	  push a8;
    1601:	98 28 00          	  ldd.w a8 a2 0x0;
    1604:	f9 80             	  push a8;
    1606:	d8 b4 0f 00 00    	  mvi a8 0xfb4;
    160b:	98 88 00          	  ldd.w a8 a8 0x0;
    160e:	fe 47 01          	  rspr a7 SP;
    1611:	a0 87             	  std.w a8 a7;
    1613:	bd 70             	  cpl.w a7;
    1615:	b5 87 03          	  std.w a8 0xc a7;
    1618:	f7 10 00          	  stxb a1 0x0 a0;
    161b:	fe a4 00          	  wspr SP a10;
    161e:	b6 b7 02          	  asr.w a11 0x2;
    1621:	f0 b9 1f          	  setb a11 0x1f;
    1624:	f7 1b 00          	  stxb a1 0x0 a11;
    1627:	f9 90             	  push a9;
    1629:	f8 00             	  ret;

0000162b <__restore_ctx>:
    162b:	7e ea 15 00       	  call 0x15ea;
    162f:	3e 47 16 00       	  jmp 0x1647;

00001633 <_IV0_routine>:
    1633:	f9 f2             	  pushm a15;
    1635:	da 50 36 00 00    	  mvi a10 0x3650;
    163a:	db 50 34 00 00    	  mvi a11 0x3450;
    163f:	7e f6 15 00       	  call 0x15f6;
    1643:	7e 68 0b 00       	  call 0xb68;

00001647 <__restore_ctx_full>:
    1647:	f7 10 00          	  stxb a1 0x0 a0;
    164a:	d8 b4 0f 00 00    	  mvi a8 0xfb4;
    164f:	98 88 00          	  ldd.w a8 a8 0x0;
    1652:	98 87 00          	  ldd.w a7 a8 0x0;
    1655:	fe 74 00          	  wspr SP a7;
    1658:	98 87 02          	  ldd.w a7 a8 0x8;
    165b:	b6 77 02          	  asr.w a7 0x2;
    165e:	f0 79 1f          	  setb a7 0x1f;
    1661:	f7 17 00          	  stxb a1 0x0 a7;
    1664:	fc 80             	  pop a8;
    1666:	a0 28             	  std.w a2 a8;
    1668:	fc 80             	  pop a8;
    166a:	fe 88 00          	  wspr CSW a8;
    166d:	fb f0             	  popm a15 0x0;
    166f:	f8 01             	  reti;

00001671 <_IV1_routine>:
    1671:	f9 f2             	  pushm a15;
    1673:	da 50 36 00 00    	  mvi a10 0x3650;
    1678:	db 50 34 00 00    	  mvi a11 0x3450;
    167d:	7e f6 15 00       	  call 0x15f6;
    1681:	7e 2e 0b 00       	  call 0xb2e;
    1685:	3e 47 16 00       	  jmp 0x1647;

00001689 <_EV_routine>:
    1689:	f4 32 18          	  sclrb 0x18;
    168c:	f9 f2             	  pushm a15;
    168e:	da 50 34 00 00    	  mvi a10 0x3450;
    1693:	db 50 32 00 00    	  mvi a11 0x3250;
    1698:	7e f6 15 00       	  call 0x15f6;
    169c:	7e 20 0b 00       	  call 0xb20;
    16a0:	3e 47 16 00       	  jmp 0x1647;

000016a4 <_EV_preinit_routine>:
    16a4:	f4 32 18          	  sclrb 0x18;
    16a7:	f9 f2             	  pushm a15;
    16a9:	fe 88 01          	  rspr a8 CSW;
    16ac:	f9 80             	  push a8;
    16ae:	7e 3b 40 00       	  call 0x403b;
    16b2:	fc 80             	  pop a8;
    16b4:	fe 88 00          	  wspr CSW a8;
    16b7:	fb f0             	  popm a15 0x0;
    16b9:	f8 01             	  reti;

000016bb <___Div>:
    16bb:	b2 a9             	  mv.w a9 a10;
    16bd:	b2 af             	  mv.w a15 a10;
    16bf:	b0 a6 00          	  cmp.w a10 0x0;
    16c2:	f4 1e 2b          	  brslt 0x16ed;
    16c5:	b2 ba             	  mv.w a10 a11;
    16c7:	b0 b6 00          	  cmp.w a11 0x0;
    16ca:	f4 1e 13          	  brslt 0x16dd;
    16cd:	ff fa ac          	  udiv a10 a15 a10;
    16d0:	ff b9 96          	  xor a9 a11 a9;
    16d3:	f4 1e 05          	  brslt 0x16d8;
    16d6:	f8 00             	  ret;
    16d8:	b9 aa 01          	  neg.w a10 a10;
    16db:	f8 00             	  ret;
    16dd:	b9 ba 01          	  neg.w a10 a11;
    16e0:	ff fa ac          	  udiv a10 a15 a10;
    16e3:	ff b9 96          	  xor a9 a11 a9;
    16e6:	f4 1f f0          	  brsgte 0x16d6;
    16e9:	3e d8 16 00       	  jmp 0x16d8;
    16ed:	b9 af 01          	  neg.w a15 a10;
    16f0:	b2 ba             	  mv.w a10 a11;
    16f2:	b0 b6 00          	  cmp.w a11 0x0;
    16f5:	f4 1f d8          	  brsgte 0x16cd;
    16f8:	3e dd 16 00       	  jmp 0x16dd;

000016fc <___Mul>:
    16fc:	ff ab e0          	  mulu a14 a10 a11;
    16ff:	95 a9 10          	  lsr.w a9 a10 0x10;
    1702:	95 bf 10          	  lsr.w a15 a11 0x10;
    1705:	fd b9 01          	  muls a11 a9;
    1708:	fd af 01          	  muls a10 a15;
    170b:	bb ab 00          	  add.w a10 a11;
    170e:	b6 a4 10          	  lsl.w a10 0x10;
    1711:	bb ae 00          	  add.w a10 a14;
    1714:	f8 00             	  ret;

00001716 <_main>:
    1716:	df 2c 06 00 00    	  mvi a15 0x62c;
    171b:	f4 30 fc          	  addsp -0x4;
    171e:	f9 62             	  pushm a6;
    1720:	bf fe             	  ldd.w a14 a15;
    1722:	bf ff             	  ldd.w a15 a15;
    1724:	fe 49 01          	  rspr a9 SP;
    1727:	90 99 1c          	  add.w a9 a9 0x1c;
    172a:	a0 9e             	  std.w a9 a14;
    172c:	d9 30 06 00 00    	  mvi a9 0x630;
    1731:	a0 9f             	  std.w a9 a15;
    1733:	bd f4             	  clr.w a15;
    1735:	89 00 01 01       	  mvi a9 0x10100;
    1739:	f6 9f 00          	  stx a9 0x0 a15;
    173c:	4f ff 7f          	  mvi a15 0x7fff;
    173f:	b8 99 00 3f 00    	  add.w a9 a9 0x3f00;
    1744:	f6 9f 00          	  stx a9 0x0 a15;
    1747:	df 00 00 ff 03    	  mvi a15 0x3ff0000;
    174c:	b8 99 00 01 00    	  add.w a9 a9 0x100;
    1751:	f6 9f 00          	  stx a9 0x0 a15;
    1754:	8f 80 ff 00       	  mvi a15 0xff80;
    1758:	b8 99 00 0a 00    	  add.w a9 a9 0xa00;
    175d:	f6 9f 00          	  stx a9 0x0 a15;
    1760:	4f 00 10          	  mvi a15 0x1000;
    1763:	b8 99 00 4a 02    	  sub.w a9 a9 0x4a00;
    1768:	f6 9f 00          	  stx a9 0x0 a15;
    176b:	d6 00 00 00 40    	  mvi a6 0x40000000;
    1770:	85 00 1c 01       	  mvi a5 0x11c00;
    1774:	d0 40 06 00 00    	  mvi a0 0x640;
    1779:	84 00 02 01       	  mvi a4 0x10200;
    177d:	83 00 00 10       	  mvi a3 0x100000;
    1781:	d2 a0 aa ef be    	  mvi a2 -0x41105560;
    1786:	01 fd             	  mvi a1 -0x3;
    1788:	0a 08             	  mvi a10 0x8;
    178a:	7e 22 1c 00       	  call 0x1c22;
    178e:	fd a6 04          	  and a10 a6;
    1791:	f5 0b 28 00       	  breq 0x17b9;
    1795:	cf 49 00          	  ldx a9 a4 0x0;
    1798:	fd 93 04          	  and a9 a3;
    179b:	f5 0b 1e 00       	  breq 0x17b9;
    179f:	de 40 06 00 00    	  mvi a14 0x640;
    17a4:	bd f4             	  clr.w a15;
    17a6:	ff f2 95          	  or a9 a15 a2;
    17a9:	a0 e9             	  std.w a14 a9;
    17ab:	90 ff 01          	  add.w a15 a15 0x1;
    17ae:	90 ee 04          	  add.w a14 a14 0x4;
    17b1:	b3 f4 04 f5       	  cmpbrne.w a15 0x4 0x17a6;
    17b5:	3e f0 17 00       	  jmp 0x17f0;
    17b9:	cf 59 00          	  ldx a9 a5 0x0;
    17bc:	f0 94 01          	  and a9 0x1;
    17bf:	f4 1b fa          	  brne 0x17b9;
    17c2:	f4 3c 1f          	  cci 0x1f;
    17c5:	b2 09             	  mv.w a9 a0;
    17c7:	f0 93 05          	  sethi a9 0x5;
    17ca:	fa 99 06          	  dmwrite a9 a9;
    17cd:	f8 03             	  dmwait;
    17cf:	f5 3c 04 90       	  cci 0x9004;
    17d3:	f5 3c 03 90       	  cci 0x9003;
    17d7:	f5 3c 54 ac       	  cci 0xac54;
    17db:	f5 3c 04 c4       	  cci 0xc404;
    17df:	f5 3c 33 d0       	  cci 0xd033;
    17e3:	b2 09             	  mv.w a9 a0;
    17e5:	f0 93 03          	  sethi a9 0x3;
    17e8:	fa 99 05          	  dmread a9 a9;
    17eb:	f8 03             	  dmwait;
    17ed:	f4 3c 00          	  cci 0x0;
    17f0:	bf 0e             	  ldd.w a14 a0;
    17f2:	92 e9 01          	  sub.w a9 a14 0x1;
    17f5:	a6 91             	  cmp.w a9 a1;
    17f7:	f4 0d 25          	  brlte 0x181c;
    17fa:	98 0e 01          	  ldd.w a14 a0 0x4;
    17fd:	92 e9 01          	  sub.w a9 a14 0x1;
    1800:	a6 91             	  cmp.w a9 a1;
    1802:	f4 0d 1a          	  brlte 0x181c;
    1805:	98 0e 02          	  ldd.w a14 a0 0x8;
    1808:	92 e9 01          	  sub.w a9 a14 0x1;
    180b:	a6 91             	  cmp.w a9 a1;
    180d:	f4 0d 0f          	  brlte 0x181c;
    1810:	98 0e 03          	  ldd.w a14 a0 0xc;
    1813:	92 e9 01          	  sub.w a9 a14 0x1;
    1816:	a6 91             	  cmp.w a9 a1;
    1818:	f5 0c 70 ff       	  brgt 0x1788;
    181c:	df 40 06 00 00    	  mvi a15 0x640;
    1821:	bd 94             	  clr.w a9;
    1823:	d0 2c 06 00 00    	  mvi a0 0x62c;
    1828:	b5 f9 03          	  std.w a15 0xc a9;
    182b:	a0 f9             	  std.w a15 a9;
    182d:	b5 f9 01          	  std.w a15 0x4 a9;
    1830:	b5 f9 02          	  std.w a15 0x8 a9;
    1833:	a0 0e             	  std.w a0 a14;
    1835:	7e 9a 58 00       	  call 0x589a;
    1839:	d9 30 06 00 00    	  mvi a9 0x630;
    183e:	bf 99             	  ldd.w a9 a9;
    1840:	bd a4             	  clr.w a10;
    1842:	a0 09             	  std.w a0 a9;
    1844:	fe 49 01          	  rspr a9 SP;
    1847:	90 99 1c          	  add.w a9 a9 0x1c;
    184a:	bf 9f             	  ldd.w a15 a9;
    184c:	bf 09             	  ldd.w a9 a0;
    184e:	a6 f9             	  cmp.w a15 a9;
    1850:	f4 0b 07          	  breq 0x1857;
    1853:	7e e9 42 00       	  call 0x42e9;
    1857:	fb 65 04          	  popma a6 0x1 0x4;

0000185a <_lwrtosHookIV0Handler>:
    185a:	f4 30 fc          	  addsp -0x4;
    185d:	f9 12             	  pushm a1;
    185f:	d1 2c 06 00 00    	  mvi a1 0x62c;
    1864:	bf 19             	  ldd.w a9 a1;
    1866:	fe 40 01          	  rspr a0 SP;
    1869:	90 00 08          	  add.w a0 a0 0x8;
    186c:	a0 09             	  std.w a0 a9;
    186e:	7e cf 19 00       	  call 0x19cf;
    1872:	bf 0f             	  ldd.w a15 a0;
    1874:	bf 19             	  ldd.w a9 a1;
    1876:	f0 a4 ff          	  and a10 0xff;
    1879:	a6 f9             	  cmp.w a15 a9;
    187b:	f4 0b 07          	  breq 0x1882;
    187e:	7e e9 42 00       	  call 0x42e9;
    1882:	fb 15 04          	  popma a1 0x1 0x4;

00001885 <_lwrtosHookIdle>:
    1885:	df 2c 06 00 00    	  mvi a15 0x62c;
    188a:	bf ff             	  ldd.w a15 a15;
    188c:	f4 30 fc          	  addsp -0x4;
    188f:	fe 49 01          	  rspr a9 SP;
    1892:	a0 9f             	  std.w a9 a15;
    1894:	f4 31 00          	  ssetb 0x0;
    1897:	f4 28 00          	  wait 0x0;
    189a:	fe 49 01          	  rspr a9 SP;
    189d:	bf 9f             	  ldd.w a15 a9;
    189f:	d9 2c 06 00 00    	  mvi a9 0x62c;
    18a4:	bf 99             	  ldd.w a9 a9;
    18a6:	a6 f9             	  cmp.w a15 a9;
    18a8:	f4 0b 07          	  breq 0x18af;
    18ab:	7e e9 42 00       	  call 0x42e9;
    18af:	f4 30 04          	  addsp 0x4;
    18b2:	f8 00             	  ret;

000018b4 <_lwrtosHookError>:
    18b4:	de 2c 06 00 00    	  mvi a14 0x62c;
    18b9:	bf ef             	  ldd.w a15 a14;
    18bb:	f4 30 fc          	  addsp -0x4;
    18be:	fe 49 01          	  rspr a9 SP;
    18c1:	a0 9f             	  std.w a9 a15;
    18c3:	f8 02             	  halt;
    18c5:	bf 9f             	  ldd.w a15 a9;
    18c7:	bf e9             	  ldd.w a9 a14;
    18c9:	a6 f9             	  cmp.w a15 a9;
    18cb:	f4 0b 07          	  breq 0x18d2;
    18ce:	7e e9 42 00       	  call 0x42e9;
    18d2:	f4 30 04          	  addsp 0x4;
    18d5:	f8 00             	  ret;

000018d7 <_vApplicationIsDmaIdxPermitted>:
    18d7:	f4 30 fc          	  addsp -0x4;
    18da:	f9 12             	  pushm a1;
    18dc:	d1 2c 06 00 00    	  mvi a1 0x62c;
    18e1:	bf 19             	  ldd.w a9 a1;
    18e3:	fe 40 01          	  rspr a0 SP;
    18e6:	90 00 08          	  add.w a0 a0 0x8;
    18e9:	a0 09             	  std.w a0 a9;
    18eb:	7e 81 1a 00       	  call 0x1a81;
    18ef:	bf 0f             	  ldd.w a15 a0;
    18f1:	bf 19             	  ldd.w a9 a1;
    18f3:	a6 f9             	  cmp.w a15 a9;
    18f5:	f4 0b 07          	  breq 0x18fc;
    18f8:	7e e9 42 00       	  call 0x42e9;
    18fc:	fb 15 04          	  popma a1 0x1 0x4;

000018ff <_vApplicationFlcnPrivLevelReset>:
    18ff:	d9 38 14 00 00    	  mvi a9 0x1438;
    1904:	f4 30 fc          	  addsp -0x4;
    1907:	f9 12             	  pushm a1;
    1909:	d1 2c 06 00 00    	  mvi a1 0x62c;
    190e:	18 9b 0d          	  ldd.b a11 a9 0xd;
    1911:	18 9a 0c          	  ldd.b a10 a9 0xc;
    1914:	bf 19             	  ldd.w a9 a1;
    1916:	fe 40 01          	  rspr a0 SP;
    1919:	90 00 08          	  add.w a0 a0 0x8;
    191c:	a0 09             	  std.w a0 a9;
    191e:	7e e6 1b 00       	  call 0x1be6;
    1922:	bf 0f             	  ldd.w a15 a0;
    1924:	bf 19             	  ldd.w a9 a1;
    1926:	a6 f9             	  cmp.w a15 a9;
    1928:	f4 0b 07          	  breq 0x192f;
    192b:	7e e9 42 00       	  call 0x42e9;
    192f:	fb 15 04          	  popma a1 0x1 0x4;

00001932 <_vApplicationFlcnPrivLevelSet>:
    1932:	f4 30 fc          	  addsp -0x4;
    1935:	f9 12             	  pushm a1;
    1937:	d1 2c 06 00 00    	  mvi a1 0x62c;
    193c:	bf 19             	  ldd.w a9 a1;
    193e:	fe 40 01          	  rspr a0 SP;
    1941:	90 00 08          	  add.w a0 a0 0x8;
    1944:	a0 09             	  std.w a0 a9;
    1946:	7e e6 1b 00       	  call 0x1be6;
    194a:	bf 0f             	  ldd.w a15 a0;
    194c:	bf 19             	  ldd.w a9 a1;
    194e:	a6 f9             	  cmp.w a15 a9;
    1950:	f4 0b 07          	  breq 0x1957;
    1953:	7e e9 42 00       	  call 0x42e9;
    1957:	fb 15 04          	  popma a1 0x1 0x4;

0000195a <_vApplicationDmaNackCheckAndClear>:
    195a:	f4 30 fc          	  addsp -0x4;
    195d:	f9 12             	  pushm a1;
    195f:	d1 2c 06 00 00    	  mvi a1 0x62c;
    1964:	bf 19             	  ldd.w a9 a1;
    1966:	fe 40 01          	  rspr a0 SP;
    1969:	90 00 08          	  add.w a0 a0 0x8;
    196c:	a0 09             	  std.w a0 a9;
    196e:	7e 51 1b 00       	  call 0x1b51;
    1972:	bf 0f             	  ldd.w a15 a0;
    1974:	bf 19             	  ldd.w a9 a1;
    1976:	a6 f9             	  cmp.w a15 a9;
    1978:	f4 0b 07          	  breq 0x197f;
    197b:	7e e9 42 00       	  call 0x42e9;
    197f:	fb 15 04          	  popma a1 0x1 0x4;

00001982 <_icRouteGinSaw_LR10>:
    1982:	df 2c 06 00 00    	  mvi a15 0x62c;
    1987:	bf ff             	  ldd.w a15 a15;
    1989:	f4 30 fc          	  addsp -0x4;
    198c:	fe 49 01          	  rspr a9 SP;
    198f:	a0 9f             	  std.w a9 a15;
    1991:	89 00 14 02       	  mvi a9 0x21400;
    1995:	cf 99 00          	  ldx a9 a9 0x0;
    1998:	f0 94 01          	  and a9 0x1;
    199b:	f4 0b 18          	  breq 0x19b3;
    199e:	7e 1f 47 00       	  call 0x471f;
    19a2:	8f 00 13 02       	  mvi a15 0x21300;
    19a6:	ce f9 00          	  ldxb a9 a15 0x0;
    19a9:	f0 95 01          	  or a9 0x1;
    19ac:	f7 f9 00          	  stxb a15 0x0 a9;
    19af:	3e b5 19 00       	  jmp 0x19b5;
    19b3:	f8 02             	  halt;
    19b5:	fe 49 01          	  rspr a9 SP;
    19b8:	bf 9f             	  ldd.w a15 a9;
    19ba:	d9 2c 06 00 00    	  mvi a9 0x62c;
    19bf:	bf 99             	  ldd.w a9 a9;
    19c1:	a6 f9             	  cmp.w a15 a9;
    19c3:	f4 0b 07          	  breq 0x19ca;
    19c6:	7e e9 42 00       	  call 0x42e9;
    19ca:	f4 30 04          	  addsp 0x4;
    19cd:	f8 00             	  ret;

000019cf <_icService_LR10>:
    19cf:	f4 30 f8          	  addsp -0x8;
    19d2:	df 2c 06 00 00    	  mvi a15 0x62c;
    19d7:	f9 02             	  pushm a0;
    19d9:	bf ff             	  ldd.w a15 a15;
    19db:	fe 49 01          	  rspr a9 SP;
    19de:	90 99 08          	  add.w a9 a9 0x8;
    19e1:	a0 9f             	  std.w a9 a15;
    19e3:	3d f4             	  clr.b a15;
    19e5:	d9 e1 2f 00 00    	  mvi a9 0x2fe1;
    19ea:	20 9f             	  std.b a9 a15;
    19ec:	4f 00 06          	  mvi a15 0x600;
    19ef:	cf ff 00          	  ldx a15 a15 0x0;
    19f2:	4e 00 07          	  mvi a14 0x700;
    19f5:	cf ee 00          	  ldx a14 a14 0x0;
    19f8:	49 00 02          	  mvi a9 0x200;
    19fb:	cf 99 00          	  ldx a9 a9 0x0;
    19fe:	fd 9f 04          	  and a9 a15;
    1a01:	95 ef 10          	  lsr.w a15 a14 0x10;
    1a04:	b9 ee 00          	  cpl.w a14 a14;
    1a07:	fd 9e 04          	  and a9 a14;
    1a0a:	b9 ff 00          	  cpl.w a15 a15;
    1a0d:	ff 9f 04          	  and a0 a9 a15;
    1a10:	c4 09 01          	  and a9 a0 0x1;
    1a13:	f4 0b 07          	  breq 0x1a1a;
    1a16:	7e 5e 44 00       	  call 0x445e;
    1a1a:	e4 09 00 10       	  and a9 a0 0x1000;
    1a1e:	f4 0b 2f          	  breq 0x1a4d;
    1a21:	0f 01             	  mvi a15 0x1;
    1a23:	fe 49 01          	  rspr a9 SP;
    1a26:	8e 00 89 02       	  mvi a14 0x28900;
    1a2a:	90 99 07          	  add.w a9 a9 0x7;
    1a2d:	20 9f             	  std.b a9 a15;
    1a2f:	ce e9 00          	  ldxb a9 a14 0x0;
    1a32:	0f fe             	  mvi a15 -0x2;
    1a34:	fd 9f 04          	  and a9 a15;
    1a37:	f7 e9 00          	  stxb a14 0x0 a9;
    1a3a:	d9 08 14 00 00    	  mvi a9 0x1408;
    1a3f:	bf 9a             	  ldd.w a10 a9;
    1a41:	fe 4b 01          	  rspr a11 SP;
    1a44:	0c 01             	  mvi a12 0x1;
    1a46:	90 bb 07          	  add.w a11 a11 0x7;
    1a49:	7e 6e 00 00       	  call 0x6e;
    1a4d:	e4 09 00 80       	  and a9 a0 0x8000;
    1a51:	73 90 00 08       	  cmpbreq.h a9 0x0 0x1a59;
    1a55:	7e 82 19 00       	  call 0x1982;
    1a59:	49 00 01          	  mvi a9 0x100;
    1a5c:	f7 90 00          	  stxb a9 0x0 a0;
    1a5f:	fe 49 01          	  rspr a9 SP;
    1a62:	90 99 08          	  add.w a9 a9 0x8;
    1a65:	bf 9e             	  ldd.w a14 a9;
    1a67:	d9 2c 06 00 00    	  mvi a9 0x62c;
    1a6c:	bf 9f             	  ldd.w a15 a9;
    1a6e:	d9 e1 2f 00 00    	  mvi a9 0x2fe1;
    1a73:	3f 9a             	  ldd.b a10 a9;
    1a75:	a6 ef             	  cmp.w a14 a15;
    1a77:	f4 0b 07          	  breq 0x1a7e;
    1a7a:	7e e9 42 00       	  call 0x42e9;
    1a7e:	fb 05 08          	  popma a0 0x1 0x8;

00001a81 <_lsfIsDmaIdxPermitted_LR10>:
    1a81:	de 2c 06 00 00    	  mvi a14 0x62c;
    1a86:	bf ef             	  ldd.w a15 a14;
    1a88:	f4 30 fc          	  addsp -0x4;
    1a8b:	fe 49 01          	  rspr a9 SP;
    1a8e:	0a 01             	  mvi a10 0x1;
    1a90:	a0 9f             	  std.w a9 a15;
    1a92:	bf 9f             	  ldd.w a15 a9;
    1a94:	bf e9             	  ldd.w a9 a14;
    1a96:	a6 f9             	  cmp.w a15 a9;
    1a98:	f4 0b 07          	  breq 0x1a9f;
    1a9b:	7e e9 42 00       	  call 0x42e9;
    1a9f:	f4 30 04          	  addsp 0x4;
    1aa2:	f8 00             	  ret;

00001aa4 <_soePollReg32Func>:
    1aa4:	f4 30 fc          	  addsp -0x4;
    1aa7:	df 2c 06 00 00    	  mvi a15 0x62c;
    1aac:	f9 02             	  pushm a0;
    1aae:	bf ff             	  ldd.w a15 a15;
    1ab0:	fe 49 01          	  rspr a9 SP;
    1ab3:	90 99 04          	  add.w a9 a9 0x4;
    1ab6:	b2 a0             	  mv.w a0 a10;
    1ab8:	a0 9f             	  std.w a9 a15;
    1aba:	98 a9 03          	  ldd.w a9 a10 0xc;
    1abd:	f0 94 01          	  and a9 0x1;
    1ac0:	f4 0b 0d          	  breq 0x1acd;
    1ac3:	bf aa             	  ldd.w a10 a10;
    1ac5:	7e 22 1c 00       	  call 0x1c22;
    1ac9:	3e d2 1a 00       	  jmp 0x1ad2;
    1acd:	bf a9             	  ldd.w a9 a10;
    1acf:	cf 9a 00          	  ldx a10 a9 0x0;
    1ad2:	98 0f 03          	  ldd.w a15 a0 0xc;
    1ad5:	98 09 01          	  ldd.w a9 a0 0x4;
    1ad8:	98 0e 02          	  ldd.w a14 a0 0x8;
    1adb:	f0 f4 02          	  and a15 0x2;
    1ade:	ff a9 94          	  and a9 a10 a9;
    1ae1:	a6 9e             	  cmp.w a9 a14;
    1ae3:	f0 9c 0b          	  sgetb a9 0xb;
    1ae6:	32 9a             	  mv.b a10 a9;
    1ae8:	b3 f0 00 0c       	  cmpbreq.w a15 0x0 0x1af4;
    1aec:	30 96 00          	  cmp.b a9 0x0;
    1aef:	f0 9c 0b          	  sgetb a9 0xb;
    1af2:	32 9a             	  mv.b a10 a9;
    1af4:	fe 49 01          	  rspr a9 SP;
    1af7:	90 99 04          	  add.w a9 a9 0x4;
    1afa:	bf 9f             	  ldd.w a15 a9;
    1afc:	d9 2c 06 00 00    	  mvi a9 0x62c;
    1b01:	bf 99             	  ldd.w a9 a9;
    1b03:	a6 f9             	  cmp.w a15 a9;
    1b05:	f4 0b 07          	  breq 0x1b0c;
    1b08:	7e e9 42 00       	  call 0x42e9;
    1b0c:	fb 05 04          	  popma a0 0x1 0x4;

00001b0f <_soePollReg32Ns>:
    1b0f:	f4 30 ec          	  addsp -0x14;
    1b12:	f9 12             	  pushm a1;
    1b14:	fe 49 01          	  rspr a9 SP;
    1b17:	90 99 08          	  add.w a9 a9 0x8;
    1b1a:	d1 2c 06 00 00    	  mvi a1 0x62c;
    1b1f:	a0 9a             	  std.w a9 a10;
    1b21:	b5 9b 01          	  std.w a9 0x4 a11;
    1b24:	b5 9c 02          	  std.w a9 0x8 a12;
    1b27:	b5 9e 03          	  std.w a9 0xc a14;
    1b2a:	b2 9b             	  mv.w a11 a9;
    1b2c:	bf 19             	  ldd.w a9 a1;
    1b2e:	b2 dc             	  mv.w a12 a13;
    1b30:	fe 40 01          	  rspr a0 SP;
    1b33:	da a4 1a 00 00    	  mvi a10 0x1aa4;
    1b38:	90 00 18          	  add.w a0 a0 0x18;
    1b3b:	a0 09             	  std.w a0 a9;
    1b3d:	7e a9 15 00       	  call 0x15a9;
    1b41:	bf 0f             	  ldd.w a15 a0;
    1b43:	bf 19             	  ldd.w a9 a1;
    1b45:	a6 f9             	  cmp.w a15 a9;
    1b47:	f4 0b 07          	  breq 0x1b4e;
    1b4a:	7e e9 42 00       	  call 0x42e9;
    1b4e:	fb 15 14          	  popma a1 0x1 0x14;

00001b51 <_soeDmaNackCheckAndClear_LR10>:
    1b51:	d9 2c 06 00 00    	  mvi a9 0x62c;
    1b56:	bf 99             	  ldd.w a9 a9;
    1b58:	f4 30 fc          	  addsp -0x4;
    1b5b:	8e 00 b8 00       	  mvi a14 0xb800;
    1b5f:	fe 4f 01          	  rspr a15 SP;
    1b62:	a0 f9             	  std.w a15 a9;
    1b64:	cf ef 00          	  ldx a15 a14 0x0;
    1b67:	c4 f9 04          	  and a9 a15 0x4;
    1b6a:	f4 1b 09          	  brne 0x1b73;
    1b6d:	3d a4             	  clr.b a10;
    1b6f:	3e 7b 1b 00       	  jmp 0x1b7b;
    1b73:	c5 f9 04          	  or a9 a15 0x4;
    1b76:	f6 e9 00          	  stx a14 0x0 a9;
    1b79:	0a 01             	  mvi a10 0x1;
    1b7b:	fe 49 01          	  rspr a9 SP;
    1b7e:	bf 9f             	  ldd.w a15 a9;
    1b80:	d9 2c 06 00 00    	  mvi a9 0x62c;
    1b85:	bf 99             	  ldd.w a9 a9;
    1b87:	a6 f9             	  cmp.w a15 a9;
    1b89:	f4 0b 07          	  breq 0x1b90;
    1b8c:	7e e9 42 00       	  call 0x42e9;
    1b90:	f4 30 04          	  addsp 0x4;
    1b93:	f8 00             	  ret;

00001b95 <_soeLowerPrivLevelMasks_LR10>:
    1b95:	df 2c 06 00 00    	  mvi a15 0x62c;
    1b9a:	bf ff             	  ldd.w a15 a15;
    1b9c:	f4 30 fc          	  addsp -0x4;
    1b9f:	fe 49 01          	  rspr a9 SP;
    1ba2:	a0 9f             	  std.w a9 a15;
    1ba4:	89 00 90 00       	  mvi a9 0x9000;
    1ba8:	ce 99 00          	  ldxb a9 a9 0x0;
    1bab:	f0 94 01          	  and a9 0x1;
    1bae:	f4 0b 1e          	  breq 0x1bcc;
    1bb1:	8f 00 f1 00       	  mvi a15 0xf100;
    1bb5:	ce f9 00          	  ldxb a9 a15 0x0;
    1bb8:	f0 95 10          	  or a9 0x10;
    1bbb:	f7 f9 00          	  stxb a15 0x0 a9;
    1bbe:	b8 ff 00 52 02    	  sub.w a15 a15 0x5200;
    1bc3:	ce f9 00          	  ldxb a9 a15 0x0;
    1bc6:	f0 95 10          	  or a9 0x10;
    1bc9:	f7 f9 00          	  stxb a15 0x0 a9;
    1bcc:	fe 49 01          	  rspr a9 SP;
    1bcf:	bf 9f             	  ldd.w a15 a9;
    1bd1:	d9 2c 06 00 00    	  mvi a9 0x62c;
    1bd6:	bf 99             	  ldd.w a9 a9;
    1bd8:	a6 f9             	  cmp.w a15 a9;
    1bda:	f4 0b 07          	  breq 0x1be1;
    1bdd:	7e e9 42 00       	  call 0x42e9;
    1be1:	f4 30 04          	  addsp 0x4;
    1be4:	f8 00             	  ret;

00001be6 <_soeFlcnPrivLevelSet_LR10>:
    1be6:	df 2c 06 00 00    	  mvi a15 0x62c;
    1beb:	bf ff             	  ldd.w a15 a15;
    1bed:	f4 30 fc          	  addsp -0x4;
    1bf0:	fe 49 01          	  rspr a9 SP;
    1bf3:	f0 b4 03          	  and a11 0x3;
    1bf6:	a0 9f             	  std.w a9 a15;
    1bf8:	f0 a4 03          	  and a10 0x3;
    1bfb:	89 00 94 00       	  mvi a9 0x9400;
    1bff:	b6 a4 02          	  lsl.w a10 0x2;
    1c02:	fd ab 05          	  or a10 a11;
    1c05:	f7 9a 00          	  stxb a9 0x0 a10;
    1c08:	fe 49 01          	  rspr a9 SP;
    1c0b:	bf 9f             	  ldd.w a15 a9;
    1c0d:	d9 2c 06 00 00    	  mvi a9 0x62c;
    1c12:	bf 99             	  ldd.w a9 a9;
    1c14:	a6 f9             	  cmp.w a15 a9;
    1c16:	f4 0b 07          	  breq 0x1c1d;
    1c19:	7e e9 42 00       	  call 0x42e9;
    1c1d:	f4 30 04          	  addsp 0x4;
    1c20:	f8 00             	  ret;

00001c22 <_soeBar0RegRd32_LR10>:
    1c22:	f4 30 fc          	  addsp -0x4;
    1c25:	df 2c 06 00 00    	  mvi a15 0x62c;
    1c2a:	f9 02             	  pushm a0;
    1c2c:	bf ff             	  ldd.w a15 a15;
    1c2e:	fe 49 01          	  rspr a9 SP;
    1c31:	90 99 04          	  add.w a9 a9 0x4;
    1c34:	b2 a0             	  mv.w a0 a10;
    1c36:	a0 9f             	  std.w a9 a15;
    1c38:	7e 74 0a 00       	  call 0xa74;
    1c3c:	8f 00 c0 01       	  mvi a15 0x1c000;
    1c40:	cf f9 00          	  ldx a9 a15 0x0;
    1c43:	c7 99 4c          	  uxtr a9 a9 0x4c;
    1c46:	b3 90 00 47       	  cmpbreq.w a9 0x0 0x1c8d;
    1c4a:	b3 90 01 f6       	  cmpbreq.w a9 0x1 0x1c40;
    1c4e:	f8 02             	  halt;
    1c50:	3e 40 1c 00       	  jmp 0x1c40;
    1c54:	cf f9 00          	  ldx a9 a15 0x0;
    1c57:	c7 99 4c          	  uxtr a9 a9 0x4c;
    1c5a:	b3 90 00 0e       	  cmpbreq.w a9 0x0 0x1c68;
    1c5e:	b3 90 01 f6       	  cmpbreq.w a9 0x1 0x1c54;
    1c62:	f8 02             	  halt;
    1c64:	3e 54 1c 00       	  jmp 0x1c54;
    1c68:	80 00 c2 01       	  mvi a0 0x1c200;
    1c6c:	cf 00 00          	  ldx a0 a0 0x0;
    1c6f:	7e 9b 0a 00       	  call 0xa9b;
    1c73:	fe 49 01          	  rspr a9 SP;
    1c76:	90 99 04          	  add.w a9 a9 0x4;
    1c79:	bf 9f             	  ldd.w a15 a9;
    1c7b:	d9 2c 06 00 00    	  mvi a9 0x62c;
    1c80:	bf 99             	  ldd.w a9 a9;
    1c82:	b2 0a             	  mv.w a10 a0;
    1c84:	a6 f9             	  cmp.w a15 a9;
    1c86:	f4 0b 28          	  breq 0x1cae;
    1c89:	3e aa 1c 00       	  jmp 0x1caa;
    1c8d:	89 00 c1 01       	  mvi a9 0x1c100;
    1c91:	f6 90 00          	  stx a9 0x0 a0;
    1c94:	df f1 00 00 80    	  mvi a15 -0x7fffff0f;
    1c99:	b8 99 00 01 02    	  sub.w a9 a9 0x100;
    1c9e:	f7 9f 00          	  stxb a9 0x0 a15;
    1ca1:	cf 9f 00          	  ldx a15 a9 0x0;
    1ca4:	b2 9f             	  mv.w a15 a9;
    1ca6:	3e 54 1c 00       	  jmp 0x1c54;
    1caa:	7e e9 42 00       	  call 0x42e9;
    1cae:	fb 05 04          	  popma a0 0x1 0x4;

00001cb1 <_soeBar0RegWr32NonPosted_LR10>:
    1cb1:	f4 30 fc          	  addsp -0x4;
    1cb4:	df 2c 06 00 00    	  mvi a15 0x62c;
    1cb9:	f9 12             	  pushm a1;
    1cbb:	bf ff             	  ldd.w a15 a15;
    1cbd:	fe 49 01          	  rspr a9 SP;
    1cc0:	90 99 08          	  add.w a9 a9 0x8;
    1cc3:	b2 a0             	  mv.w a0 a10;
    1cc5:	a0 9f             	  std.w a9 a15;
    1cc7:	b2 b1             	  mv.w a1 a11;
    1cc9:	7e 74 0a 00       	  call 0xa74;
    1ccd:	8f 00 c0 01       	  mvi a15 0x1c000;
    1cd1:	cf f9 00          	  ldx a9 a15 0x0;
    1cd4:	c7 99 4c          	  uxtr a9 a9 0x4c;
    1cd7:	b3 90 00 3e       	  cmpbreq.w a9 0x0 0x1d15;
    1cdb:	b3 90 01 f6       	  cmpbreq.w a9 0x1 0x1cd1;
    1cdf:	f8 02             	  halt;
    1ce1:	3e d1 1c 00       	  jmp 0x1cd1;
    1ce5:	cf f9 00          	  ldx a9 a15 0x0;
    1ce8:	c7 99 4c          	  uxtr a9 a9 0x4c;
    1ceb:	b3 90 00 0e       	  cmpbreq.w a9 0x0 0x1cf9;
    1cef:	b3 90 01 f6       	  cmpbreq.w a9 0x1 0x1ce5;
    1cf3:	f8 02             	  halt;
    1cf5:	3e e5 1c 00       	  jmp 0x1ce5;
    1cf9:	7e 9b 0a 00       	  call 0xa9b;
    1cfd:	fe 49 01          	  rspr a9 SP;
    1d00:	90 99 08          	  add.w a9 a9 0x8;
    1d03:	bf 9f             	  ldd.w a15 a9;
    1d05:	d9 2c 06 00 00    	  mvi a9 0x62c;
    1d0a:	bf 99             	  ldd.w a9 a9;
    1d0c:	a6 f9             	  cmp.w a15 a9;
    1d0e:	f4 0b 30          	  breq 0x1d3e;
    1d11:	3e 3a 1d 00       	  jmp 0x1d3a;
    1d15:	89 00 c1 01       	  mvi a9 0x1c100;
    1d19:	f6 90 00          	  stx a9 0x0 a0;
    1d1c:	b8 99 00 01 00    	  add.w a9 a9 0x100;
    1d21:	f6 91 00          	  stx a9 0x0 a1;
    1d24:	df f2 00 00 80    	  mvi a15 -0x7fffff0e;
    1d29:	b8 99 00 02 02    	  sub.w a9 a9 0x200;
    1d2e:	f6 9f 00          	  stx a9 0x0 a15;
    1d31:	cf 9f 00          	  ldx a15 a9 0x0;
    1d34:	b2 9f             	  mv.w a15 a9;
    1d36:	3e e5 1c 00       	  jmp 0x1ce5;
    1d3a:	7e e9 42 00       	  call 0x42e9;
    1d3e:	fb 15 04          	  popma a1 0x1 0x4;

00001d41 <_soeReadCmdQueueHead_LR10>:
    1d41:	df 2c 06 00 00    	  mvi a15 0x62c;
    1d46:	bf fe             	  ldd.w a14 a15;
    1d48:	f4 30 fc          	  addsp -0x4;
    1d4b:	b8 aa 80 01 00    	  add.w a10 a10 0x180;
    1d50:	fe 49 01          	  rspr a9 SP;
    1d53:	b6 a4 09          	  lsl.w a10 0x9;
    1d56:	a0 9e             	  std.w a9 a14;
    1d58:	cf aa 00          	  ldx a10 a10 0x0;
    1d5b:	bf 9e             	  ldd.w a14 a9;
    1d5d:	bf f9             	  ldd.w a9 a15;
    1d5f:	a6 e9             	  cmp.w a14 a9;
    1d61:	f4 0b 07          	  breq 0x1d68;
    1d64:	7e e9 42 00       	  call 0x42e9;
    1d68:	f4 30 04          	  addsp 0x4;
    1d6b:	f8 00             	  ret;

00001d6d <_soeWriteCmdQueueTail_LR10>:
    1d6d:	df 2c 06 00 00    	  mvi a15 0x62c;
    1d72:	bf ff             	  ldd.w a15 a15;
    1d74:	89 00 01 03       	  mvi a9 0x30100;
    1d78:	f4 30 fc          	  addsp -0x4;
    1d7b:	b6 a4 09          	  lsl.w a10 0x9;
    1d7e:	bc a9 a0          	  add.w a10 a10 a9;
    1d81:	fe 49 01          	  rspr a9 SP;
    1d84:	a0 9f             	  std.w a9 a15;
    1d86:	f6 ab 00          	  stx a10 0x0 a11;
    1d89:	fe 49 01          	  rspr a9 SP;
    1d8c:	bf 9f             	  ldd.w a15 a9;
    1d8e:	d9 2c 06 00 00    	  mvi a9 0x62c;
    1d93:	bf 99             	  ldd.w a9 a9;
    1d95:	a6 f9             	  cmp.w a15 a9;
    1d97:	f4 0b 07          	  breq 0x1d9e;
    1d9a:	7e e9 42 00       	  call 0x42e9;
    1d9e:	f4 30 04          	  addsp 0x4;
    1da1:	f8 00             	  ret;

00001da3 <_soeQueueRmHeadGet_LR10>:
    1da3:	de 2c 06 00 00    	  mvi a14 0x62c;
    1da8:	bf ef             	  ldd.w a15 a14;
    1daa:	f4 30 fc          	  addsp -0x4;
    1dad:	8a 00 20 03       	  mvi a10 0x32000;
    1db1:	fe 49 01          	  rspr a9 SP;
    1db4:	a0 9f             	  std.w a9 a15;
    1db6:	cf aa 00          	  ldx a10 a10 0x0;
    1db9:	bf 9f             	  ldd.w a15 a9;
    1dbb:	bf e9             	  ldd.w a9 a14;
    1dbd:	a6 f9             	  cmp.w a15 a9;
    1dbf:	f4 0b 07          	  breq 0x1dc6;
    1dc2:	7e e9 42 00       	  call 0x42e9;
    1dc6:	f4 30 04          	  addsp 0x4;
    1dc9:	f8 00             	  ret;

00001dcb <_soeQueueRmHeadSet_LR10>:
    1dcb:	df 2c 06 00 00    	  mvi a15 0x62c;
    1dd0:	bf ff             	  ldd.w a15 a15;
    1dd2:	f4 30 fc          	  addsp -0x4;
    1dd5:	fe 49 01          	  rspr a9 SP;
    1dd8:	a0 9f             	  std.w a9 a15;
    1dda:	89 00 20 03       	  mvi a9 0x32000;
    1dde:	f6 9a 00          	  stx a9 0x0 a10;
    1de1:	0f 40             	  mvi a15 0x40;
    1de3:	bd 94             	  clr.w a9;
    1de5:	f6 9f 00          	  stx a9 0x0 a15;
    1de8:	fe 49 01          	  rspr a9 SP;
    1deb:	bf 9f             	  ldd.w a15 a9;
    1ded:	d9 2c 06 00 00    	  mvi a9 0x62c;
    1df2:	bf 99             	  ldd.w a9 a9;
    1df4:	a6 f9             	  cmp.w a15 a9;
    1df6:	f4 0b 07          	  breq 0x1dfd;
    1df9:	7e e9 42 00       	  call 0x42e9;
    1dfd:	f4 30 04          	  addsp 0x4;
    1e00:	f8 00             	  ret;

00001e02 <_soeQueueRmTailGet_LR10>:
    1e02:	de 2c 06 00 00    	  mvi a14 0x62c;
    1e07:	bf ef             	  ldd.w a15 a14;
    1e09:	f4 30 fc          	  addsp -0x4;
    1e0c:	8a 00 21 03       	  mvi a10 0x32100;
    1e10:	fe 49 01          	  rspr a9 SP;
    1e13:	a0 9f             	  std.w a9 a15;
    1e15:	cf aa 00          	  ldx a10 a10 0x0;
    1e18:	bf 9f             	  ldd.w a15 a9;
    1e1a:	bf e9             	  ldd.w a9 a14;
    1e1c:	a6 f9             	  cmp.w a15 a9;
    1e1e:	f4 0b 07          	  breq 0x1e25;
    1e21:	7e e9 42 00       	  call 0x42e9;
    1e25:	f4 30 04          	  addsp 0x4;
    1e28:	f8 00             	  ret;

00001e2a <__soePtopParseEntryLr10>:
    1e2a:	df 2c 06 00 00    	  mvi a15 0x62c;
    1e2f:	bf ff             	  ldd.w a15 a15;
    1e31:	f4 30 fc          	  addsp -0x4;
    1e34:	fe 49 01          	  rspr a9 SP;
    1e37:	a0 9f             	  std.w a9 a15;
    1e39:	95 a9 1f          	  lsr.w a9 a10 0x1f;
    1e3c:	20 c9             	  std.b a12 a9;
    1e3e:	f0 a4 03          	  and a10 0x3;
    1e41:	b3 a0 02 0c       	  cmpbreq.w a10 0x2 0x1e4d;
    1e45:	b3 a0 03 08       	  cmpbreq.w a10 0x3 0x1e4d;
    1e49:	b3 a4 01 0a       	  cmpbrne.w a10 0x1 0x1e53;
    1e4d:	a0 ba             	  std.w a11 a10;
    1e4f:	3e 57 1e 00       	  jmp 0x1e57;
    1e53:	bd 94             	  clr.w a9;
    1e55:	a0 b9             	  std.w a11 a9;
    1e57:	fe 49 01          	  rspr a9 SP;
    1e5a:	bf 9f             	  ldd.w a15 a9;
    1e5c:	d9 2c 06 00 00    	  mvi a9 0x62c;
    1e61:	bf 99             	  ldd.w a9 a9;
    1e63:	a6 f9             	  cmp.w a15 a9;
    1e65:	f4 0b 07          	  breq 0x1e6c;
    1e68:	7e e9 42 00       	  call 0x42e9;
    1e6c:	f4 30 04          	  addsp 0x4;
    1e6f:	f8 00             	  ret;

00001e71 <__soePtopParseEnumLr10>:
    1e71:	de 2c 06 00 00    	  mvi a14 0x62c;
    1e76:	bf e9             	  ldd.w a9 a14;
    1e78:	f4 30 fc          	  addsp -0x4;
    1e7b:	fe 4f 01          	  rspr a15 SP;
    1e7e:	a0 f9             	  std.w a15 a9;
    1e80:	c7 a9 e2          	  uxtr a9 a10 0xe2;
    1e83:	a0 b9             	  std.w a11 a9;
    1e85:	c7 a9 ea          	  uxtr a9 a10 0xea;
    1e88:	a0 c9             	  std.w a12 a9;
    1e8a:	e7 aa 54 01       	  uxtr a10 a10 0x154;
    1e8e:	a0 da             	  std.w a13 a10;
    1e90:	bf ff             	  ldd.w a15 a15;
    1e92:	bf e9             	  ldd.w a9 a14;
    1e94:	a6 f9             	  cmp.w a15 a9;
    1e96:	f4 0b 07          	  breq 0x1e9d;
    1e99:	7e e9 42 00       	  call 0x42e9;
    1e9d:	f4 30 04          	  addsp 0x4;
    1ea0:	f8 00             	  ret;

00001ea2 <__soePtopHandleData1Lr10>:
    1ea2:	df 2c 06 00 00    	  mvi a15 0x62c;
    1ea7:	bf ff             	  ldd.w a15 a15;
    1ea9:	f4 30 fc          	  addsp -0x4;
    1eac:	fe 49 01          	  rspr a9 SP;
    1eaf:	a0 9f             	  std.w a9 a15;
    1eb1:	b3 c4 01 0e       	  cmpbrne.w a12 0x1 0x1ebf;
    1eb5:	e7 a9 82 03       	  uxtr a9 a10 0x382;
    1eb9:	a0 d9             	  std.w a13 a9;
    1ebb:	3e d1 1e 00       	  jmp 0x1ed1;
    1ebf:	e7 a9 16 01       	  uxtr a9 a10 0x116;
    1ec3:	b3 90 00 0e       	  cmpbreq.w a9 0x0 0x1ed1;
    1ec7:	0f 19             	  mvi a15 0x19;
    1ec9:	49 00 11          	  mvi a9 0x1100;
    1ecc:	f7 9f 00          	  stxb a9 0x0 a15;
    1ecf:	f8 02             	  halt;
    1ed1:	fe 49 01          	  rspr a9 SP;
    1ed4:	bf 9f             	  ldd.w a15 a9;
    1ed6:	d9 2c 06 00 00    	  mvi a9 0x62c;
    1edb:	bf 99             	  ldd.w a9 a9;
    1edd:	a6 f9             	  cmp.w a15 a9;
    1edf:	f4 0b 07          	  breq 0x1ee6;
    1ee2:	7e e9 42 00       	  call 0x42e9;
    1ee6:	f4 30 04          	  addsp 0x4;
    1ee9:	f8 00             	  ret;

00001eeb <__soePtopHandleData2Lr10>:
    1eeb:	d9 2c 06 00 00    	  mvi a9 0x62c;
    1ef0:	bf 99             	  ldd.w a9 a9;
    1ef2:	f4 30 fc          	  addsp -0x4;
    1ef5:	fe 4f 01          	  rspr a15 SP;
    1ef8:	a0 f9             	  std.w a15 a9;
    1efa:	e7 a9 e2 02       	  uxtr a9 a10 0x2e2;
    1efe:	c7 aa 9a          	  uxtr a10 a10 0x9a;
    1f01:	b3 a0 06 20       	  cmpbreq.w a10 0x6 0x1f21;
    1f05:	b0 a6 06          	  cmp.w a10 0x6;
    1f08:	f4 0c 0f          	  brgt 0x1f17;
    1f0b:	b3 a0 04 16       	  cmpbreq.w a10 0x4 0x1f21;
    1f0f:	b3 a4 05 25       	  cmpbrne.w a10 0x5 0x1f34;
    1f13:	3e 21 1f 00       	  jmp 0x1f21;
    1f17:	b0 a6 09          	  cmp.w a10 0x9;
    1f1a:	f4 0c 1a          	  brgt 0x1f34;
    1f1d:	3e 2b 1f 00       	  jmp 0x1f2b;
    1f21:	b6 94 02          	  lsl.w a9 0x2;
    1f24:	b5 b9 04          	  std.w a11 0x10 a9;
    1f27:	3e 34 1f 00       	  jmp 0x1f34;
    1f2b:	92 af 02          	  sub.w a15 a10 0x2;
    1f2e:	b6 94 02          	  lsl.w a9 0x2;
    1f31:	bc b9 f9          	  std.w a11 a15 a9;
    1f34:	fe 49 01          	  rspr a9 SP;
    1f37:	bf 9f             	  ldd.w a15 a9;
    1f39:	d9 2c 06 00 00    	  mvi a9 0x62c;
    1f3e:	bf 99             	  ldd.w a9 a9;
    1f40:	a6 f9             	  cmp.w a15 a9;
    1f42:	f4 0b 07          	  breq 0x1f49;
    1f45:	7e e9 42 00       	  call 0x42e9;
    1f49:	f4 30 04          	  addsp 0x4;
    1f4c:	f8 00             	  ret;

00001f4e <__soeNpgParseEntryLr10>:
    1f4e:	df 2c 06 00 00    	  mvi a15 0x62c;
    1f53:	bf ff             	  ldd.w a15 a15;
    1f55:	f4 30 fc          	  addsp -0x4;
    1f58:	fe 49 01          	  rspr a9 SP;
    1f5b:	a0 9f             	  std.w a9 a15;
    1f5d:	95 a9 1f          	  lsr.w a9 a10 0x1f;
    1f60:	20 c9             	  std.b a12 a9;
    1f62:	f0 a4 03          	  and a10 0x3;
    1f65:	b3 a0 02 0c       	  cmpbreq.w a10 0x2 0x1f71;
    1f69:	b3 a0 03 08       	  cmpbreq.w a10 0x3 0x1f71;
    1f6d:	b3 a4 01 0a       	  cmpbrne.w a10 0x1 0x1f77;
    1f71:	a0 ba             	  std.w a11 a10;
    1f73:	3e 7b 1f 00       	  jmp 0x1f7b;
    1f77:	bd 94             	  clr.w a9;
    1f79:	a0 b9             	  std.w a11 a9;
    1f7b:	fe 49 01          	  rspr a9 SP;
    1f7e:	bf 9f             	  ldd.w a15 a9;
    1f80:	d9 2c 06 00 00    	  mvi a9 0x62c;
    1f85:	bf 99             	  ldd.w a9 a9;
    1f87:	a6 f9             	  cmp.w a15 a9;
    1f89:	f4 0b 07          	  breq 0x1f90;
    1f8c:	7e e9 42 00       	  call 0x42e9;
    1f90:	f4 30 04          	  addsp 0x4;
    1f93:	f8 00             	  ret;

00001f95 <__soeNpgParseEnumLr10>:
    1f95:	de 2c 06 00 00    	  mvi a14 0x62c;
    1f9a:	bf e9             	  ldd.w a9 a14;
    1f9c:	f4 30 fc          	  addsp -0x4;
    1f9f:	fe 4f 01          	  rspr a15 SP;
    1fa2:	a0 f9             	  std.w a15 a9;
    1fa4:	c7 a9 a2          	  uxtr a9 a10 0xa2;
    1fa7:	a0 b9             	  std.w a11 a9;
    1fa9:	c7 a9 e8          	  uxtr a9 a10 0xe8;
    1fac:	a0 c9             	  std.w a12 a9;
    1fae:	e7 aa 54 01       	  uxtr a10 a10 0x154;
    1fb2:	a0 da             	  std.w a13 a10;
    1fb4:	bf ff             	  ldd.w a15 a15;
    1fb6:	bf e9             	  ldd.w a9 a14;
    1fb8:	a6 f9             	  cmp.w a15 a9;
    1fba:	f4 0b 07          	  breq 0x1fc1;
    1fbd:	7e e9 42 00       	  call 0x42e9;
    1fc1:	f4 30 04          	  addsp 0x4;
    1fc4:	f8 00             	  ret;

00001fc6 <__soeNpgHandleData1Lr10>:
    1fc6:	df 2c 06 00 00    	  mvi a15 0x62c;
    1fcb:	bf ff             	  ldd.w a15 a15;
    1fcd:	f4 30 fc          	  addsp -0x4;
    1fd0:	fe 49 01          	  rspr a9 SP;
    1fd3:	b6 a5 0c          	  lsr.w a10 0xc;
    1fd6:	a0 9f             	  std.w a9 a15;
    1fd8:	b3 c4 01 11       	  cmpbrne.w a12 0x1 0x1fe9;
    1fdc:	89 ff ff 07       	  mvi a9 0x7ffff;
    1fe0:	ff a9 94          	  and a9 a10 a9;
    1fe3:	a0 d9             	  std.w a13 a9;
    1fe5:	3e fd 1f 00       	  jmp 0x1ffd;
    1fe9:	89 ff ff 07       	  mvi a9 0x7ffff;
    1fed:	ff a9 94          	  and a9 a10 a9;
    1ff0:	f4 0b 0d          	  breq 0x1ffd;
    1ff3:	0f 19             	  mvi a15 0x19;
    1ff5:	49 00 11          	  mvi a9 0x1100;
    1ff8:	f7 9f 00          	  stxb a9 0x0 a15;
    1ffb:	f8 02             	  halt;
    1ffd:	fe 49 01          	  rspr a9 SP;
    2000:	bf 9f             	  ldd.w a15 a9;
    2002:	d9 2c 06 00 00    	  mvi a9 0x62c;
    2007:	bf 99             	  ldd.w a9 a9;
    2009:	a6 f9             	  cmp.w a15 a9;
    200b:	f4 0b 07          	  breq 0x2012;
    200e:	7e e9 42 00       	  call 0x42e9;
    2012:	f4 30 04          	  addsp 0x4;
    2015:	f8 00             	  ret;

00002017 <__soeNpgHandleData2Lr10>:
    2017:	d9 2c 06 00 00    	  mvi a9 0x62c;
    201c:	bf 99             	  ldd.w a9 a9;
    201e:	f4 30 fc          	  addsp -0x4;
    2021:	fe 4f 01          	  rspr a15 SP;
    2024:	a0 f9             	  std.w a15 a9;
    2026:	e7 a9 e2 02       	  uxtr a9 a10 0x2e2;
    202a:	c7 aa 9a          	  uxtr a10 a10 0x9a;
    202d:	b3 a0 05 20       	  cmpbreq.w a10 0x5 0x204d;
    2031:	b0 a6 05          	  cmp.w a10 0x5;
    2034:	f4 0c 0b          	  brgt 0x203f;
    2037:	b3 a0 00 37       	  cmpbreq.w a10 0x0 0x206e;
    203b:	3e 64 20 00       	  jmp 0x2064;
    203f:	b3 a0 06 0e       	  cmpbreq.w a10 0x6 0x204d;
    2043:	b0 a6 09          	  cmp.w a10 0x9;
    2046:	f4 0c 1e          	  brgt 0x2064;
    2049:	3e 57 20 00       	  jmp 0x2057;
    204d:	b6 94 02          	  lsl.w a9 0x2;
    2050:	b5 b9 04          	  std.w a11 0x10 a9;
    2053:	3e 6e 20 00       	  jmp 0x206e;
    2057:	92 af 02          	  sub.w a15 a10 0x2;
    205a:	b6 94 02          	  lsl.w a9 0x2;
    205d:	bc b9 f9          	  std.w a11 a15 a9;
    2060:	3e 6e 20 00       	  jmp 0x206e;
    2064:	0f 19             	  mvi a15 0x19;
    2066:	49 00 11          	  mvi a9 0x1100;
    2069:	f7 9f 00          	  stxb a9 0x0 a15;
    206c:	f8 02             	  halt;
    206e:	fe 49 01          	  rspr a9 SP;
    2071:	bf 9f             	  ldd.w a15 a9;
    2073:	d9 2c 06 00 00    	  mvi a9 0x62c;
    2078:	bf 99             	  ldd.w a9 a9;
    207a:	a6 f9             	  cmp.w a15 a9;
    207c:	f4 0b 07          	  breq 0x2083;
    207f:	7e e9 42 00       	  call 0x42e9;
    2083:	f4 30 04          	  addsp 0x4;
    2086:	f8 00             	  ret;

00002088 <__soeNxbarParseEntryLr10>:
    2088:	df 2c 06 00 00    	  mvi a15 0x62c;
    208d:	bf ff             	  ldd.w a15 a15;
    208f:	f4 30 fc          	  addsp -0x4;
    2092:	fe 49 01          	  rspr a9 SP;
    2095:	a0 9f             	  std.w a9 a15;
    2097:	95 a9 1f          	  lsr.w a9 a10 0x1f;
    209a:	20 c9             	  std.b a12 a9;
    209c:	f0 a4 03          	  and a10 0x3;
    209f:	b3 a0 02 0c       	  cmpbreq.w a10 0x2 0x20ab;
    20a3:	b3 a0 03 08       	  cmpbreq.w a10 0x3 0x20ab;
    20a7:	b3 a4 01 0a       	  cmpbrne.w a10 0x1 0x20b1;
    20ab:	a0 ba             	  std.w a11 a10;
    20ad:	3e b5 20 00       	  jmp 0x20b5;
    20b1:	bd 94             	  clr.w a9;
    20b3:	a0 b9             	  std.w a11 a9;
    20b5:	fe 49 01          	  rspr a9 SP;
    20b8:	bf 9f             	  ldd.w a15 a9;
    20ba:	d9 2c 06 00 00    	  mvi a9 0x62c;
    20bf:	bf 99             	  ldd.w a9 a9;
    20c1:	a6 f9             	  cmp.w a15 a9;
    20c3:	f4 0b 07          	  breq 0x20ca;
    20c6:	7e e9 42 00       	  call 0x42e9;
    20ca:	f4 30 04          	  addsp 0x4;
    20cd:	f8 00             	  ret;

000020cf <__soeNxbarParseEnumLr10>:
    20cf:	df 2c 06 00 00    	  mvi a15 0x62c;
    20d4:	bf ff             	  ldd.w a15 a15;
    20d6:	f4 30 fc          	  addsp -0x4;
    20d9:	fe 49 01          	  rspr a9 SP;
    20dc:	a0 9f             	  std.w a9 a15;
    20de:	c7 a9 a2          	  uxtr a9 a10 0xa2;
    20e1:	a0 b9             	  std.w a11 a9;
    20e3:	c7 a9 e8          	  uxtr a9 a10 0xe8;
    20e6:	a0 c9             	  std.w a12 a9;
    20e8:	e7 a9 54 01       	  uxtr a9 a10 0x154;
    20ec:	a0 d9             	  std.w a13 a9;
    20ee:	c7 aa 70          	  uxtr a10 a10 0x70;
    20f1:	b3 a0 00 0e       	  cmpbreq.w a10 0x0 0x20ff;
    20f5:	0f 19             	  mvi a15 0x19;
    20f7:	49 00 11          	  mvi a9 0x1100;
    20fa:	f7 9f 00          	  stxb a9 0x0 a15;
    20fd:	f8 02             	  halt;
    20ff:	fe 49 01          	  rspr a9 SP;
    2102:	bf 9f             	  ldd.w a15 a9;
    2104:	d9 2c 06 00 00    	  mvi a9 0x62c;
    2109:	bf 99             	  ldd.w a9 a9;
    210b:	a6 f9             	  cmp.w a15 a9;
    210d:	f4 0b 07          	  breq 0x2114;
    2110:	7e e9 42 00       	  call 0x42e9;
    2114:	f4 30 04          	  addsp 0x4;
    2117:	f8 00             	  ret;

00002119 <__soeNxbarHandleData1Lr10>:
    2119:	df 2c 06 00 00    	  mvi a15 0x62c;
    211e:	bf ff             	  ldd.w a15 a15;
    2120:	f4 30 fc          	  addsp -0x4;
    2123:	fe 49 01          	  rspr a9 SP;
    2126:	b6 a5 0c          	  lsr.w a10 0xc;
    2129:	a0 9f             	  std.w a9 a15;
    212b:	b3 c4 01 11       	  cmpbrne.w a12 0x1 0x213c;
    212f:	89 ff ff 07       	  mvi a9 0x7ffff;
    2133:	ff a9 94          	  and a9 a10 a9;
    2136:	a0 d9             	  std.w a13 a9;
    2138:	3e 50 21 00       	  jmp 0x2150;
    213c:	89 ff ff 07       	  mvi a9 0x7ffff;
    2140:	ff a9 94          	  and a9 a10 a9;
    2143:	f4 0b 0d          	  breq 0x2150;
    2146:	0f 19             	  mvi a15 0x19;
    2148:	49 00 11          	  mvi a9 0x1100;
    214b:	f7 9f 00          	  stxb a9 0x0 a15;
    214e:	f8 02             	  halt;
    2150:	fe 49 01          	  rspr a9 SP;
    2153:	bf 9f             	  ldd.w a15 a9;
    2155:	d9 2c 06 00 00    	  mvi a9 0x62c;
    215a:	bf 99             	  ldd.w a9 a9;
    215c:	a6 f9             	  cmp.w a15 a9;
    215e:	f4 0b 07          	  breq 0x2165;
    2161:	7e e9 42 00       	  call 0x42e9;
    2165:	f4 30 04          	  addsp 0x4;
    2168:	f8 00             	  ret;

0000216a <__soeNxbarHandleData2Lr10>:
    216a:	d9 2c 06 00 00    	  mvi a9 0x62c;
    216f:	bf 99             	  ldd.w a9 a9;
    2171:	f4 30 fc          	  addsp -0x4;
    2174:	fe 4f 01          	  rspr a15 SP;
    2177:	a0 f9             	  std.w a15 a9;
    2179:	e7 a9 e2 02       	  uxtr a9 a10 0x2e2;
    217d:	c7 aa 9a          	  uxtr a10 a10 0x9a;
    2180:	b3 a0 05 20       	  cmpbreq.w a10 0x5 0x21a0;
    2184:	b0 a6 05          	  cmp.w a10 0x5;
    2187:	f4 0c 0b          	  brgt 0x2192;
    218a:	b3 a0 00 37       	  cmpbreq.w a10 0x0 0x21c1;
    218e:	3e b7 21 00       	  jmp 0x21b7;
    2192:	b3 a0 06 0e       	  cmpbreq.w a10 0x6 0x21a0;
    2196:	b0 a6 09          	  cmp.w a10 0x9;
    2199:	f4 0c 1e          	  brgt 0x21b7;
    219c:	3e aa 21 00       	  jmp 0x21aa;
    21a0:	b6 94 02          	  lsl.w a9 0x2;
    21a3:	b5 b9 04          	  std.w a11 0x10 a9;
    21a6:	3e c1 21 00       	  jmp 0x21c1;
    21aa:	92 af 02          	  sub.w a15 a10 0x2;
    21ad:	b6 94 02          	  lsl.w a9 0x2;
    21b0:	bc b9 f9          	  std.w a11 a15 a9;
    21b3:	3e c1 21 00       	  jmp 0x21c1;
    21b7:	0f 19             	  mvi a15 0x19;
    21b9:	49 00 11          	  mvi a9 0x1100;
    21bc:	f7 9f 00          	  stxb a9 0x0 a15;
    21bf:	f8 02             	  halt;
    21c1:	fe 49 01          	  rspr a9 SP;
    21c4:	bf 9f             	  ldd.w a15 a9;
    21c6:	d9 2c 06 00 00    	  mvi a9 0x62c;
    21cb:	bf 99             	  ldd.w a9 a9;
    21cd:	a6 f9             	  cmp.w a15 a9;
    21cf:	f4 0b 07          	  breq 0x21d6;
    21d2:	7e e9 42 00       	  call 0x42e9;
    21d6:	f4 30 04          	  addsp 0x4;
    21d9:	f8 00             	  ret;

000021db <__soeLwlwParseEntryLr10>:
    21db:	df 2c 06 00 00    	  mvi a15 0x62c;
    21e0:	bf ff             	  ldd.w a15 a15;
    21e2:	f4 30 fc          	  addsp -0x4;
    21e5:	fe 49 01          	  rspr a9 SP;
    21e8:	a0 9f             	  std.w a9 a15;
    21ea:	95 a9 1f          	  lsr.w a9 a10 0x1f;
    21ed:	20 c9             	  std.b a12 a9;
    21ef:	f0 a4 03          	  and a10 0x3;
    21f2:	b3 a0 02 0c       	  cmpbreq.w a10 0x2 0x21fe;
    21f6:	b3 a0 03 08       	  cmpbreq.w a10 0x3 0x21fe;
    21fa:	b3 a4 01 0a       	  cmpbrne.w a10 0x1 0x2204;
    21fe:	a0 ba             	  std.w a11 a10;
    2200:	3e 08 22 00       	  jmp 0x2208;
    2204:	bd 94             	  clr.w a9;
    2206:	a0 b9             	  std.w a11 a9;
    2208:	fe 49 01          	  rspr a9 SP;
    220b:	bf 9f             	  ldd.w a15 a9;
    220d:	d9 2c 06 00 00    	  mvi a9 0x62c;
    2212:	bf 99             	  ldd.w a9 a9;
    2214:	a6 f9             	  cmp.w a15 a9;
    2216:	f4 0b 07          	  breq 0x221d;
    2219:	7e e9 42 00       	  call 0x42e9;
    221d:	f4 30 04          	  addsp 0x4;
    2220:	f8 00             	  ret;

00002222 <__soeLwlwParseEnumLr10>:
    2222:	de 2c 06 00 00    	  mvi a14 0x62c;
    2227:	bf e9             	  ldd.w a9 a14;
    2229:	f4 30 fc          	  addsp -0x4;
    222c:	fe 4f 01          	  rspr a15 SP;
    222f:	a0 f9             	  std.w a15 a9;
    2231:	c7 a9 a2          	  uxtr a9 a10 0xa2;
    2234:	a0 b9             	  std.w a11 a9;
    2236:	c7 a9 e8          	  uxtr a9 a10 0xe8;
    2239:	a0 c9             	  std.w a12 a9;
    223b:	e7 aa 54 01       	  uxtr a10 a10 0x154;
    223f:	a0 da             	  std.w a13 a10;
    2241:	bf ff             	  ldd.w a15 a15;
    2243:	bf e9             	  ldd.w a9 a14;
    2245:	a6 f9             	  cmp.w a15 a9;
    2247:	f4 0b 07          	  breq 0x224e;
    224a:	7e e9 42 00       	  call 0x42e9;
    224e:	f4 30 04          	  addsp 0x4;
    2251:	f8 00             	  ret;

00002253 <__soeLwlwHandleData1Lr10>:
    2253:	df 2c 06 00 00    	  mvi a15 0x62c;
    2258:	bf ff             	  ldd.w a15 a15;
    225a:	f4 30 fc          	  addsp -0x4;
    225d:	fe 49 01          	  rspr a9 SP;
    2260:	a0 9f             	  std.w a9 a15;
    2262:	b3 c0 01 10       	  cmpbreq.w a12 0x1 0x2272;
    2266:	b3 c0 0c 0c       	  cmpbreq.w a12 0xc 0x2272;
    226a:	b3 c0 0d 08       	  cmpbreq.w a12 0xd 0x2272;
    226e:	b3 c4 14 0a       	  cmpbrne.w a12 0x14 0x2278;
    2272:	e7 a9 4c 02       	  uxtr a9 a10 0x24c;
    2276:	a0 d9             	  std.w a13 a9;
    2278:	fe 49 01          	  rspr a9 SP;
    227b:	bf 9f             	  ldd.w a15 a9;
    227d:	d9 2c 06 00 00    	  mvi a9 0x62c;
    2282:	bf 99             	  ldd.w a9 a9;
    2284:	a6 f9             	  cmp.w a15 a9;
    2286:	f4 0b 07          	  breq 0x228d;
    2289:	7e e9 42 00       	  call 0x42e9;
    228d:	f4 30 04          	  addsp 0x4;
    2290:	f8 00             	  ret;

00002292 <__soeLwlwHandleData2Lr10>:
    2292:	d9 2c 06 00 00    	  mvi a9 0x62c;
    2297:	bf 99             	  ldd.w a9 a9;
    2299:	f4 30 fc          	  addsp -0x4;
    229c:	fe 4f 01          	  rspr a15 SP;
    229f:	a0 f9             	  std.w a15 a9;
    22a1:	e7 a9 e2 02       	  uxtr a9 a10 0x2e2;
    22a5:	c7 aa 9a          	  uxtr a10 a10 0x9a;
    22a8:	b3 a0 06 2e       	  cmpbreq.w a10 0x6 0x22d6;
    22ac:	b0 a6 06          	  cmp.w a10 0x6;
    22af:	f4 0c 0f          	  brgt 0x22be;
    22b2:	b3 a0 04 16       	  cmpbreq.w a10 0x4 0x22c8;
    22b6:	b3 a4 05 33       	  cmpbrne.w a10 0x5 0x22e9;
    22ba:	3e d6 22 00       	  jmp 0x22d6;
    22be:	b0 a6 09          	  cmp.w a10 0x9;
    22c1:	f4 0c 28          	  brgt 0x22e9;
    22c4:	3e e0 22 00       	  jmp 0x22e0;
    22c8:	0f 19             	  mvi a15 0x19;
    22ca:	49 00 11          	  mvi a9 0x1100;
    22cd:	f7 9f 00          	  stxb a9 0x0 a15;
    22d0:	f8 02             	  halt;
    22d2:	3e e9 22 00       	  jmp 0x22e9;
    22d6:	b6 94 02          	  lsl.w a9 0x2;
    22d9:	b5 b9 04          	  std.w a11 0x10 a9;
    22dc:	3e e9 22 00       	  jmp 0x22e9;
    22e0:	92 af 02          	  sub.w a15 a10 0x2;
    22e3:	b6 94 02          	  lsl.w a9 0x2;
    22e6:	bc b9 f9          	  std.w a11 a15 a9;
    22e9:	fe 49 01          	  rspr a9 SP;
    22ec:	bf 9f             	  ldd.w a15 a9;
    22ee:	d9 2c 06 00 00    	  mvi a9 0x62c;
    22f3:	bf 99             	  ldd.w a9 a9;
    22f5:	a6 f9             	  cmp.w a15 a9;
    22f7:	f4 0b 07          	  breq 0x22fe;
    22fa:	7e e9 42 00       	  call 0x42e9;
    22fe:	f4 30 04          	  addsp 0x4;
    2301:	f8 00             	  ret;

00002303 <__discoverEngineAddress>:
    2303:	f4 30 d4          	  addsp -0x2c;
    2306:	f9 82             	  pushm a8;
    2308:	b4 90 15          	  lddsp.w a9 0x54;
    230b:	30 e1 27          	  stdsp.b a14 0x27;
    230e:	b0 c1 0b          	  stdsp.w a12 0x2c;
    2311:	b0 d1 0a          	  stdsp.w a13 0x28;
    2314:	bd f4             	  clr.w a15;
    2316:	b6 94 02          	  lsl.w a9 0x2;
    2319:	b0 91 0c          	  stdsp.w a9 0x30;
    231c:	fe 49 01          	  rspr a9 SP;
    231f:	90 99 44          	  add.w a9 a9 0x44;
    2322:	a0 9f             	  std.w a9 a15;
    2324:	90 99 07          	  add.w a9 a9 0x7;
    2327:	20 9f             	  std.b a9 a15;
    2329:	92 99 0b          	  sub.w a9 a9 0xb;
    232c:	a0 9f             	  std.w a9 a15;
    232e:	b2 95             	  mv.w a5 a9;
    2330:	92 99 04          	  sub.w a9 a9 0x4;
    2333:	a0 9f             	  std.w a9 a15;
    2335:	b2 97             	  mv.w a7 a9;
    2337:	92 99 04          	  sub.w a9 a9 0x4;
    233a:	a0 9f             	  std.w a9 a15;
    233c:	df 2c 06 00 00    	  mvi a15 0x62c;
    2341:	bf ff             	  ldd.w a15 a15;
    2343:	90 99 14          	  add.w a9 a9 0x14;
    2346:	fe 4e 01          	  rspr a14 SP;
    2349:	b2 a6             	  mv.w a6 a10;
    234b:	a0 9f             	  std.w a9 a15;
    234d:	90 ee 34          	  add.w a14 a14 0x34;
    2350:	09 02             	  mvi a9 0x2;
    2352:	b2 b4             	  mv.w a4 a11;
    2354:	a0 e9             	  std.w a14 a9;
    2356:	bd 84             	  clr.w a8;
    2358:	bd 34             	  clr.w a3;
    235a:	bd 14             	  clr.w a1;
    235c:	3e 47 24 00       	  jmp 0x2447;
    2360:	b2 6a             	  mv.w a10 a6;
    2362:	7e 22 1c 00       	  call 0x1c22;
    2366:	bf 49             	  ldd.w a9 a4;
    2368:	b2 a2             	  mv.w a2 a10;
    236a:	fe 4b 01          	  rspr a11 SP;
    236d:	fe 4c 01          	  rspr a12 SP;
    2370:	90 bb 44          	  add.w a11 a11 0x44;
    2373:	90 cc 4b          	  add.w a12 a12 0x4b;
    2376:	f9 95             	  call a9;
    2378:	b4 00 11          	  lddsp.w a0 0x44;
    237b:	b3 09 02 8e 00    	  cmpbreq.w a0 0x2 0x2409;
    2380:	b3 09 03 9e 00    	  cmpbreq.w a0 0x3 0x241e;
    2385:	b3 0d 01 a8 00    	  cmpbrne.w a0 0x1 0x242d;
    238a:	98 49 01          	  ldd.w a9 a4 0x4;
    238d:	b2 7c             	  mv.w a12 a7;
    238f:	b2 2a             	  mv.w a10 a2;
    2391:	b2 5b             	  mv.w a11 a5;
    2393:	fe 4d 01          	  rspr a13 SP;
    2396:	90 dd 38          	  add.w a13 a13 0x38;
    2399:	f9 95             	  call a9;
    239b:	32 0c             	  mv.b a12 a0;
    239d:	b4 e0 0b          	  lddsp.w a14 0x2c;
    23a0:	bd d4             	  clr.w a13;
    23a2:	3e fd 23 00       	  jmp 0x23fd;
    23a6:	bf 5f             	  ldd.w a15 a5;
    23a8:	bf e9             	  ldd.w a9 a14;
    23aa:	a6 f9             	  cmp.w a15 a9;
    23ac:	f4 1b 38          	  brne 0x23e4;
    23af:	34 b0 27          	  lddsp.b a11 0x27;
    23b2:	98 e8 01          	  ldd.w a8 a14 0x4;
    23b5:	bf 7f             	  ldd.w a15 a7;
    23b7:	98 e9 02          	  ldd.w a9 a14 0x8;
    23ba:	33 b0 00 0a       	  cmpbreq.b a11 0x0 0x23c4;
    23be:	b4 b0 0c          	  lddsp.w a11 0x30;
    23c1:	bc b9 90          	  add.w a9 a11 a9;
    23c4:	a6 f9             	  cmp.w a15 a9;
    23c6:	f4 1b 1e          	  brne 0x23e4;
    23c9:	df 48 14 00 00    	  mvi a15 0x1448;
    23ce:	18 f9 0c          	  ldd.b a9 a15 0xc;
    23d1:	33 94 00 06       	  cmpbrne.b a9 0x0 0x23d7;
    23d5:	b2 f1             	  mv.w a1 a15;
    23d7:	90 ff 20          	  add.w a15 a15 0x20;
    23da:	d9 48 2a 00 00    	  mvi a9 0x2a48;
    23df:	a6 f9             	  cmp.w a15 a9;
    23e1:	f4 1b ed          	  brne 0x23ce;
    23e4:	b3 10 00 13       	  cmpbreq.w a1 0x0 0x23f7;
    23e8:	35 1c 0c          	  std.b a1 0xc a12;
    23eb:	bf 5b             	  ldd.w a11 a5;
    23ed:	b5 18 01          	  std.w a1 0x4 a8;
    23f0:	a0 1b             	  std.w a1 a11;
    23f2:	bf 79             	  ldd.w a9 a7;
    23f4:	b5 19 02          	  std.w a1 0x8 a9;
    23f7:	90 dd 01          	  add.w a13 a13 0x1;
    23fa:	90 ee 0c          	  add.w a14 a14 0xc;
    23fd:	b4 b0 0a          	  lddsp.w a11 0x28;
    2400:	a6 db             	  cmp.w a13 a11;
    2402:	f4 08 a4          	  brc 0x23a6;
    2405:	3e 2d 24 00       	  jmp 0x242d;
    2409:	98 49 02          	  ldd.w a9 a4 0x8;
    240c:	bf 5c             	  ldd.w a12 a5;
    240e:	fe 4d 01          	  rspr a13 SP;
    2411:	b2 2a             	  mv.w a10 a2;
    2413:	b2 1b             	  mv.w a11 a1;
    2415:	90 dd 34          	  add.w a13 a13 0x34;
    2418:	f9 95             	  call a9;
    241a:	3e 2d 24 00       	  jmp 0x242d;
    241e:	b3 10 00 0f       	  cmpbreq.w a1 0x0 0x242d;
    2422:	98 49 03          	  ldd.w a9 a4 0xc;
    2425:	bf 5c             	  ldd.w a12 a5;
    2427:	b2 2a             	  mv.w a10 a2;
    2429:	b2 1b             	  mv.w a11 a1;
    242b:	f9 95             	  call a9;
    242d:	34 90 4b          	  lddsp.b a9 0x4b;
    2430:	33 94 00 11       	  cmpbrne.b a9 0x0 0x2441;
    2434:	09 ff             	  mvi a9 -0x1;
    2436:	bd 14             	  clr.w a1;
    2438:	b0 91 0e          	  stdsp.w a9 0x38;
    243b:	a0 79             	  std.w a7 a9;
    243d:	bd 94             	  clr.w a9;
    243f:	a0 59             	  std.w a5 a9;
    2441:	90 33 01          	  add.w a3 a3 0x1;
    2444:	90 66 04          	  add.w a6 a6 0x4;
    2447:	b4 90 0d          	  lddsp.w a9 0x34;
    244a:	a6 39             	  cmp.w a3 a9;
    244c:	f5 08 14 ff       	  brc 0x2360;
    2450:	fe 49 01          	  rspr a9 SP;
    2453:	90 99 4c          	  add.w a9 a9 0x4c;
    2456:	bf 9f             	  ldd.w a15 a9;
    2458:	d9 2c 06 00 00    	  mvi a9 0x62c;
    245d:	bf 99             	  ldd.w a9 a9;
    245f:	a6 f9             	  cmp.w a15 a9;
    2461:	f4 0b 07          	  breq 0x2468;
    2464:	7e e9 42 00       	  call 0x42e9;
    2468:	fb 85 2c          	  popma a8 0x1 0x2c;

0000246b <_getEngineBaseAddress>:
    246b:	f4 30 fc          	  addsp -0x4;
    246e:	d9 2c 06 00 00    	  mvi a9 0x62c;
    2473:	f9 72             	  pushm a7;
    2475:	bf 99             	  ldd.w a9 a9;
    2477:	f4 30 fc          	  addsp -0x4;
    247a:	d0 48 2a 00 00    	  mvi a0 0x2a48;
    247f:	fe 4f 01          	  rspr a15 SP;
    2482:	90 ff 24          	  add.w a15 a15 0x24;
    2485:	a0 f9             	  std.w a15 a9;
    2487:	3f 09             	  ldd.b a9 a0;
    2489:	b2 a6             	  mv.w a6 a10;
    248b:	b2 b5             	  mv.w a5 a11;
    248d:	b2 c3             	  mv.w a3 a12;
    248f:	b2 d4             	  mv.w a4 a13;
    2491:	33 9d 00 11 01    	  cmpbrne.b a9 0x0 0x25a2;
    2496:	bd b4             	  clr.w a11;
    2498:	4c 04 16          	  mvi a12 0x1604;
    249b:	da 48 14 00 00    	  mvi a10 0x1448;
    24a0:	7e 94 0b 00       	  call 0xb94;
    24a4:	d9 0c 02 00 00    	  mvi a9 0x20c;
    24a9:	bf 9c             	  ldd.w a12 a9;
    24ab:	98 9d 01          	  ldd.w a13 a9 0x4;
    24ae:	b2 91             	  mv.w a1 a9;
    24b0:	bd 94             	  clr.w a9;
    24b2:	b2 07             	  mv.w a7 a0;
    24b4:	b0 91 00          	  stdsp.w a9 0x0;
    24b7:	8a 00 c0 02       	  mvi a10 0x2c000;
    24bb:	db fc 01 00 00    	  mvi a11 0x1fc;
    24c0:	3d e4             	  clr.b a14;
    24c2:	d0 48 14 00 00    	  mvi a0 0x1448;
    24c7:	7e 03 23 00       	  call 0x2303;
    24cb:	bd 24             	  clr.w a2;
    24cd:	bf 09             	  ldd.w a9 a0;
    24cf:	b3 94 13 1e       	  cmpbrne.w a9 0x13 0x24ed;
    24d3:	98 1c 02          	  ldd.w a12 a1 0x8;
    24d6:	98 1d 03          	  ldd.w a13 a1 0xc;
    24d9:	98 09 02          	  ldd.w a9 a0 0x8;
    24dc:	98 0a 04          	  ldd.w a10 a0 0x10;
    24df:	db cc 01 00 00    	  mvi a11 0x1cc;
    24e4:	0e 01             	  mvi a14 0x1;
    24e6:	b0 91 00          	  stdsp.w a9 0x0;
    24e9:	7e 03 23 00       	  call 0x2303;
    24ed:	bf 09             	  ldd.w a9 a0;
    24ef:	b3 94 04 35       	  cmpbrne.w a9 0x4 0x2524;
    24f3:	98 1c 04          	  ldd.w a12 a1 0x10;
    24f6:	98 1d 05          	  ldd.w a13 a1 0x14;
    24f9:	98 0a 04          	  ldd.w a10 a0 0x10;
    24fc:	98 09 02          	  ldd.w a9 a0 0x8;
    24ff:	db dc 01 00 00    	  mvi a11 0x1dc;
    2504:	0e 01             	  mvi a14 0x1;
    2506:	b0 91 00          	  stdsp.w a9 0x0;
    2509:	7e 03 23 00       	  call 0x2303;
    250d:	98 1c 08          	  ldd.w a12 a1 0x20;
    2510:	98 1d 09          	  ldd.w a13 a1 0x24;
    2513:	98 0a 04          	  ldd.w a10 a0 0x10;
    2516:	b0 21 00          	  stdsp.w a2 0x0;
    2519:	db dc 01 00 00    	  mvi a11 0x1dc;
    251e:	3d e4             	  clr.b a14;
    2520:	7e 03 23 00       	  call 0x2303;
    2524:	bf 09             	  ldd.w a9 a0;
    2526:	b3 94 05 1b       	  cmpbrne.w a9 0x5 0x2541;
    252a:	98 1c 06          	  ldd.w a12 a1 0x18;
    252d:	98 1d 07          	  ldd.w a13 a1 0x1c;
    2530:	98 0a 04          	  ldd.w a10 a0 0x10;
    2533:	b0 21 00          	  stdsp.w a2 0x0;
    2536:	db dc 01 00 00    	  mvi a11 0x1dc;
    253b:	3d e4             	  clr.b a14;
    253d:	7e 03 23 00       	  call 0x2303;
    2541:	bf 09             	  ldd.w a9 a0;
    2543:	b3 94 15 35       	  cmpbrne.w a9 0x15 0x2578;
    2547:	98 1c 0c          	  ldd.w a12 a1 0x30;
    254a:	98 1d 0d          	  ldd.w a13 a1 0x34;
    254d:	98 0a 04          	  ldd.w a10 a0 0x10;
    2550:	98 09 02          	  ldd.w a9 a0 0x8;
    2553:	db ec 01 00 00    	  mvi a11 0x1ec;
    2558:	0e 01             	  mvi a14 0x1;
    255a:	b0 91 00          	  stdsp.w a9 0x0;
    255d:	7e 03 23 00       	  call 0x2303;
    2561:	98 1c 0a          	  ldd.w a12 a1 0x28;
    2564:	98 1d 0b          	  ldd.w a13 a1 0x2c;
    2567:	98 0a 04          	  ldd.w a10 a0 0x10;
    256a:	b0 21 00          	  stdsp.w a2 0x0;
    256d:	db ec 01 00 00    	  mvi a11 0x1ec;
    2572:	3d e4             	  clr.b a14;
    2574:	7e 03 23 00       	  call 0x2303;
    2578:	bf 09             	  ldd.w a9 a0;
    257a:	b3 94 16 1b       	  cmpbrne.w a9 0x16 0x2595;
    257e:	98 1c 0e          	  ldd.w a12 a1 0x38;
    2581:	98 1d 0f          	  ldd.w a13 a1 0x3c;
    2584:	98 0a 04          	  ldd.w a10 a0 0x10;
    2587:	b0 21 00          	  stdsp.w a2 0x0;
    258a:	db ec 01 00 00    	  mvi a11 0x1ec;
    258f:	3d e4             	  clr.b a14;
    2591:	7e 03 23 00       	  call 0x2303;
    2595:	90 00 20          	  add.w a0 a0 0x20;
    2598:	a6 07             	  cmp.w a0 a7;
    259a:	f5 1b 33 ff       	  brne 0x24cd;
    259e:	09 01             	  mvi a9 0x1;
    25a0:	20 09             	  std.b a0 a9;
    25a2:	94 4d 02          	  lsl.w a13 a4 0x2;
    25a5:	d9 5c 14 00 00    	  mvi a9 0x145c;
    25aa:	df 4c 14 00 00    	  mvi a15 0x144c;
    25af:	bc d9 d0          	  add.w a13 a13 a9;
    25b2:	0a ff             	  mvi a10 -0x1;
    25b4:	de 4c 2a 00 00    	  mvi a14 0x2a4c;
    25b9:	bf f9             	  ldd.w a9 a15;
    25bb:	a6 69             	  cmp.w a6 a9;
    25bd:	f4 1b 2f          	  brne 0x25ec;
    25c0:	98 f9 01          	  ldd.w a9 a15 0x4;
    25c3:	a6 59             	  cmp.w a5 a9;
    25c5:	f4 1b 27          	  brne 0x25ec;
    25c8:	18 f9 08          	  ldd.b a9 a15 0x8;
    25cb:	33 94 01 21       	  cmpbrne.b a9 0x1 0x25ec;
    25cf:	b3 30 01 14       	  cmpbreq.w a3 0x1 0x25e3;
    25d3:	b0 36 01          	  cmp.w a3 0x1;
    25d6:	f4 08 0d          	  brc 0x25e3;
    25d9:	0a ff             	  mvi a10 -0x1;
    25db:	b3 34 02 11       	  cmpbrne.w a3 0x2 0x25ec;
    25df:	3e ea 25 00       	  jmp 0x25ea;
    25e3:	98 fa 03          	  ldd.w a10 a15 0xc;
    25e6:	3e ec 25 00       	  jmp 0x25ec;
    25ea:	bf da             	  ldd.w a10 a13;
    25ec:	90 ff 20          	  add.w a15 a15 0x20;
    25ef:	90 dd 20          	  add.w a13 a13 0x20;
    25f2:	a6 fe             	  cmp.w a15 a14;
    25f4:	f4 1b c5          	  brne 0x25b9;
    25f7:	09 ff             	  mvi a9 -0x1;
    25f9:	a6 a9             	  cmp.w a10 a9;
    25fb:	f4 1b 0d          	  brne 0x2608;
    25fe:	0f 19             	  mvi a15 0x19;
    2600:	49 00 11          	  mvi a9 0x1100;
    2603:	f7 9f 00          	  stxb a9 0x0 a15;
    2606:	f8 02             	  halt;
    2608:	fe 49 01          	  rspr a9 SP;
    260b:	90 99 24          	  add.w a9 a9 0x24;
    260e:	bf 9f             	  ldd.w a15 a9;
    2610:	d9 2c 06 00 00    	  mvi a9 0x62c;
    2615:	bf 99             	  ldd.w a9 a9;
    2617:	a6 f9             	  cmp.w a15 a9;
    2619:	f4 0b 07          	  breq 0x2620;
    261c:	7e e9 42 00       	  call 0x42e9;
    2620:	f4 30 04          	  addsp 0x4;
    2623:	fb 75 04          	  popma a7 0x1 0x4;

00002626 <_soeDmaSetSysAddr_LR10>:
    2626:	f4 30 f4          	  addsp -0xc;
    2629:	f9 12             	  pushm a1;
    262b:	d1 2c 06 00 00    	  mvi a1 0x62c;
    2630:	bf 19             	  ldd.w a9 a1;
    2632:	fe 40 01          	  rspr a0 SP;
    2635:	90 00 10          	  add.w a0 a0 0x10;
    2638:	a0 ca             	  std.w a12 a10;
    263a:	a0 09             	  std.w a0 a9;
    263c:	bd 94             	  clr.w a9;
    263e:	b5 cb 01          	  std.w a12 0x4 a11;
    2641:	b5 c9 02          	  std.w a12 0x8 a9;
    2644:	d9 0c 14 00 00    	  mvi a9 0x140c;
    2649:	bf 9f             	  ldd.w a15 a9;
    264b:	fe 49 01          	  rspr a9 SP;
    264e:	90 99 08          	  add.w a9 a9 0x8;
    2651:	b5 9b 01          	  std.w a9 0x4 a11;
    2654:	a0 9a             	  std.w a9 a10;
    2656:	b6 b5 11          	  lsr.w a11 0x11;
    2659:	b8 fa d8 02 00    	  add.w a10 a15 0x2d8;
    265e:	7e b1 1c 00       	  call 0x1cb1;
    2662:	bf 0f             	  ldd.w a15 a0;
    2664:	bf 19             	  ldd.w a9 a1;
    2666:	a6 f9             	  cmp.w a15 a9;
    2668:	f4 0b 07          	  breq 0x266f;
    266b:	7e e9 42 00       	  call 0x42e9;
    266f:	fb 15 0c          	  popma a1 0x1 0xc;

00002672 <_soeDmaReadFromSysmem_LR10>:
    2672:	f4 30 e8          	  addsp -0x18;
    2675:	f9 52             	  pushm a5;
    2677:	d2 2c 06 00 00    	  mvi a2 0x62c;
    267c:	bf 29             	  ldd.w a9 a2;
    267e:	fe 40 01          	  rspr a0 SP;
    2681:	90 00 18          	  add.w a0 a0 0x18;
    2684:	a0 0b             	  std.w a0 a11;
    2686:	b5 0c 01          	  std.w a0 0x4 a12;
    2689:	b2 e5             	  mv.w a5 a14;
    268b:	b2 d4             	  mv.w a4 a13;
    268d:	b2 a3             	  mv.w a3 a10;
    268f:	fe 41 01          	  rspr a1 SP;
    2692:	90 11 2c          	  add.w a1 a1 0x2c;
    2695:	a0 19             	  std.w a1 a9;
    2697:	7e 06 0e 00       	  call 0xe06;
    269b:	7e 74 0a 00       	  call 0xa74;
    269f:	98 0b 01          	  ldd.w a11 a0 0x4;
    26a2:	bf 0a             	  ldd.w a10 a0;
    26a4:	fe 40 01          	  rspr a0 SP;
    26a7:	90 00 20          	  add.w a0 a0 0x20;
    26aa:	b2 0c             	  mv.w a12 a0;
    26ac:	7e 26 26 00       	  call 0x2626;
    26b0:	b2 0b             	  mv.w a11 a0;
    26b2:	b2 4c             	  mv.w a12 a4;
    26b4:	b2 5d             	  mv.w a13 a5;
    26b6:	b2 3a             	  mv.w a10 a3;
    26b8:	7e cc 0d 00       	  call 0xdcc;
    26bc:	32 a0             	  mv.b a0 a10;
    26be:	7e 9b 0a 00       	  call 0xa9b;
    26c2:	7e dd 0d 00       	  call 0xddd;
    26c6:	bf 1f             	  ldd.w a15 a1;
    26c8:	bf 29             	  ldd.w a9 a2;
    26ca:	32 0a             	  mv.b a10 a0;
    26cc:	a6 f9             	  cmp.w a15 a9;
    26ce:	f4 0b 07          	  breq 0x26d5;
    26d1:	7e e9 42 00       	  call 0x42e9;
    26d5:	fb 55 18          	  popma a5 0x1 0x18;

000026d8 <_soeDmaWriteToSysmem_LR10>:
    26d8:	f4 30 e8          	  addsp -0x18;
    26db:	f9 52             	  pushm a5;
    26dd:	d2 2c 06 00 00    	  mvi a2 0x62c;
    26e2:	bf 29             	  ldd.w a9 a2;
    26e4:	fe 40 01          	  rspr a0 SP;
    26e7:	90 00 18          	  add.w a0 a0 0x18;
    26ea:	a0 0b             	  std.w a0 a11;
    26ec:	b5 0c 01          	  std.w a0 0x4 a12;
    26ef:	b2 e5             	  mv.w a5 a14;
    26f1:	b2 d4             	  mv.w a4 a13;
    26f3:	b2 a3             	  mv.w a3 a10;
    26f5:	fe 41 01          	  rspr a1 SP;
    26f8:	90 11 2c          	  add.w a1 a1 0x2c;
    26fb:	a0 19             	  std.w a1 a9;
    26fd:	7e 06 0e 00       	  call 0xe06;
    2701:	7e 74 0a 00       	  call 0xa74;
    2705:	98 0b 01          	  ldd.w a11 a0 0x4;
    2708:	bf 0a             	  ldd.w a10 a0;
    270a:	fe 40 01          	  rspr a0 SP;
    270d:	90 00 20          	  add.w a0 a0 0x20;
    2710:	b2 0c             	  mv.w a12 a0;
    2712:	7e 26 26 00       	  call 0x2626;
    2716:	b2 0b             	  mv.w a11 a0;
    2718:	b2 4c             	  mv.w a12 a4;
    271a:	b2 5d             	  mv.w a13 a5;
    271c:	b2 3a             	  mv.w a10 a3;
    271e:	7e b9 0d 00       	  call 0xdb9;
    2722:	32 a0             	  mv.b a0 a10;
    2724:	7e 9b 0a 00       	  call 0xa9b;
    2728:	7e dd 0d 00       	  call 0xddd;
    272c:	bf 1f             	  ldd.w a15 a1;
    272e:	bf 29             	  ldd.w a9 a2;
    2730:	32 0a             	  mv.b a10 a0;
    2732:	a6 f9             	  cmp.w a15 a9;
    2734:	f4 0b 07          	  breq 0x273b;
    2737:	7e e9 42 00       	  call 0x42e9;
    273b:	fb 55 18          	  popma a5 0x1 0x18;

0000273e <_soeInitPrivRing_LR10>:
    273e:	d9 2c 06 00 00    	  mvi a9 0x62c;
    2743:	bf 99             	  ldd.w a9 a9;
    2745:	f4 30 fc          	  addsp -0x4;
    2748:	fe 4f 01          	  rspr a15 SP;
    274b:	0a 04             	  mvi a10 0x4;
    274d:	a0 f9             	  std.w a15 a9;
    274f:	7e f5 42 00       	  call 0x42f5;
    2753:	33 a0 00 2e       	  cmpbreq.b a10 0x0 0x2781;
    2757:	8a 50 00 12       	  mvi a10 0x120050;
    275b:	7e 22 1c 00       	  call 0x1c22;
    275f:	f0 a4 01          	  and a10 0x1;
    2762:	f4 0b 1f          	  breq 0x2781;
    2765:	8a 58 00 12       	  mvi a10 0x120058;
    2769:	7e 22 1c 00       	  call 0x1c22;
    276d:	b3 a0 00 16       	  cmpbreq.w a10 0x0 0x2783;
    2771:	c4 a9 07          	  and a9 a10 0x7;
    2774:	f4 1b 0d          	  brne 0x2781;
    2777:	0a 02             	  mvi a10 0x2;
    2779:	7e f5 42 00       	  call 0x42f5;
    277d:	33 a4 00 06       	  cmpbrne.b a10 0x0 0x2783;
    2781:	f8 02             	  halt;
    2783:	fe 49 01          	  rspr a9 SP;
    2786:	bf 9f             	  ldd.w a15 a9;
    2788:	d9 2c 06 00 00    	  mvi a9 0x62c;
    278d:	bf 99             	  ldd.w a9 a9;
    278f:	a6 f9             	  cmp.w a15 a9;
    2791:	f4 0b 07          	  breq 0x2798;
    2794:	7e e9 42 00       	  call 0x42e9;
    2798:	f4 30 04          	  addsp 0x4;
    279b:	f8 00             	  ret;

0000279d <_sawEnableThermalAlertIntr_LR10>:
    279d:	d9 0c 14 00 00    	  mvi a9 0x140c;
    27a2:	f4 30 fc          	  addsp -0x4;
    27a5:	f9 12             	  pushm a1;
    27a7:	d1 2c 06 00 00    	  mvi a1 0x62c;
    27ac:	bf 9a             	  ldd.w a10 a9;
    27ae:	bf 19             	  ldd.w a9 a1;
    27b0:	fe 40 01          	  rspr a0 SP;
    27b3:	db 00 00 00 40    	  mvi a11 0x40000000;
    27b8:	90 00 08          	  add.w a0 a0 0x8;
    27bb:	b8 aa b4 08 00    	  add.w a10 a10 0x8b4;
    27c0:	a0 09             	  std.w a0 a9;
    27c2:	7e 2c 9f 00       	  call 0x9f2c;
    27c6:	bf 0f             	  ldd.w a15 a0;
    27c8:	bf 19             	  ldd.w a9 a1;
    27ca:	a6 f9             	  cmp.w a15 a9;
    27cc:	f4 0b 07          	  breq 0x27d3;
    27cf:	7e e9 42 00       	  call 0x42e9;
    27d3:	fb 15 04          	  popma a1 0x1 0x4;

000027d6 <_sawDisableThermalAlertIntr_LR10>:
    27d6:	d9 0c 14 00 00    	  mvi a9 0x140c;
    27db:	f4 30 fc          	  addsp -0x4;
    27de:	f9 12             	  pushm a1;
    27e0:	d1 2c 06 00 00    	  mvi a1 0x62c;
    27e5:	bf 9a             	  ldd.w a10 a9;
    27e7:	bf 19             	  ldd.w a9 a1;
    27e9:	fe 40 01          	  rspr a0 SP;
    27ec:	db 00 00 00 40    	  mvi a11 0x40000000;
    27f1:	90 00 08          	  add.w a0 a0 0x8;
    27f4:	b8 aa c4 08 00    	  add.w a10 a10 0x8c4;
    27f9:	a0 09             	  std.w a0 a9;
    27fb:	7e 2c 9f 00       	  call 0x9f2c;
    27ff:	bf 0f             	  ldd.w a15 a0;
    2801:	bf 19             	  ldd.w a9 a1;
    2803:	a6 f9             	  cmp.w a15 a9;
    2805:	f4 0b 07          	  breq 0x280c;
    2808:	7e e9 42 00       	  call 0x42e9;
    280c:	fb 15 04          	  popma a1 0x1 0x4;

0000280f <_sawDisableThermalOvertIntr_LR10>:
    280f:	d9 0c 14 00 00    	  mvi a9 0x140c;
    2814:	f4 30 fc          	  addsp -0x4;
    2817:	f9 12             	  pushm a1;
    2819:	d1 2c 06 00 00    	  mvi a1 0x62c;
    281e:	bf 9a             	  ldd.w a10 a9;
    2820:	bf 19             	  ldd.w a9 a1;
    2822:	fe 40 01          	  rspr a0 SP;
    2825:	db 00 00 00 80    	  mvi a11 -0x80000000;
    282a:	90 00 08          	  add.w a0 a0 0x8;
    282d:	b8 aa c4 08 00    	  add.w a10 a10 0x8c4;
    2832:	a0 09             	  std.w a0 a9;
    2834:	7e 2c 9f 00       	  call 0x9f2c;
    2838:	bf 0f             	  ldd.w a15 a0;
    283a:	bf 19             	  ldd.w a9 a1;
    283c:	a6 f9             	  cmp.w a15 a9;
    283e:	f4 0b 07          	  breq 0x2845;
    2841:	7e e9 42 00       	  call 0x42e9;
    2845:	fb 15 04          	  popma a1 0x1 0x4;

00002848 <_sawClearThermalAlertIntr_LR10>:
    2848:	df 2c 06 00 00    	  mvi a15 0x62c;
    284d:	bf ff             	  ldd.w a15 a15;
    284f:	f4 30 fc          	  addsp -0x4;
    2852:	fe 49 01          	  rspr a9 SP;
    2855:	a0 9f             	  std.w a9 a15;
    2857:	d9 0c 14 00 00    	  mvi a9 0x140c;
    285c:	bf 99             	  ldd.w a9 a9;
    285e:	8f 00 c0 01       	  mvi a15 0x1c000;
    2862:	90 9a 60          	  add.w a10 a9 0x60;
    2865:	cf f9 00          	  ldx a9 a15 0x0;
    2868:	c7 99 4c          	  uxtr a9 a9 0x4c;
    286b:	b3 90 00 4a       	  cmpbreq.w a9 0x0 0x28b5;
    286f:	b3 90 01 f6       	  cmpbreq.w a9 0x1 0x2865;
    2873:	f8 02             	  halt;
    2875:	3e 65 28 00       	  jmp 0x2865;
    2879:	cf f9 00          	  ldx a9 a15 0x0;
    287c:	c7 99 4c          	  uxtr a9 a9 0x4c;
    287f:	b3 90 00 0e       	  cmpbreq.w a9 0x0 0x288d;
    2883:	b3 90 01 f6       	  cmpbreq.w a9 0x1 0x2879;
    2887:	f8 02             	  halt;
    2889:	3e 79 28 00       	  jmp 0x2879;
    288d:	8b 00 c2 01       	  mvi a11 0x1c200;
    2891:	cf bb 00          	  ldx a11 a11 0x0;
    2894:	d9 18 00 04 04    	  mvi a9 0x4040018;
    2899:	fd b9 05          	  or a11 a9;
    289c:	7e 2c 9f 00       	  call 0x9f2c;
    28a0:	fe 49 01          	  rspr a9 SP;
    28a3:	bf 9f             	  ldd.w a15 a9;
    28a5:	d9 2c 06 00 00    	  mvi a9 0x62c;
    28aa:	bf 99             	  ldd.w a9 a9;
    28ac:	a6 f9             	  cmp.w a15 a9;
    28ae:	f4 0b 28          	  breq 0x28d6;
    28b1:	3e d2 28 00       	  jmp 0x28d2;
    28b5:	89 00 c1 01       	  mvi a9 0x1c100;
    28b9:	f6 9a 00          	  stx a9 0x0 a10;
    28bc:	df f1 00 00 80    	  mvi a15 -0x7fffff0f;
    28c1:	b8 99 00 01 02    	  sub.w a9 a9 0x100;
    28c6:	f7 9f 00          	  stxb a9 0x0 a15;
    28c9:	cf 9f 00          	  ldx a15 a9 0x0;
    28cc:	b2 9f             	  mv.w a15 a9;
    28ce:	3e 79 28 00       	  jmp 0x2879;
    28d2:	7e e9 42 00       	  call 0x42e9;
    28d6:	f4 30 04          	  addsp 0x4;
    28d9:	f8 00             	  ret;

000028db <_sawIsLwlwInReset_LR10>:
    28db:	f4 30 fc          	  addsp -0x4;
    28de:	d9 0c 14 00 00    	  mvi a9 0x140c;
    28e3:	f9 22             	  pushm a2;
    28e5:	bf 99             	  ldd.w a9 a9;
    28e7:	b2 a2             	  mv.w a2 a10;
    28e9:	d1 2c 06 00 00    	  mvi a1 0x62c;
    28ee:	fe 40 01          	  rspr a0 SP;
    28f1:	b8 9a c8 08 00    	  add.w a10 a9 0x8c8;
    28f6:	bf 19             	  ldd.w a9 a1;
    28f8:	90 00 0c          	  add.w a0 a0 0xc;
    28fb:	a0 09             	  std.w a0 a9;
    28fd:	7e 22 1c 00       	  call 0x1c22;
    2901:	bf 0e             	  ldd.w a14 a0;
    2903:	bf 1f             	  ldd.w a15 a1;
    2905:	09 01             	  mvi a9 0x1;
    2907:	bb 92 04          	  lsl.w a9 a2;
    290a:	fd a9 04          	  and a10 a9;
    290d:	f0 ac 0b          	  sgetb a10 0xb;
    2910:	a6 ef             	  cmp.w a14 a15;
    2912:	f4 0b 07          	  breq 0x2919;
    2915:	7e e9 42 00       	  call 0x42e9;
    2919:	fb 25 04          	  popma a2 0x1 0x4;

0000291c <_sawService_LR10>:
    291c:	f4 30 fc          	  addsp -0x4;
    291f:	d9 2c 06 00 00    	  mvi a9 0x62c;
    2924:	f9 02             	  pushm a0;
    2926:	bf 99             	  ldd.w a9 a9;
    2928:	fe 4f 01          	  rspr a15 SP;
    292b:	90 ff 04          	  add.w a15 a15 0x4;
    292e:	a0 f9             	  std.w a15 a9;
    2930:	d9 0c 14 00 00    	  mvi a9 0x140c;
    2935:	bf 9e             	  ldd.w a14 a9;
    2937:	8f 00 c0 01       	  mvi a15 0x1c000;
    293b:	cf f9 00          	  ldx a9 a15 0x0;
    293e:	c7 99 4c          	  uxtr a9 a9 0x4c;
    2941:	b3 99 00 d2 01    	  cmpbreq.w a9 0x0 0x2b13;
    2946:	b3 90 01 f5       	  cmpbreq.w a9 0x1 0x293b;
    294a:	f8 02             	  halt;
    294c:	3e 3b 29 00       	  jmp 0x293b;
    2950:	cf f9 00          	  ldx a9 a15 0x0;
    2953:	c7 99 4c          	  uxtr a9 a9 0x4c;
    2956:	b3 99 00 ae 01    	  cmpbreq.w a9 0x0 0x2b04;
    295b:	b3 90 01 f5       	  cmpbreq.w a9 0x1 0x2950;
    295f:	f8 02             	  halt;
    2961:	3e 50 29 00       	  jmp 0x2950;
    2965:	cf f9 00          	  ldx a9 a15 0x0;
    2968:	c7 99 4c          	  uxtr a9 a9 0x4c;
    296b:	b3 99 00 77 01    	  cmpbreq.w a9 0x0 0x2ae2;
    2970:	b3 90 01 f5       	  cmpbreq.w a9 0x1 0x2965;
    2974:	f8 02             	  halt;
    2976:	3e 65 29 00       	  jmp 0x2965;
    297a:	cf f9 00          	  ldx a9 a15 0x0;
    297d:	c7 99 4c          	  uxtr a9 a9 0x4c;
    2980:	b3 99 00 48 01    	  cmpbreq.w a9 0x0 0x2ac8;
    2985:	b3 90 01 f5       	  cmpbreq.w a9 0x1 0x297a;
    2989:	f8 02             	  halt;
    298b:	3e 7a 29 00       	  jmp 0x297a;
    298f:	7e f2 90 00       	  call 0x90f2;
    2993:	d9 00 00 80 00    	  mvi a9 0x800000;
    2998:	ff 09 94          	  and a9 a0 a9;
    299b:	f4 0b 07          	  breq 0x29a2;
    299e:	7e 31 2d 00       	  call 0x2d31;
    29a2:	d9 0c 14 00 00    	  mvi a9 0x140c;
    29a7:	bf 9e             	  ldd.w a14 a9;
    29a9:	8f 00 c0 01       	  mvi a15 0x1c000;
    29ad:	cf f9 00          	  ldx a9 a15 0x0;
    29b0:	c7 99 4c          	  uxtr a9 a9 0x4c;
    29b3:	b3 99 00 f3 00    	  cmpbreq.w a9 0x0 0x2aa6;
    29b8:	b3 90 01 f5       	  cmpbreq.w a9 0x1 0x29ad;
    29bc:	f8 02             	  halt;
    29be:	3e ad 29 00       	  jmp 0x29ad;
    29c2:	cf f9 00          	  ldx a9 a15 0x0;
    29c5:	c7 99 4c          	  uxtr a9 a9 0x4c;
    29c8:	b3 99 00 cf 00    	  cmpbreq.w a9 0x0 0x2a97;
    29cd:	b3 90 01 f5       	  cmpbreq.w a9 0x1 0x29c2;
    29d1:	f8 02             	  halt;
    29d3:	3e c2 29 00       	  jmp 0x29c2;
    29d7:	cf f9 00          	  ldx a9 a15 0x0;
    29da:	c7 99 4c          	  uxtr a9 a9 0x4c;
    29dd:	b3 99 00 98 00    	  cmpbreq.w a9 0x0 0x2a75;
    29e2:	b3 90 01 f5       	  cmpbreq.w a9 0x1 0x29d7;
    29e6:	f8 02             	  halt;
    29e8:	3e d7 29 00       	  jmp 0x29d7;
    29ec:	cf f9 00          	  ldx a9 a15 0x0;
    29ef:	c7 99 4c          	  uxtr a9 a9 0x4c;
    29f2:	b3 90 00 6e       	  cmpbreq.w a9 0x0 0x2a60;
    29f6:	b3 90 01 f6       	  cmpbreq.w a9 0x1 0x29ec;
    29fa:	f8 02             	  halt;
    29fc:	3e ec 29 00       	  jmp 0x29ec;
    2a00:	7e 0d 7c 00       	  call 0x7c0d;
    2a04:	d9 00 00 00 40    	  mvi a9 0x40000000;
    2a09:	ff 09 94          	  and a9 a0 a9;
    2a0c:	f4 0b 07          	  breq 0x2a13;
    2a0f:	7e 21 7e 00       	  call 0x7e21;
    2a13:	d9 00 00 00 02    	  mvi a9 0x2000000;
    2a18:	df 00 00 00 04    	  mvi a15 0x4000000;
    2a1d:	ff 09 b4          	  and a11 a0 a9;
    2a20:	ff 0f 94          	  and a9 a0 a15;
    2a23:	f4 0b 06          	  breq 0x2a29;
    2a26:	fd bf 05          	  or a11 a15;
    2a29:	df 00 00 00 08    	  mvi a15 0x8000000;
    2a2e:	ff 0f 94          	  and a9 a0 a15;
    2a31:	f4 0b 06          	  breq 0x2a37;
    2a34:	fd bf 05          	  or a11 a15;
    2a37:	d9 0c 14 00 00    	  mvi a9 0x140c;
    2a3c:	bf 9a             	  ldd.w a10 a9;
    2a3e:	b8 aa c4 08 00    	  add.w a10 a10 0x8c4;
    2a43:	7e 2c 9f 00       	  call 0x9f2c;
    2a47:	fe 49 01          	  rspr a9 SP;
    2a4a:	90 99 04          	  add.w a9 a9 0x4;
    2a4d:	bf 9f             	  ldd.w a15 a9;
    2a4f:	d9 2c 06 00 00    	  mvi a9 0x62c;
    2a54:	bf 99             	  ldd.w a9 a9;
    2a56:	a6 f9             	  cmp.w a15 a9;
    2a58:	f5 0b e1 00       	  breq 0x2b39;
    2a5c:	3e 35 2b 00       	  jmp 0x2b35;
    2a60:	89 00 c2 01       	  mvi a9 0x1c200;
    2a64:	cf 99 00          	  ldx a9 a9 0x0;
    2a67:	ff 9d 04          	  and a0 a9 a13;
    2a6a:	95 09 1f          	  lsr.w a9 a0 0x1f;
    2a6d:	b3 94 01 97       	  cmpbrne.w a9 0x1 0x2a04;
    2a71:	3e 00 2a 00       	  jmp 0x2a00;
    2a75:	b8 ef a4 08 00    	  add.w a15 a14 0x8a4;
    2a7a:	89 00 c1 01       	  mvi a9 0x1c100;
    2a7e:	f6 9f 00          	  stx a9 0x0 a15;
    2a81:	df f1 00 00 80    	  mvi a15 -0x7fffff0f;
    2a86:	b8 99 00 01 02    	  sub.w a9 a9 0x100;
    2a8b:	f7 9f 00          	  stxb a9 0x0 a15;
    2a8e:	cf 9f 00          	  ldx a15 a9 0x0;
    2a91:	b2 9f             	  mv.w a15 a9;
    2a93:	3e ec 29 00       	  jmp 0x29ec;
    2a97:	89 00 c2 01       	  mvi a9 0x1c200;
    2a9b:	cf 9d 00          	  ldx a13 a9 0x0;
    2a9e:	8f 00 c0 01       	  mvi a15 0x1c000;
    2aa2:	3e d7 29 00       	  jmp 0x29d7;
    2aa6:	b8 ef 90 08 00    	  add.w a15 a14 0x890;
    2aab:	89 00 c1 01       	  mvi a9 0x1c100;
    2aaf:	f6 9f 00          	  stx a9 0x0 a15;
    2ab2:	df f1 00 00 80    	  mvi a15 -0x7fffff0f;
    2ab7:	b8 99 00 01 02    	  sub.w a9 a9 0x100;
    2abc:	f7 9f 00          	  stxb a9 0x0 a15;
    2abf:	cf 9f 00          	  ldx a15 a9 0x0;
    2ac2:	b2 9f             	  mv.w a15 a9;
    2ac4:	3e c2 29 00       	  jmp 0x29c2;
    2ac8:	89 00 c2 01       	  mvi a9 0x1c200;
    2acc:	cf 99 00          	  ldx a9 a9 0x0;
    2acf:	ff 9d 04          	  and a0 a9 a13;
    2ad2:	d9 00 00 00 01    	  mvi a9 0x1000000;
    2ad7:	ff 09 94          	  and a9 a0 a9;
    2ada:	f5 0b b9 fe       	  breq 0x2993;
    2ade:	3e 8f 29 00       	  jmp 0x298f;
    2ae2:	b8 ef 98 08 00    	  add.w a15 a14 0x898;
    2ae7:	89 00 c1 01       	  mvi a9 0x1c100;
    2aeb:	f6 9f 00          	  stx a9 0x0 a15;
    2aee:	df f1 00 00 80    	  mvi a15 -0x7fffff0f;
    2af3:	b8 99 00 01 02    	  sub.w a9 a9 0x100;
    2af8:	f7 9f 00          	  stxb a9 0x0 a15;
    2afb:	cf 9f 00          	  ldx a15 a9 0x0;
    2afe:	b2 9f             	  mv.w a15 a9;
    2b00:	3e 7a 29 00       	  jmp 0x297a;
    2b04:	89 00 c2 01       	  mvi a9 0x1c200;
    2b08:	cf 9d 00          	  ldx a13 a9 0x0;
    2b0b:	8f 00 c0 01       	  mvi a15 0x1c000;
    2b0f:	3e 65 29 00       	  jmp 0x2965;
    2b13:	b8 ef 84 08 00    	  add.w a15 a14 0x884;
    2b18:	89 00 c1 01       	  mvi a9 0x1c100;
    2b1c:	f6 9f 00          	  stx a9 0x0 a15;
    2b1f:	df f1 00 00 80    	  mvi a15 -0x7fffff0f;
    2b24:	b8 99 00 01 02    	  sub.w a9 a9 0x100;
    2b29:	f7 9f 00          	  stxb a9 0x0 a15;
    2b2c:	cf 9f 00          	  ldx a15 a9 0x0;
    2b2f:	b2 9f             	  mv.w a15 a9;
    2b31:	3e 50 29 00       	  jmp 0x2950;
    2b35:	7e e9 42 00       	  call 0x42e9;
    2b39:	fb 05 04          	  popma a0 0x1 0x4;

00002b3c <_lwlinkIsLinkInReset_LR10>:
    2b3c:	df 2c 06 00 00    	  mvi a15 0x62c;
    2b41:	bf ff             	  ldd.w a15 a15;
    2b43:	f4 30 fc          	  addsp -0x4;
    2b46:	fe 49 01          	  rspr a9 SP;
    2b49:	a0 9f             	  std.w a9 a15;
    2b4b:	8f 00 c0 01       	  mvi a15 0x1c000;
    2b4f:	cf f9 00          	  ldx a9 a15 0x0;
    2b52:	c7 99 4c          	  uxtr a9 a9 0x4c;
    2b55:	b3 90 00 41       	  cmpbreq.w a9 0x0 0x2b96;
    2b59:	b3 90 01 f6       	  cmpbreq.w a9 0x1 0x2b4f;
    2b5d:	f8 02             	  halt;
    2b5f:	3e 4f 2b 00       	  jmp 0x2b4f;
    2b63:	cf f9 00          	  ldx a9 a15 0x0;
    2b66:	c7 99 4c          	  uxtr a9 a9 0x4c;
    2b69:	b3 90 00 0e       	  cmpbreq.w a9 0x0 0x2b77;
    2b6d:	b3 90 01 f6       	  cmpbreq.w a9 0x1 0x2b63;
    2b71:	f8 02             	  halt;
    2b73:	3e 63 2b 00       	  jmp 0x2b63;
    2b77:	8a 00 c2 01       	  mvi a10 0x1c200;
    2b7b:	cf aa 00          	  ldx a10 a10 0x0;
    2b7e:	fe 49 01          	  rspr a9 SP;
    2b81:	bf 9f             	  ldd.w a15 a9;
    2b83:	d9 2c 06 00 00    	  mvi a9 0x62c;
    2b88:	bf 99             	  ldd.w a9 a9;
    2b8a:	c7 aa 01          	  uxtr a10 a10 0x1;
    2b8d:	a6 f9             	  cmp.w a15 a9;
    2b8f:	f4 0b 2d          	  breq 0x2bbc;
    2b92:	3e b8 2b 00       	  jmp 0x2bb8;
    2b96:	b8 af 80 03 00    	  add.w a15 a10 0x380;
    2b9b:	89 00 c1 01       	  mvi a9 0x1c100;
    2b9f:	f6 9f 00          	  stx a9 0x0 a15;
    2ba2:	df f1 00 00 80    	  mvi a15 -0x7fffff0f;
    2ba7:	b8 99 00 01 02    	  sub.w a9 a9 0x100;
    2bac:	f7 9f 00          	  stxb a9 0x0 a15;
    2baf:	cf 9f 00          	  ldx a15 a9 0x0;
    2bb2:	b2 9f             	  mv.w a15 a9;
    2bb4:	3e 63 2b 00       	  jmp 0x2b63;
    2bb8:	7e e9 42 00       	  call 0x42e9;
    2bbc:	f4 30 04          	  addsp 0x4;
    2bbf:	f8 00             	  ret;

00002bc1 <_lwlinkForceSlmAll_LR10>:
    2bc1:	f4 30 fc          	  addsp -0x4;
    2bc4:	d9 2c 06 00 00    	  mvi a9 0x62c;
    2bc9:	f9 82             	  pushm a8;
    2bcb:	bf 99             	  ldd.w a9 a9;
    2bcd:	fe 4f 01          	  rspr a15 SP;
    2bd0:	90 ff 24          	  add.w a15 a15 0x24;
    2bd3:	a0 f9             	  std.w a15 a9;
    2bd5:	33 a9 00 87 00    	  cmpbreq.b a10 0x0 0x2c5c;
    2bda:	bd 04             	  clr.w a0;
    2bdc:	d7 94 2a 00 00    	  mvi a7 0x2a94;
    2be1:	bd 14             	  clr.w a1;
    2be3:	83 00 c0 01       	  mvi a3 0x1c000;
    2be7:	86 00 c1 01       	  mvi a6 0x1c100;
    2beb:	d5 f1 00 00 80    	  mvi a5 -0x7fffff0f;
    2bf0:	84 00 c2 01       	  mvi a4 0x1c200;
    2bf4:	bf 7a             	  ldd.w a10 a7;
    2bf6:	98 7b 01          	  ldd.w a11 a7 0x4;
    2bf9:	b2 0c             	  mv.w a12 a0;
    2bfb:	7e 12 42 00       	  call 0x4212;
    2bff:	f0 a4 01          	  and a10 0x1;
    2c02:	f4 0b 48          	  breq 0x2c4a;
    2c05:	b2 0b             	  mv.w a11 a0;
    2c07:	bd c4             	  clr.w a12;
    2c09:	bd d4             	  clr.w a13;
    2c0b:	0a 08             	  mvi a10 0x8;
    2c0d:	7e 6b 24 00       	  call 0x246b;
    2c11:	b2 a2             	  mv.w a2 a10;
    2c13:	7e 3c 2b 00       	  call 0x2b3c;
    2c17:	33 a4 00 33       	  cmpbrne.b a10 0x0 0x2c4a;
    2c1b:	b8 2a 00 04 00    	  add.w a10 a2 0x400;
    2c20:	cf 39 00          	  ldx a9 a3 0x0;
    2c23:	c7 99 4c          	  uxtr a9 a9 0x4c;
    2c26:	b3 99 00 dc 00    	  cmpbreq.w a9 0x0 0x2d02;
    2c2b:	b3 90 01 f5       	  cmpbreq.w a9 0x1 0x2c20;
    2c2f:	f8 02             	  halt;
    2c31:	3e 20 2c 00       	  jmp 0x2c20;
    2c35:	cf 39 00          	  ldx a9 a3 0x0;
    2c38:	c7 99 4c          	  uxtr a9 a9 0x4c;
    2c3b:	b3 99 00 b9 00    	  cmpbreq.w a9 0x0 0x2cf4;
    2c40:	b3 90 01 f5       	  cmpbreq.w a9 0x1 0x2c35;
    2c44:	f8 02             	  halt;
    2c46:	3e 35 2c 00       	  jmp 0x2c35;
    2c4a:	90 00 01          	  add.w a0 a0 0x1;
    2c4d:	91 11 00          	  addc.w a1 a1 0x0;
    2c50:	b3 04 24 a4       	  cmpbrne.w a0 0x24 0x2bf4;
    2c54:	b3 14 00 a0       	  cmpbrne.w a1 0x0 0x2bf4;
    2c58:	3e da 2c 00       	  jmp 0x2cda;
    2c5c:	bd 04             	  clr.w a0;
    2c5e:	d8 94 2a 00 00    	  mvi a8 0x2a94;
    2c63:	bd 14             	  clr.w a1;
    2c65:	83 00 c0 01       	  mvi a3 0x1c000;
    2c69:	87 00 c1 01       	  mvi a7 0x1c100;
    2c6d:	d6 f1 00 00 80    	  mvi a6 -0x7fffff0f;
    2c72:	85 00 c2 01       	  mvi a5 0x1c200;
    2c76:	04 fe             	  mvi a4 -0x2;
    2c78:	bf 8a             	  ldd.w a10 a8;
    2c7a:	98 8b 01          	  ldd.w a11 a8 0x4;
    2c7d:	b2 0c             	  mv.w a12 a0;
    2c7f:	7e 12 42 00       	  call 0x4212;
    2c83:	f0 a4 01          	  and a10 0x1;
    2c86:	f4 0b 46          	  breq 0x2ccc;
    2c89:	b2 0b             	  mv.w a11 a0;
    2c8b:	bd c4             	  clr.w a12;
    2c8d:	bd d4             	  clr.w a13;
    2c8f:	0a 08             	  mvi a10 0x8;
    2c91:	7e 6b 24 00       	  call 0x246b;
    2c95:	b2 a2             	  mv.w a2 a10;
    2c97:	7e 3c 2b 00       	  call 0x2b3c;
    2c9b:	33 a4 00 31       	  cmpbrne.b a10 0x0 0x2ccc;
    2c9f:	b8 2a 00 04 00    	  add.w a10 a2 0x400;
    2ca4:	cf 39 00          	  ldx a9 a3 0x0;
    2ca7:	c7 99 4c          	  uxtr a9 a9 0x4c;
    2caa:	b3 90 00 73       	  cmpbreq.w a9 0x0 0x2d1d;
    2cae:	b3 90 01 f6       	  cmpbreq.w a9 0x1 0x2ca4;
    2cb2:	f8 02             	  halt;
    2cb4:	3e a4 2c 00       	  jmp 0x2ca4;
    2cb8:	cf 39 00          	  ldx a9 a3 0x0;
    2cbb:	c7 99 4c          	  uxtr a9 a9 0x4c;
    2cbe:	b3 90 00 51       	  cmpbreq.w a9 0x0 0x2d0f;
    2cc2:	b3 90 01 f6       	  cmpbreq.w a9 0x1 0x2cb8;
    2cc6:	f8 02             	  halt;
    2cc8:	3e b8 2c 00       	  jmp 0x2cb8;
    2ccc:	90 00 01          	  add.w a0 a0 0x1;
    2ccf:	91 11 00          	  addc.w a1 a1 0x0;
    2cd2:	b3 04 24 a6       	  cmpbrne.w a0 0x24 0x2c78;
    2cd6:	b3 14 00 a2       	  cmpbrne.w a1 0x0 0x2c78;
    2cda:	fe 49 01          	  rspr a9 SP;
    2cdd:	90 99 24          	  add.w a9 a9 0x24;
    2ce0:	bf 9f             	  ldd.w a15 a9;
    2ce2:	d9 2c 06 00 00    	  mvi a9 0x62c;
    2ce7:	bf 99             	  ldd.w a9 a9;
    2ce9:	3d a4             	  clr.b a10;
    2ceb:	a6 f9             	  cmp.w a15 a9;
    2ced:	f4 0b 41          	  breq 0x2d2e;
    2cf0:	3e 2a 2d 00       	  jmp 0x2d2a;
    2cf4:	cf 4b 00          	  ldx a11 a4 0x0;
    2cf7:	f0 b5 01          	  or a11 0x1;
    2cfa:	7e 6f 47 00       	  call 0x476f;
    2cfe:	3e 4a 2c 00       	  jmp 0x2c4a;
    2d02:	f6 6a 00          	  stx a6 0x0 a10;
    2d05:	f7 35 00          	  stxb a3 0x0 a5;
    2d08:	cf 39 00          	  ldx a9 a3 0x0;
    2d0b:	3e 35 2c 00       	  jmp 0x2c35;
    2d0f:	cf 5b 00          	  ldx a11 a5 0x0;
    2d12:	fd b4 04          	  and a11 a4;
    2d15:	7e 6f 47 00       	  call 0x476f;
    2d19:	3e cc 2c 00       	  jmp 0x2ccc;
    2d1d:	f6 7a 00          	  stx a7 0x0 a10;
    2d20:	f7 36 00          	  stxb a3 0x0 a6;
    2d23:	cf 39 00          	  ldx a9 a3 0x0;
    2d26:	3e b8 2c 00       	  jmp 0x2cb8;
    2d2a:	7e e9 42 00       	  call 0x42e9;
    2d2e:	fb 85 04          	  popma a8 0x1 0x4;

00002d31 <_pmgrService_LR10>:
    2d31:	f4 30 fc          	  addsp -0x4;
    2d34:	df 2c 06 00 00    	  mvi a15 0x62c;
    2d39:	f9 02             	  pushm a0;
    2d3b:	bf ff             	  ldd.w a15 a15;
    2d3d:	fe 49 01          	  rspr a9 SP;
    2d40:	90 99 04          	  add.w a9 a9 0x4;
    2d43:	a0 9f             	  std.w a9 a15;
    2d45:	8f 00 c0 01       	  mvi a15 0x1c000;
    2d49:	cf f9 00          	  ldx a9 a15 0x0;
    2d4c:	c7 99 4c          	  uxtr a9 a9 0x4c;
    2d4f:	b3 90 00 4f       	  cmpbreq.w a9 0x0 0x2d9e;
    2d53:	b3 90 01 f6       	  cmpbreq.w a9 0x1 0x2d49;
    2d57:	f8 02             	  halt;
    2d59:	3e 49 2d 00       	  jmp 0x2d49;
    2d5d:	cf f9 00          	  ldx a9 a15 0x0;
    2d60:	c7 99 4c          	  uxtr a9 a9 0x4c;
    2d63:	b3 90 00 2a       	  cmpbreq.w a9 0x0 0x2d8d;
    2d67:	b3 90 01 f6       	  cmpbreq.w a9 0x1 0x2d5d;
    2d6b:	f8 02             	  halt;
    2d6d:	3e 5d 2d 00       	  jmp 0x2d5d;
    2d71:	7e da 2d 00       	  call 0x2dda;
    2d75:	c4 09 30          	  and a9 a0 0x30;
    2d78:	f4 0b 07          	  breq 0x2d7f;
    2d7b:	7e 5a 2e 00       	  call 0x2e5a;
    2d7f:	c4 09 40          	  and a9 a0 0x40;
    2d82:	f4 0b 3d          	  breq 0x2dbf;
    2d85:	7e 92 2e 00       	  call 0x2e92;
    2d89:	3e bf 2d 00       	  jmp 0x2dbf;
    2d8d:	89 00 c2 01       	  mvi a9 0x1c200;
    2d91:	cf 90 00          	  ldx a0 a9 0x0;
    2d94:	c4 09 01          	  and a9 a0 0x1;
    2d97:	f4 0b de          	  breq 0x2d75;
    2d9a:	3e 71 2d 00       	  jmp 0x2d71;
    2d9e:	8f 48 b0 01       	  mvi a15 0x1b048;
    2da2:	89 00 c1 01       	  mvi a9 0x1c100;
    2da6:	f6 9f 00          	  stx a9 0x0 a15;
    2da9:	df f1 00 00 80    	  mvi a15 -0x7fffff0f;
    2dae:	b8 99 00 01 02    	  sub.w a9 a9 0x100;
    2db3:	f7 9f 00          	  stxb a9 0x0 a15;
    2db6:	cf 9f 00          	  ldx a15 a9 0x0;
    2db9:	b2 9f             	  mv.w a15 a9;
    2dbb:	3e 5d 2d 00       	  jmp 0x2d5d;
    2dbf:	fe 49 01          	  rspr a9 SP;
    2dc2:	90 99 04          	  add.w a9 a9 0x4;
    2dc5:	bf 9f             	  ldd.w a15 a9;
    2dc7:	d9 2c 06 00 00    	  mvi a9 0x62c;
    2dcc:	bf 99             	  ldd.w a9 a9;
    2dce:	a6 f9             	  cmp.w a15 a9;
    2dd0:	f4 0b 07          	  breq 0x2dd7;
    2dd3:	7e e9 42 00       	  call 0x42e9;
    2dd7:	fb 05 04          	  popma a0 0x1 0x4;

00002dda <_i2cService_LR10>:
    2dda:	df 2c 06 00 00    	  mvi a15 0x62c;
    2ddf:	bf ff             	  ldd.w a15 a15;
    2de1:	f4 30 fc          	  addsp -0x4;
    2de4:	fe 49 01          	  rspr a9 SP;
    2de7:	a0 9f             	  std.w a9 a15;
    2de9:	8f 00 c0 01       	  mvi a15 0x1c000;
    2ded:	cf f9 00          	  ldx a9 a15 0x0;
    2df0:	c7 99 4c          	  uxtr a9 a9 0x4c;
    2df3:	b3 90 00 22       	  cmpbreq.w a9 0x0 0x2e15;
    2df7:	b3 90 01 f6       	  cmpbreq.w a9 0x1 0x2ded;
    2dfb:	f8 02             	  halt;
    2dfd:	3e ed 2d 00       	  jmp 0x2ded;
    2e01:	cf f9 00          	  ldx a9 a15 0x0;
    2e04:	c7 99 4c          	  uxtr a9 a9 0x4c;
    2e07:	b3 90 00 39       	  cmpbreq.w a9 0x0 0x2e40;
    2e0b:	b3 90 01 f6       	  cmpbreq.w a9 0x1 0x2e01;
    2e0f:	f8 02             	  halt;
    2e11:	3e 01 2e 00       	  jmp 0x2e01;
    2e15:	8f 24 ad 01       	  mvi a15 0x1ad24;
    2e19:	89 00 c1 01       	  mvi a9 0x1c100;
    2e1d:	f6 9f 00          	  stx a9 0x0 a15;
    2e20:	bd f4             	  clr.w a15;
    2e22:	b8 99 00 01 00    	  add.w a9 a9 0x100;
    2e27:	f6 9f 00          	  stx a9 0x0 a15;
    2e2a:	df f2 00 00 80    	  mvi a15 -0x7fffff0e;
    2e2f:	b8 99 00 02 02    	  sub.w a9 a9 0x200;
    2e34:	f6 9f 00          	  stx a9 0x0 a15;
    2e37:	cf 9f 00          	  ldx a15 a9 0x0;
    2e3a:	b2 9f             	  mv.w a15 a9;
    2e3c:	3e 01 2e 00       	  jmp 0x2e01;
    2e40:	fe 49 01          	  rspr a9 SP;
    2e43:	bf 9f             	  ldd.w a15 a9;
    2e45:	d9 2c 06 00 00    	  mvi a9 0x62c;
    2e4a:	bf 99             	  ldd.w a9 a9;
    2e4c:	a6 f9             	  cmp.w a15 a9;
    2e4e:	f4 0b 07          	  breq 0x2e55;
    2e51:	7e e9 42 00       	  call 0x42e9;
    2e55:	f4 30 04          	  addsp 0x4;
    2e58:	f8 00             	  ret;

00002e5a <_gpioService_LR10>:
    2e5a:	f4 30 fc          	  addsp -0x4;
    2e5d:	f9 12             	  pushm a1;
    2e5f:	d1 2c 06 00 00    	  mvi a1 0x62c;
    2e64:	bf 19             	  ldd.w a9 a1;
    2e66:	8a 04 ad 01       	  mvi a10 0x1ad04;
    2e6a:	bd b4             	  clr.w a11;
    2e6c:	fe 40 01          	  rspr a0 SP;
    2e6f:	90 00 08          	  add.w a0 a0 0x8;
    2e72:	a0 09             	  std.w a0 a9;
    2e74:	7e e9 47 00       	  call 0x47e9;
    2e78:	8a 84 ad 01       	  mvi a10 0x1ad84;
    2e7c:	bd b4             	  clr.w a11;
    2e7e:	7e e9 47 00       	  call 0x47e9;
    2e82:	bf 0f             	  ldd.w a15 a0;
    2e84:	bf 19             	  ldd.w a9 a1;
    2e86:	a6 f9             	  cmp.w a15 a9;
    2e88:	f4 0b 07          	  breq 0x2e8f;
    2e8b:	7e e9 42 00       	  call 0x42e9;
    2e8f:	fb 15 04          	  popma a1 0x1 0x4;

00002e92 <_spiService_LR10>:
    2e92:	df 2c 06 00 00    	  mvi a15 0x62c;
    2e97:	bf ff             	  ldd.w a15 a15;
    2e99:	f4 30 fc          	  addsp -0x4;
    2e9c:	fe 49 01          	  rspr a9 SP;
    2e9f:	a0 9f             	  std.w a9 a15;
    2ea1:	8f 00 c0 01       	  mvi a15 0x1c000;
    2ea5:	cf f9 00          	  ldx a9 a15 0x0;
    2ea8:	c7 99 4c          	  uxtr a9 a9 0x4c;
    2eab:	b3 90 00 22       	  cmpbreq.w a9 0x0 0x2ecd;
    2eaf:	b3 90 01 f6       	  cmpbreq.w a9 0x1 0x2ea5;
    2eb3:	f8 02             	  halt;
    2eb5:	3e a5 2e 00       	  jmp 0x2ea5;
    2eb9:	cf f9 00          	  ldx a9 a15 0x0;
    2ebc:	c7 99 4c          	  uxtr a9 a9 0x4c;
    2ebf:	b3 90 00 39       	  cmpbreq.w a9 0x0 0x2ef8;
    2ec3:	b3 90 01 f6       	  cmpbreq.w a9 0x1 0x2eb9;
    2ec7:	f8 02             	  halt;
    2ec9:	3e b9 2e 00       	  jmp 0x2eb9;
    2ecd:	8f a4 ad 01       	  mvi a15 0x1ada4;
    2ed1:	89 00 c1 01       	  mvi a9 0x1c100;
    2ed5:	f6 9f 00          	  stx a9 0x0 a15;
    2ed8:	bd f4             	  clr.w a15;
    2eda:	b8 99 00 01 00    	  add.w a9 a9 0x100;
    2edf:	f6 9f 00          	  stx a9 0x0 a15;
    2ee2:	df f2 00 00 80    	  mvi a15 -0x7fffff0e;
    2ee7:	b8 99 00 02 02    	  sub.w a9 a9 0x200;
    2eec:	f6 9f 00          	  stx a9 0x0 a15;
    2eef:	cf 9f 00          	  ldx a15 a9 0x0;
    2ef2:	b2 9f             	  mv.w a15 a9;
    2ef4:	3e b9 2e 00       	  jmp 0x2eb9;
    2ef8:	fe 49 01          	  rspr a9 SP;
    2efb:	bf 9f             	  ldd.w a15 a9;
    2efd:	d9 2c 06 00 00    	  mvi a9 0x62c;
    2f02:	bf 99             	  ldd.w a9 a9;
    2f04:	a6 f9             	  cmp.w a15 a9;
    2f06:	f4 0b 07          	  breq 0x2f0d;
    2f09:	7e e9 42 00       	  call 0x42e9;
    2f0d:	f4 30 04          	  addsp 0x4;
    2f10:	f8 00             	  ret;

00002f12 <_spiRomLookup_LR10>:
    2f12:	df 2c 06 00 00    	  mvi a15 0x62c;
    2f17:	bf ff             	  ldd.w a15 a15;
    2f19:	f4 30 fc          	  addsp -0x4;
    2f1c:	fe 49 01          	  rspr a9 SP;
    2f1f:	95 be 18          	  lsr.w a14 a11 0x18;
    2f22:	a0 9f             	  std.w a9 a15;
    2f24:	b2 ad             	  mv.w a13 a10;
    2f26:	95 b9 10          	  lsr.w a9 a11 0x10;
    2f29:	df a8 05 00 00    	  mvi a15 0x5a8;
    2f2e:	76 94 08          	  lsl.h a9 0x8;
    2f31:	b6 b5 08          	  lsr.w a11 0x8;
    2f34:	ff 9e e5          	  or a14 a9 a14;
    2f37:	3e 5c 2f 00       	  jmp 0x2f5c;
    2f3b:	26 9b             	  cmp.b a9 a11;
    2f3d:	f4 1b 1c          	  brne 0x2f59;
    2f40:	58 f9 01          	  ldd.h a9 a15 0x2;
    2f43:	66 9e             	  cmp.h a9 a14;
    2f45:	f4 1b 14          	  brne 0x2f59;
    2f48:	7f f9             	  ldd.h a9 a15;
    2f4a:	3d a4             	  clr.b a10;
    2f4c:	75 d9 08          	  std.h a13 0x10 a9;
    2f4f:	58 ff 01          	  ldd.h a15 a15 0x2;
    2f52:	75 df 09          	  std.h a13 0x12 a15;
    2f55:	3e 64 2f 00       	  jmp 0x2f64;
    2f59:	90 ff 04          	  add.w a15 a15 0x4;
    2f5c:	3f f9             	  ldd.b a9 a15;
    2f5e:	33 94 00 dd       	  cmpbrne.b a9 0x0 0x2f3b;
    2f62:	0a 01             	  mvi a10 0x1;
    2f64:	fe 49 01          	  rspr a9 SP;
    2f67:	bf 9f             	  ldd.w a15 a9;
    2f69:	d9 2c 06 00 00    	  mvi a9 0x62c;
    2f6e:	bf 99             	  ldd.w a9 a9;
    2f70:	a6 f9             	  cmp.w a15 a9;
    2f72:	f4 0b 07          	  breq 0x2f79;
    2f75:	7e e9 42 00       	  call 0x42e9;
    2f79:	f4 30 04          	  addsp 0x4;
    2f7c:	f8 00             	  ret;

00002f7e <_spiRomGetStatus_LR10>:
    2f7e:	df 2c 06 00 00    	  mvi a15 0x62c;
    2f83:	bf ff             	  ldd.w a15 a15;
    2f85:	f4 30 fc          	  addsp -0x4;
    2f88:	fe 49 01          	  rspr a9 SP;
    2f8b:	a0 9f             	  std.w a9 a15;
    2f8d:	b2 a9             	  mv.w a9 a10;
    2f8f:	0a 02             	  mvi a10 0x2;
    2f91:	b3 b0 00 0b       	  cmpbreq.w a11 0x0 0x2f9c;
    2f95:	b6 95 08          	  lsr.w a9 0x8;
    2f98:	3d a4             	  clr.b a10;
    2f9a:	20 b9             	  std.b a11 a9;
    2f9c:	fe 49 01          	  rspr a9 SP;
    2f9f:	bf 9f             	  ldd.w a15 a9;
    2fa1:	d9 2c 06 00 00    	  mvi a9 0x62c;
    2fa6:	bf 99             	  ldd.w a9 a9;
    2fa8:	a6 f9             	  cmp.w a15 a9;
    2faa:	f4 0b 07          	  breq 0x2fb1;
    2fad:	7e e9 42 00       	  call 0x42e9;
    2fb1:	f4 30 04          	  addsp 0x4;
    2fb4:	f8 00             	  ret;

00002fb6 <_spiRomInitInforomRegionFromScratch_LR10>:
    2fb6:	f4 30 fc          	  addsp -0x4;
    2fb9:	df 2c 06 00 00    	  mvi a15 0x62c;
    2fbe:	f9 02             	  pushm a0;
    2fc0:	bf ff             	  ldd.w a15 a15;
    2fc2:	fe 49 01          	  rspr a9 SP;
    2fc5:	90 99 04          	  add.w a9 a9 0x4;
    2fc8:	b2 a0             	  mv.w a0 a10;
    2fca:	a0 9f             	  std.w a9 a15;
    2fcc:	b3 a0 00 65       	  cmpbreq.w a10 0x0 0x3031;
    2fd0:	98 a9 05          	  ldd.w a9 a10 0x14;
    2fd3:	b3 90 00 5e       	  cmpbreq.w a9 0x0 0x3031;
    2fd7:	d9 0c 14 00 00    	  mvi a9 0x140c;
    2fdc:	bf 9a             	  ldd.w a10 a9;
    2fde:	b8 aa e8 04 00    	  add.w a10 a10 0x4e8;
    2fe3:	7e 22 1c 00       	  call 0x1c22;
    2fe7:	e7 a9 68 01       	  uxtr a9 a10 0x168;
    2feb:	b3 9a ff 0f 4c    	  cmpbreq.w a9 0xfff 0x3037;
    2ff0:	b3 90 00 47       	  cmpbreq.w a9 0x0 0x3037;
    2ff4:	b6 a5 14          	  lsr.w a10 0x14;
    2ff7:	b3 aa ff 0f 40    	  cmpbreq.w a10 0xfff 0x3037;
    2ffc:	b3 a0 00 3b       	  cmpbreq.w a10 0x0 0x3037;
    3000:	98 0e 05          	  ldd.w a14 a0 0x14;
    3003:	b6 94 0c          	  lsl.w a9 0xc;
    3006:	94 af 0c          	  lsl.w a15 a10 0xc;
    3009:	3d a4             	  clr.b a10;
    300b:	a0 e9             	  std.w a14 a9;
    300d:	98 0e 05          	  ldd.w a14 a0 0x14;
    3010:	bf e9             	  ldd.w a9 a14;
    3012:	bc f9 f0          	  add.w a15 a15 a9;
    3015:	b5 ef 01          	  std.w a14 0x4 a15;
    3018:	98 0f 07          	  ldd.w a15 a0 0x1c;
    301b:	bd 94             	  clr.w a9;
    301d:	a0 f9             	  std.w a15 a9;
    301f:	98 09 05          	  ldd.w a9 a0 0x14;
    3022:	98 0f 07          	  ldd.w a15 a0 0x1c;
    3025:	bf 99             	  ldd.w a9 a9;
    3027:	92 99 01          	  sub.w a9 a9 0x1;
    302a:	b5 f9 01          	  std.w a15 0x4 a9;
    302d:	3e 39 30 00       	  jmp 0x3039;
    3031:	0a 35             	  mvi a10 0x35;
    3033:	3e 39 30 00       	  jmp 0x3039;
    3037:	0a 2e             	  mvi a10 0x2e;
    3039:	fe 49 01          	  rspr a9 SP;
    303c:	90 99 04          	  add.w a9 a9 0x4;
    303f:	bf 9f             	  ldd.w a15 a9;
    3041:	d9 2c 06 00 00    	  mvi a9 0x62c;
    3046:	bf 99             	  ldd.w a9 a9;
    3048:	a6 f9             	  cmp.w a15 a9;
    304a:	f4 0b 07          	  breq 0x3051;
    304d:	7e e9 42 00       	  call 0x42e9;
    3051:	fb 05 04          	  popma a0 0x1 0x4;

00003054 <_spiReadData_LR10>:
    3054:	f4 30 fc          	  addsp -0x4;
    3057:	d9 2c 06 00 00    	  mvi a9 0x62c;
    305c:	f9 32             	  pushm a3;
    305e:	bf 99             	  ldd.w a9 a9;
    3060:	fe 4f 01          	  rspr a15 SP;
    3063:	90 ff 10          	  add.w a15 a15 0x10;
    3066:	a0 f9             	  std.w a15 a9;
    3068:	b2 af             	  mv.w a15 a10;
    306a:	c4 b9 03          	  and a9 a11 0x3;
    306d:	0a 02             	  mvi a10 0x2;
    306f:	f4 1b 32          	  brne 0x30a1;
    3072:	c4 c9 ff          	  and a9 a12 0xff;
    3075:	b2 f2             	  mv.w a2 a15;
    3077:	b8 99 28 39 00    	  add.w a9 a9 0x3928;
    307c:	e7 b3 a2 01       	  uxtr a3 a11 0x1a2;
    3080:	94 91 02          	  lsl.w a1 a9 0x2;
    3083:	bd 04             	  clr.w a0;
    3085:	3e 9a 30 00       	  jmp 0x309a;
    3089:	b2 1a             	  mv.w a10 a1;
    308b:	90 00 01          	  add.w a0 a0 0x1;
    308e:	7e 22 1c 00       	  call 0x1c22;
    3092:	90 11 04          	  add.w a1 a1 0x4;
    3095:	a0 2a             	  std.w a2 a10;
    3097:	90 22 04          	  add.w a2 a2 0x4;
    309a:	a6 03             	  cmp.w a0 a3;
    309c:	f4 08 ed          	  brc 0x3089;
    309f:	3d a4             	  clr.b a10;
    30a1:	fe 49 01          	  rspr a9 SP;
    30a4:	90 99 10          	  add.w a9 a9 0x10;
    30a7:	bf 9f             	  ldd.w a15 a9;
    30a9:	d9 2c 06 00 00    	  mvi a9 0x62c;
    30ae:	bf 99             	  ldd.w a9 a9;
    30b0:	a6 f9             	  cmp.w a15 a9;
    30b2:	f4 0b 07          	  breq 0x30b9;
    30b5:	7e e9 42 00       	  call 0x42e9;
    30b9:	fb 35 04          	  popma a3 0x1 0x4;

000030bc <_spiSetFrequency_LR10>:
    30bc:	f4 30 fc          	  addsp -0x4;
    30bf:	f9 12             	  pushm a1;
    30c1:	bf a9             	  ldd.w a9 a10;
    30c3:	18 af 09          	  ldd.b a15 a10 0x9;
    30c6:	18 ab 08          	  ldd.b a11 a10 0x8;
    30c9:	d0 2c 06 00 00    	  mvi a0 0x62c;
    30ce:	b8 99 69 39 00    	  add.w a9 a9 0x3969;
    30d3:	94 9a 02          	  lsl.w a10 a9 0x2;
    30d6:	bf 09             	  ldd.w a9 a0;
    30d8:	fe 41 01          	  rspr a1 SP;
    30db:	f0 f4 01          	  and a15 0x1;
    30de:	90 11 08          	  add.w a1 a1 0x8;
    30e1:	bc ff f0          	  add.w a15 a15 a15;
    30e4:	a0 19             	  std.w a1 a9;
    30e6:	d9 44 00 88 00    	  mvi a9 0x880044;
    30eb:	f0 b4 01          	  and a11 0x1;
    30ee:	fd b9 05          	  or a11 a9;
    30f1:	fd bf 05          	  or a11 a15;
    30f4:	7e b1 1c 00       	  call 0x1cb1;
    30f8:	bf 1f             	  ldd.w a15 a1;
    30fa:	bf 09             	  ldd.w a9 a0;
    30fc:	3d a4             	  clr.b a10;
    30fe:	a6 f9             	  cmp.w a15 a9;
    3100:	f4 0b 07          	  breq 0x3107;
    3103:	7e e9 42 00       	  call 0x42e9;
    3107:	fb 15 04          	  popma a1 0x1 0x4;

0000310a <_spiRomSerialBypassEnable_LR10>:
    310a:	f4 30 fc          	  addsp -0x4;
    310d:	df 2c 06 00 00    	  mvi a15 0x62c;
    3112:	f9 22             	  pushm a2;
    3114:	bf ff             	  ldd.w a15 a15;
    3116:	fe 49 01          	  rspr a9 SP;
    3119:	90 99 0c          	  add.w a9 a9 0xc;
    311c:	b2 a0             	  mv.w a0 a10;
    311e:	a0 9f             	  std.w a9 a15;
    3120:	32 b1             	  mv.b a1 a11;
    3122:	b2 c2             	  mv.w a2 a12;
    3124:	0a 35             	  mvi a10 0x35;
    3126:	b3 00 00 69       	  cmpbreq.w a0 0x0 0x318f;
    312a:	bf 09             	  ldd.w a9 a0;
    312c:	b3 94 00 61       	  cmpbrne.w a9 0x0 0x318d;
    3130:	98 09 01          	  ldd.w a9 a0 0x4;
    3133:	b3 94 00 5a       	  cmpbrne.w a9 0x0 0x318d;
    3137:	8a 04 e2 00       	  mvi a10 0xe204;
    313b:	7e 22 1c 00       	  call 0x1c22;
    313f:	c4 1e ff          	  and a14 a1 0xff;
    3142:	c4 a9 01          	  and a9 a10 0x1;
    3145:	a6 9e             	  cmp.w a9 a14;
    3147:	f4 1b 09          	  brne 0x3150;
    314a:	3d 94             	  clr.b a9;
    314c:	3e 81 31 00       	  jmp 0x3181;
    3150:	18 0f 08          	  ldd.b a15 a0 0x8;
    3153:	09 f3             	  mvi a9 -0xd;
    3155:	f0 e4 01          	  and a14 0x1;
    3158:	c5 ab 02          	  or a11 a10 0x2;
    315b:	f0 f4 01          	  and a15 0x1;
    315e:	fd b9 04          	  and a11 a9;
    3161:	b6 f4 02          	  lsl.w a15 0x2;
    3164:	09 fe             	  mvi a9 -0x2;
    3166:	fd bf 05          	  or a11 a15;
    3169:	8a 04 e2 00       	  mvi a10 0xe204;
    316d:	fd b9 04          	  and a11 a9;
    3170:	fd be 05          	  or a11 a14;
    3173:	7e b1 1c 00       	  call 0x1cb1;
    3177:	8a 04 e2 00       	  mvi a10 0xe204;
    317b:	7e 22 1c 00       	  call 0x1c22;
    317f:	09 01             	  mvi a9 0x1;
    3181:	b3 20 00 06       	  cmpbreq.w a2 0x0 0x3187;
    3185:	20 29             	  std.b a2 a9;
    3187:	3d a4             	  clr.b a10;
    3189:	3e 8f 31 00       	  jmp 0x318f;
    318d:	0a 01             	  mvi a10 0x1;
    318f:	fe 49 01          	  rspr a9 SP;
    3192:	90 99 0c          	  add.w a9 a9 0xc;
    3195:	bf 9f             	  ldd.w a15 a9;
    3197:	d9 2c 06 00 00    	  mvi a9 0x62c;
    319c:	bf 99             	  ldd.w a9 a9;
    319e:	a6 f9             	  cmp.w a15 a9;
    31a0:	f4 0b 07          	  breq 0x31a7;
    31a3:	7e e9 42 00       	  call 0x42e9;
    31a7:	fb 25 04          	  popma a2 0x1 0x4;

000031aa <_spiRomReadDirect_LR10>:
    31aa:	f4 30 f8          	  addsp -0x8;
    31ad:	df 2c 06 00 00    	  mvi a15 0x62c;
    31b2:	f9 52             	  pushm a5;
    31b4:	bf ff             	  ldd.w a15 a15;
    31b6:	fe 49 01          	  rspr a9 SP;
    31b9:	90 99 1c          	  add.w a9 a9 0x1c;
    31bc:	b2 a3             	  mv.w a3 a10;
    31be:	a0 9f             	  std.w a9 a15;
    31c0:	b2 b0             	  mv.w a0 a11;
    31c2:	72 c2             	  mv.h a2 a12;
    31c4:	b2 d4             	  mv.w a4 a13;
    31c6:	0a 35             	  mvi a10 0x35;
    31c8:	b3 39 00 c7 00    	  cmpbreq.w a3 0x0 0x328f;
    31cd:	73 c9 00 ba 00    	  cmpbreq.h a12 0x0 0x3287;
    31d2:	b3 d9 00 b5 00    	  cmpbreq.w a13 0x0 0x3287;
    31d7:	bf 39             	  ldd.w a9 a3;
    31d9:	b3 9d 00 b4 00    	  cmpbrne.w a9 0x0 0x328d;
    31de:	98 39 01          	  ldd.w a9 a3 0x4;
    31e1:	b3 9d 00 ac 00    	  cmpbrne.w a9 0x0 0x328d;
    31e6:	8a 08 e2 00       	  mvi a10 0xe208;
    31ea:	7e 22 1c 00       	  call 0x1c22;
    31ee:	c4 a9 01          	  and a9 a10 0x1;
    31f1:	f4 0b 0d          	  breq 0x31fe;
    31f4:	e7 a9 a2 02       	  uxtr a9 a10 0x2a2;
    31f8:	b6 94 02          	  lsl.w a9 0x2;
    31fb:	bb 09 02          	  sub.w a0 a9;
    31fe:	fe 4c 01          	  rspr a12 SP;
    3201:	b2 3a             	  mv.w a10 a3;
    3203:	3d b4             	  clr.b a11;
    3205:	90 cc 1b          	  add.w a12 a12 0x1b;
    3208:	7e 0a 31 00       	  call 0x310a;
    320c:	33 ad 00 83 00    	  cmpbrne.b a10 0x0 0x328f;
    3211:	89 00 00 30       	  mvi a9 0x300000;
    3215:	c4 01 03          	  and a1 a0 0x3;
    3218:	05 04             	  mvi a5 0x4;
    321a:	bc 09 00          	  add.w a0 a0 a9;
    321d:	c4 19 ff          	  and a9 a1 0xff;
    3220:	bb 09 02          	  sub.w a0 a9;
    3223:	b2 0a             	  mv.w a10 a0;
    3225:	7e 22 1c 00       	  call 0x1c22;
    3229:	c4 19 ff          	  and a9 a1 0xff;
    322c:	bc 59 f2          	  sub.w a15 a5 a9;
    322f:	e4 29 ff ff       	  and a9 a2 0xffff;
    3233:	a6 f9             	  cmp.w a15 a9;
    3235:	f4 1d 07          	  brslte 0x323c;
    3238:	e4 2f ff ff       	  and a15 a2 0xffff;
    323c:	32 fe             	  mv.b a14 a15;
    323e:	bd f4             	  clr.w a15;
    3240:	3e 56 32 00       	  jmp 0x3256;
    3244:	3c 91 90          	  add.b a9 a9 a1;
    3247:	f0 94 03          	  and a9 0x3;
    324a:	b6 94 03          	  lsl.w a9 0x3;
    324d:	bc a9 95          	  lsr.w a9 a10 a9;
    3250:	3c 49 f9          	  std.b a4 a15 a9;
    3253:	90 ff 01          	  add.w a15 a15 0x1;
    3256:	32 f9             	  mv.b a9 a15;
    3258:	26 fe             	  cmp.b a15 a14;
    325a:	f4 08 ea          	  brc 0x3244;
    325d:	c4 e9 ff          	  and a9 a14 0xff;
    3260:	90 00 04          	  add.w a0 a0 0x4;
    3263:	7b 29 02          	  sub.h a2 a9;
    3266:	73 20 00 0d       	  cmpbreq.h a2 0x0 0x3273;
    326a:	bc 49 40          	  add.w a4 a4 a9;
    326d:	3d 14             	  clr.b a1;
    326f:	3e 23 32 00       	  jmp 0x3223;
    3273:	fe 49 01          	  rspr a9 SP;
    3276:	90 99 1b          	  add.w a9 a9 0x1b;
    3279:	3f 9b             	  ldd.b a11 a9;
    327b:	b2 3a             	  mv.w a10 a3;
    327d:	bd c4             	  clr.w a12;
    327f:	7e 0a 31 00       	  call 0x310a;
    3283:	3e 8f 32 00       	  jmp 0x328f;
    3287:	0a 02             	  mvi a10 0x2;
    3289:	3e 8f 32 00       	  jmp 0x328f;
    328d:	0a 01             	  mvi a10 0x1;
    328f:	fe 49 01          	  rspr a9 SP;
    3292:	90 99 1c          	  add.w a9 a9 0x1c;
    3295:	bf 9f             	  ldd.w a15 a9;
    3297:	d9 2c 06 00 00    	  mvi a9 0x62c;
    329c:	bf 99             	  ldd.w a9 a9;
    329e:	a6 f9             	  cmp.w a15 a9;
    32a0:	f4 0b 07          	  breq 0x32a7;
    32a3:	7e e9 42 00       	  call 0x42e9;
    32a7:	fb 55 08          	  popma a5 0x1 0x8;

000032aa <_spiBusConfigure_LR10>:
    32aa:	f4 30 fc          	  addsp -0x4;
    32ad:	df 2c 06 00 00    	  mvi a15 0x62c;
    32b2:	f9 02             	  pushm a0;
    32b4:	bf ff             	  ldd.w a15 a15;
    32b6:	fe 49 01          	  rspr a9 SP;
    32b9:	90 99 04          	  add.w a9 a9 0x4;
    32bc:	b2 a0             	  mv.w a0 a10;
    32be:	a0 9f             	  std.w a9 a15;
    32c0:	0e 35             	  mvi a14 0x35;
    32c2:	b3 a0 00 1a       	  cmpbreq.w a10 0x0 0x32dc;
    32c6:	3d b4             	  clr.b a11;
    32c8:	bd c4             	  clr.w a12;
    32ca:	7e 0a 31 00       	  call 0x310a;
    32ce:	32 ae             	  mv.b a14 a10;
    32d0:	33 a4 00 0c       	  cmpbrne.b a10 0x0 0x32dc;
    32d4:	b2 0a             	  mv.w a10 a0;
    32d6:	7e bc 30 00       	  call 0x30bc;
    32da:	32 ae             	  mv.b a14 a10;
    32dc:	fe 49 01          	  rspr a9 SP;
    32df:	90 99 04          	  add.w a9 a9 0x4;
    32e2:	bf 9f             	  ldd.w a15 a9;
    32e4:	d9 2c 06 00 00    	  mvi a9 0x62c;
    32e9:	bf 99             	  ldd.w a9 a9;
    32eb:	32 ea             	  mv.b a10 a14;
    32ed:	a6 f9             	  cmp.w a15 a9;
    32ef:	f4 0b 07          	  breq 0x32f6;
    32f2:	7e e9 42 00       	  call 0x42e9;
    32f6:	fb 05 04          	  popma a0 0x1 0x4;

000032f9 <_spiHwWaitForIdle_LR10>:
    32f9:	f4 30 f4          	  addsp -0xc;
    32fc:	d9 2c 06 00 00    	  mvi a9 0x62c;
    3301:	f9 12             	  pushm a1;
    3303:	bf 99             	  ldd.w a9 a9;
    3305:	fe 4f 01          	  rspr a15 SP;
    3308:	90 ff 10          	  add.w a15 a15 0x10;
    330b:	4b e8 03          	  mvi a11 0x3e8;
    330e:	a0 f9             	  std.w a15 a9;
    3310:	7e fc 16 00       	  call 0x16fc;
    3314:	b2 a0             	  mv.w a0 a10;
    3316:	fe 4a 01          	  rspr a10 SP;
    3319:	90 aa 08          	  add.w a10 a10 0x8;
    331c:	b2 a1             	  mv.w a1 a10;
    331e:	7e 81 15 00       	  call 0x1581;
    3322:	8a a0 e5 00       	  mvi a10 0xe5a0;
    3326:	7e 22 1c 00       	  call 0x1c22;
    332a:	b0 a6 00          	  cmp.w a10 0x0;
    332d:	f4 1f 1c          	  brsgte 0x3349;
    3330:	b2 1a             	  mv.w a10 a1;
    3332:	7e 9c 15 00       	  call 0x159c;
    3336:	a6 a0             	  cmp.w a10 a0;
    3338:	f4 0d 09          	  brlte 0x3341;
    333b:	0a 04             	  mvi a10 0x4;
    333d:	3e 4b 33 00       	  jmp 0x334b;
    3341:	7e 0e 00 00       	  call 0xe;
    3345:	3e 22 33 00       	  jmp 0x3322;
    3349:	3d a4             	  clr.b a10;
    334b:	fe 49 01          	  rspr a9 SP;
    334e:	90 99 10          	  add.w a9 a9 0x10;
    3351:	bf 9f             	  ldd.w a15 a9;
    3353:	d9 2c 06 00 00    	  mvi a9 0x62c;
    3358:	bf 99             	  ldd.w a9 a9;
    335a:	a6 f9             	  cmp.w a15 a9;
    335c:	f4 0b 07          	  breq 0x3363;
    335f:	7e e9 42 00       	  call 0x42e9;
    3363:	fb 15 0c          	  popma a1 0x1 0xc;

00003366 <_spiWriteCtrl_LR10>:
    3366:	f4 30 fc          	  addsp -0x4;
    3369:	df 2c 06 00 00    	  mvi a15 0x62c;
    336e:	f9 02             	  pushm a0;
    3370:	bf ff             	  ldd.w a15 a15;
    3372:	fe 49 01          	  rspr a9 SP;
    3375:	90 99 04          	  add.w a9 a9 0x4;
    3378:	b2 b0             	  mv.w a0 a11;
    337a:	a0 9f             	  std.w a9 a15;
    337c:	58 ad 01          	  ldd.h a13 a10 0x2;
    337f:	3f af             	  ldd.b a15 a10;
    3381:	58 a9 02          	  ldd.h a9 a10 0x4;
    3384:	de 00 00 00 80    	  mvi a14 -0x80000000;
    3389:	e4 dc ff ff       	  and a12 a13 0xffff;
    338d:	f0 f4 03          	  and a15 0x3;
    3390:	f0 93 00          	  sethi a9 0x0;
    3393:	b6 f4 12          	  lsl.w a15 0x12;
    3396:	bc 9c 90          	  add.w a9 a9 a12;
    3399:	fd fe 05          	  or a15 a14;
    339c:	92 99 01          	  sub.w a9 a9 0x1;
    339f:	f0 94 ff          	  and a9 0xff;
    33a2:	ff f9 b5          	  or a11 a15 a9;
    33a5:	73 d0 00 18       	  cmpbreq.h a13 0x0 0x33bd;
    33a9:	92 cf 01          	  sub.w a15 a12 0x1;
    33ac:	89 00 00 01       	  mvi a9 0x10000;
    33b0:	b6 f4 08          	  lsl.w a15 0x8;
    33b3:	ff b9 95          	  or a9 a11 a9;
    33b6:	f1 f4 ff ff       	  and a15 0xffff;
    33ba:	ff 9f b5          	  or a11 a9 a15;
    33bd:	18 aa 01          	  ldd.b a10 a10 0x1;
    33c0:	c4 a9 01          	  and a9 a10 0x1;
    33c3:	f4 0b 0a          	  breq 0x33cd;
    33c6:	89 00 00 02       	  mvi a9 0x20000;
    33ca:	fd b9 05          	  or a11 a9;
    33cd:	f0 a4 ff          	  and a10 0xff;
    33d0:	c4 a9 10          	  and a9 a10 0x10;
    33d3:	f4 0b 0b          	  breq 0x33de;
    33d6:	d9 00 00 00 08    	  mvi a9 0x8000000;
    33db:	fd b9 05          	  or a11 a9;
    33de:	c4 a9 04          	  and a9 a10 0x4;
    33e1:	f4 0b 0b          	  breq 0x33ec;
    33e4:	d9 00 00 00 20    	  mvi a9 0x20000000;
    33e9:	fd b9 05          	  or a11 a9;
    33ec:	8a a0 e5 00       	  mvi a10 0xe5a0;
    33f0:	7e b1 1c 00       	  call 0x1cb1;
    33f4:	b2 0a             	  mv.w a10 a0;
    33f6:	7e f9 32 00       	  call 0x32f9;
    33fa:	fe 49 01          	  rspr a9 SP;
    33fd:	90 99 04          	  add.w a9 a9 0x4;
    3400:	bf 9f             	  ldd.w a15 a9;
    3402:	d9 2c 06 00 00    	  mvi a9 0x62c;
    3407:	bf 99             	  ldd.w a9 a9;
    3409:	a6 f9             	  cmp.w a15 a9;
    340b:	f4 0b 07          	  breq 0x3412;
    340e:	7e e9 42 00       	  call 0x42e9;
    3412:	fb 05 04          	  popma a0 0x1 0x4;

00003415 <_spiWriteData_LR10>:
    3415:	f4 30 f8          	  addsp -0x8;
    3418:	df 2c 06 00 00    	  mvi a15 0x62c;
    341d:	f9 52             	  pushm a5;
    341f:	bf ff             	  ldd.w a15 a15;
    3421:	fe 49 01          	  rspr a9 SP;
    3424:	90 99 1c          	  add.w a9 a9 0x1c;
    3427:	b2 a3             	  mv.w a3 a10;
    3429:	a0 9f             	  std.w a9 a15;
    342b:	72 b1             	  mv.h a1 a11;
    342d:	0a 02             	  mvi a10 0x2;
    342f:	71 b6 00 01       	  cmp.h a11 0x100;
    3433:	f4 0c 45          	  brgt 0x3478;
    3436:	fe 44 01          	  rspr a4 SP;
    3439:	82 a0 e4 00       	  mvi a2 0xe4a0;
    343d:	90 44 18          	  add.w a4 a4 0x18;
    3440:	bd 54             	  clr.w a5;
    3442:	3e 72 34 00       	  jmp 0x3472;
    3446:	a0 45             	  std.w a4 a5;
    3448:	72 10             	  mv.h a0 a1;
    344a:	70 16 04          	  cmp.h a1 0x4;
    344d:	f4 0d 05          	  brlte 0x3452;
    3450:	00 04             	  mvi a0 0x4;
    3452:	b2 3b             	  mv.w a11 a3;
    3454:	e4 0c ff ff       	  and a12 a0 0xffff;
    3458:	b2 4a             	  mv.w a10 a4;
    345a:	7e 7e 0b 00       	  call 0xb7e;
    345e:	bf 4b             	  ldd.w a11 a4;
    3460:	b2 2a             	  mv.w a10 a2;
    3462:	7b 10 02          	  sub.h a1 a0;
    3465:	90 22 04          	  add.w a2 a2 0x4;
    3468:	f0 03 00          	  sethi a0 0x0;
    346b:	7e b1 1c 00       	  call 0x1cb1;
    346f:	bc 30 30          	  add.w a3 a3 a0;
    3472:	73 14 00 d4       	  cmpbrne.h a1 0x0 0x3446;
    3476:	3d a4             	  clr.b a10;
    3478:	fe 49 01          	  rspr a9 SP;
    347b:	90 99 1c          	  add.w a9 a9 0x1c;
    347e:	bf 9f             	  ldd.w a15 a9;
    3480:	d9 2c 06 00 00    	  mvi a9 0x62c;
    3485:	bf 99             	  ldd.w a9 a9;
    3487:	a6 f9             	  cmp.w a15 a9;
    3489:	f4 0b 07          	  breq 0x3490;
    348c:	7e e9 42 00       	  call 0x42e9;
    3490:	fb 55 08          	  popma a5 0x1 0x8;

00003493 <_spiBufferTransfer_LR10>:
    3493:	f4 30 fc          	  addsp -0x4;
    3496:	d9 2c 06 00 00    	  mvi a9 0x62c;
    349b:	f9 32             	  pushm a3;
    349d:	bf 99             	  ldd.w a9 a9;
    349f:	fe 4f 01          	  rspr a15 SP;
    34a2:	90 ff 10          	  add.w a15 a15 0x10;
    34a5:	b2 b2             	  mv.w a2 a11;
    34a7:	a0 f9             	  std.w a15 a9;
    34a9:	b2 c3             	  mv.w a3 a12;
    34ab:	58 b9 02          	  ldd.h a9 a11 0x4;
    34ae:	58 bb 01          	  ldd.h a11 a11 0x2;
    34b1:	b3 a0 00 56       	  cmpbreq.w a10 0x0 0x3507;
    34b5:	f0 93 00          	  sethi a9 0x0;
    34b8:	0f fc             	  mvi a15 -0x4;
    34ba:	90 99 03          	  add.w a9 a9 0x3;
    34bd:	e4 b0 ff ff       	  and a0 a11 0xffff;
    34c1:	ff 9f 14          	  and a1 a9 a15;
    34c4:	f4 1b 0b          	  brne 0x34cf;
    34c7:	b3 04 00 0c       	  cmpbrne.w a0 0x0 0x34d3;
    34cb:	3e 07 35 00       	  jmp 0x3507;
    34cf:	b3 00 00 0e       	  cmpbreq.w a0 0x0 0x34dd;
    34d3:	b2 da             	  mv.w a10 a13;
    34d5:	7e 15 34 00       	  call 0x3415;
    34d9:	33 a4 00 30       	  cmpbrne.b a10 0x0 0x3509;
    34dd:	b2 2a             	  mv.w a10 a2;
    34df:	8b 20 a1 07       	  mvi a11 0x7a120;
    34e3:	7e 66 33 00       	  call 0x3366;
    34e7:	33 a4 00 22       	  cmpbrne.b a10 0x0 0x3509;
    34eb:	b3 10 00 1e       	  cmpbreq.w a1 0x0 0x3509;
    34ef:	b0 06 00          	  cmp.w a0 0x0;
    34f2:	f0 cc 0b          	  sgetb a12 0xb;
    34f5:	f0 c6 01          	  xor a12 0x1;
    34f8:	b2 3a             	  mv.w a10 a3;
    34fa:	72 1b             	  mv.h a11 a1;
    34fc:	36 c4 05          	  lsl.b a12 0x5;
    34ff:	7e 54 30 00       	  call 0x3054;
    3503:	3e 09 35 00       	  jmp 0x3509;
    3507:	0a 35             	  mvi a10 0x35;
    3509:	fe 49 01          	  rspr a9 SP;
    350c:	90 99 10          	  add.w a9 a9 0x10;
    350f:	bf 9f             	  ldd.w a15 a9;
    3511:	d9 2c 06 00 00    	  mvi a9 0x62c;
    3516:	bf 99             	  ldd.w a9 a9;
    3518:	a6 f9             	  cmp.w a15 a9;
    351a:	f4 0b 07          	  breq 0x3521;
    351d:	7e e9 42 00       	  call 0x42e9;
    3521:	fb 35 04          	  popma a3 0x1 0x4;

00003524 <_spiRomIsEraseLimitReached_LR10>:
    3524:	f4 30 f8          	  addsp -0x8;
    3527:	df 2c 06 00 00    	  mvi a15 0x62c;
    352c:	f9 12             	  pushm a1;
    352e:	bf ff             	  ldd.w a15 a15;
    3530:	fe 49 01          	  rspr a9 SP;
    3533:	90 99 0c          	  add.w a9 a9 0xc;
    3536:	fe 40 01          	  rspr a0 SP;
    3539:	a0 9f             	  std.w a9 a15;
    353b:	90 00 08          	  add.w a0 a0 0x8;
    353e:	b2 b1             	  mv.w a1 a11;
    3540:	b2 0c             	  mv.w a12 a0;
    3542:	7e e8 50 00       	  call 0x50e8;
    3546:	bf 0f             	  ldd.w a15 a0;
    3548:	58 f9 02          	  ldd.h a9 a15 0x4;
    354b:	98 ff 03          	  ldd.w a15 a15 0xc;
    354e:	f0 93 00          	  sethi a9 0x0;
    3551:	b6 94 0c          	  lsl.w a9 0xc;
    3554:	3e 65 35 00       	  jmp 0x3565;
    3558:	a6 91             	  cmp.w a9 a1;
    355a:	f4 0b 15          	  breq 0x356f;
    355d:	98 ff 06          	  ldd.w a15 a15 0x18;
    3560:	b8 99 00 10 00    	  add.w a9 a9 0x1000;
    3565:	b3 f4 00 f3       	  cmpbrne.w a15 0x0 0x3558;
    3569:	0a 35             	  mvi a10 0x35;
    356b:	3e 84 35 00       	  jmp 0x3584;
    356f:	98 fe 02          	  ldd.w a14 a15 0x8;
    3572:	98 f9 05          	  ldd.w a9 a15 0x14;
    3575:	bf ff             	  ldd.w a15 a15;
    3577:	bc 9f 90          	  add.w a9 a9 a15;
    357a:	a6 9e             	  cmp.w a9 a14;
    357c:	f0 9c 08          	  sgetb a9 0x8;
    357f:	f0 96 01          	  xor a9 0x1;
    3582:	32 9a             	  mv.b a10 a9;
    3584:	fe 49 01          	  rspr a9 SP;
    3587:	90 99 0c          	  add.w a9 a9 0xc;
    358a:	bf 9f             	  ldd.w a15 a9;
    358c:	d9 2c 06 00 00    	  mvi a9 0x62c;
    3591:	bf 99             	  ldd.w a9 a9;
    3593:	a6 f9             	  cmp.w a15 a9;
    3595:	f4 0b 07          	  breq 0x359c;
    3598:	7e e9 42 00       	  call 0x42e9;
    359c:	fb 15 08          	  popma a1 0x1 0x8;

0000359f <_spiRomEraseTally_LR10>:
    359f:	f4 30 e0          	  addsp -0x20;
    35a2:	df 2c 06 00 00    	  mvi a15 0x62c;
    35a7:	f9 82             	  pushm a8;
    35a9:	bf ff             	  ldd.w a15 a15;
    35ab:	b0 b1 09          	  stdsp.w a11 0x24;
    35ae:	fe 49 01          	  rspr a9 SP;
    35b1:	90 99 40          	  add.w a9 a9 0x40;
    35b4:	fe 40 01          	  rspr a0 SP;
    35b7:	a0 9f             	  std.w a9 a15;
    35b9:	90 00 3c          	  add.w a0 a0 0x3c;
    35bc:	b2 a4             	  mv.w a4 a10;
    35be:	b2 0c             	  mv.w a12 a0;
    35c0:	7e e8 50 00       	  call 0x50e8;
    35c4:	bf 03             	  ldd.w a3 a0;
    35c6:	58 39 02          	  ldd.h a9 a3 0x4;
    35c9:	98 31 03          	  ldd.w a1 a3 0xc;
    35cc:	f0 93 00          	  sethi a9 0x0;
    35cf:	b6 94 0c          	  lsl.w a9 0xc;
    35d2:	3e e6 35 00       	  jmp 0x35e6;
    35d6:	b4 e0 09          	  lddsp.w a14 0x24;
    35d9:	a6 9e             	  cmp.w a9 a14;
    35db:	f4 0b 13          	  breq 0x35ee;
    35de:	98 11 06          	  ldd.w a1 a1 0x18;
    35e1:	b8 99 00 10 00    	  add.w a9 a9 0x1000;
    35e6:	b3 14 00 f0       	  cmpbrne.w a1 0x0 0x35d6;
    35ea:	3e b8 37 00       	  jmp 0x37b8;
    35ee:	98 19 05          	  ldd.w a9 a1 0x14;
    35f1:	98 1f 03          	  ldd.w a15 a1 0xc;
    35f4:	98 1e 04          	  ldd.w a14 a1 0x10;
    35f7:	b6 95 03          	  lsr.w a9 0x3;
    35fa:	bc 9f 20          	  add.w a2 a9 a15;
    35fd:	a6 2e             	  cmp.w a2 a14;
    35ff:	f4 0c 4f          	  brgt 0x364e;
    3602:	fe 43 01          	  rspr a3 SP;
    3605:	b2 4a             	  mv.w a10 a4;
    3607:	90 33 38          	  add.w a3 a3 0x38;
    360a:	b2 2b             	  mv.w a11 a2;
    360c:	0c 01             	  mvi a12 0x1;
    360e:	b2 3d             	  mv.w a13 a3;
    3610:	7e aa 31 00       	  call 0x31aa;
    3614:	32 a0             	  mv.b a0 a10;
    3616:	33 ad 00 a4 01    	  cmpbrne.b a10 0x0 0x37ba;
    361b:	bf 39             	  ldd.w a9 a3;
    361d:	4f 00 ff          	  mvi a15 -0x100;
    3620:	fe 4e 01          	  rspr a14 SP;
    3623:	90 ee 34          	  add.w a14 a14 0x34;
    3626:	bc 99 90          	  add.w a9 a9 a9;
    3629:	fd 9f 05          	  or a9 a15;
    362c:	b2 4a             	  mv.w a10 a4;
    362e:	b2 2c             	  mv.w a12 a2;
    3630:	b2 eb             	  mv.w a11 a14;
    3632:	a0 e9             	  std.w a14 a9;
    3634:	0d 04             	  mvi a13 0x4;
    3636:	7e 4a 4b 00       	  call 0x4b4a;
    363a:	32 a0             	  mv.b a0 a10;
    363c:	33 ad 00 7e 01    	  cmpbrne.b a10 0x0 0x37ba;
    3641:	98 19 05          	  ldd.w a9 a1 0x14;
    3644:	90 99 01          	  add.w a9 a9 0x1;
    3647:	b5 19 05          	  std.w a1 0x14 a9;
    364a:	3e ba 37 00       	  jmp 0x37ba;
    364e:	d9 d4 2a 00 00    	  mvi a9 0x2ad4;
    3653:	98 9e 04          	  ldd.w a14 a9 0x10;
    3656:	fe 49 01          	  rspr a9 SP;
    3659:	90 99 3c          	  add.w a9 a9 0x3c;
    365c:	b2 9f             	  mv.w a15 a9;
    365e:	a0 9e             	  std.w a9 a14;
    3660:	3e 70 36 00       	  jmp 0x3670;
    3664:	18 19 09          	  ldd.b a9 a1 0x9;
    3667:	33 90 00 13       	  cmpbreq.b a9 0x0 0x367a;
    366b:	98 11 04          	  ldd.w a1 a1 0x10;
    366e:	a0 f1             	  std.w a15 a1;
    3670:	bf f1             	  ldd.w a1 a15;
    3672:	b3 14 00 f2       	  cmpbrne.w a1 0x0 0x3664;
    3676:	3e d4 37 00       	  jmp 0x37d4;
    367a:	35 39 08          	  std.b a3 0x8 a9;
    367d:	3e a8 36 00       	  jmp 0x36a8;
    3681:	18 b9 08          	  ldd.b a9 a11 0x8;
    3684:	33 90 00 13       	  cmpbreq.b a9 0x0 0x3697;
    3688:	98 bb 04          	  ldd.w a11 a11 0x10;
    368b:	a0 1b             	  std.w a1 a11;
    368d:	bf 1b             	  ldd.w a11 a1;
    368f:	b3 b4 00 f2       	  cmpbrne.w a11 0x0 0x3681;
    3693:	3e b8 37 00       	  jmp 0x37b8;
    3697:	bf bb             	  ldd.w a11 a11;
    3699:	b2 4a             	  mv.w a10 a4;
    369b:	7e 98 4a 00       	  call 0x4a98;
    369f:	32 a0             	  mv.b a0 a10;
    36a1:	33 ad 00 19 01    	  cmpbrne.b a10 0x0 0x37ba;
    36a6:	bf 11             	  ldd.w a1 a1;
    36a8:	98 1f 01          	  ldd.w a15 a1 0x4;
    36ab:	bf 3b             	  ldd.w a11 a3;
    36ad:	fe 42 01          	  rspr a2 SP;
    36b0:	b2 4a             	  mv.w a10 a4;
    36b2:	b5 3f 01          	  std.w a3 0x4 a15;
    36b5:	58 19 04          	  ldd.h a9 a1 0x8;
    36b8:	90 22 30          	  add.w a2 a2 0x30;
    36bb:	0c 04             	  mvi a12 0x4;
    36bd:	b2 2d             	  mv.w a13 a2;
    36bf:	75 39 04          	  std.h a3 0x8 a9;
    36c2:	7e aa 31 00       	  call 0x31aa;
    36c6:	32 a0             	  mv.b a0 a10;
    36c8:	33 ad 00 f2 00    	  cmpbrne.b a10 0x0 0x37ba;
    36cd:	bf 1c             	  ldd.w a12 a1;
    36cf:	b2 4a             	  mv.w a10 a4;
    36d1:	b2 2b             	  mv.w a11 a2;
    36d3:	0d 04             	  mvi a13 0x4;
    36d5:	7e 4a 4b 00       	  call 0x4b4a;
    36d9:	32 a0             	  mv.b a0 a10;
    36db:	33 ad 00 df 00    	  cmpbrne.b a10 0x0 0x37ba;
    36e0:	bf 2f             	  ldd.w a15 a2;
    36e2:	d9 ff ff ff 7f    	  mvi a9 0x7fffffff;
    36e7:	b2 2b             	  mv.w a11 a2;
    36e9:	b2 4a             	  mv.w a10 a4;
    36eb:	fd f9 04          	  and a15 a9;
    36ee:	a0 2f             	  std.w a2 a15;
    36f0:	bf 3c             	  ldd.w a12 a3;
    36f2:	0d 04             	  mvi a13 0x4;
    36f4:	7e 4a 4b 00       	  call 0x4b4a;
    36f8:	32 a0             	  mv.b a0 a10;
    36fa:	33 ad 00 c0 00    	  cmpbrne.b a10 0x0 0x37ba;
    36ff:	58 39 02          	  ldd.h a9 a3 0x4;
    3702:	98 12 03          	  ldd.w a2 a1 0xc;
    3705:	fe 47 01          	  rspr a7 SP;
    3708:	fe 48 01          	  rspr a8 SP;
    370b:	f0 93 00          	  sethi a9 0x0;
    370e:	98 31 03          	  ldd.w a1 a3 0xc;
    3711:	90 77 2c          	  add.w a7 a7 0x2c;
    3714:	94 96 0c          	  lsl.w a6 a9 0xc;
    3717:	90 88 28          	  add.w a8 a8 0x28;
    371a:	3e af 37 00       	  jmp 0x37af;
    371e:	b4 e0 09          	  lddsp.w a14 0x24;
    3721:	a6 6e             	  cmp.w a6 a14;
    3723:	f4 1b 0a          	  brne 0x372d;
    3726:	bf 19             	  ldd.w a9 a1;
    3728:	90 99 01          	  add.w a9 a9 0x1;
    372b:	a0 19             	  std.w a1 a9;
    372d:	98 1b 01          	  ldd.w a11 a1 0x4;
    3730:	bf 15             	  ldd.w a5 a1;
    3732:	98 13 05          	  ldd.w a3 a1 0x14;
    3735:	b2 4a             	  mv.w a10 a4;
    3737:	0c 04             	  mvi a12 0x4;
    3739:	b2 7d             	  mv.w a13 a7;
    373b:	7e aa 31 00       	  call 0x31aa;
    373f:	33 ad 00 a1 00    	  cmpbrne.b a10 0x0 0x37e0;
    3744:	bf 7f             	  ldd.w a15 a7;
    3746:	de ff ff ff 00    	  mvi a14 0xffffff;
    374b:	bc 35 30          	  add.w a3 a3 a5;
    374e:	ff 3e 94          	  and a9 a3 a14;
    3751:	de 00 00 00 ff    	  mvi a14 -0x1000000;
    3756:	fd fe 04          	  and a15 a14;
    3759:	fd 9f 05          	  or a9 a15;
    375c:	a0 79             	  std.w a7 a9;
    375e:	98 2c 01          	  ldd.w a12 a2 0x4;
    3761:	b2 4a             	  mv.w a10 a4;
    3763:	b2 7b             	  mv.w a11 a7;
    3765:	0d 04             	  mvi a13 0x4;
    3767:	7e 4a 4b 00       	  call 0x4b4a;
    376b:	33 a4 00 75       	  cmpbrne.b a10 0x0 0x37e0;
    376f:	a0 23             	  std.w a2 a3;
    3771:	98 1b 03          	  ldd.w a11 a1 0xc;
    3774:	b2 4a             	  mv.w a10 a4;
    3776:	0c 04             	  mvi a12 0x4;
    3778:	b2 8d             	  mv.w a13 a8;
    377a:	92 bb 04          	  sub.w a11 a11 0x4;
    377d:	7e aa 31 00       	  call 0x31aa;
    3781:	33 a4 00 5f       	  cmpbrne.b a10 0x0 0x37e0;
    3785:	98 2c 03          	  ldd.w a12 a2 0xc;
    3788:	b2 4a             	  mv.w a10 a4;
    378a:	b2 8b             	  mv.w a11 a8;
    378c:	0d 04             	  mvi a13 0x4;
    378e:	92 cc 04          	  sub.w a12 a12 0x4;
    3791:	7e 4a 4b 00       	  call 0x4b4a;
    3795:	33 a4 00 4b       	  cmpbrne.b a10 0x0 0x37e0;
    3799:	98 1f 02          	  ldd.w a15 a1 0x8;
    379c:	bd 94             	  clr.w a9;
    379e:	b5 29 05          	  std.w a2 0x14 a9;
    37a1:	b8 66 00 10 00    	  add.w a6 a6 0x1000;
    37a6:	b5 2f 02          	  std.w a2 0x8 a15;
    37a9:	98 22 06          	  ldd.w a2 a2 0x18;
    37ac:	98 11 06          	  ldd.w a1 a1 0x18;
    37af:	b3 1d 00 6f ff    	  cmpbrne.w a1 0x0 0x371e;
    37b4:	3e ba 37 00       	  jmp 0x37ba;
    37b8:	00 35             	  mvi a0 0x35;
    37ba:	fe 49 01          	  rspr a9 SP;
    37bd:	90 99 40          	  add.w a9 a9 0x40;
    37c0:	bf 9f             	  ldd.w a15 a9;
    37c2:	d9 2c 06 00 00    	  mvi a9 0x62c;
    37c7:	bf 99             	  ldd.w a9 a9;
    37c9:	32 0a             	  mv.b a10 a0;
    37cb:	a6 f9             	  cmp.w a15 a9;
    37cd:	f4 0b 1d          	  breq 0x37ea;
    37d0:	3e e6 37 00       	  jmp 0x37e6;
    37d4:	fe 41 01          	  rspr a1 SP;
    37d7:	a0 fe             	  std.w a15 a14;
    37d9:	90 11 3c          	  add.w a1 a1 0x3c;
    37dc:	3e 8d 36 00       	  jmp 0x368d;
    37e0:	32 a0             	  mv.b a0 a10;
    37e2:	3e ba 37 00       	  jmp 0x37ba;
    37e6:	7e e9 42 00       	  call 0x42e9;
    37ea:	fb 85 20          	  popma a8 0x1 0x20;

000037ed <_spiRomInitLedgerRegionFromScratch_LR10>:
    37ed:	f4 30 fc          	  addsp -0x4;
    37f0:	df 2c 06 00 00    	  mvi a15 0x62c;
    37f5:	f9 02             	  pushm a0;
    37f7:	bf ff             	  ldd.w a15 a15;
    37f9:	fe 49 01          	  rspr a9 SP;
    37fc:	90 99 04          	  add.w a9 a9 0x4;
    37ff:	b2 a0             	  mv.w a0 a10;
    3801:	a0 9f             	  std.w a9 a15;
    3803:	b3 a0 00 51       	  cmpbreq.w a10 0x0 0x3854;
    3807:	98 a9 06          	  ldd.w a9 a10 0x18;
    380a:	b3 90 00 4a       	  cmpbreq.w a9 0x0 0x3854;
    380e:	d9 0c 14 00 00    	  mvi a9 0x140c;
    3813:	bf 9a             	  ldd.w a10 a9;
    3815:	b8 aa e0 04 00    	  add.w a10 a10 0x4e0;
    381a:	7e 22 1c 00       	  call 0x1c22;
    381e:	e4 a9 ff 0f       	  and a9 a10 0xfff;
    3822:	b3 9a ff 0f 38    	  cmpbreq.w a9 0xfff 0x385a;
    3827:	b3 90 00 33       	  cmpbreq.w a9 0x0 0x385a;
    382b:	e7 aa 6c 01       	  uxtr a10 a10 0x16c;
    382f:	b3 aa ff 0f 2b    	  cmpbreq.w a10 0xfff 0x385a;
    3834:	b3 a0 00 26       	  cmpbreq.w a10 0x0 0x385a;
    3838:	98 0e 06          	  ldd.w a14 a0 0x18;
    383b:	b6 94 0c          	  lsl.w a9 0xc;
    383e:	94 af 0c          	  lsl.w a15 a10 0xc;
    3841:	3d a4             	  clr.b a10;
    3843:	a0 e9             	  std.w a14 a9;
    3845:	98 0e 06          	  ldd.w a14 a0 0x18;
    3848:	bf e9             	  ldd.w a9 a14;
    384a:	bc f9 f0          	  add.w a15 a15 a9;
    384d:	b5 ef 01          	  std.w a14 0x4 a15;
    3850:	3e 5c 38 00       	  jmp 0x385c;
    3854:	0a 35             	  mvi a10 0x35;
    3856:	3e 5c 38 00       	  jmp 0x385c;
    385a:	0a 2e             	  mvi a10 0x2e;
    385c:	fe 49 01          	  rspr a9 SP;
    385f:	90 99 04          	  add.w a9 a9 0x4;
    3862:	bf 9f             	  ldd.w a15 a9;
    3864:	d9 2c 06 00 00    	  mvi a9 0x62c;
    3869:	bf 99             	  ldd.w a9 a9;
    386b:	a6 f9             	  cmp.w a15 a9;
    386d:	f4 0b 07          	  breq 0x3874;
    3870:	7e e9 42 00       	  call 0x42e9;
    3874:	fb 05 04          	  popma a0 0x1 0x4;

00003877 <_spiRomInitEraseLedger_LR10>:
    3877:	f4 30 d8          	  addsp -0x28;
    387a:	df 2c 06 00 00    	  mvi a15 0x62c;
    387f:	f9 82             	  pushm a8;
    3881:	bf ff             	  ldd.w a15 a15;
    3883:	fe 49 01          	  rspr a9 SP;
    3886:	90 99 48          	  add.w a9 a9 0x48;
    3889:	b2 a6             	  mv.w a6 a10;
    388b:	a0 9f             	  std.w a9 a15;
    388d:	b3 a0 00 21       	  cmpbreq.w a10 0x0 0x38ae;
    3891:	98 a0 06          	  ldd.w a0 a10 0x18;
    3894:	09 fd             	  mvi a9 -0x3;
    3896:	bf 0b             	  ldd.w a11 a0;
    3898:	92 bf 01          	  sub.w a15 a11 0x1;
    389b:	a6 f9             	  cmp.w a15 a9;
    389d:	f4 0c 11          	  brgt 0x38ae;
    38a0:	98 0f 01          	  ldd.w a15 a0 0x4;
    38a3:	09 ff             	  mvi a9 -0x1;
    38a5:	a6 f9             	  cmp.w a15 a9;
    38a7:	f4 0b 07          	  breq 0x38ae;
    38aa:	b3 f4 00 11       	  cmpbrne.w a15 0x0 0x38bb;
    38ae:	f8 02             	  halt;
    38b0:	05 02             	  mvi a5 0x2;
    38b2:	b3 6d 00 7d 02    	  cmpbrne.w a6 0x0 0x3b2f;
    38b7:	3e 3c 3b 00       	  jmp 0x3b3c;
    38bb:	92 bb 10          	  sub.w a11 a11 0x10;
    38be:	0c 10             	  mvi a12 0x10;
    38c0:	dd d4 2a 00 00    	  mvi a13 0x2ad4;
    38c5:	7e aa 31 00       	  call 0x31aa;
    38c9:	32 a5             	  mv.b a5 a10;
    38cb:	33 ad 00 64 02    	  cmpbrne.b a10 0x0 0x3b2f;
    38d0:	da d4 2a 00 00    	  mvi a10 0x2ad4;
    38d5:	db 68 00 00 00    	  mvi a11 0x68;
    38da:	0c 08             	  mvi a12 0x8;
    38dc:	7e a8 0b 00       	  call 0xba8;
    38e0:	b3 ad 00 7e 02    	  cmpbrne.w a10 0x0 0x3b5e;
    38e5:	98 09 01          	  ldd.w a9 a0 0x4;
    38e8:	bf 0f             	  ldd.w a15 a0;
    38ea:	a6 f9             	  cmp.w a15 a9;
    38ec:	f5 18 78 02       	  brnc 0x3b64;
    38f0:	e4 fe ff 0f       	  and a14 a15 0xfff;
    38f4:	f5 1b 70 02       	  brne 0x3b64;
    38f8:	98 6f 06          	  ldd.w a15 a6 0x18;
    38fb:	fe 49 01          	  rspr a9 SP;
    38fe:	90 99 44          	  add.w a9 a9 0x44;
    3901:	3d 84             	  clr.b a8;
    3903:	bf ff             	  ldd.w a15 a15;
    3905:	b0 f1 0a          	  stdsp.w a15 0x28;
    3908:	a0 9e             	  std.w a9 a14;
    390a:	bd 94             	  clr.w a9;
    390c:	b0 91 0b          	  stdsp.w a9 0x2c;
    390f:	3e 19 3b 00       	  jmp 0x3b19;
    3913:	3d a4             	  clr.b a10;
    3915:	0b 14             	  mvi a11 0x14;
    3917:	7e e5 40 00       	  call 0x40e5;
    391b:	b2 a3             	  mv.w a3 a10;
    391d:	b3 a4 00 0c       	  cmpbrne.w a10 0x0 0x3929;
    3921:	f8 02             	  halt;
    3923:	05 05             	  mvi a5 0x5;
    3925:	3e 2f 3b 00       	  jmp 0x3b2f;
    3929:	b4 e0 0a          	  lddsp.w a14 0x28;
    392c:	c4 89 ff          	  and a9 a8 0xff;
    392f:	b6 94 0c          	  lsl.w a9 0xc;
    3932:	bc 9e b0          	  add.w a11 a9 a14;
    3935:	bd 94             	  clr.w a9;
    3937:	a0 ab             	  std.w a10 a11;
    3939:	b5 a9 04          	  std.w a10 0x10 a9;
    393c:	e4 b9 ff 0f       	  and a9 a11 0xfff;
    3940:	f5 1b 24 02       	  brne 0x3b64;
    3944:	fe 4d 01          	  rspr a13 SP;
    3947:	b2 6a             	  mv.w a10 a6;
    3949:	0c 04             	  mvi a12 0x4;
    394b:	90 dd 44          	  add.w a13 a13 0x44;
    394e:	7e aa 31 00       	  call 0x31aa;
    3952:	33 a0 00 0a       	  cmpbreq.b a10 0x0 0x395c;
    3956:	32 a5             	  mv.b a5 a10;
    3958:	3e 2b 3b 00       	  jmp 0x3b2b;
    395c:	b4 90 11          	  lddsp.w a9 0x44;
    395f:	f1 94 ff 0f       	  and a9 0xfff;
    3963:	75 39 02          	  std.h a3 0x4 a9;
    3966:	b4 90 11          	  lddsp.w a9 0x44;
    3969:	e7 99 6c 01       	  uxtr a9 a9 0x16c;
    396d:	75 39 03          	  std.h a3 0x6 a9;
    3970:	b4 90 11          	  lddsp.w a9 0x44;
    3973:	b6 95 1f          	  lsr.w a9 0x1f;
    3976:	35 39 08          	  std.b a3 0x8 a9;
    3979:	b4 f0 11          	  lddsp.w a15 0x44;
    397c:	e4 f9 ff 0f       	  and a9 a15 0xfff;
    3980:	b3 9a ff 0f 13    	  cmpbreq.w a9 0xfff 0x3993;
    3985:	e7 f9 6c 01       	  uxtr a9 a15 0x16c;
    3989:	b3 9a ff 0f 0a    	  cmpbreq.w a9 0xfff 0x3993;
    398e:	09 01             	  mvi a9 0x1;
    3990:	35 39 09          	  std.b a3 0x9 a9;
    3993:	bf 39             	  ldd.w a9 a3;
    3995:	b3 99 00 90 00    	  cmpbreq.w a9 0x0 0x3a25;
    399a:	df d4 2a 00 00    	  mvi a15 0x2ad4;
    399f:	18 fb 0d          	  ldd.b a11 a15 0xd;
    39a2:	90 99 04          	  add.w a9 a9 0x4;
    39a5:	4a fc 0f          	  mvi a10 0xffc;
    39a8:	b0 91 09          	  stdsp.w a9 0x24;
    39ab:	f0 b4 ff          	  and a11 0xff;
    39ae:	7e bb 16 00       	  call 0x16bb;
    39b2:	bd 94             	  clr.w a9;
    39b4:	3d 74             	  clr.b a7;
    39b6:	b0 91 0d          	  stdsp.w a9 0x34;
    39b9:	09 fc             	  mvi a9 -0x4;
    39bb:	ff a9 94          	  and a9 a10 a9;
    39be:	b0 91 0c          	  stdsp.w a9 0x30;
    39c1:	3e f1 3a 00       	  jmp 0x3af1;
    39c5:	3d a4             	  clr.b a10;
    39c7:	0b 1c             	  mvi a11 0x1c;
    39c9:	7e e5 40 00       	  call 0x40e5;
    39cd:	b2 a1             	  mv.w a1 a10;
    39cf:	b3 a4 00 0c       	  cmpbrne.w a10 0x0 0x39db;
    39d3:	f8 02             	  halt;
    39d5:	00 05             	  mvi a0 0x5;
    39d7:	3e 58 3b 00       	  jmp 0x3b58;
    39db:	b4 b0 0c          	  lddsp.w a11 0x30;
    39de:	c4 7a ff          	  and a10 a7 0xff;
    39e1:	7e fc 16 00       	  call 0x16fc;
    39e5:	bd e4             	  clr.w a14;
    39e7:	b5 1e 06          	  std.w a1 0x18 a14;
    39ea:	b4 b0 09          	  lddsp.w a11 0x24;
    39ed:	0c 04             	  mvi a12 0x4;
    39ef:	fe 4d 01          	  rspr a13 SP;
    39f2:	90 dd 40          	  add.w a13 a13 0x40;
    39f5:	bc ba b0          	  add.w a11 a11 a10;
    39f8:	b2 6a             	  mv.w a10 a6;
    39fa:	b5 1b 01          	  std.w a1 0x4 a11;
    39fd:	7e aa 31 00       	  call 0x31aa;
    3a01:	32 a0             	  mv.b a0 a10;
    3a03:	33 ad 00 55 01    	  cmpbrne.b a10 0x0 0x3b58;
    3a08:	b4 90 10          	  lddsp.w a9 0x40;
    3a0b:	df ff ff ff 00    	  mvi a15 0xffffff;
    3a10:	fd 9f 04          	  and a9 a15;
    3a13:	a0 19             	  std.w a1 a9;
    3a15:	a6 9f             	  cmp.w a9 a15;
    3a17:	f4 1b 07          	  brne 0x3a1e;
    3a1a:	bd 94             	  clr.w a9;
    3a1c:	a0 19             	  std.w a1 a9;
    3a1e:	98 1b 01          	  ldd.w a11 a1 0x4;
    3a21:	b3 b4 00 0c       	  cmpbrne.w a11 0x0 0x3a2d;
    3a25:	f8 02             	  halt;
    3a27:	00 02             	  mvi a0 0x2;
    3a29:	3e 58 3b 00       	  jmp 0x3b58;
    3a2d:	b4 e0 0c          	  lddsp.w a14 0x30;
    3a30:	18 3f 08          	  ldd.b a15 a3 0x8;
    3a33:	92 b9 01          	  sub.w a9 a11 0x1;
    3a36:	90 b2 04          	  add.w a2 a11 0x4;
    3a39:	bc 9e 40          	  add.w a4 a9 a14;
    3a3c:	33 f0 00 0e       	  cmpbreq.b a15 0x0 0x3a4a;
    3a40:	18 39 09          	  ldd.b a9 a3 0x9;
    3a43:	00 35             	  mvi a0 0x35;
    3a45:	33 9d 00 88 00    	  cmpbrne.b a9 0x0 0x3acd;
    3a4a:	90 29 04          	  add.w a9 a2 0x4;
    3a4d:	bd f4             	  clr.w a15;
    3a4f:	b5 14 04          	  std.w a1 0x10 a4;
    3a52:	b5 19 03          	  std.w a1 0xc a9;
    3a55:	b5 1f 05          	  std.w a1 0x14 a15;
    3a58:	3e d7 3a 00       	  jmp 0x3ad7;
    3a5c:	b2 6a             	  mv.w a10 a6;
    3a5e:	b2 2b             	  mv.w a11 a2;
    3a60:	0c 04             	  mvi a12 0x4;
    3a62:	fe 4d 01          	  rspr a13 SP;
    3a65:	90 dd 3c          	  add.w a13 a13 0x3c;
    3a68:	7e aa 31 00       	  call 0x31aa;
    3a6c:	32 a0             	  mv.b a0 a10;
    3a6e:	33 ad 00 ea 00    	  cmpbrne.b a10 0x0 0x3b58;
    3a73:	b4 90 0f          	  lddsp.w a9 0x3c;
    3a76:	c7 9f 78          	  uxtr a15 a9 0x78;
    3a79:	b3 f4 06 28       	  cmpbrne.w a15 0x6 0x3aa1;
    3a7d:	fe 4d 01          	  rspr a13 SP;
    3a80:	b2 6a             	  mv.w a10 a6;
    3a82:	90 2b 04          	  add.w a11 a2 0x4;
    3a85:	b2 4c             	  mv.w a12 a4;
    3a87:	90 dd 38          	  add.w a13 a13 0x38;
    3a8a:	7e 85 51 00       	  call 0x5185;
    3a8e:	33 ad 00 c8 00    	  cmpbrne.b a10 0x0 0x3b56;
    3a93:	bf 19             	  ldd.w a9 a1;
    3a95:	b4 f0 0e          	  lddsp.w a15 0x38;
    3a98:	bc 9f 90          	  add.w a9 a9 a15;
    3a9b:	a0 19             	  std.w a1 a9;
    3a9d:	3e ca 3a 00       	  jmp 0x3aca;
    3aa1:	b3 f4 07 29       	  cmpbrne.w a15 0x7 0x3aca;
    3aa5:	de ff ff ff 00    	  mvi a14 0xffffff;
    3aaa:	fd 9e 04          	  and a9 a14;
    3aad:	90 2b 04          	  add.w a11 a2 0x4;
    3ab0:	b5 19 02          	  std.w a1 0x8 a9;
    3ab3:	b5 14 04          	  std.w a1 0x10 a4;
    3ab6:	b5 1b 03          	  std.w a1 0xc a11;
    3ab9:	b2 4c             	  mv.w a12 a4;
    3abb:	b2 6a             	  mv.w a10 a6;
    3abd:	90 1d 14          	  add.w a13 a1 0x14;
    3ac0:	7e 85 51 00       	  call 0x5185;
    3ac4:	32 a0             	  mv.b a0 a10;
    3ac6:	3e d2 3a 00       	  jmp 0x3ad2;
    3aca:	90 22 04          	  add.w a2 a2 0x4;
    3acd:	a6 24             	  cmp.w a2 a4;
    3acf:	f4 0d 8d          	  brlte 0x3a5c;
    3ad2:	33 0d 00 86 00    	  cmpbrne.b a0 0x0 0x3b58;
    3ad7:	98 39 03          	  ldd.w a9 a3 0xc;
    3ada:	b3 94 00 0b       	  cmpbrne.w a9 0x0 0x3ae5;
    3ade:	b5 31 03          	  std.w a3 0xc a1;
    3ae1:	3e eb 3a 00       	  jmp 0x3aeb;
    3ae5:	b4 f0 0d          	  lddsp.w a15 0x34;
    3ae8:	b5 f1 06          	  std.w a15 0x18 a1;
    3aeb:	10 77 01          	  add.b a7 a7 0x1;
    3aee:	b0 11 0d          	  stdsp.w a1 0x34;
    3af1:	de d4 2a 00 00    	  mvi a14 0x2ad4;
    3af6:	18 e9 0d          	  ldd.b a9 a14 0xd;
    3af9:	26 79             	  cmp.b a7 a9;
    3afb:	f5 08 ca fe       	  brc 0x39c5;
    3aff:	98 e9 04          	  ldd.w a9 a14 0x10;
    3b02:	b3 94 00 0b       	  cmpbrne.w a9 0x0 0x3b0d;
    3b06:	b5 e3 04          	  std.w a14 0x10 a3;
    3b09:	3e 13 3b 00       	  jmp 0x3b13;
    3b0d:	b4 f0 0b          	  lddsp.w a15 0x2c;
    3b10:	b5 f3 04          	  std.w a15 0x10 a3;
    3b13:	10 88 01          	  add.b a8 a8 0x1;
    3b16:	b0 31 0b          	  stdsp.w a3 0x2c;
    3b19:	de d4 2a 00 00    	  mvi a14 0x2ad4;
    3b1e:	18 e9 0c          	  ldd.b a9 a14 0xc;
    3b21:	26 89             	  cmp.b a8 a9;
    3b23:	f5 08 f0 fd       	  brc 0x3913;
    3b27:	3e 3c 3b 00       	  jmp 0x3b3c;
    3b2b:	33 50 00 11       	  cmpbreq.b a5 0x0 0x3b3c;
    3b2f:	98 69 06          	  ldd.w a9 a6 0x18;
    3b32:	0f ff             	  mvi a15 -0x1;
    3b34:	a0 9f             	  std.w a9 a15;
    3b36:	98 69 06          	  ldd.w a9 a6 0x18;
    3b39:	b5 9f 01          	  std.w a9 0x4 a15;
    3b3c:	fe 49 01          	  rspr a9 SP;
    3b3f:	90 99 48          	  add.w a9 a9 0x48;
    3b42:	bf 9f             	  ldd.w a15 a9;
    3b44:	d9 2c 06 00 00    	  mvi a9 0x62c;
    3b49:	bf 99             	  ldd.w a9 a9;
    3b4b:	32 5a             	  mv.b a10 a5;
    3b4d:	a6 f9             	  cmp.w a15 a9;
    3b4f:	f4 0b 1f          	  breq 0x3b6e;
    3b52:	3e 6a 3b 00       	  jmp 0x3b6a;
    3b56:	32 a0             	  mv.b a0 a10;
    3b58:	32 05             	  mv.b a5 a0;
    3b5a:	3e 2b 3b 00       	  jmp 0x3b2b;
    3b5e:	05 35             	  mvi a5 0x35;
    3b60:	3e 2f 3b 00       	  jmp 0x3b2f;
    3b64:	05 02             	  mvi a5 0x2;
    3b66:	3e 2f 3b 00       	  jmp 0x3b2f;
    3b6a:	7e e9 42 00       	  call 0x42e9;
    3b6e:	fb 85 28          	  popma a8 0x1 0x28;

00003b71 <_initInforomFs>:
    3b71:	f4 30 f4          	  addsp -0xc;
    3b74:	df 2c 06 00 00    	  mvi a15 0x62c;
    3b79:	f9 22             	  pushm a2;
    3b7b:	bf ff             	  ldd.w a15 a15;
    3b7d:	fe 49 01          	  rspr a9 SP;
    3b80:	90 99 14          	  add.w a9 a9 0x14;
    3b83:	fe 42 01          	  rspr a2 SP;
    3b86:	a0 9f             	  std.w a9 a15;
    3b88:	bd 94             	  clr.w a9;
    3b8a:	90 22 0c          	  add.w a2 a2 0xc;
    3b8d:	a0 29             	  std.w a2 a9;
    3b8f:	7e 63 48 00       	  call 0x4863;
    3b93:	33 a0 00 56       	  cmpbreq.b a10 0x0 0x3be9;
    3b97:	0b 04             	  mvi a11 0x4;
    3b99:	da 9c 2a 00 00    	  mvi a10 0x2a9c;
    3b9e:	b2 bc             	  mv.w a12 a11;
    3ba0:	b2 2d             	  mv.w a13 a2;
    3ba2:	7e 39 4e 00       	  call 0x4e39;
    3ba6:	32 a0             	  mv.b a0 a10;
    3ba8:	33 a4 00 43       	  cmpbrne.b a10 0x0 0x3beb;
    3bac:	fe 41 01          	  rspr a1 SP;
    3baf:	90 11 10          	  add.w a1 a1 0x10;
    3bb2:	b2 1a             	  mv.w a10 a1;
    3bb4:	7e 08 3c 00       	  call 0x3c08;
    3bb8:	32 a0             	  mv.b a0 a10;
    3bba:	33 a4 00 31       	  cmpbrne.b a10 0x0 0x3beb;
    3bbe:	bf 1c             	  ldd.w a12 a1;
    3bc0:	bf 2b             	  ldd.w a11 a2;
    3bc2:	bd a4             	  clr.w a10;
    3bc4:	d1 28 14 00 00    	  mvi a1 0x1428;
    3bc9:	7e 79 d1 00       	  call 0xd179;
    3bcd:	a0 1a             	  std.w a1 a10;
    3bcf:	b3 a0 00 1a       	  cmpbreq.w a10 0x0 0x3be9;
    3bd3:	3d b4             	  clr.b a11;
    3bd5:	7e 11 d2 00       	  call 0xd211;
    3bd9:	b3 a0 00 12       	  cmpbreq.w a10 0x0 0x3beb;
    3bdd:	bf 1a             	  ldd.w a10 a1;
    3bdf:	00 ff             	  mvi a0 -0x1;
    3be1:	7e 4b d7 00       	  call 0xd74b;
    3be5:	3e eb 3b 00       	  jmp 0x3beb;
    3be9:	00 ff             	  mvi a0 -0x1;
    3beb:	fe 49 01          	  rspr a9 SP;
    3bee:	90 99 14          	  add.w a9 a9 0x14;
    3bf1:	bf 9f             	  ldd.w a15 a9;
    3bf3:	d9 2c 06 00 00    	  mvi a9 0x62c;
    3bf8:	bf 99             	  ldd.w a9 a9;
    3bfa:	32 0a             	  mv.b a10 a0;
    3bfc:	a6 f9             	  cmp.w a15 a9;
    3bfe:	f4 0b 07          	  breq 0x3c05;
    3c01:	7e e9 42 00       	  call 0x42e9;
    3c05:	fb 25 0c          	  popma a2 0x1 0xc;

00003c08 <_ifrGetGcThreshold_LR10>:
    3c08:	de 2c 06 00 00    	  mvi a14 0x62c;
    3c0d:	bf e9             	  ldd.w a9 a14;
    3c0f:	f4 30 fc          	  addsp -0x4;
    3c12:	fe 4f 01          	  rspr a15 SP;
    3c15:	a0 f9             	  std.w a15 a9;
    3c17:	09 0e             	  mvi a9 0xe;
    3c19:	a0 a9             	  std.w a10 a9;
    3c1b:	bf ff             	  ldd.w a15 a15;
    3c1d:	bf e9             	  ldd.w a9 a14;
    3c1f:	3d a4             	  clr.b a10;
    3c21:	a6 f9             	  cmp.w a15 a9;
    3c23:	f4 0b 07          	  breq 0x3c2a;
    3c26:	7e e9 42 00       	  call 0x42e9;
    3c2a:	f4 30 04          	  addsp 0x4;
    3c2d:	f8 00             	  ret;

00003c2f <_smbpbiDispatch>:
    3c2f:	f4 30 d8          	  addsp -0x28;
    3c32:	df 2c 06 00 00    	  mvi a15 0x62c;
    3c37:	f9 62             	  pushm a6;
    3c39:	bf ff             	  ldd.w a15 a15;
    3c3b:	f4 30 f4          	  addsp -0xc;
    3c3e:	fe 49 01          	  rspr a9 SP;
    3c41:	90 99 4c          	  add.w a9 a9 0x4c;
    3c44:	a0 9f             	  std.w a9 a15;
    3c46:	3f a9             	  ldd.b a9 a10;
    3c48:	b2 a6             	  mv.w a6 a10;
    3c4a:	98 a3 01          	  ldd.w a3 a10 0x4;
    3c4d:	33 90 01 0d       	  cmpbreq.b a9 0x1 0x3c5a;
    3c51:	33 9d 48 60 03    	  cmpbrne.b a9 0x48 0x3fb1;
    3c56:	3e 3c 3e 00       	  jmp 0x3e3c;
    3c5a:	18 30 04          	  ldd.b a0 a3 0x4;
    3c5d:	33 0d 01 1b 01    	  cmpbrne.b a0 0x1 0x3d78;
    3c62:	98 32 03          	  ldd.w a2 a3 0xc;
    3c65:	98 31 04          	  ldd.w a1 a3 0x10;
    3c68:	3d a4             	  clr.b a10;
    3c6a:	4b dc 10          	  mvi a11 0x10dc;
    3c6d:	4c 00 01          	  mvi a12 0x100;
    3c70:	d5 80 06 00 00    	  mvi a5 0x680;
    3c75:	7e cb 40 00       	  call 0x40cb;
    3c79:	a0 5a             	  std.w a5 a10;
    3c7b:	b3 a4 00 0c       	  cmpbrne.w a10 0x0 0x3c87;
    3c7f:	f8 02             	  halt;
    3c81:	01 05             	  mvi a1 0x5;
    3c83:	3e b3 3f 00       	  jmp 0x3fb3;
    3c87:	fe 49 01          	  rspr a9 SP;
    3c8a:	90 99 28          	  add.w a9 a9 0x28;
    3c8d:	d4 f4 2a 00 00    	  mvi a4 0x2af4;
    3c92:	b2 1c             	  mv.w a12 a1;
    3c94:	b5 41 07          	  std.w a4 0x1c a1;
    3c97:	b5 91 01          	  std.w a9 0x4 a1;
    3c9a:	b2 2b             	  mv.w a11 a2;
    3c9c:	35 40 15          	  std.b a4 0x15 a0;
    3c9f:	b5 42 06          	  std.w a4 0x18 a2;
    3ca2:	a0 92             	  std.w a9 a2;
    3ca4:	bd d4             	  clr.w a13;
    3ca6:	4e dc 10          	  mvi a14 0x10dc;
    3ca9:	7e 72 26 00       	  call 0x2672;
    3cad:	32 a1             	  mv.b a1 a10;
    3caf:	33 ad 00 59 01    	  cmpbrne.b a10 0x0 0x3e08;
    3cb4:	bf 59             	  ldd.w a9 a5;
    3cb6:	3f 99             	  ldd.b a9 a9;
    3cb8:	33 90 00 0d       	  cmpbreq.b a9 0x0 0x3cc5;
    3cbc:	98 49 01          	  ldd.w a9 a4 0x4;
    3cbf:	f0 95 08          	  or a9 0x8;
    3cc2:	b5 49 01          	  std.w a4 0x4 a9;
    3cc5:	d9 80 06 00 00    	  mvi a9 0x680;
    3cca:	bf 99             	  ldd.w a9 a9;
    3ccc:	18 99 69          	  ldd.b a9 a9 0x69;
    3ccf:	33 90 00 13       	  cmpbreq.b a9 0x0 0x3ce2;
    3cd3:	df f4 2a 00 00    	  mvi a15 0x2af4;
    3cd8:	98 f9 01          	  ldd.w a9 a15 0x4;
    3cdb:	f1 95 00 40       	  or a9 0x4000;
    3cdf:	b5 f9 01          	  std.w a15 0x4 a9;
    3ce2:	da f4 2a 00 00    	  mvi a10 0x2af4;
    3ce7:	7e ce b9 00       	  call 0xb9ce;
    3ceb:	98 30 02          	  ldd.w a0 a3 0x8;
    3cee:	7e 02 01 00       	  call 0x102;
    3cf2:	d9 eb a6 00 00    	  mvi a9 0xa6eb;
    3cf7:	b2 ac             	  mv.w a12 a10;
    3cf9:	b0 91 00          	  stdsp.w a9 0x0;
    3cfc:	b2 0d             	  mv.w a13 a0;
    3cfe:	bd b4             	  clr.w a11;
    3d00:	bd 04             	  clr.w a0;
    3d02:	da c8 2f 00 00    	  mvi a10 0x2fc8;
    3d07:	b0 01 01          	  stdsp.w a0 0x4;
    3d0a:	30 01 08          	  stdsp.b a0 0x8;
    3d0d:	0e 01             	  mvi a14 0x1;
    3d0f:	7e c8 13 00       	  call 0x13c8;
    3d13:	d9 f4 2a 00 00    	  mvi a9 0x2af4;
    3d18:	df 00 00 00 1e    	  mvi a15 0x1e000000;
    3d1d:	35 90 50          	  std.b a9 0x50 a0;
    3d20:	fe 49 01          	  rspr a9 SP;
    3d23:	90 99 34          	  add.w a9 a9 0x34;
    3d26:	fe 42 01          	  rspr a2 SP;
    3d29:	a0 9f             	  std.w a9 a15;
    3d2b:	90 22 38          	  add.w a2 a2 0x38;
    3d2e:	0a 01             	  mvi a10 0x1;
    3d30:	b2 2b             	  mv.w a11 a2;
    3d32:	7e cd b1 00       	  call 0xb1cd;
    3d36:	33 a4 1f 1b       	  cmpbrne.b a10 0x1f 0x3d51;
    3d3a:	bf 2b             	  ldd.w a11 a2;
    3d3c:	c4 b9 01          	  and a9 a11 0x1;
    3d3f:	f4 1b 14          	  brne 0x3d53;
    3d42:	f0 b5 01          	  or a11 0x1;
    3d45:	0a 01             	  mvi a10 0x1;
    3d47:	a0 2b             	  std.w a2 a11;
    3d49:	7e 0f b2 00       	  call 0xb20f;
    3d4d:	33 a0 1f 06       	  cmpbreq.b a10 0x1f 0x3d53;
    3d51:	f8 09             	  trap1;
    3d53:	bd b4             	  clr.w a11;
    3d55:	0a 02             	  mvi a10 0x2;
    3d57:	7e 0f b2 00       	  call 0xb20f;
    3d5b:	da f4 2a 00 00    	  mvi a10 0x2af4;
    3d60:	7e 5d b8 00       	  call 0xb85d;
    3d64:	fe 4a 01          	  rspr a10 SP;
    3d67:	bd b4             	  clr.w a11;
    3d69:	bd c4             	  clr.w a12;
    3d6b:	0d 01             	  mvi a13 0x1;
    3d6d:	90 aa 34          	  add.w a10 a10 0x34;
    3d70:	7e 53 90 00       	  call 0x9053;
    3d74:	3e 0d 3e 00       	  jmp 0x3e0d;
    3d78:	33 04 02 32       	  cmpbrne.b a0 0x2 0x3daa;
    3d7c:	d9 80 06 00 00    	  mvi a9 0x680;
    3d81:	bf 9a             	  ldd.w a10 a9;
    3d83:	b3 a0 00 7f       	  cmpbreq.w a10 0x0 0x3e02;
    3d87:	d9 0c 2b 00 00    	  mvi a9 0x2b0c;
    3d8c:	98 9c 01          	  ldd.w a12 a9 0x4;
    3d8f:	bf 9b             	  ldd.w a11 a9;
    3d91:	3d f4             	  clr.b a15;
    3d93:	d9 f4 2a 00 00    	  mvi a9 0x2af4;
    3d98:	bd d4             	  clr.w a13;
    3d9a:	35 9f 15          	  std.b a9 0x15 a15;
    3d9d:	4e dc 10          	  mvi a14 0x10dc;
    3da0:	7e 72 26 00       	  call 0x2672;
    3da4:	32 a1             	  mv.b a1 a10;
    3da6:	3e 08 3e 00       	  jmp 0x3e08;
    3daa:	33 0d 03 07 02    	  cmpbrne.b a0 0x3 0x3fb1;
    3daf:	7e 0e 01 00       	  call 0x10e;
    3db3:	18 39 08          	  ldd.b a9 a3 0x8;
    3db6:	33 90 00 24       	  cmpbreq.b a9 0x0 0x3dda;
    3dba:	98 3e 03          	  ldd.w a14 a3 0xc;
    3dbd:	d9 94 2b 00 00    	  mvi a9 0x2b94;
    3dc2:	df 9c 2b 00 00    	  mvi a15 0x2b9c;
    3dc7:	a0 9e             	  std.w a9 a14;
    3dc9:	98 3e 04          	  ldd.w a14 a3 0x10;
    3dcc:	b5 9e 01          	  std.w a9 0x4 a14;
    3dcf:	98 39 05          	  ldd.w a9 a3 0x14;
    3dd2:	a0 f9             	  std.w a15 a9;
    3dd4:	98 3e 06          	  ldd.w a14 a3 0x18;
    3dd7:	b5 fe 01          	  std.w a15 0x4 a14;
    3dda:	18 39 1c          	  ldd.b a9 a3 0x1c;
    3ddd:	33 90 00 21       	  cmpbreq.b a9 0x0 0x3dfe;
    3de1:	df f4 2a 00 00    	  mvi a15 0x2af4;
    3de6:	98 39 08          	  ldd.w a9 a3 0x20;
    3de9:	98 fe 2d          	  ldd.w a14 a15 0xb4;
    3dec:	98 fd 2e          	  ldd.w a13 a15 0xb8;
    3def:	fd 9e 05          	  or a9 a14;
    3df2:	b5 f9 2d          	  std.w a15 0xb4 a9;
    3df5:	98 39 09          	  ldd.w a9 a3 0x24;
    3df8:	fd 9d 05          	  or a9 a13;
    3dfb:	b5 f9 2e          	  std.w a15 0xb8 a9;
    3dfe:	7e 08 01 00       	  call 0x108;
    3e02:	3d 14             	  clr.b a1;
    3e04:	3e 0d 3e 00       	  jmp 0x3e0d;
    3e08:	33 1d 00 ab 01    	  cmpbrne.b a1 0x0 0x3fb3;
    3e0d:	18 6b 01          	  ldd.b a11 a6 0x1;
    3e10:	b2 3a             	  mv.w a10 a3;
    3e12:	7e 81 0f 00       	  call 0xf81;
    3e16:	09 02             	  mvi a9 0x2;
    3e18:	fe 4f 01          	  rspr a15 SP;
    3e1b:	90 ff 48          	  add.w a15 a15 0x48;
    3e1e:	20 f9             	  std.b a15 a9;
    3e20:	3d 94             	  clr.b a9;
    3e22:	35 f9 02          	  std.b a15 0x2 a9;
    3e25:	18 33 03          	  ldd.b a3 a3 0x3;
    3e28:	09 04             	  mvi a9 0x4;
    3e2a:	bd b4             	  clr.w a11;
    3e2c:	b2 fa             	  mv.w a10 a15;
    3e2e:	35 f3 03          	  std.b a15 0x3 a3;
    3e31:	35 f9 01          	  std.b a15 0x1 a9;
    3e34:	7e 71 0f 00       	  call 0xf71;
    3e38:	3e b3 3f 00       	  jmp 0x3fb3;
    3e3c:	fe 40 01          	  rspr a0 SP;
    3e3f:	fe 41 01          	  rspr a1 SP;
    3e42:	90 00 44          	  add.w a0 a0 0x44;
    3e45:	90 11 40          	  add.w a1 a1 0x40;
    3e48:	fe 42 01          	  rspr a2 SP;
    3e4b:	b2 0a             	  mv.w a10 a0;
    3e4d:	90 22 3c          	  add.w a2 a2 0x3c;
    3e50:	b2 1b             	  mv.w a11 a1;
    3e52:	b2 2c             	  mv.w a12 a2;
    3e54:	3d d4             	  clr.b a13;
    3e56:	7e 53 90 00       	  call 0x9053;
    3e5a:	98 39 02          	  ldd.w a9 a3 0x8;
    3e5d:	bf 0f             	  ldd.w a15 a0;
    3e5f:	0a 01             	  mvi a10 0x1;
    3e61:	a6 f9             	  cmp.w a15 a9;
    3e63:	f4 1b 3c          	  brne 0x3e9f;
    3e66:	de 70 05 00 00    	  mvi a14 0x570;
    3e6b:	3f e9             	  ldd.b a9 a14;
    3e6d:	33 90 00 0e       	  cmpbreq.b a9 0x0 0x3e7b;
    3e71:	3d 94             	  clr.b a9;
    3e73:	0a 1e             	  mvi a10 0x1e;
    3e75:	20 e9             	  std.b a14 a9;
    3e77:	3e 9f 3e 00       	  jmp 0x3e9f;
    3e7b:	d9 ff 00 00 20    	  mvi a9 0x200000ff;
    3e80:	ff f9 94          	  and a9 a15 a9;
    3e83:	b3 94 1c 12       	  cmpbrne.w a9 0x1c 0x3e95;
    3e87:	b2 0a             	  mv.w a10 a0;
    3e89:	b2 1b             	  mv.w a11 a1;
    3e8b:	b2 2c             	  mv.w a12 a2;
    3e8d:	7e 64 b6 00       	  call 0xb664;
    3e91:	3e 9f 3e 00       	  jmp 0x3e9f;
    3e95:	b2 0a             	  mv.w a10 a0;
    3e97:	b2 1b             	  mv.w a11 a1;
    3e99:	b2 2c             	  mv.w a12 a2;
    3e9b:	7e ff a9 00       	  call 0xa9ff;
    3e9f:	fe 4b 01          	  rspr a11 SP;
    3ea2:	90 bb 44          	  add.w a11 a11 0x44;
    3ea5:	bf be             	  ldd.w a14 a11;
    3ea7:	c4 a9 1f          	  and a9 a10 0x1f;
    3eaa:	df ff ff ff e0    	  mvi a15 -0x1f000001;
    3eaf:	b6 94 18          	  lsl.w a9 0x18;
    3eb2:	fd ef 04          	  and a14 a15;
    3eb5:	ff 9e e5          	  or a14 a9 a14;
    3eb8:	a0 be             	  std.w a11 a14;
    3eba:	d9 00 00 00 40    	  mvi a9 0x40000000;
    3ebf:	ff e9 94          	  and a9 a14 a9;
    3ec2:	f4 0b 6b          	  breq 0x3f2d;
    3ec5:	33 a4 1f 68       	  cmpbrne.b a10 0x1f 0x3f2d;
    3ec9:	fe 49 01          	  rspr a9 SP;
    3ecc:	90 99 40          	  add.w a9 a9 0x40;
    3ecf:	bf 9d             	  ldd.w a13 a9;
    3ed1:	92 99 04          	  sub.w a9 a9 0x4;
    3ed4:	bf 9c             	  ldd.w a12 a9;
    3ed6:	33 e4 1e 42       	  cmpbrne.b a14 0x1e 0x3f18;
    3eda:	df 03 00 00 ff    	  mvi a15 -0xfffffd;
    3edf:	89 ff ff 3f       	  mvi a9 0x3fffff;
    3ee3:	ff ef f4          	  and a15 a14 a15;
    3ee6:	ff d9 94          	  and a9 a13 a9;
    3ee9:	b6 94 02          	  lsl.w a9 0x2;
    3eec:	ff f9 e5          	  or a14 a15 a9;
    3eef:	b3 c0 00 0b       	  cmpbreq.w a12 0x0 0x3efa;
    3ef3:	c5 e9 03          	  or a9 a14 0x3;
    3ef6:	3e 09 3f 00       	  jmp 0x3f09;
    3efa:	09 fd             	  mvi a9 -0x3;
    3efc:	95 df 16          	  lsr.w a15 a13 0x16;
    3eff:	fd e9 04          	  and a14 a9;
    3f02:	b3 f0 00 0d       	  cmpbreq.w a15 0x0 0x3f0f;
    3f06:	c5 e9 01          	  or a9 a14 0x1;
    3f09:	a0 b9             	  std.w a11 a9;
    3f0b:	3e 2d 3f 00       	  jmp 0x3f2d;
    3f0f:	09 fe             	  mvi a9 -0x2;
    3f11:	ff e9 94          	  and a9 a14 a9;
    3f14:	3e 09 3f 00       	  jmp 0x3f09;
    3f18:	df 00 00 00 ff    	  mvi a15 -0x1000000;
    3f1d:	d9 ff ff ff 00    	  mvi a9 0xffffff;
    3f22:	ff ef f4          	  and a15 a14 a15;
    3f25:	ff d9 94          	  and a9 a13 a9;
    3f28:	fd f9 05          	  or a15 a9;
    3f2b:	a0 bf             	  std.w a11 a15;
    3f2d:	fe 49 01          	  rspr a9 SP;
    3f30:	fe 4f 01          	  rspr a15 SP;
    3f33:	90 99 40          	  add.w a9 a9 0x40;
    3f36:	90 ff 44          	  add.w a15 a15 0x44;
    3f39:	bf 9e             	  ldd.w a14 a9;
    3f3b:	bf ff             	  ldd.w a15 a15;
    3f3d:	92 99 04          	  sub.w a9 a9 0x4;
    3f40:	bf 9d             	  ldd.w a13 a9;
    3f42:	92 99 04          	  sub.w a9 a9 0x4;
    3f45:	a0 9f             	  std.w a9 a15;
    3f47:	92 99 04          	  sub.w a9 a9 0x4;
    3f4a:	a0 9e             	  std.w a9 a14;
    3f4c:	92 99 04          	  sub.w a9 a9 0x4;
    3f4f:	a0 9d             	  std.w a9 a13;
    3f51:	7e 74 0a 00       	  call 0xa74;
    3f55:	d9 f4 2a 00 00    	  mvi a9 0x2af4;
    3f5a:	18 99 48          	  ldd.b a9 a9 0x48;
    3f5d:	33 94 00 0a       	  cmpbrne.b a9 0x0 0x3f67;
    3f61:	f8 02             	  halt;
    3f63:	3e 6b 3f 00       	  jmp 0x3f6b;
    3f67:	33 90 01 1e       	  cmpbreq.b a9 0x1 0x3f85;
    3f6b:	fe 4e 01          	  rspr a14 SP;
    3f6e:	90 ee 38          	  add.w a14 a14 0x38;
    3f71:	bf e9             	  ldd.w a9 a14;
    3f73:	df ff ff ff e0    	  mvi a15 -0x1f000001;
    3f78:	fd 9f 04          	  and a9 a15;
    3f7b:	df 00 00 00 01    	  mvi a15 0x1000000;
    3f80:	fd 9f 05          	  or a9 a15;
    3f83:	a0 e9             	  std.w a14 a9;
    3f85:	3d f4             	  clr.b a15;
    3f87:	d9 f4 2a 00 00    	  mvi a9 0x2af4;
    3f8c:	0d 01             	  mvi a13 0x1;
    3f8e:	35 9f 48          	  std.b a9 0x48 a15;
    3f91:	fe 4b 01          	  rspr a11 SP;
    3f94:	fe 4c 01          	  rspr a12 SP;
    3f97:	90 bb 34          	  add.w a11 a11 0x34;
    3f9a:	90 cc 30          	  add.w a12 a12 0x30;
    3f9d:	fe 4a 01          	  rspr a10 SP;
    3fa0:	90 aa 38          	  add.w a10 a10 0x38;
    3fa3:	7e 53 90 00       	  call 0x9053;
    3fa7:	7e 9b 0a 00       	  call 0xa9b;
    3fab:	3d 14             	  clr.b a1;
    3fad:	3e b3 3f 00       	  jmp 0x3fb3;
    3fb1:	01 e4             	  mvi a1 -0x1c;
    3fb3:	fe 49 01          	  rspr a9 SP;
    3fb6:	90 99 4c          	  add.w a9 a9 0x4c;
    3fb9:	bf 9f             	  ldd.w a15 a9;
    3fbb:	d9 2c 06 00 00    	  mvi a9 0x62c;
    3fc0:	bf 99             	  ldd.w a9 a9;
    3fc2:	32 1a             	  mv.b a10 a1;
    3fc4:	a6 f9             	  cmp.w a15 a9;
    3fc6:	f4 0b 07          	  breq 0x3fcd;
    3fc9:	7e e9 42 00       	  call 0x42e9;
    3fcd:	f4 30 0c          	  addsp 0xc;
    3fd0:	fb 65 28          	  popma a6 0x1 0x28;

00003fd3 <_pxPortInitialiseStack>:
    3fd3:	92 a9 04          	  sub.w a9 a10 0x4;
    3fd6:	a0 9b             	  std.w a9 a11;
    3fd8:	92 ae 48          	  sub.w a14 a10 0x48;
    3fdb:	b5 ec 06          	  std.w a14 0x18 a12;
    3fde:	89 00 00 30       	  mvi a9 0x300000;
    3fe2:	a0 e9             	  std.w a14 a9;
    3fe4:	b2 af             	  mv.w a15 a10;
    3fe6:	bd 94             	  clr.w a9;
    3fe8:	92 ff 4c          	  sub.w a15 a15 0x4c;
    3feb:	b2 fa             	  mv.w a10 a15;
    3fed:	a0 f9             	  std.w a15 a9;
    3fef:	f8 00             	  ret;

00003ff1 <_xPortStartScheduler>:
    3ff1:	f9 02             	  pushm a0;
    3ff3:	7e 5d 71 00       	  call 0x715d;
    3ff7:	b3 a4 00 0a       	  cmpbrne.w a10 0x0 0x4001;
    3ffb:	bd 04             	  clr.w a0;
    3ffd:	3e 37 40 00       	  jmp 0x4037;
    4001:	89 89 16 00       	  mvi a9 0x1689;
    4005:	fe 93 00          	  wspr EV a9;
    4008:	89 33 16 00       	  mvi a9 0x1633;
    400c:	fe 90 00          	  wspr IV0 a9;
    400f:	89 71 16 00       	  mvi a9 0x1671;
    4013:	fe 91 00          	  wspr IV1 a9;
    4016:	bd a4             	  clr.w a10;
    4018:	bd b4             	  clr.w a11;
    401a:	7e 89 0a 00       	  call 0xa89;
    401e:	b2 a0             	  mv.w a0 a10;
    4020:	b0 a6 00          	  cmp.w a10 0x0;
    4023:	f4 1f 0c          	  brsgte 0x402f;
    4026:	bd a4             	  clr.w a10;
    4028:	4b 0b fe          	  mvi a11 -0x1f5;
    402b:	7e 95 0a 00       	  call 0xa95;
    402f:	7e 40 41 00       	  call 0x4140;
    4033:	3e 2b 16 00       	  jmp 0x162b;
    4037:	b2 0a             	  mv.w a10 a0;
    4039:	fb 01             	  popm a0 0x1;

0000403b <_vEVPreInitRoutineEntryC>:
    403b:	7e d6 0a 00       	  call 0xad6;
    403f:	f8 00             	  ret;

00004041 <_lwosMallocAligned_IMPL>:
    4041:	f9 22             	  pushm a2;
    4043:	8f ff ff 00       	  mvi a15 0xffff;
    4047:	b2 c0             	  mv.w a0 a12;
    4049:	a6 bf             	  cmp.w a11 a15;
    404b:	f4 0c 72          	  brgt 0x40bd;
    404e:	b3 c0 00 6f       	  cmpbreq.w a12 0x0 0x40bd;
    4052:	92 c9 01          	  sub.w a9 a12 0x1;
    4055:	fd 9c 04          	  and a9 a12;
    4058:	f4 1b 65          	  brne 0x40bd;
    405b:	a6 cf             	  cmp.w a12 a15;
    405d:	f4 0c 60          	  brgt 0x40bd;
    4060:	90 bf 03          	  add.w a15 a11 0x3;
    4063:	09 fc             	  mvi a9 -0x4;
    4065:	ff f9 14          	  and a1 a15 a9;
    4068:	f4 0b 55          	  breq 0x40bd;
    406b:	7e 74 0a 00       	  call 0xa74;
    406f:	82 44 32 00       	  mvi a2 0x3244;
    4073:	7f 2d             	  ldd.h a13 a2;
    4075:	89 40 32 00       	  mvi a9 0x3240;
    4079:	bf 9a             	  ldd.w a10 a9;
    407b:	89 46 32 00       	  mvi a9 0x3246;
    407f:	c2 0f 0f          	  sext a15 a0 0xf;
    4082:	7f 9b             	  ldd.h a11 a9;
    4084:	79 ff 01          	  neg.h a15 a15;
    4087:	52 d9 01          	  sub.h a9 a13 0x1;
    408a:	7c 90 90          	  add.h a9 a9 a0;
    408d:	ff f9 c4          	  and a12 a15 a9;
    4090:	66 cd             	  cmp.h a12 a13;
    4092:	f4 08 21          	  brc 0x40b3;
    4095:	7c c1 d0          	  add.h a13 a12 a1;
    4098:	e4 d9 ff ff       	  and a9 a13 0xffff;
    409c:	a6 91             	  cmp.w a9 a1;
    409e:	f4 08 15          	  brc 0x40b3;
    40a1:	66 db             	  cmp.h a13 a11;
    40a3:	f4 0c 10          	  brgt 0x40b3;
    40a6:	e4 c9 ff ff       	  and a9 a12 0xffff;
    40aa:	60 2d             	  std.h a2 a13;
    40ac:	bc 9a 00          	  add.w a0 a9 a10;
    40af:	3e b5 40 00       	  jmp 0x40b5;
    40b3:	bd 04             	  clr.w a0;
    40b5:	7e 9b 0a 00       	  call 0xa9b;
    40b9:	3e bf 40 00       	  jmp 0x40bf;
    40bd:	bd 04             	  clr.w a0;
    40bf:	b2 0a             	  mv.w a10 a0;
    40c1:	fb 21             	  popm a2 0x1;

000040c3 <_lwosMalloc_IMPL>:
    40c3:	0c 04             	  mvi a12 0x4;
    40c5:	7e 41 40 00       	  call 0x4041;
    40c9:	f8 00             	  ret;

000040cb <_lwosCallocAligned_IMPL>:
    40cb:	f9 12             	  pushm a1;
    40cd:	b2 b1             	  mv.w a1 a11;
    40cf:	7e 41 40 00       	  call 0x4041;
    40d3:	b2 a0             	  mv.w a0 a10;
    40d5:	b3 a0 00 0c       	  cmpbreq.w a10 0x0 0x40e1;
    40d9:	b2 1c             	  mv.w a12 a1;
    40db:	bd b4             	  clr.w a11;
    40dd:	7e 94 0b 00       	  call 0xb94;
    40e1:	b2 0a             	  mv.w a10 a0;
    40e3:	fb 11             	  popm a1 0x1;

000040e5 <_lwosCalloc_IMPL>:
    40e5:	0c 04             	  mvi a12 0x4;
    40e7:	7e cb 40 00       	  call 0x40cb;
    40eb:	f8 00             	  ret;

000040ed <_lwosCallocResident_IMPL>:
    40ed:	b2 ab             	  mv.w a11 a10;
    40ef:	3d a4             	  clr.b a10;
    40f1:	7e e5 40 00       	  call 0x40e5;
    40f5:	f8 00             	  ret;

000040f7 <_osFlcnPrivLevelLwrrTaskGet_IMPL>:
    40f7:	8f 10 11 00       	  mvi a15 0x1110;
    40fb:	bf f9             	  ldd.w a9 a15;
    40fd:	18 99 1b          	  ldd.b a9 a9 0x1b;
    4100:	36 95 06          	  lsr.b a9 0x6;
    4103:	20 a9             	  std.b a10 a9;
    4105:	bf f9             	  ldd.w a9 a15;
    4107:	18 99 1b          	  ldd.b a9 a9 0x1b;
    410a:	c7 99 24          	  uxtr a9 a9 0x24;
    410d:	20 b9             	  std.b a11 a9;
    410f:	f8 00             	  ret;

00004111 <_osFlcnPrivLevelLwrrTaskSet_IMPL>:
    4111:	8c 10 11 00       	  mvi a12 0x1110;
    4115:	bf cd             	  ldd.w a13 a12;
    4117:	14 af 06          	  lsl.b a15 a10 0x6;
    411a:	c4 be 03          	  and a14 a11 0x3;
    411d:	36 e4 04          	  lsl.b a14 0x4;
    4120:	18 d9 1b          	  ldd.b a9 a13 0x1b;
    4123:	f0 94 3f          	  and a9 0x3f;
    4126:	fd f9 05          	  or a15 a9;
    4129:	35 df 1b          	  std.b a13 0x1b a15;
    412c:	bf cf             	  ldd.w a15 a12;
    412e:	18 f9 1b          	  ldd.b a9 a15 0x1b;
    4131:	f0 94 cf          	  and a9 0xcf;
    4134:	fd e9 05          	  or a14 a9;
    4137:	35 fe 1b          	  std.b a15 0x1b a14;
    413a:	7e 32 19 00       	  call 0x1932;
    413e:	f8 00             	  ret;

00004140 <_osFlcnPrivLevelSetFromLwrrTask>:
    4140:	89 10 11 00       	  mvi a9 0x1110;
    4144:	bf 99             	  ldd.w a9 a9;
    4146:	18 9a 1b          	  ldd.b a10 a9 0x1b;
    4149:	c7 ab 24          	  uxtr a11 a10 0x24;
    414c:	36 a5 06          	  lsr.b a10 0x6;
    414f:	7e 32 19 00       	  call 0x1932;
    4153:	f8 00             	  ret;

00004155 <_osFlcnPrivLevelReset>:
    4155:	7e ff 18 00       	  call 0x18ff;
    4159:	f8 00             	  ret;

0000415b <___muldi3>:
    415b:	f4 30 e0          	  addsp -0x20;
    415e:	f9 82             	  pushm a8;
    4160:	e4 c1 ff ff       	  and a1 a12 0xffff;
    4164:	95 c2 10          	  lsr.w a2 a12 0x10;
    4167:	b2 c5             	  mv.w a5 a12;
    4169:	e4 a0 ff ff       	  and a0 a10 0xffff;
    416d:	95 a3 10          	  lsr.w a3 a10 0x10;
    4170:	b2 a4             	  mv.w a4 a10;
    4172:	fe 48 01          	  rspr a8 SP;
    4175:	fe 47 01          	  rspr a7 SP;
    4178:	90 88 3c          	  add.w a8 a8 0x3c;
    417b:	90 77 34          	  add.w a7 a7 0x34;
    417e:	b5 8b 01          	  std.w a8 0x4 a11;
    4181:	b5 7d 01          	  std.w a7 0x4 a13;
    4184:	a0 7c             	  std.w a7 a12;
    4186:	b2 0b             	  mv.w a11 a0;
    4188:	a0 8a             	  std.w a8 a10;
    418a:	b2 1a             	  mv.w a10 a1;
    418c:	7e fc 16 00       	  call 0x16fc;
    4190:	b2 0b             	  mv.w a11 a0;
    4192:	b2 a6             	  mv.w a6 a10;
    4194:	b2 2a             	  mv.w a10 a2;
    4196:	7e fc 16 00       	  call 0x16fc;
    419a:	b2 3b             	  mv.w a11 a3;
    419c:	b2 a0             	  mv.w a0 a10;
    419e:	b2 1a             	  mv.w a10 a1;
    41a0:	7e fc 16 00       	  call 0x16fc;
    41a4:	b2 3b             	  mv.w a11 a3;
    41a6:	b2 a1             	  mv.w a1 a10;
    41a8:	b2 2a             	  mv.w a10 a2;
    41aa:	7e fc 16 00       	  call 0x16fc;
    41ae:	bc 10 00          	  add.w a0 a1 a0;
    41b1:	95 69 10          	  lsr.w a9 a6 0x10;
    41b4:	b2 ad             	  mv.w a13 a10;
    41b6:	bc 09 00          	  add.w a0 a0 a9;
    41b9:	a6 10             	  cmp.w a1 a0;
    41bb:	f4 0d 0a          	  brlte 0x41c5;
    41be:	89 00 00 01       	  mvi a9 0x10000;
    41c2:	bc d9 d0          	  add.w a13 a13 a9;
    41c5:	98 7b 01          	  ldd.w a11 a7 0x4;
    41c8:	e4 69 ff ff       	  and a9 a6 0xffff;
    41cc:	94 0f 10          	  lsl.w a15 a0 0x10;
    41cf:	fe 4e 01          	  rspr a14 SP;
    41d2:	bc f9 f0          	  add.w a15 a15 a9;
    41d5:	90 ee 24          	  add.w a14 a14 0x24;
    41d8:	95 09 10          	  lsr.w a9 a0 0x10;
    41db:	a0 ef             	  std.w a14 a15;
    41dd:	bc d9 90          	  add.w a9 a13 a9;
    41e0:	b5 e9 01          	  std.w a14 0x4 a9;
    41e3:	bf ec             	  ldd.w a12 a14;
    41e5:	98 ed 01          	  ldd.w a13 a14 0x4;
    41e8:	b2 4a             	  mv.w a10 a4;
    41ea:	fe 41 01          	  rspr a1 SP;
    41ed:	90 11 2c          	  add.w a1 a1 0x2c;
    41f0:	b5 1d 01          	  std.w a1 0x4 a13;
    41f3:	a0 1c             	  std.w a1 a12;
    41f5:	7e fc 16 00       	  call 0x16fc;
    41f9:	98 8b 01          	  ldd.w a11 a8 0x4;
    41fc:	b2 a0             	  mv.w a0 a10;
    41fe:	b2 5a             	  mv.w a10 a5;
    4200:	7e fc 16 00       	  call 0x16fc;
    4204:	98 1b 01          	  ldd.w a11 a1 0x4;
    4207:	bc 0a 00          	  add.w a0 a0 a10;
    420a:	bf 1a             	  ldd.w a10 a1;
    420c:	bc 0b b0          	  add.w a11 a0 a11;
    420f:	fb 85 20          	  popma a8 0x1 0x20;

00004212 <___lshrdi3>:
    4212:	f4 30 f0          	  addsp -0x10;
    4215:	b3 c0 00 33       	  cmpbreq.w a12 0x0 0x4248;
    4219:	fe 4f 01          	  rspr a15 SP;
    421c:	90 ff 08          	  add.w a15 a15 0x8;
    421f:	b5 fb 01          	  std.w a15 0x4 a11;
    4222:	a0 fa             	  std.w a15 a10;
    4224:	09 20             	  mvi a9 0x20;
    4226:	bb 9c 02          	  sub.w a9 a12;
    4229:	b0 96 00          	  cmp.w a9 0x0;
    422c:	f4 1d 21          	  brslte 0x424d;
    422f:	bc ac f5          	  lsr.w a15 a10 a12;
    4232:	bc b9 94          	  lsl.w a9 a11 a9;
    4235:	fe 4a 01          	  rspr a10 SP;
    4238:	fd 9f 05          	  or a9 a15;
    423b:	bc bc f5          	  lsr.w a15 a11 a12;
    423e:	a0 a9             	  std.w a10 a9;
    4240:	b5 af 01          	  std.w a10 0x4 a15;
    4243:	98 ab 01          	  ldd.w a11 a10 0x4;
    4246:	bf aa             	  ldd.w a10 a10;
    4248:	f4 30 10          	  addsp 0x10;
    424b:	f8 00             	  ret;
    424d:	fe 4a 01          	  rspr a10 SP;
    4250:	b9 9f 01          	  neg.w a15 a9;
    4253:	bd 94             	  clr.w a9;
    4255:	bc bf f5          	  lsr.w a15 a11 a15;
    4258:	b5 a9 01          	  std.w a10 0x4 a9;
    425b:	a0 af             	  std.w a10 a15;
    425d:	98 ab 01          	  ldd.w a11 a10 0x4;
    4260:	bf aa             	  ldd.w a10 a10;
    4262:	3e 48 42 00       	  jmp 0x4248;

00004266 <___ashldi3>:
    4266:	f4 30 f0          	  addsp -0x10;
    4269:	b3 c0 00 33       	  cmpbreq.w a12 0x0 0x429c;
    426d:	fe 4f 01          	  rspr a15 SP;
    4270:	90 ff 08          	  add.w a15 a15 0x8;
    4273:	b5 fb 01          	  std.w a15 0x4 a11;
    4276:	a0 fa             	  std.w a15 a10;
    4278:	09 20             	  mvi a9 0x20;
    427a:	bb 9c 02          	  sub.w a9 a12;
    427d:	b0 96 00          	  cmp.w a9 0x0;
    4280:	f4 1d 21          	  brslte 0x42a1;
    4283:	bc bc f4          	  lsl.w a15 a11 a12;
    4286:	fe 4e 01          	  rspr a14 SP;
    4289:	bc a9 95          	  lsr.w a9 a10 a9;
    428c:	fd 9f 05          	  or a9 a15;
    428f:	bc ac f4          	  lsl.w a15 a10 a12;
    4292:	b5 e9 01          	  std.w a14 0x4 a9;
    4295:	a0 ef             	  std.w a14 a15;
    4297:	98 eb 01          	  ldd.w a11 a14 0x4;
    429a:	bf ea             	  ldd.w a10 a14;
    429c:	f4 30 10          	  addsp 0x10;
    429f:	f8 00             	  ret;
    42a1:	fe 4e 01          	  rspr a14 SP;
    42a4:	b9 9f 01          	  neg.w a15 a9;
    42a7:	bd 94             	  clr.w a9;
    42a9:	bc af f4          	  lsl.w a15 a10 a15;
    42ac:	a0 e9             	  std.w a14 a9;
    42ae:	b5 ef 01          	  std.w a14 0x4 a15;
    42b1:	bf ea             	  ldd.w a10 a14;
    42b3:	98 eb 01          	  ldd.w a11 a14 0x4;
    42b6:	3e 9c 42 00       	  jmp 0x429c;

Disassembly of section .text.registerHalModule_TU10X:

000042ba <_registerHalModule_TU10X>:
    42ba:	de 2c 06 00 00    	  mvi a14 0x62c;
    42bf:	bf e9             	  ldd.w a9 a14;
    42c1:	f4 30 fc          	  addsp -0x4;
    42c4:	fe 4f 01          	  rspr a15 SP;
    42c7:	dd 00 00 00 00    	  mvi a13 0x0;
    42cc:	a0 f9             	  std.w a15 a9;
    42ce:	d9 34 14 00 00    	  mvi a9 0x1434;
    42d3:	bf ff             	  ldd.w a15 a15;
    42d5:	a0 9d             	  std.w a9 a13;
    42d7:	bf e9             	  ldd.w a9 a14;
    42d9:	3d a4             	  clr.b a10;
    42db:	a6 f9             	  cmp.w a15 a9;
    42dd:	f4 0b 07          	  breq 0x42e4;
    42e0:	7e e9 42 00       	  call 0x42e9;
    42e4:	f4 30 04          	  addsp 0x4;
    42e7:	f8 00             	  ret;

Disassembly of section .text.__stack_chk_fail:

000042e9 <___stack_chk_fail>:
    42e9:	0f 18             	  mvi a15 0x18;
    42eb:	49 00 11          	  mvi a9 0x1100;
    42ee:	f7 9f 00          	  stxb a9 0x0 a15;
    42f1:	f8 02             	  halt;
    42f3:	f8 00             	  ret;

Disassembly of section .text._soeIssueRingMasterCmd_LR10:

000042f5 <__soeIssueRingMasterCmd_LR10>:
    42f5:	f4 30 f4          	  addsp -0xc;
    42f8:	df 2c 06 00 00    	  mvi a15 0x62c;
    42fd:	f9 12             	  pushm a1;
    42ff:	bf ff             	  ldd.w a15 a15;
    4301:	fe 49 01          	  rspr a9 SP;
    4304:	90 99 10          	  add.w a9 a9 0x10;
    4307:	b2 ab             	  mv.w a11 a10;
    4309:	a0 9f             	  std.w a9 a15;
    430b:	8a 4c 00 12       	  mvi a10 0x12004c;
    430f:	7e b1 1c 00       	  call 0x1cb1;
    4313:	fe 4a 01          	  rspr a10 SP;
    4316:	80 3f 4b 4c       	  mvi a0 0x4c4b3f;
    431a:	90 aa 08          	  add.w a10 a10 0x8;
    431d:	b2 a1             	  mv.w a1 a10;
    431f:	7e 81 15 00       	  call 0x1581;
    4323:	8a 4c 00 12       	  mvi a10 0x12004c;
    4327:	7e 22 1c 00       	  call 0x1c22;
    432b:	f0 a4 3f          	  and a10 0x3f;
    432e:	f4 1b 09          	  brne 0x4337;
    4331:	0a 01             	  mvi a10 0x1;
    4333:	3e 46 43 00       	  jmp 0x4346;
    4337:	b2 1a             	  mv.w a10 a1;
    4339:	7e 9c 15 00       	  call 0x159c;
    433d:	a6 a0             	  cmp.w a10 a0;
    433f:	f4 0d e4          	  brlte 0x4323;
    4342:	f8 02             	  halt;
    4344:	3d a4             	  clr.b a10;
    4346:	fe 49 01          	  rspr a9 SP;
    4349:	90 99 10          	  add.w a9 a9 0x10;
    434c:	bf 9f             	  ldd.w a15 a9;
    434e:	d9 2c 06 00 00    	  mvi a9 0x62c;
    4353:	bf 99             	  ldd.w a9 a9;
    4355:	a6 f9             	  cmp.w a15 a9;
    4357:	f4 0b 07          	  breq 0x435e;
    435a:	7e e9 42 00       	  call 0x42e9;
    435e:	fb 15 0c          	  popma a1 0x1 0xc;

Disassembly of section .imem_timer._timerSetup_LR10:

00004361 <_timerSetup_LR10>:
    4361:	f4 30 fc          	  addsp -0x4;
    4364:	df 2c 06 00 00    	  mvi a15 0x62c;
    4369:	f9 12             	  pushm a1;
    436b:	bf ff             	  ldd.w a15 a15;
    436d:	fe 49 01          	  rspr a9 SP;
    4370:	90 99 08          	  add.w a9 a9 0x8;
    4373:	b2 b1             	  mv.w a1 a11;
    4375:	a0 9f             	  std.w a9 a15;
    4377:	b3 a0 01 21       	  cmpbreq.w a10 0x1 0x4398;
    437b:	b0 a6 01          	  cmp.w a10 0x1;
    437e:	f4 08 0e          	  brc 0x438c;
    4381:	0e ff             	  mvi a14 -0x1;
    4383:	b3 ad 02 be 00    	  cmpbrne.w a10 0x2 0x4441;
    4388:	3e 11 44 00       	  jmp 0x4411;
    438c:	0f 02             	  mvi a15 0x2;
    438e:	49 00 0a          	  mvi a9 0xa00;
    4391:	f6 9f 00          	  stx a9 0x0 a15;
    4394:	3e 1f 44 00       	  jmp 0x441f;
    4398:	49 00 0a          	  mvi a9 0xa00;
    439b:	cf 9f 00          	  ldx a15 a9 0x0;
    439e:	0e fe             	  mvi a14 -0x2;
    43a0:	fd fe 04          	  and a15 a14;
    43a3:	f6 9f 00          	  stx a9 0x0 a15;
    43a6:	33 d0 00 2d       	  cmpbreq.b a13 0x0 0x43d3;
    43aa:	4f 00 08          	  mvi a15 0x800;
    43ad:	cf f9 00          	  ldx a9 a15 0x0;
    43b0:	bd 94             	  clr.w a9;
    43b2:	f6 f9 00          	  stx a15 0x0 a9;
    43b5:	40 00 09          	  mvi a0 0x900;
    43b8:	cf 09 00          	  ldx a9 a0 0x0;
    43bb:	4b e8 03          	  mvi a11 0x3e8;
    43be:	b2 ca             	  mv.w a10 a12;
    43c0:	7e fc 16 00       	  call 0x16fc;
    43c4:	b8 aa 00 02 00    	  add.w a10 a10 0x200;
    43c9:	b6 a5 0a          	  lsr.w a10 0xa;
    43cc:	f6 0a 00          	  stx a0 0x0 a10;
    43cf:	3e f9 43 00       	  jmp 0x43f9;
    43d3:	40 00 08          	  mvi a0 0x800;
    43d6:	cf 09 00          	  ldx a9 a0 0x0;
    43d9:	4b e8 03          	  mvi a11 0x3e8;
    43dc:	b2 ca             	  mv.w a10 a12;
    43de:	7e fc 16 00       	  call 0x16fc;
    43e2:	b8 aa 00 02 00    	  add.w a10 a10 0x200;
    43e7:	b6 a5 0a          	  lsr.w a10 0xa;
    43ea:	92 aa 01          	  sub.w a10 a10 0x1;
    43ed:	f6 0a 00          	  stx a0 0x0 a10;
    43f0:	49 00 09          	  mvi a9 0x900;
    43f3:	cf 9f 00          	  ldx a15 a9 0x0;
    43f6:	f6 9a 00          	  stx a9 0x0 a10;
    43f9:	d9 4c 2a 00 00    	  mvi a9 0x2a4c;
    43fe:	4f 00 0a          	  mvi a15 0xa00;
    4401:	b5 91 01          	  std.w a9 0x4 a1;
    4404:	cf f9 00          	  ldx a9 a15 0x0;
    4407:	f0 95 01          	  or a9 0x1;
    440a:	f6 f9 00          	  stx a15 0x0 a9;
    440d:	3e 3f 44 00       	  jmp 0x443f;
    4411:	4e 00 0a          	  mvi a14 0xa00;
    4414:	cf e9 00          	  ldx a9 a14 0x0;
    4417:	0f fe             	  mvi a15 -0x2;
    4419:	fd 9f 04          	  and a9 a15;
    441c:	f6 e9 00          	  stx a14 0x0 a9;
    441f:	4f 00 08          	  mvi a15 0x800;
    4422:	cf f9 00          	  ldx a9 a15 0x0;
    4425:	bd 94             	  clr.w a9;
    4427:	f6 f9 00          	  stx a15 0x0 a9;
    442a:	4f 00 09          	  mvi a15 0x900;
    442d:	cf f9 00          	  ldx a9 a15 0x0;
    4430:	bd 94             	  clr.w a9;
    4432:	f6 f9 00          	  stx a15 0x0 a9;
    4435:	bd f4             	  clr.w a15;
    4437:	d9 4c 2a 00 00    	  mvi a9 0x2a4c;
    443c:	b5 9f 01          	  std.w a9 0x4 a15;
    443f:	3d e4             	  clr.b a14;
    4441:	fe 49 01          	  rspr a9 SP;
    4444:	90 99 08          	  add.w a9 a9 0x8;
    4447:	bf 9f             	  ldd.w a15 a9;
    4449:	d9 2c 06 00 00    	  mvi a9 0x62c;
    444e:	bf 99             	  ldd.w a9 a9;
    4450:	32 ea             	  mv.b a10 a14;
    4452:	a6 f9             	  cmp.w a15 a9;
    4454:	f4 0b 07          	  breq 0x445b;
    4457:	7e e9 42 00       	  call 0x42e9;
    445b:	fb 15 04          	  popma a1 0x1 0x4;

Disassembly of section .imem_timer._timerService_LR10:

0000445e <_timerService_LR10>:
    445e:	df 2c 06 00 00    	  mvi a15 0x62c;
    4463:	bf ff             	  ldd.w a15 a15;
    4465:	f4 30 fc          	  addsp -0x4;
    4468:	fe 49 01          	  rspr a9 SP;
    446b:	a0 9f             	  std.w a9 a15;
    446d:	d9 4c 2a 00 00    	  mvi a9 0x2a4c;
    4472:	98 99 01          	  ldd.w a9 a9 0x4;
    4475:	b3 94 01 0c       	  cmpbrne.w a9 0x1 0x4481;
    4479:	7e 79 7e 00       	  call 0x7e79;
    447d:	3e 83 44 00       	  jmp 0x4483;
    4481:	f8 02             	  halt;
    4483:	fe 49 01          	  rspr a9 SP;
    4486:	bf 9f             	  ldd.w a15 a9;
    4488:	d9 2c 06 00 00    	  mvi a9 0x62c;
    448d:	bf 99             	  ldd.w a9 a9;
    448f:	a6 f9             	  cmp.w a15 a9;
    4491:	f4 0b 07          	  breq 0x4498;
    4494:	7e e9 42 00       	  call 0x42e9;
    4498:	f4 30 04          	  addsp 0x4;
    449b:	f8 00             	  ret;

Disassembly of section .text._bifEomDoneStatus_LR10:

0000449d <__bifEomDoneStatus_LR10>:
    449d:	f4 30 fc          	  addsp -0x4;
    44a0:	f9 22             	  pushm a2;
    44a2:	d1 2c 06 00 00    	  mvi a1 0x62c;
    44a7:	bf 19             	  ldd.w a9 a1;
    44a9:	b2 a2             	  mv.w a2 a10;
    44ab:	fe 40 01          	  rspr a0 SP;
    44ae:	8a 14 d1 08       	  mvi a10 0x8d114;
    44b2:	90 00 0c          	  add.w a0 a0 0xc;
    44b5:	a0 09             	  std.w a0 a9;
    44b7:	7e 22 1c 00       	  call 0x1c22;
    44bb:	3f 29             	  ldd.b a9 a2;
    44bd:	bf 0e             	  ldd.w a14 a0;
    44bf:	bf 1f             	  ldd.w a15 a1;
    44c1:	c7 aa 08          	  uxtr a10 a10 0x8;
    44c4:	f0 94 ff          	  and a9 0xff;
    44c7:	a6 a9             	  cmp.w a10 a9;
    44c9:	f0 ac 0b          	  sgetb a10 0xb;
    44cc:	a6 ef             	  cmp.w a14 a15;
    44ce:	f4 0b 07          	  breq 0x44d5;
    44d1:	7e e9 42 00       	  call 0x42e9;
    44d5:	fb 25 04          	  popma a2 0x1 0x4;

Disassembly of section .text.coreDmaInit_LR10:

000044d8 <_coreDmaInit_LR10>:
    44d8:	f4 30 fc          	  addsp -0x4;
    44db:	df 2c 06 00 00    	  mvi a15 0x62c;
    44e0:	f9 02             	  pushm a0;
    44e2:	bf ff             	  ldd.w a15 a15;
    44e4:	fe 49 01          	  rspr a9 SP;
    44e7:	90 99 04          	  add.w a9 a9 0x4;
    44ea:	a0 9f             	  std.w a9 a15;
    44ec:	8f 00 89 01       	  mvi a15 0x18900;
    44f0:	ce f9 00          	  ldxb a9 a15 0x0;
    44f3:	f0 95 80          	  or a9 0x80;
    44f6:	f7 f9 00          	  stxb a15 0x0 a9;
    44f9:	4e 00 43          	  mvi a14 0x4300;
    44fc:	ce e9 00          	  ldxb a9 a14 0x0;
    44ff:	0f fe             	  mvi a15 -0x2;
    4501:	fd 9f 04          	  and a9 a15;
    4504:	f7 e9 00          	  stxb a14 0x0 a9;
    4507:	d0 0c 14 00 00    	  mvi a0 0x140c;
    450c:	bf 0a             	  ldd.w a10 a0;
    450e:	b8 aa 4c 03 00    	  add.w a10 a10 0x34c;
    4513:	7e 22 1c 00       	  call 0x1c22;
    4517:	bf 09             	  ldd.w a9 a0;
    4519:	c5 ab 03          	  or a11 a10 0x3;
    451c:	b8 9a 4c 03 00    	  add.w a10 a9 0x34c;
    4521:	7e b1 1c 00       	  call 0x1cb1;
    4525:	fe 49 01          	  rspr a9 SP;
    4528:	90 99 04          	  add.w a9 a9 0x4;
    452b:	bf 9f             	  ldd.w a15 a9;
    452d:	d9 2c 06 00 00    	  mvi a9 0x62c;
    4532:	bf 99             	  ldd.w a9 a9;
    4534:	a6 f9             	  cmp.w a15 a9;
    4536:	f4 0b 07          	  breq 0x453d;
    4539:	7e e9 42 00       	  call 0x42e9;
    453d:	fb 05 04          	  popma a0 0x1 0x4;

Disassembly of section .text._coreSoeResetPollingCallback_LR10:

00004540 <__coreSoeResetPollingCallback_LR10>:
    4540:	f4 30 fc          	  addsp -0x4;
    4543:	df 2c 06 00 00    	  mvi a15 0x62c;
    4548:	f9 12             	  pushm a1;
    454a:	bf ff             	  ldd.w a15 a15;
    454c:	f4 30 f4          	  addsp -0xc;
    454f:	fe 49 01          	  rspr a9 SP;
    4552:	90 99 14          	  add.w a9 a9 0x14;
    4555:	a0 9f             	  std.w a9 a15;
    4557:	8f 00 c0 01       	  mvi a15 0x1c000;
    455b:	cf f9 00          	  ldx a9 a15 0x0;
    455e:	c7 99 4c          	  uxtr a9 a9 0x4c;
    4561:	b3 99 00 85 00    	  cmpbreq.w a9 0x0 0x45e6;
    4566:	b3 90 01 f5       	  cmpbreq.w a9 0x1 0x455b;
    456a:	f8 02             	  halt;
    456c:	3e 5b 45 00       	  jmp 0x455b;
    4570:	cf f9 00          	  ldx a9 a15 0x0;
    4573:	c7 99 4c          	  uxtr a9 a9 0x4c;
    4576:	b3 90 00 5f       	  cmpbreq.w a9 0x0 0x45d5;
    457a:	b3 90 01 f6       	  cmpbreq.w a9 0x1 0x4570;
    457e:	f8 02             	  halt;
    4580:	3e 70 45 00       	  jmp 0x4570;
    4584:	7e 95 1b 00       	  call 0x1b95;
    4588:	bd 04             	  clr.w a0;
    458a:	b2 0b             	  mv.w a11 a0;
    458c:	bd c4             	  clr.w a12;
    458e:	bd d4             	  clr.w a13;
    4590:	0a 0b             	  mvi a10 0xb;
    4592:	7e 6b 24 00       	  call 0x246b;
    4596:	90 a1 68          	  add.w a1 a10 0x68;
    4599:	b2 1a             	  mv.w a10 a1;
    459b:	7e 22 1c 00       	  call 0x1c22;
    459f:	e4 ab 00 0e       	  and a11 a10 0xe00;
    45a3:	b3 be 00 0e 0b    	  cmpbrne.w a11 0xe00 0x45ae;
    45a8:	b2 1a             	  mv.w a10 a1;
    45aa:	7e b1 1c 00       	  call 0x1cb1;
    45ae:	90 00 01          	  add.w a0 a0 0x1;
    45b1:	b3 04 24 d9       	  cmpbrne.w a0 0x24 0x458a;
    45b5:	bd 94             	  clr.w a9;
    45b7:	bd b4             	  clr.w a11;
    45b9:	30 91 08          	  stdsp.b a9 0x8;
    45bc:	b0 91 00          	  stdsp.w a9 0x0;
    45bf:	b0 91 01          	  stdsp.w a9 0x4;
    45c2:	bd c4             	  clr.w a12;
    45c4:	bd d4             	  clr.w a13;
    45c6:	3d e4             	  clr.b a14;
    45c8:	da 14 14 00 00    	  mvi a10 0x1414;
    45cd:	7e c8 13 00       	  call 0x13c8;
    45d1:	3e 07 46 00       	  jmp 0x4607;
    45d5:	89 00 c2 01       	  mvi a9 0x1c200;
    45d9:	cf 99 00          	  ldx a9 a9 0x0;
    45dc:	f0 94 01          	  and a9 0x1;
    45df:	f4 0b 28          	  breq 0x4607;
    45e2:	3e 84 45 00       	  jmp 0x4584;
    45e6:	8f 1c 85 02       	  mvi a15 0x2851c;
    45ea:	89 00 c1 01       	  mvi a9 0x1c100;
    45ee:	f6 9f 00          	  stx a9 0x0 a15;
    45f1:	df f1 00 00 80    	  mvi a15 -0x7fffff0f;
    45f6:	b8 99 00 01 02    	  sub.w a9 a9 0x100;
    45fb:	f7 9f 00          	  stxb a9 0x0 a15;
    45fe:	cf 9f 00          	  ldx a15 a9 0x0;
    4601:	b2 9f             	  mv.w a15 a9;
    4603:	3e 70 45 00       	  jmp 0x4570;
    4607:	fe 49 01          	  rspr a9 SP;
    460a:	90 99 14          	  add.w a9 a9 0x14;
    460d:	bf 9f             	  ldd.w a15 a9;
    460f:	d9 2c 06 00 00    	  mvi a9 0x62c;
    4614:	bf 99             	  ldd.w a9 a9;
    4616:	a6 f9             	  cmp.w a15 a9;
    4618:	f4 0b 07          	  breq 0x461f;
    461b:	7e e9 42 00       	  call 0x42e9;
    461f:	f4 30 0c          	  addsp 0xc;
    4622:	fb 15 04          	  popma a1 0x1 0x4;

Disassembly of section .text.coreSoeResetPolling_LR10:

00004625 <_coreSoeResetPolling_LR10>:
    4625:	f4 30 fc          	  addsp -0x4;
    4628:	f9 12             	  pushm a1;
    462a:	d1 2c 06 00 00    	  mvi a1 0x62c;
    462f:	bf 19             	  ldd.w a9 a1;
    4631:	f4 30 f4          	  addsp -0xc;
    4634:	bd b4             	  clr.w a11;
    4636:	8a 1c 85 02       	  mvi a10 0x2851c;
    463a:	fe 40 01          	  rspr a0 SP;
    463d:	90 00 14          	  add.w a0 a0 0x14;
    4640:	a0 09             	  std.w a0 a9;
    4642:	7e b1 1c 00       	  call 0x1cb1;
    4646:	7e 02 01 00       	  call 0x102;
    464a:	d9 40 45 00 00    	  mvi a9 0x4540;
    464f:	b0 91 00          	  stdsp.w a9 0x0;
    4652:	bd 94             	  clr.w a9;
    4654:	b2 ac             	  mv.w a12 a10;
    4656:	30 91 08          	  stdsp.b a9 0x8;
    4659:	b0 91 01          	  stdsp.w a9 0x4;
    465c:	da 14 14 00 00    	  mvi a10 0x1414;
    4661:	bd b4             	  clr.w a11;
    4663:	4d 10 27          	  mvi a13 0x2710;
    4666:	0e 01             	  mvi a14 0x1;
    4668:	7e c8 13 00       	  call 0x13c8;
    466c:	bf 0f             	  ldd.w a15 a0;
    466e:	bf 19             	  ldd.w a9 a1;
    4670:	a6 f9             	  cmp.w a15 a9;
    4672:	f4 0b 07          	  breq 0x4679;
    4675:	7e e9 42 00       	  call 0x42e9;
    4679:	f4 30 0c          	  addsp 0xc;
    467c:	fb 15 04          	  popma a1 0x1 0x4;

Disassembly of section .text.intrDisableThermalOvertIntr_LR10:

0000467f <_intrDisableThermalOvertIntr_LR10>:
    467f:	f4 30 fc          	  addsp -0x4;
    4682:	f9 12             	  pushm a1;
    4684:	d1 2c 06 00 00    	  mvi a1 0x62c;
    4689:	bf 19             	  ldd.w a9 a1;
    468b:	fe 40 01          	  rspr a0 SP;
    468e:	90 00 08          	  add.w a0 a0 0x8;
    4691:	a0 09             	  std.w a0 a9;
    4693:	7e 0f 28 00       	  call 0x280f;
    4697:	bf 0f             	  ldd.w a15 a0;
    4699:	bf 19             	  ldd.w a9 a1;
    469b:	a6 f9             	  cmp.w a15 a9;
    469d:	f4 0b 07          	  breq 0x46a4;
    46a0:	7e e9 42 00       	  call 0x42e9;
    46a4:	fb 15 04          	  popma a1 0x1 0x4;

Disassembly of section .text.intrDisableThermalAlertIntr_LR10:

000046a7 <_intrDisableThermalAlertIntr_LR10>:
    46a7:	f4 30 fc          	  addsp -0x4;
    46aa:	f9 12             	  pushm a1;
    46ac:	d1 2c 06 00 00    	  mvi a1 0x62c;
    46b1:	bf 19             	  ldd.w a9 a1;
    46b3:	fe 40 01          	  rspr a0 SP;
    46b6:	90 00 08          	  add.w a0 a0 0x8;
    46b9:	a0 09             	  std.w a0 a9;
    46bb:	7e d6 27 00       	  call 0x27d6;
    46bf:	bf 0f             	  ldd.w a15 a0;
    46c1:	bf 19             	  ldd.w a9 a1;
    46c3:	a6 f9             	  cmp.w a15 a9;
    46c5:	f4 0b 07          	  breq 0x46cc;
    46c8:	7e e9 42 00       	  call 0x42e9;
    46cc:	fb 15 04          	  popma a1 0x1 0x4;

Disassembly of section .text.intrEnableThermalAlertIntr_LR10:

000046cf <_intrEnableThermalAlertIntr_LR10>:
    46cf:	f4 30 fc          	  addsp -0x4;
    46d2:	f9 12             	  pushm a1;
    46d4:	d1 2c 06 00 00    	  mvi a1 0x62c;
    46d9:	bf 19             	  ldd.w a9 a1;
    46db:	fe 40 01          	  rspr a0 SP;
    46de:	90 00 08          	  add.w a0 a0 0x8;
    46e1:	a0 09             	  std.w a0 a9;
    46e3:	7e 9d 27 00       	  call 0x279d;
    46e7:	bf 0f             	  ldd.w a15 a0;
    46e9:	bf 19             	  ldd.w a9 a1;
    46eb:	a6 f9             	  cmp.w a15 a9;
    46ed:	f4 0b 07          	  breq 0x46f4;
    46f0:	7e e9 42 00       	  call 0x42e9;
    46f4:	fb 15 04          	  popma a1 0x1 0x4;

Disassembly of section .text.intrIsLwlwInReset_LR10:

000046f7 <_intrIsLwlwInReset_LR10>:
    46f7:	f4 30 fc          	  addsp -0x4;
    46fa:	f9 12             	  pushm a1;
    46fc:	d1 2c 06 00 00    	  mvi a1 0x62c;
    4701:	bf 19             	  ldd.w a9 a1;
    4703:	fe 40 01          	  rspr a0 SP;
    4706:	90 00 08          	  add.w a0 a0 0x8;
    4709:	a0 09             	  std.w a0 a9;
    470b:	7e db 28 00       	  call 0x28db;
    470f:	bf 0f             	  ldd.w a15 a0;
    4711:	bf 19             	  ldd.w a9 a1;
    4713:	a6 f9             	  cmp.w a15 a9;
    4715:	f4 0b 07          	  breq 0x471c;
    4718:	7e e9 42 00       	  call 0x42e9;
    471c:	fb 15 04          	  popma a1 0x1 0x4;

Disassembly of section .text.intrService_LR10:

0000471f <_intrService_LR10>:
    471f:	f4 30 fc          	  addsp -0x4;
    4722:	f9 12             	  pushm a1;
    4724:	d1 2c 06 00 00    	  mvi a1 0x62c;
    4729:	bf 19             	  ldd.w a9 a1;
    472b:	fe 40 01          	  rspr a0 SP;
    472e:	90 00 08          	  add.w a0 a0 0x8;
    4731:	a0 09             	  std.w a0 a9;
    4733:	7e 1c 29 00       	  call 0x291c;
    4737:	bf 0f             	  ldd.w a15 a0;
    4739:	bf 19             	  ldd.w a9 a1;
    473b:	a6 f9             	  cmp.w a15 a9;
    473d:	f4 0b 07          	  breq 0x4744;
    4740:	7e e9 42 00       	  call 0x42e9;
    4744:	fb 15 04          	  popma a1 0x1 0x4;

Disassembly of section .text.intrPreInit_LR10:

00004747 <_intrPreInit_LR10>:
    4747:	f4 30 fc          	  addsp -0x4;
    474a:	f9 12             	  pushm a1;
    474c:	d1 2c 06 00 00    	  mvi a1 0x62c;
    4751:	bf 19             	  ldd.w a9 a1;
    4753:	fe 40 01          	  rspr a0 SP;
    4756:	90 00 08          	  add.w a0 a0 0x8;
    4759:	a0 09             	  std.w a0 a9;
    475b:	7e ad 65 00       	  call 0x65ad;
    475f:	bf 0f             	  ldd.w a15 a0;
    4761:	bf 19             	  ldd.w a9 a1;
    4763:	a6 f9             	  cmp.w a15 a9;
    4765:	f4 0b 07          	  breq 0x476c;
    4768:	7e e9 42 00       	  call 0x42e9;
    476c:	fb 15 04          	  popma a1 0x1 0x4;

Disassembly of section .text._soeBar0RegWr32NonPosted_LR10:

0000476f <__soeBar0RegWr32NonPosted_LR10>:
    476f:	df 2c 06 00 00    	  mvi a15 0x62c;
    4774:	bf ff             	  ldd.w a15 a15;
    4776:	f4 30 fc          	  addsp -0x4;
    4779:	fe 49 01          	  rspr a9 SP;
    477c:	a0 9f             	  std.w a9 a15;
    477e:	8f 00 c0 01       	  mvi a15 0x1c000;
    4782:	cf f9 00          	  ldx a9 a15 0x0;
    4785:	c7 99 4c          	  uxtr a9 a9 0x4c;
    4788:	b3 90 00 22       	  cmpbreq.w a9 0x0 0x47aa;
    478c:	b3 90 01 f6       	  cmpbreq.w a9 0x1 0x4782;
    4790:	f8 02             	  halt;
    4792:	3e 82 47 00       	  jmp 0x4782;
    4796:	cf f9 00          	  ldx a9 a15 0x0;
    4799:	c7 99 4c          	  uxtr a9 a9 0x4c;
    479c:	b3 90 00 33       	  cmpbreq.w a9 0x0 0x47cf;
    47a0:	b3 90 01 f6       	  cmpbreq.w a9 0x1 0x4796;
    47a4:	f8 02             	  halt;
    47a6:	3e 96 47 00       	  jmp 0x4796;
    47aa:	89 00 c1 01       	  mvi a9 0x1c100;
    47ae:	f6 9a 00          	  stx a9 0x0 a10;
    47b1:	b8 99 00 01 00    	  add.w a9 a9 0x100;
    47b6:	f6 9b 00          	  stx a9 0x0 a11;
    47b9:	df f2 00 00 80    	  mvi a15 -0x7fffff0e;
    47be:	b8 99 00 02 02    	  sub.w a9 a9 0x200;
    47c3:	f6 9f 00          	  stx a9 0x0 a15;
    47c6:	cf 9f 00          	  ldx a15 a9 0x0;
    47c9:	b2 9f             	  mv.w a15 a9;
    47cb:	3e 96 47 00       	  jmp 0x4796;
    47cf:	fe 49 01          	  rspr a9 SP;
    47d2:	bf 9f             	  ldd.w a15 a9;
    47d4:	d9 2c 06 00 00    	  mvi a9 0x62c;
    47d9:	bf 99             	  ldd.w a9 a9;
    47db:	a6 f9             	  cmp.w a15 a9;
    47dd:	f4 0b 07          	  breq 0x47e4;
    47e0:	7e e9 42 00       	  call 0x42e9;
    47e4:	f4 30 04          	  addsp 0x4;
    47e7:	f8 00             	  ret;

000047e9 <__soeBar0RegWr32NonPosted_LR10>:
    47e9:	df 2c 06 00 00    	  mvi a15 0x62c;
    47ee:	bf ff             	  ldd.w a15 a15;
    47f0:	f4 30 fc          	  addsp -0x4;
    47f3:	fe 49 01          	  rspr a9 SP;
    47f6:	a0 9f             	  std.w a9 a15;
    47f8:	8f 00 c0 01       	  mvi a15 0x1c000;
    47fc:	cf f9 00          	  ldx a9 a15 0x0;
    47ff:	c7 99 4c          	  uxtr a9 a9 0x4c;
    4802:	b3 90 00 22       	  cmpbreq.w a9 0x0 0x4824;
    4806:	b3 90 01 f6       	  cmpbreq.w a9 0x1 0x47fc;
    480a:	f8 02             	  halt;
    480c:	3e fc 47 00       	  jmp 0x47fc;
    4810:	cf f9 00          	  ldx a9 a15 0x0;
    4813:	c7 99 4c          	  uxtr a9 a9 0x4c;
    4816:	b3 90 00 33       	  cmpbreq.w a9 0x0 0x4849;
    481a:	b3 90 01 f6       	  cmpbreq.w a9 0x1 0x4810;
    481e:	f8 02             	  halt;
    4820:	3e 10 48 00       	  jmp 0x4810;
    4824:	89 00 c1 01       	  mvi a9 0x1c100;
    4828:	f6 9a 00          	  stx a9 0x0 a10;
    482b:	b8 99 00 01 00    	  add.w a9 a9 0x100;
    4830:	f6 9b 00          	  stx a9 0x0 a11;
    4833:	df f2 00 00 80    	  mvi a15 -0x7fffff0e;
    4838:	b8 99 00 02 02    	  sub.w a9 a9 0x200;
    483d:	f6 9f 00          	  stx a9 0x0 a15;
    4840:	cf 9f 00          	  ldx a15 a9 0x0;
    4843:	b2 9f             	  mv.w a15 a9;
    4845:	3e 10 48 00       	  jmp 0x4810;
    4849:	fe 49 01          	  rspr a9 SP;
    484c:	bf 9f             	  ldd.w a15 a9;
    484e:	d9 2c 06 00 00    	  mvi a9 0x62c;
    4853:	bf 99             	  ldd.w a9 a9;
    4855:	a6 f9             	  cmp.w a15 a9;
    4857:	f4 0b 07          	  breq 0x485e;
    485a:	7e e9 42 00       	  call 0x42e9;
    485e:	f4 30 04          	  addsp 0x4;
    4861:	f8 00             	  ret;

Disassembly of section .text.spiRomIsInitialized:

00004863 <_spiRomIsInitialized>:
    4863:	de 2c 06 00 00    	  mvi a14 0x62c;
    4868:	bf e9             	  ldd.w a9 a14;
    486a:	f4 30 fc          	  addsp -0x4;
    486d:	fe 4f 01          	  rspr a15 SP;
    4870:	a0 f9             	  std.w a15 a9;
    4872:	d9 1e 11 00 00    	  mvi a9 0x111e;
    4877:	bf ff             	  ldd.w a15 a15;
    4879:	3f 9a             	  ldd.b a10 a9;
    487b:	bf e9             	  ldd.w a9 a14;
    487d:	a6 f9             	  cmp.w a15 a9;
    487f:	f4 0b 07          	  breq 0x4886;
    4882:	7e e9 42 00       	  call 0x42e9;
    4886:	f4 30 04          	  addsp 0x4;
    4889:	f8 00             	  ret;

Disassembly of section .text.s_spiRomWriteEnable:

0000488b <_s_spiRomWriteEnable>:
    488b:	f4 30 f0          	  addsp -0x10;
    488e:	f9 42             	  pushm a4;
    4890:	d4 2c 06 00 00    	  mvi a4 0x62c;
    4895:	bf 49             	  ldd.w a9 a4;
    4897:	b2 a2             	  mv.w a2 a10;
    4899:	01 06             	  mvi a1 0x6;
    489b:	bd b4             	  clr.w a11;
    489d:	b2 1c             	  mv.w a12 a1;
    489f:	fe 40 01          	  rspr a0 SP;
    48a2:	fe 43 01          	  rspr a3 SP;
    48a5:	90 00 16          	  add.w a0 a0 0x16;
    48a8:	90 33 20          	  add.w a3 a3 0x20;
    48ab:	b2 0a             	  mv.w a10 a0;
    48ad:	a0 39             	  std.w a3 a9;
    48af:	7e 94 0b 00       	  call 0xb94;
    48b3:	bd 94             	  clr.w a9;
    48b5:	fe 4d 01          	  rspr a13 SP;
    48b8:	90 dd 1c          	  add.w a13 a13 0x1c;
    48bb:	a0 d9             	  std.w a13 a9;
    48bd:	20 d1             	  std.b a13 a1;
    48bf:	75 09 02          	  std.h a0 0x4 a9;
    48c2:	18 29 04          	  ldd.b a9 a2 0x4;
    48c5:	b2 2a             	  mv.w a10 a2;
    48c7:	b2 0b             	  mv.w a11 a0;
    48c9:	bd c4             	  clr.w a12;
    48cb:	20 09             	  std.b a0 a9;
    48cd:	09 18             	  mvi a9 0x18;
    48cf:	35 09 01          	  std.b a0 0x1 a9;
    48d2:	09 01             	  mvi a9 0x1;
    48d4:	75 09 01          	  std.h a0 0x2 a9;
    48d7:	7e 93 34 00       	  call 0x3493;
    48db:	bf 3f             	  ldd.w a15 a3;
    48dd:	bf 49             	  ldd.w a9 a4;
    48df:	a6 f9             	  cmp.w a15 a9;
    48e1:	f4 0b 07          	  breq 0x48e8;
    48e4:	7e e9 42 00       	  call 0x42e9;
    48e8:	fb 45 10          	  popma a4 0x1 0x10;

Disassembly of section .text.s_spiRomReadStatusReg:

000048eb <_s_spiRomReadStatusReg>:
    48eb:	f4 30 ec          	  addsp -0x14;
    48ee:	df 2c 06 00 00    	  mvi a15 0x62c;
    48f3:	f9 22             	  pushm a2;
    48f5:	bf ff             	  ldd.w a15 a15;
    48f7:	fe 49 01          	  rspr a9 SP;
    48fa:	90 99 1c          	  add.w a9 a9 0x1c;
    48fd:	b2 a1             	  mv.w a1 a10;
    48ff:	a0 9f             	  std.w a9 a15;
    4901:	0c 06             	  mvi a12 0x6;
    4903:	b2 b2             	  mv.w a2 a11;
    4905:	fe 40 01          	  rspr a0 SP;
    4908:	bd b4             	  clr.w a11;
    490a:	90 00 0e          	  add.w a0 a0 0xe;
    490d:	b2 0a             	  mv.w a10 a0;
    490f:	7e 94 0b 00       	  call 0xb94;
    4913:	bd 94             	  clr.w a9;
    4915:	fe 4f 01          	  rspr a15 SP;
    4918:	90 ff 18          	  add.w a15 a15 0x18;
    491b:	a0 f9             	  std.w a15 a9;
    491d:	18 1e 04          	  ldd.b a14 a1 0x4;
    4920:	b2 1a             	  mv.w a10 a1;
    4922:	fe 41 01          	  rspr a1 SP;
    4925:	90 11 14          	  add.w a1 a1 0x14;
    4928:	a0 19             	  std.w a1 a9;
    492a:	09 01             	  mvi a9 0x1;
    492c:	75 09 02          	  std.h a0 0x4 a9;
    492f:	75 09 01          	  std.h a0 0x2 a9;
    4932:	09 05             	  mvi a9 0x5;
    4934:	20 f9             	  std.b a15 a9;
    4936:	09 19             	  mvi a9 0x19;
    4938:	20 0e             	  std.b a0 a14;
    493a:	b2 0b             	  mv.w a11 a0;
    493c:	35 09 01          	  std.b a0 0x1 a9;
    493f:	b2 fd             	  mv.w a13 a15;
    4941:	b2 1c             	  mv.w a12 a1;
    4943:	7e 93 34 00       	  call 0x3493;
    4947:	32 a0             	  mv.b a0 a10;
    4949:	33 a4 00 0c       	  cmpbrne.b a10 0x0 0x4955;
    494d:	bf 1a             	  ldd.w a10 a1;
    494f:	b2 2b             	  mv.w a11 a2;
    4951:	7e 7e 2f 00       	  call 0x2f7e;
    4955:	fe 49 01          	  rspr a9 SP;
    4958:	90 99 1c          	  add.w a9 a9 0x1c;
    495b:	bf 9f             	  ldd.w a15 a9;
    495d:	d9 2c 06 00 00    	  mvi a9 0x62c;
    4962:	bf 99             	  ldd.w a9 a9;
    4964:	32 0a             	  mv.b a10 a0;
    4966:	a6 f9             	  cmp.w a15 a9;
    4968:	f4 0b 07          	  breq 0x496f;
    496b:	7e e9 42 00       	  call 0x42e9;
    496f:	fb 25 14          	  popma a2 0x1 0x14;

Disassembly of section .text.s_spiRomPollForReady:

00004972 <_s_spiRomPollForReady>:
    4972:	f4 30 f0          	  addsp -0x10;
    4975:	d9 2c 06 00 00    	  mvi a9 0x62c;
    497a:	f9 42             	  pushm a4;
    497c:	bf 99             	  ldd.w a9 a9;
    497e:	fe 4f 01          	  rspr a15 SP;
    4981:	90 ff 20          	  add.w a15 a15 0x20;
    4984:	b2 a3             	  mv.w a3 a10;
    4986:	a0 f9             	  std.w a15 a9;
    4988:	b2 ba             	  mv.w a10 a11;
    498a:	4b e8 03          	  mvi a11 0x3e8;
    498d:	7e fc 16 00       	  call 0x16fc;
    4991:	fe 42 01          	  rspr a2 SP;
    4994:	b2 a1             	  mv.w a1 a10;
    4996:	bd 04             	  clr.w a0;
    4998:	fe 4a 01          	  rspr a10 SP;
    499b:	90 22 1c          	  add.w a2 a2 0x1c;
    499e:	90 aa 14          	  add.w a10 a10 0x14;
    49a1:	b2 a4             	  mv.w a4 a10;
    49a3:	7e 81 15 00       	  call 0x1581;
    49a7:	3e b7 49 00       	  jmp 0x49b7;
    49ab:	b2 4a             	  mv.w a10 a4;
    49ad:	7e 9c 15 00       	  call 0x159c;
    49b1:	b2 a0             	  mv.w a0 a10;
    49b3:	7e 0e 00 00       	  call 0xe;
    49b7:	b2 3a             	  mv.w a10 a3;
    49b9:	b2 2b             	  mv.w a11 a2;
    49bb:	7e eb 48 00       	  call 0x48eb;
    49bf:	33 a4 00 16       	  cmpbrne.b a10 0x0 0x49d5;
    49c3:	bf 29             	  ldd.w a9 a2;
    49c5:	f0 94 01          	  and a9 0x1;
    49c8:	33 90 00 0d       	  cmpbreq.b a9 0x0 0x49d5;
    49cc:	a6 01             	  cmp.w a0 a1;
    49ce:	f4 08 dd          	  brc 0x49ab;
    49d1:	3e e0 49 00       	  jmp 0x49e0;
    49d5:	a6 01             	  cmp.w a0 a1;
    49d7:	f4 18 09          	  brnc 0x49e0;
    49da:	3d a4             	  clr.b a10;
    49dc:	3e e2 49 00       	  jmp 0x49e2;
    49e0:	0a 04             	  mvi a10 0x4;
    49e2:	fe 49 01          	  rspr a9 SP;
    49e5:	90 99 20          	  add.w a9 a9 0x20;
    49e8:	bf 9f             	  ldd.w a15 a9;
    49ea:	d9 2c 06 00 00    	  mvi a9 0x62c;
    49ef:	bf 99             	  ldd.w a9 a9;
    49f1:	a6 f9             	  cmp.w a15 a9;
    49f3:	f4 0b 07          	  breq 0x49fa;
    49f6:	7e e9 42 00       	  call 0x42e9;
    49fa:	fb 45 10          	  popma a4 0x1 0x10;

Disassembly of section .text.s_spiRomWriteProtect:

000049fd <_s_spiRomWriteProtect>:
    49fd:	f4 30 f0          	  addsp -0x10;
    4a00:	df 2c 06 00 00    	  mvi a15 0x62c;
    4a05:	f9 22             	  pushm a2;
    4a07:	bf ff             	  ldd.w a15 a15;
    4a09:	fe 49 01          	  rspr a9 SP;
    4a0c:	90 99 18          	  add.w a9 a9 0x18;
    4a0f:	32 b0             	  mv.b a0 a11;
    4a11:	b2 a2             	  mv.w a2 a10;
    4a13:	a0 9f             	  std.w a9 a15;
    4a15:	7e 8b 48 00       	  call 0x488b;
    4a19:	33 a4 00 64       	  cmpbrne.b a10 0x0 0x4a7d;
    4a1d:	33 04 00 0a       	  cmpbrne.b a0 0x0 0x4a27;
    4a21:	3d 14             	  clr.b a1;
    4a23:	3e 30 4a 00       	  jmp 0x4a30;
    4a27:	18 29 11          	  ldd.b a9 a2 0x11;
    4a2a:	f0 94 0f          	  and a9 0xf;
    4a2d:	14 91 02          	  lsl.b a1 a9 0x2;
    4a30:	bd b4             	  clr.w a11;
    4a32:	0c 06             	  mvi a12 0x6;
    4a34:	fe 40 01          	  rspr a0 SP;
    4a37:	90 00 0e          	  add.w a0 a0 0xe;
    4a3a:	b2 0a             	  mv.w a10 a0;
    4a3c:	7e 94 0b 00       	  call 0xb94;
    4a40:	bd 94             	  clr.w a9;
    4a42:	fe 4f 01          	  rspr a15 SP;
    4a45:	90 ff 14          	  add.w a15 a15 0x14;
    4a48:	a0 f9             	  std.w a15 a9;
    4a4a:	35 f1 01          	  std.b a15 0x1 a1;
    4a4d:	75 09 02          	  std.h a0 0x4 a9;
    4a50:	18 29 04          	  ldd.b a9 a2 0x4;
    4a53:	b2 0b             	  mv.w a11 a0;
    4a55:	b2 fd             	  mv.w a13 a15;
    4a57:	b2 2a             	  mv.w a10 a2;
    4a59:	20 09             	  std.b a0 a9;
    4a5b:	09 01             	  mvi a9 0x1;
    4a5d:	20 f9             	  std.b a15 a9;
    4a5f:	09 18             	  mvi a9 0x18;
    4a61:	35 09 01          	  std.b a0 0x1 a9;
    4a64:	09 02             	  mvi a9 0x2;
    4a66:	bd c4             	  clr.w a12;
    4a68:	75 09 01          	  std.h a0 0x2 a9;
    4a6b:	7e 93 34 00       	  call 0x3493;
    4a6f:	33 a4 00 0e       	  cmpbrne.b a10 0x0 0x4a7d;
    4a73:	b2 2a             	  mv.w a10 a2;
    4a75:	8b a0 86 01       	  mvi a11 0x186a0;
    4a79:	7e 72 49 00       	  call 0x4972;
    4a7d:	fe 49 01          	  rspr a9 SP;
    4a80:	90 99 18          	  add.w a9 a9 0x18;
    4a83:	bf 9f             	  ldd.w a15 a9;
    4a85:	d9 2c 06 00 00    	  mvi a9 0x62c;
    4a8a:	bf 99             	  ldd.w a9 a9;
    4a8c:	a6 f9             	  cmp.w a15 a9;
    4a8e:	f4 0b 07          	  breq 0x4a95;
    4a91:	7e e9 42 00       	  call 0x42e9;
    4a95:	fb 25 10          	  popma a2 0x1 0x10;

Disassembly of section .text.spiRomEraseSector:

00004a98 <_spiRomEraseSector>:
    4a98:	f4 30 f0          	  addsp -0x10;
    4a9b:	d9 2c 06 00 00    	  mvi a9 0x62c;
    4aa0:	f9 22             	  pushm a2;
    4aa2:	bf 99             	  ldd.w a9 a9;
    4aa4:	fe 4f 01          	  rspr a15 SP;
    4aa7:	90 ff 18          	  add.w a15 a15 0x18;
    4aaa:	b2 a1             	  mv.w a1 a10;
    4aac:	a0 f9             	  std.w a15 a9;
    4aae:	b2 b2             	  mv.w a2 a11;
    4ab0:	0c 06             	  mvi a12 0x6;
    4ab2:	bd b4             	  clr.w a11;
    4ab4:	fe 4a 01          	  rspr a10 SP;
    4ab7:	90 aa 0e          	  add.w a10 a10 0xe;
    4aba:	7e 94 0b 00       	  call 0xb94;
    4abe:	bd 94             	  clr.w a9;
    4ac0:	fe 40 01          	  rspr a0 SP;
    4ac3:	b2 1a             	  mv.w a10 a1;
    4ac5:	90 00 14          	  add.w a0 a0 0x14;
    4ac8:	a0 09             	  std.w a0 a9;
    4aca:	7e 8b 48 00       	  call 0x488b;
    4ace:	33 a4 00 61       	  cmpbrne.b a10 0x0 0x4b2f;
    4ad2:	18 19 11          	  ldd.b a9 a1 0x11;
    4ad5:	c7 99 04          	  uxtr a9 a9 0x4;
    4ad8:	b3 94 00 0a       	  cmpbrne.w a9 0x0 0x4ae2;
    4adc:	09 20             	  mvi a9 0x20;
    4ade:	3e e4 4a 00       	  jmp 0x4ae4;
    4ae2:	09 d7             	  mvi a9 -0x29;
    4ae4:	20 09             	  std.b a0 a9;
    4ae6:	18 19 04          	  ldd.b a9 a1 0x4;
    4ae9:	fe 4e 01          	  rspr a14 SP;
    4aec:	90 ee 0e          	  add.w a14 a14 0xe;
    4aef:	fe 4f 01          	  rspr a15 SP;
    4af2:	20 e9             	  std.b a14 a9;
    4af4:	95 29 10          	  lsr.w a9 a2 0x10;
    4af7:	90 ff 14          	  add.w a15 a15 0x14;
    4afa:	35 f9 01          	  std.b a15 0x1 a9;
    4afd:	95 29 08          	  lsr.w a9 a2 0x8;
    4b00:	35 f9 02          	  std.b a15 0x2 a9;
    4b03:	09 18             	  mvi a9 0x18;
    4b05:	35 e9 01          	  std.b a14 0x1 a9;
    4b08:	09 04             	  mvi a9 0x4;
    4b0a:	75 e9 01          	  std.h a14 0x2 a9;
    4b0d:	7d 94             	  clr.h a9;
    4b0f:	b2 eb             	  mv.w a11 a14;
    4b11:	35 f2 03          	  std.b a15 0x3 a2;
    4b14:	b2 fd             	  mv.w a13 a15;
    4b16:	75 e9 02          	  std.h a14 0x4 a9;
    4b19:	b2 1a             	  mv.w a10 a1;
    4b1b:	bd c4             	  clr.w a12;
    4b1d:	7e 93 34 00       	  call 0x3493;
    4b21:	33 a4 00 0e       	  cmpbrne.b a10 0x0 0x4b2f;
    4b25:	b2 1a             	  mv.w a10 a1;
    4b27:	8b 20 a1 07       	  mvi a11 0x7a120;
    4b2b:	7e 72 49 00       	  call 0x4972;
    4b2f:	fe 49 01          	  rspr a9 SP;
    4b32:	90 99 18          	  add.w a9 a9 0x18;
    4b35:	bf 9f             	  ldd.w a15 a9;
    4b37:	d9 2c 06 00 00    	  mvi a9 0x62c;
    4b3c:	bf 99             	  ldd.w a9 a9;
    4b3e:	a6 f9             	  cmp.w a15 a9;
    4b40:	f4 0b 07          	  breq 0x4b47;
    4b43:	7e e9 42 00       	  call 0x42e9;
    4b47:	fb 25 10          	  popma a2 0x1 0x10;

Disassembly of section .text.spiRomWritePage:

00004b4a <_spiRomWritePage>:
    4b4a:	f4 30 ec          	  addsp -0x14;
    4b4d:	df 2c 06 00 00    	  mvi a15 0x62c;
    4b52:	f9 72             	  pushm a7;
    4b54:	bf ff             	  ldd.w a15 a15;
    4b56:	fe 49 01          	  rspr a9 SP;
    4b59:	90 99 30          	  add.w a9 a9 0x30;
    4b5c:	b2 a1             	  mv.w a1 a10;
    4b5e:	a0 9f             	  std.w a9 a15;
    4b60:	b2 b7             	  mv.w a7 a11;
    4b62:	b2 c3             	  mv.w a3 a12;
    4b64:	72 d6             	  mv.h a6 a13;
    4b66:	b3 a9 00 9e 00    	  cmpbreq.w a10 0x0 0x4c04;
    4b6b:	71 d6 00 01       	  cmp.h a13 0x100;
    4b6f:	f5 0c 95 00       	  brgt 0x4c04;
    4b73:	bd 54             	  clr.w a5;
    4b75:	bd b4             	  clr.w a11;
    4b77:	0c 06             	  mvi a12 0x6;
    4b79:	fe 40 01          	  rspr a0 SP;
    4b7c:	fe 42 01          	  rspr a2 SP;
    4b7f:	90 00 20          	  add.w a0 a0 0x20;
    4b82:	90 22 2c          	  add.w a2 a2 0x2c;
    4b85:	a0 05             	  std.w a0 a5;
    4b87:	75 05 02          	  std.h a0 0x4 a5;
    4b8a:	a0 25             	  std.w a2 a5;
    4b8c:	fe 44 01          	  rspr a4 SP;
    4b8f:	90 44 26          	  add.w a4 a4 0x26;
    4b92:	b2 4a             	  mv.w a10 a4;
    4b94:	7e 94 0b 00       	  call 0xb94;
    4b98:	b2 1a             	  mv.w a10 a1;
    4b9a:	7e 8b 48 00       	  call 0x488b;
    4b9e:	33 a4 00 68       	  cmpbrne.b a10 0x0 0x4c06;
    4ba2:	35 23 03          	  std.b a2 0x3 a3;
    4ba5:	18 19 04          	  ldd.b a9 a1 0x4;
    4ba8:	b2 0b             	  mv.w a11 a0;
    4baa:	75 05 02          	  std.h a0 0x4 a5;
    4bad:	b2 2d             	  mv.w a13 a2;
    4baf:	20 09             	  std.b a0 a9;
    4bb1:	09 02             	  mvi a9 0x2;
    4bb3:	20 29             	  std.b a2 a9;
    4bb5:	95 39 10          	  lsr.w a9 a3 0x10;
    4bb8:	35 29 01          	  std.b a2 0x1 a9;
    4bbb:	95 39 08          	  lsr.w a9 a3 0x8;
    4bbe:	35 29 02          	  std.b a2 0x2 a9;
    4bc1:	09 08             	  mvi a9 0x8;
    4bc3:	35 09 01          	  std.b a0 0x1 a9;
    4bc6:	09 04             	  mvi a9 0x4;
    4bc8:	b2 1a             	  mv.w a10 a1;
    4bca:	75 09 01          	  std.h a0 0x2 a9;
    4bcd:	bd c4             	  clr.w a12;
    4bcf:	7e 93 34 00       	  call 0x3493;
    4bd3:	33 a4 00 33       	  cmpbrne.b a10 0x0 0x4c06;
    4bd7:	75 46 01          	  std.h a4 0x2 a6;
    4bda:	75 45 02          	  std.h a4 0x4 a5;
    4bdd:	18 19 04          	  ldd.b a9 a1 0x4;
    4be0:	b2 4b             	  mv.w a11 a4;
    4be2:	b2 7d             	  mv.w a13 a7;
    4be4:	b2 1a             	  mv.w a10 a1;
    4be6:	20 49             	  std.b a4 a9;
    4be8:	09 10             	  mvi a9 0x10;
    4bea:	bd c4             	  clr.w a12;
    4bec:	35 49 01          	  std.b a4 0x1 a9;
    4bef:	7e 93 34 00       	  call 0x3493;
    4bf3:	33 a4 00 13       	  cmpbrne.b a10 0x0 0x4c06;
    4bf7:	b2 1a             	  mv.w a10 a1;
    4bf9:	4b 00 32          	  mvi a11 0x3200;
    4bfc:	7e 72 49 00       	  call 0x4972;
    4c00:	3e 06 4c 00       	  jmp 0x4c06;
    4c04:	0a 35             	  mvi a10 0x35;
    4c06:	fe 49 01          	  rspr a9 SP;
    4c09:	90 99 30          	  add.w a9 a9 0x30;
    4c0c:	bf 9f             	  ldd.w a15 a9;
    4c0e:	d9 2c 06 00 00    	  mvi a9 0x62c;
    4c13:	bf 99             	  ldd.w a9 a9;
    4c15:	a6 f9             	  cmp.w a15 a9;
    4c17:	f4 0b 07          	  breq 0x4c1e;
    4c1a:	7e e9 42 00       	  call 0x42e9;
    4c1e:	fb 75 14          	  popma a7 0x1 0x14;

Disassembly of section .text.spiRomWriteLocal:

00004c21 <_spiRomWriteLocal>:
    4c21:	f4 30 fc          	  addsp -0x4;
    4c24:	df 2c 06 00 00    	  mvi a15 0x62c;
    4c29:	f9 62             	  pushm a6;
    4c2b:	bf ff             	  ldd.w a15 a15;
    4c2d:	b2 a3             	  mv.w a3 a10;
    4c2f:	fe 49 01          	  rspr a9 SP;
    4c32:	90 99 1c          	  add.w a9 a9 0x1c;
    4c35:	a0 9f             	  std.w a9 a15;
    4c37:	98 aa 05          	  ldd.w a10 a10 0x14;
    4c3a:	b2 c4             	  mv.w a4 a12;
    4c3c:	b2 d6             	  mv.w a6 a13;
    4c3e:	09 fd             	  mvi a9 -0x3;
    4c40:	bf ae             	  ldd.w a14 a10;
    4c42:	bc be 20          	  add.w a2 a11 a14;
    4c45:	92 ef 01          	  sub.w a15 a14 0x1;
    4c48:	a6 f9             	  cmp.w a15 a9;
    4c4a:	f4 0c 23          	  brgt 0x4c6d;
    4c4d:	98 af 01          	  ldd.w a15 a10 0x4;
    4c50:	09 ff             	  mvi a9 -0x1;
    4c52:	a6 f9             	  cmp.w a15 a9;
    4c54:	f4 0b 19          	  breq 0x4c6d;
    4c57:	b3 f0 00 16       	  cmpbreq.w a15 0x0 0x4c6d;
    4c5b:	a6 2e             	  cmp.w a2 a14;
    4c5d:	f4 08 10          	  brc 0x4c6d;
    4c60:	bc c2 90          	  add.w a9 a12 a2;
    4c63:	a6 92             	  cmp.w a9 a2;
    4c65:	f4 08 08          	  brc 0x4c6d;
    4c68:	a6 9f             	  cmp.w a9 a15;
    4c6a:	f4 0d 05          	  brlte 0x4c6f;
    4c6d:	f8 02             	  halt;
    4c6f:	18 39 11          	  ldd.b a9 a3 0x11;
    4c72:	0a 01             	  mvi a10 0x1;
    4c74:	c7 99 05          	  uxtr a9 a9 0x5;
    4c77:	b3 94 00 41       	  cmpbrne.w a9 0x0 0x4cb8;
    4c7b:	b2 3a             	  mv.w a10 a3;
    4c7d:	7e aa 32 00       	  call 0x32aa;
    4c81:	32 a5             	  mv.b a5 a10;
    4c83:	33 a4 00 33       	  cmpbrne.b a10 0x0 0x4cb6;
    4c87:	bd 14             	  clr.w a1;
    4c89:	3e b1 4c 00       	  jmp 0x4cb1;
    4c8d:	bc 41 02          	  sub.w a0 a4 a1;
    4c90:	b1 06 00 01       	  cmp.w a0 0x100;
    4c94:	f4 0d 06          	  brlte 0x4c9a;
    4c97:	40 00 01          	  mvi a0 0x100;
    4c9a:	b2 3a             	  mv.w a10 a3;
    4c9c:	bc 61 b0          	  add.w a11 a6 a1;
    4c9f:	b2 2c             	  mv.w a12 a2;
    4ca1:	72 0d             	  mv.h a13 a0;
    4ca3:	7e 4a 4b 00       	  call 0x4b4a;
    4ca7:	33 a4 00 11       	  cmpbrne.b a10 0x0 0x4cb8;
    4cab:	bc 20 20          	  add.w a2 a2 a0;
    4cae:	bc 10 10          	  add.w a1 a1 a0;
    4cb1:	a6 14             	  cmp.w a1 a4;
    4cb3:	f4 08 da          	  brc 0x4c8d;
    4cb6:	32 5a             	  mv.b a10 a5;
    4cb8:	fe 49 01          	  rspr a9 SP;
    4cbb:	90 99 1c          	  add.w a9 a9 0x1c;
    4cbe:	bf 9f             	  ldd.w a15 a9;
    4cc0:	d9 2c 06 00 00    	  mvi a9 0x62c;
    4cc5:	bf 99             	  ldd.w a9 a9;
    4cc7:	a6 f9             	  cmp.w a15 a9;
    4cc9:	f4 0b 07          	  breq 0x4cd0;
    4ccc:	7e e9 42 00       	  call 0x42e9;
    4cd0:	fb 65 04          	  popma a6 0x1 0x4;

Disassembly of section .text.spiRomErase:

00004cd3 <_spiRomErase>:
    4cd3:	f4 30 fc          	  addsp -0x4;
    4cd6:	d9 2c 06 00 00    	  mvi a9 0x62c;
    4cdb:	f9 72             	  pushm a7;
    4cdd:	bf 99             	  ldd.w a9 a9;
    4cdf:	fe 4f 01          	  rspr a15 SP;
    4ce2:	90 ff 20          	  add.w a15 a15 0x20;
    4ce5:	b2 a0             	  mv.w a0 a10;
    4ce7:	a0 f9             	  std.w a15 a9;
    4ce9:	98 ae 05          	  ldd.w a14 a10 0x14;
    4cec:	b2 c5             	  mv.w a5 a12;
    4cee:	02 fd             	  mvi a2 -0x3;
    4cf0:	bf ef             	  ldd.w a15 a14;
    4cf2:	92 f9 01          	  sub.w a9 a15 0x1;
    4cf5:	a6 92             	  cmp.w a9 a2;
    4cf7:	f4 0c 26          	  brgt 0x4d1d;
    4cfa:	98 ee 01          	  ldd.w a14 a14 0x4;
    4cfd:	01 ff             	  mvi a1 -0x1;
    4cff:	a6 e1             	  cmp.w a14 a1;
    4d01:	f4 0b 1c          	  breq 0x4d1d;
    4d04:	b3 e0 00 19       	  cmpbreq.w a14 0x0 0x4d1d;
    4d08:	bc bf 30          	  add.w a3 a11 a15;
    4d0b:	a6 3f             	  cmp.w a3 a15;
    4d0d:	f4 08 10          	  brc 0x4d1d;
    4d10:	bc c3 90          	  add.w a9 a12 a3;
    4d13:	a6 93             	  cmp.w a9 a3;
    4d15:	f4 08 08          	  brc 0x4d1d;
    4d18:	a6 9e             	  cmp.w a9 a14;
    4d1a:	f4 0d 0b          	  brlte 0x4d25;
    4d1d:	f8 02             	  halt;
    4d1f:	0e 35             	  mvi a14 0x35;
    4d21:	3e c3 4d 00       	  jmp 0x4dc3;
    4d25:	18 a9 11          	  ldd.b a9 a10 0x11;
    4d28:	0e 01             	  mvi a14 0x1;
    4d2a:	c7 99 05          	  uxtr a9 a9 0x5;
    4d2d:	b3 9d 00 96 00    	  cmpbrne.w a9 0x0 0x4dc3;
    4d32:	7e aa 32 00       	  call 0x32aa;
    4d36:	32 a4             	  mv.b a4 a10;
    4d38:	33 ad 00 89 00    	  cmpbrne.b a10 0x0 0x4dc1;
    4d3d:	b2 27             	  mv.w a7 a2;
    4d3f:	b2 16             	  mv.w a6 a1;
    4d41:	bd 24             	  clr.w a2;
    4d43:	3e b9 4d 00       	  jmp 0x4db9;
    4d47:	e4 19 ff 0f       	  and a9 a1 0xfff;
    4d4b:	f4 0b 09          	  breq 0x4d54;
    4d4e:	0e 02             	  mvi a14 0x2;
    4d50:	3e c3 4d 00       	  jmp 0x4dc3;
    4d54:	98 0f 06          	  ldd.w a15 a0 0x18;
    4d57:	bf f9             	  ldd.w a9 a15;
    4d59:	92 99 01          	  sub.w a9 a9 0x1;
    4d5c:	a6 97             	  cmp.w a9 a7;
    4d5e:	f4 0c 21          	  brgt 0x4d7f;
    4d61:	98 f9 01          	  ldd.w a9 a15 0x4;
    4d64:	a6 96             	  cmp.w a9 a6;
    4d66:	f4 0b 19          	  breq 0x4d7f;
    4d69:	b3 90 00 16       	  cmpbreq.w a9 0x0 0x4d7f;
    4d6d:	b2 0a             	  mv.w a10 a0;
    4d6f:	b2 1b             	  mv.w a11 a1;
    4d71:	7e 24 35 00       	  call 0x3524;
    4d75:	33 a0 00 0a       	  cmpbreq.b a10 0x0 0x4d7f;
    4d79:	0e 03             	  mvi a14 0x3;
    4d7b:	3e c3 4d 00       	  jmp 0x4dc3;
    4d7f:	b2 0a             	  mv.w a10 a0;
    4d81:	b2 1b             	  mv.w a11 a1;
    4d83:	7e 98 4a 00       	  call 0x4a98;
    4d87:	32 ae             	  mv.b a14 a10;
    4d89:	33 a4 00 3a       	  cmpbrne.b a10 0x0 0x4dc3;
    4d8d:	98 0f 06          	  ldd.w a15 a0 0x18;
    4d90:	bf f9             	  ldd.w a9 a15;
    4d92:	92 99 01          	  sub.w a9 a9 0x1;
    4d95:	a6 97             	  cmp.w a9 a7;
    4d97:	f4 0c 1d          	  brgt 0x4db4;
    4d9a:	98 f9 01          	  ldd.w a9 a15 0x4;
    4d9d:	a6 96             	  cmp.w a9 a6;
    4d9f:	f4 0b 15          	  breq 0x4db4;
    4da2:	b3 90 00 12       	  cmpbreq.w a9 0x0 0x4db4;
    4da6:	b2 1b             	  mv.w a11 a1;
    4da8:	b2 0a             	  mv.w a10 a0;
    4daa:	7e 9f 35 00       	  call 0x359f;
    4dae:	32 ae             	  mv.b a14 a10;
    4db0:	33 a4 00 13       	  cmpbrne.b a10 0x0 0x4dc3;
    4db4:	b8 22 00 10 00    	  add.w a2 a2 0x1000;
    4db9:	bc 23 10          	  add.w a1 a2 a3;
    4dbc:	a6 25             	  cmp.w a2 a5;
    4dbe:	f4 08 89          	  brc 0x4d47;
    4dc1:	32 4e             	  mv.b a14 a4;
    4dc3:	fe 49 01          	  rspr a9 SP;
    4dc6:	90 99 20          	  add.w a9 a9 0x20;
    4dc9:	bf 9f             	  ldd.w a15 a9;
    4dcb:	d9 2c 06 00 00    	  mvi a9 0x62c;
    4dd0:	bf 99             	  ldd.w a9 a9;
    4dd2:	32 ea             	  mv.b a10 a14;
    4dd4:	a6 f9             	  cmp.w a15 a9;
    4dd6:	f4 0b 07          	  breq 0x4ddd;
    4dd9:	7e e9 42 00       	  call 0x42e9;
    4ddd:	fb 75 04          	  popma a7 0x1 0x4;

Disassembly of section .text.spiRomReadFromRegionLocal:

00004de0 <_spiRomReadFromRegionLocal>:
    4de0:	f4 30 fc          	  addsp -0x4;
    4de3:	d9 2c 06 00 00    	  mvi a9 0x62c;
    4de8:	f9 02             	  pushm a0;
    4dea:	bf 99             	  ldd.w a9 a9;
    4dec:	fe 4f 01          	  rspr a15 SP;
    4def:	90 ff 04          	  add.w a15 a15 0x4;
    4df2:	b2 b0             	  mv.w a0 a11;
    4df4:	a0 f9             	  std.w a15 a9;
    4df6:	bf b9             	  ldd.w a9 a11;
    4df8:	bc c9 b0          	  add.w a11 a12 a9;
    4dfb:	a6 b9             	  cmp.w a11 a9;
    4dfd:	f4 08 17          	  brc 0x4e14;
    4e00:	e4 d9 ff ff       	  and a9 a13 0xffff;
    4e04:	bc 9b f0          	  add.w a15 a9 a11;
    4e07:	a6 fb             	  cmp.w a15 a11;
    4e09:	f4 08 0b          	  brc 0x4e14;
    4e0c:	98 09 01          	  ldd.w a9 a0 0x4;
    4e0f:	a6 f9             	  cmp.w a15 a9;
    4e11:	f4 0d 05          	  brlte 0x4e16;
    4e14:	f8 02             	  halt;
    4e16:	72 dc             	  mv.h a12 a13;
    4e18:	b2 ed             	  mv.w a13 a14;
    4e1a:	7e aa 31 00       	  call 0x31aa;
    4e1e:	fe 49 01          	  rspr a9 SP;
    4e21:	90 99 04          	  add.w a9 a9 0x4;
    4e24:	bf 9f             	  ldd.w a15 a9;
    4e26:	d9 2c 06 00 00    	  mvi a9 0x62c;
    4e2b:	bf 99             	  ldd.w a9 a9;
    4e2d:	a6 f9             	  cmp.w a15 a9;
    4e2f:	f4 0b 07          	  breq 0x4e36;
    4e32:	7e e9 42 00       	  call 0x42e9;
    4e36:	fb 05 04          	  popma a0 0x1 0x4;

Disassembly of section .text.spiRomReadLocal:

00004e39 <_spiRomReadLocal>:
    4e39:	f4 30 fc          	  addsp -0x4;
    4e3c:	f9 12             	  pushm a1;
    4e3e:	d1 2c 06 00 00    	  mvi a1 0x62c;
    4e43:	bf 19             	  ldd.w a9 a1;
    4e45:	fe 40 01          	  rspr a0 SP;
    4e48:	90 00 08          	  add.w a0 a0 0x8;
    4e4b:	b2 cf             	  mv.w a15 a12;
    4e4d:	a0 09             	  std.w a0 a9;
    4e4f:	b2 b9             	  mv.w a9 a11;
    4e51:	98 ab 05          	  ldd.w a11 a10 0x14;
    4e54:	b2 de             	  mv.w a14 a13;
    4e56:	b2 9c             	  mv.w a12 a9;
    4e58:	72 fd             	  mv.h a13 a15;
    4e5a:	7e e0 4d 00       	  call 0x4de0;
    4e5e:	bf 0f             	  ldd.w a15 a0;
    4e60:	bf 19             	  ldd.w a9 a1;
    4e62:	a6 f9             	  cmp.w a15 a9;
    4e64:	f4 0b 07          	  breq 0x4e6b;
    4e67:	7e e9 42 00       	  call 0x42e9;
    4e6b:	fb 15 04          	  popma a1 0x1 0x4;

Disassembly of section .text.spiRomReadFromRegion:

00004e6e <_spiRomReadFromRegion>:
    4e6e:	fc f0             	  pop a15;
    4e70:	f4 30 fc          	  addsp -0x4;
    4e73:	f9 f0             	  push a15;
    4e75:	f4 30 f4          	  addsp -0xc;
    4e78:	f9 72             	  pushm a7;
    4e7a:	b4 90 0d          	  lddsp.w a9 0x34;
    4e7d:	b2 b0             	  mv.w a0 a11;
    4e7f:	fe 4b 01          	  rspr a11 SP;
    4e82:	90 bb 20          	  add.w a11 a11 0x20;
    4e85:	b5 b9 01          	  std.w a11 0x4 a9;
    4e88:	d9 2c 06 00 00    	  mvi a9 0x62c;
    4e8d:	bf 99             	  ldd.w a9 a9;
    4e8f:	fe 4f 01          	  rspr a15 SP;
    4e92:	90 ff 28          	  add.w a15 a15 0x28;
    4e95:	b2 a5             	  mv.w a5 a10;
    4e97:	a0 f9             	  std.w a15 a9;
    4e99:	bf 09             	  ldd.w a9 a0;
    4e9b:	a0 be             	  std.w a11 a14;
    4e9d:	b0 e1 0c          	  stdsp.w a14 0x30;
    4ea0:	b2 d4             	  mv.w a4 a13;
    4ea2:	bc c9 30          	  add.w a3 a12 a9;
    4ea5:	a6 39             	  cmp.w a3 a9;
    4ea7:	f4 08 1f          	  brc 0x4ec6;
    4eaa:	bc d3 f0          	  add.w a15 a13 a3;
    4ead:	a6 f3             	  cmp.w a15 a3;
    4eaf:	f4 08 17          	  brc 0x4ec6;
    4eb2:	98 09 01          	  ldd.w a9 a0 0x4;
    4eb5:	a6 f9             	  cmp.w a15 a9;
    4eb7:	f4 0c 0f          	  brgt 0x4ec6;
    4eba:	b2 b6             	  mv.w a6 a11;
    4ebc:	bd 24             	  clr.w a2;
    4ebe:	00 01             	  mvi a0 0x1;
    4ec0:	07 fc             	  mvi a7 -0x4;
    4ec2:	3e 27 4f 00       	  jmp 0x4f27;
    4ec6:	f8 02             	  halt;
    4ec8:	00 01             	  mvi a0 0x1;
    4eca:	3e 2c 4f 00       	  jmp 0x4f2c;
    4ece:	bc 42 92          	  sub.w a9 a4 a2;
    4ed1:	b1 96 00 01       	  cmp.w a9 0x100;
    4ed5:	f4 0d 06          	  brlte 0x4edb;
    4ed8:	49 00 01          	  mvi a9 0x100;
    4edb:	90 99 03          	  add.w a9 a9 0x3;
    4ede:	bd b4             	  clr.w a11;
    4ee0:	ff 97 14          	  and a1 a9 a7;
    4ee3:	4c 00 01          	  mvi a12 0x100;
    4ee6:	da 00 12 00 00    	  mvi a10 0x1200;
    4eeb:	7e 94 0b 00       	  call 0xb94;
    4eef:	b2 5a             	  mv.w a10 a5;
    4ef1:	b2 3b             	  mv.w a11 a3;
    4ef3:	72 1c             	  mv.h a12 a1;
    4ef5:	dd 00 12 00 00    	  mvi a13 0x1200;
    4efa:	7e aa 31 00       	  call 0x31aa;
    4efe:	32 a0             	  mv.b a0 a10;
    4f00:	33 a4 00 2c       	  cmpbrne.b a10 0x0 0x4f2c;
    4f04:	bf 6b             	  ldd.w a11 a6;
    4f06:	98 6c 01          	  ldd.w a12 a6 0x4;
    4f09:	da 00 12 00 00    	  mvi a10 0x1200;
    4f0e:	b2 2d             	  mv.w a13 a2;
    4f10:	4e 00 01          	  mvi a14 0x100;
    4f13:	7e d8 26 00       	  call 0x26d8;
    4f17:	33 a0 00 0a       	  cmpbreq.b a10 0x0 0x4f21;
    4f1b:	f8 02             	  halt;
    4f1d:	3e 2c 4f 00       	  jmp 0x4f2c;
    4f21:	bc 31 30          	  add.w a3 a3 a1;
    4f24:	bc 21 20          	  add.w a2 a2 a1;
    4f27:	a6 24             	  cmp.w a2 a4;
    4f29:	f4 08 a5          	  brc 0x4ece;
    4f2c:	fe 49 01          	  rspr a9 SP;
    4f2f:	90 99 28          	  add.w a9 a9 0x28;
    4f32:	bf 9f             	  ldd.w a15 a9;
    4f34:	d9 2c 06 00 00    	  mvi a9 0x62c;
    4f39:	bf 99             	  ldd.w a9 a9;
    4f3b:	32 0a             	  mv.b a10 a0;
    4f3d:	a6 f9             	  cmp.w a15 a9;
    4f3f:	f4 0b 07          	  breq 0x4f46;
    4f42:	7e e9 42 00       	  call 0x42e9;
    4f46:	fb 70             	  popm a7 0x0;
    4f48:	f4 30 0c          	  addsp 0xc;
    4f4b:	fc f0             	  pop a15;
    4f4d:	f4 30 04          	  addsp 0x4;
    4f50:	f9 f4             	  jmp a15;

Disassembly of section .text.spiRomInit:

00004f52 <_spiRomInit>:
    4f52:	f4 30 e4          	  addsp -0x1c;
    4f55:	df 2c 06 00 00    	  mvi a15 0x62c;
    4f5a:	f9 42             	  pushm a4;
    4f5c:	bf ff             	  ldd.w a15 a15;
    4f5e:	fe 49 01          	  rspr a9 SP;
    4f61:	90 99 2c          	  add.w a9 a9 0x2c;
    4f64:	b2 a1             	  mv.w a1 a10;
    4f66:	a0 9f             	  std.w a9 a15;
    4f68:	d9 1e 11 00 00    	  mvi a9 0x111e;
    4f6d:	3f 99             	  ldd.b a9 a9;
    4f6f:	33 90 00 0a       	  cmpbreq.b a9 0x0 0x4f79;
    4f73:	3d 04             	  clr.b a0;
    4f75:	3e c1 50 00       	  jmp 0x50c1;
    4f79:	bd f4             	  clr.w a15;
    4f7b:	fe 49 01          	  rspr a9 SP;
    4f7e:	90 99 24          	  add.w a9 a9 0x24;
    4f81:	a0 9f             	  std.w a9 a15;
    4f83:	92 99 04          	  sub.w a9 a9 0x4;
    4f86:	a0 9f             	  std.w a9 a15;
    4f88:	92 99 04          	  sub.w a9 a9 0x4;
    4f8b:	98 a2 05          	  ldd.w a2 a10 0x14;
    4f8e:	98 a4 06          	  ldd.w a4 a10 0x18;
    4f91:	a0 9f             	  std.w a9 a15;
    4f93:	7e b6 2f 00       	  call 0x2fb6;
    4f97:	32 a0             	  mv.b a0 a10;
    4f99:	33 a0 00 08       	  cmpbreq.b a10 0x0 0x4fa1;
    4f9d:	33 a4 2e 6b       	  cmpbrne.b a10 0x2e 0x5008;
    4fa1:	bf 2b             	  ldd.w a11 a2;
    4fa3:	98 29 01          	  ldd.w a9 a2 0x4;
    4fa6:	a6 b9             	  cmp.w a11 a9;
    4fa8:	f5 18 33 01       	  brnc 0x50db;
    4fac:	e4 b9 ff 0f       	  and a9 a11 0xfff;
    4fb0:	f5 1b 2b 01       	  brne 0x50db;
    4fb4:	fe 43 01          	  rspr a3 SP;
    4fb7:	b2 1a             	  mv.w a10 a1;
    4fb9:	90 33 1c          	  add.w a3 a3 0x1c;
    4fbc:	0c 04             	  mvi a12 0x4;
    4fbe:	b2 3d             	  mv.w a13 a3;
    4fc0:	7e aa 31 00       	  call 0x31aa;
    4fc4:	32 a0             	  mv.b a0 a10;
    4fc6:	33 a4 00 42       	  cmpbrne.b a10 0x0 0x5008;
    4fca:	bf 3f             	  ldd.w a15 a3;
    4fcc:	00 35             	  mvi a0 0x35;
    4fce:	d9 4a 46 46 53    	  mvi a9 0x5346464a;
    4fd3:	a6 f9             	  cmp.w a15 a9;
    4fd5:	f4 1b 33          	  brne 0x5008;
    4fd8:	b2 1a             	  mv.w a10 a1;
    4fda:	7e ed 37 00       	  call 0x37ed;
    4fde:	33 a4 00 36       	  cmpbrne.b a10 0x0 0x5014;
    4fe2:	bf 49             	  ldd.w a9 a4;
    4fe4:	0f fd             	  mvi a15 -0x3;
    4fe6:	92 99 01          	  sub.w a9 a9 0x1;
    4fe9:	a6 9f             	  cmp.w a9 a15;
    4feb:	f4 0c 29          	  brgt 0x5014;
    4fee:	98 4f 01          	  ldd.w a15 a4 0x4;
    4ff1:	09 ff             	  mvi a9 -0x1;
    4ff3:	a6 f9             	  cmp.w a15 a9;
    4ff5:	f4 0b 1f          	  breq 0x5014;
    4ff8:	b3 f0 00 1c       	  cmpbreq.w a15 0x0 0x5014;
    4ffc:	b2 1a             	  mv.w a10 a1;
    4ffe:	7e 77 38 00       	  call 0x3877;
    5002:	32 a0             	  mv.b a0 a10;
    5004:	33 a0 00 10       	  cmpbreq.b a10 0x0 0x5014;
    5008:	09 ff             	  mvi a9 -0x1;
    500a:	b5 29 01          	  std.w a2 0x4 a9;
    500d:	a0 29             	  std.w a2 a9;
    500f:	33 0d 00 b2 00    	  cmpbrne.b a0 0x0 0x50c1;
    5014:	b2 1a             	  mv.w a10 a1;
    5016:	7e aa 32 00       	  call 0x32aa;
    501a:	32 a0             	  mv.b a0 a10;
    501c:	33 ad 00 a5 00    	  cmpbrne.b a10 0x0 0x50c1;
    5021:	bd b4             	  clr.w a11;
    5023:	0c 06             	  mvi a12 0x6;
    5025:	fe 40 01          	  rspr a0 SP;
    5028:	90 00 16          	  add.w a0 a0 0x16;
    502b:	b2 0a             	  mv.w a10 a0;
    502d:	7e 94 0b 00       	  call 0xb94;
    5031:	bd 94             	  clr.w a9;
    5033:	fe 4f 01          	  rspr a15 SP;
    5036:	90 ff 28          	  add.w a15 a15 0x28;
    5039:	a0 f9             	  std.w a15 a9;
    503b:	18 19 04          	  ldd.b a9 a1 0x4;
    503e:	b2 0b             	  mv.w a11 a0;
    5040:	b2 fd             	  mv.w a13 a15;
    5042:	04 01             	  mvi a4 0x1;
    5044:	20 09             	  std.b a0 a9;
    5046:	09 9f             	  mvi a9 -0x61;
    5048:	20 f9             	  std.b a15 a9;
    504a:	09 19             	  mvi a9 0x19;
    504c:	35 09 01          	  std.b a0 0x1 a9;
    504f:	09 03             	  mvi a9 0x3;
    5051:	75 04 01          	  std.h a0 0x2 a4;
    5054:	75 09 02          	  std.h a0 0x4 a9;
    5057:	fe 42 01          	  rspr a2 SP;
    505a:	b2 1a             	  mv.w a10 a1;
    505c:	90 22 24          	  add.w a2 a2 0x24;
    505f:	b2 2c             	  mv.w a12 a2;
    5061:	7e 93 34 00       	  call 0x3493;
    5065:	32 a0             	  mv.b a0 a10;
    5067:	33 a4 00 5a       	  cmpbrne.b a10 0x0 0x50c1;
    506b:	bf 2b             	  ldd.w a11 a2;
    506d:	b2 1a             	  mv.w a10 a1;
    506f:	7e 12 2f 00       	  call 0x2f12;
    5073:	32 a0             	  mv.b a0 a10;
    5075:	33 a4 00 4c       	  cmpbrne.b a10 0x0 0x50c1;
    5079:	18 12 11          	  ldd.b a2 a1 0x11;
    507c:	c7 29 05          	  uxtr a9 a2 0x5;
    507f:	b3 94 00 39       	  cmpbrne.w a9 0x0 0x50b8;
    5083:	fe 43 01          	  rspr a3 SP;
    5086:	b2 1a             	  mv.w a10 a1;
    5088:	90 33 20          	  add.w a3 a3 0x20;
    508b:	b2 3b             	  mv.w a11 a3;
    508d:	7e eb 48 00       	  call 0x48eb;
    5091:	33 a4 00 15       	  cmpbrne.b a10 0x0 0x50a6;
    5095:	bf 3f             	  ldd.w a15 a3;
    5097:	94 29 02          	  lsl.w a9 a2 0x2;
    509a:	f0 94 3c          	  and a9 0x3c;
    509d:	fd 9f 04          	  and a9 a15;
    50a0:	f4 0b 06          	  breq 0x50a6;
    50a3:	35 14 20          	  std.b a1 0x20 a4;
    50a6:	b2 1a             	  mv.w a10 a1;
    50a8:	3d b4             	  clr.b a11;
    50aa:	7e fd 49 00       	  call 0x49fd;
    50ae:	33 a0 00 0a       	  cmpbreq.b a10 0x0 0x50b8;
    50b2:	32 a0             	  mv.b a0 a10;
    50b4:	3e c1 50 00       	  jmp 0x50c1;
    50b8:	0f 01             	  mvi a15 0x1;
    50ba:	d9 1e 11 00 00    	  mvi a9 0x111e;
    50bf:	20 9f             	  std.b a9 a15;
    50c1:	fe 49 01          	  rspr a9 SP;
    50c4:	90 99 2c          	  add.w a9 a9 0x2c;
    50c7:	bf 9f             	  ldd.w a15 a9;
    50c9:	d9 2c 06 00 00    	  mvi a9 0x62c;
    50ce:	bf 99             	  ldd.w a9 a9;
    50d0:	32 0a             	  mv.b a10 a0;
    50d2:	a6 f9             	  cmp.w a15 a9;
    50d4:	f4 0b 11          	  breq 0x50e5;
    50d7:	3e e1 50 00       	  jmp 0x50e1;
    50db:	00 02             	  mvi a0 0x2;
    50dd:	3e 08 50 00       	  jmp 0x5008;
    50e1:	7e e9 42 00       	  call 0x42e9;
    50e5:	fb 45 1c          	  popma a4 0x1 0x1c;

Disassembly of section .text.s_spiRomGetLedgerSector:

000050e8 <_s_spiRomGetLedgerSector>:
    50e8:	df 2c 06 00 00    	  mvi a15 0x62c;
    50ed:	bf ff             	  ldd.w a15 a15;
    50ef:	f4 30 fc          	  addsp -0x4;
    50f2:	fe 49 01          	  rspr a9 SP;
    50f5:	a0 9f             	  std.w a9 a15;
    50f7:	b3 a0 00 21       	  cmpbreq.w a10 0x0 0x5118;
    50fb:	98 aa 06          	  ldd.w a10 a10 0x18;
    50fe:	0f fd             	  mvi a15 -0x3;
    5100:	bf a9             	  ldd.w a9 a10;
    5102:	92 99 01          	  sub.w a9 a9 0x1;
    5105:	a6 9f             	  cmp.w a9 a15;
    5107:	f4 0c 11          	  brgt 0x5118;
    510a:	98 aa 01          	  ldd.w a10 a10 0x4;
    510d:	09 ff             	  mvi a9 -0x1;
    510f:	a6 a9             	  cmp.w a10 a9;
    5111:	f4 0b 07          	  breq 0x5118;
    5114:	b3 a4 00 0c       	  cmpbrne.w a10 0x0 0x5120;
    5118:	f8 02             	  halt;
    511a:	0a 02             	  mvi a10 0x2;
    511c:	3e 6b 51 00       	  jmp 0x516b;
    5120:	e4 b9 ff 0f       	  and a9 a11 0xfff;
    5124:	0a 02             	  mvi a10 0x2;
    5126:	f4 1b 45          	  brne 0x516b;
    5129:	d9 d4 2a 00 00    	  mvi a9 0x2ad4;
    512e:	98 9f 04          	  ldd.w a15 a9 0x10;
    5131:	3e 63 51 00       	  jmp 0x5163;
    5135:	18 f9 08          	  ldd.b a9 a15 0x8;
    5138:	33 90 00 28       	  cmpbreq.b a9 0x0 0x5160;
    513c:	18 f9 09          	  ldd.b a9 a15 0x9;
    513f:	33 90 00 21       	  cmpbreq.b a9 0x0 0x5160;
    5143:	58 f9 02          	  ldd.h a9 a15 0x4;
    5146:	58 fe 03          	  ldd.h a14 a15 0x6;
    5149:	f0 93 00          	  sethi a9 0x0;
    514c:	b6 94 0c          	  lsl.w a9 0xc;
    514f:	a6 b9             	  cmp.w a11 a9;
    5151:	f4 08 0f          	  brc 0x5160;
    5154:	e4 e9 ff ff       	  and a9 a14 0xffff;
    5158:	b6 94 0c          	  lsl.w a9 0xc;
    515b:	a6 b9             	  cmp.w a11 a9;
    515d:	f4 0d 0a          	  brlte 0x5167;
    5160:	98 ff 04          	  ldd.w a15 a15 0x10;
    5163:	b3 f4 00 d2       	  cmpbrne.w a15 0x0 0x5135;
    5167:	a0 cf             	  std.w a12 a15;
    5169:	0a 35             	  mvi a10 0x35;
    516b:	fe 49 01          	  rspr a9 SP;
    516e:	bf 9f             	  ldd.w a15 a9;
    5170:	d9 2c 06 00 00    	  mvi a9 0x62c;
    5175:	bf 99             	  ldd.w a9 a9;
    5177:	a6 f9             	  cmp.w a15 a9;
    5179:	f4 0b 07          	  breq 0x5180;
    517c:	7e e9 42 00       	  call 0x42e9;
    5180:	f4 30 04          	  addsp 0x4;
    5183:	f8 00             	  ret;

Disassembly of section .text.s_spiRomFindTallyBitOffset:

00005185 <_s_spiRomFindTallyBitOffset>:
    5185:	f4 30 f8          	  addsp -0x8;
    5188:	df 2c 06 00 00    	  mvi a15 0x62c;
    518d:	f9 52             	  pushm a5;
    518f:	bf ff             	  ldd.w a15 a15;
    5191:	b2 a4             	  mv.w a4 a10;
    5193:	fe 49 01          	  rspr a9 SP;
    5196:	fe 42 01          	  rspr a2 SP;
    5199:	90 99 1c          	  add.w a9 a9 0x1c;
    519c:	b2 b0             	  mv.w a0 a11;
    519e:	b2 c3             	  mv.w a3 a12;
    51a0:	b2 d5             	  mv.w a5 a13;
    51a2:	a0 9f             	  std.w a9 a15;
    51a4:	bd 14             	  clr.w a1;
    51a6:	0a 35             	  mvi a10 0x35;
    51a8:	90 22 18          	  add.w a2 a2 0x18;
    51ab:	3e 3c 52 00       	  jmp 0x523c;
    51af:	b2 4a             	  mv.w a10 a4;
    51b1:	b2 0b             	  mv.w a11 a0;
    51b3:	0c 04             	  mvi a12 0x4;
    51b5:	b2 2d             	  mv.w a13 a2;
    51b7:	7e aa 31 00       	  call 0x31aa;
    51bb:	33 ad 00 89 00    	  cmpbrne.b a10 0x0 0x5244;
    51c0:	bf 29             	  ldd.w a9 a2;
    51c2:	b3 94 00 0e       	  cmpbrne.w a9 0x0 0x51d0;
    51c6:	90 11 20          	  add.w a1 a1 0x20;
    51c9:	90 00 04          	  add.w a0 a0 0x4;
    51cc:	3e 3c 52 00       	  jmp 0x523c;
    51d0:	b9 9e 01          	  neg.w a14 a9;
    51d3:	fd e9 04          	  and a14 a9;
    51d6:	89 00 00 ff       	  mvi a9 -0x10000;
    51da:	ff e9 94          	  and a9 a14 a9;
    51dd:	f0 fc 0b          	  sgetb a15 0xb;
    51e0:	f0 f6 01          	  xor a15 0x1;
    51e3:	d9 00 ff 00 ff    	  mvi a9 -0xff0100;
    51e8:	ff e9 94          	  and a9 a14 a9;
    51eb:	f0 bc 0b          	  sgetb a11 0xb;
    51ee:	f0 b6 01          	  xor a11 0x1;
    51f1:	d9 f0 f0 f0 f0    	  mvi a9 -0xf0f0f10;
    51f6:	ff e9 94          	  and a9 a14 a9;
    51f9:	f0 cc 0b          	  sgetb a12 0xb;
    51fc:	f0 c6 01          	  xor a12 0x1;
    51ff:	d9 cc cc cc cc    	  mvi a9 -0x33333334;
    5204:	ff e9 94          	  and a9 a14 a9;
    5207:	f0 dc 0b          	  sgetb a13 0xb;
    520a:	f0 d6 01          	  xor a13 0x1;
    520d:	d9 aa aa aa aa    	  mvi a9 -0x55555556;
    5212:	b6 f4 04          	  lsl.w a15 0x4;
    5215:	b6 b4 03          	  lsl.w a11 0x3;
    5218:	b6 c4 02          	  lsl.w a12 0x2;
    521b:	b6 d4 01          	  lsl.w a13 0x1;
    521e:	fd e9 04          	  and a14 a9;
    5221:	f0 9c 0b          	  sgetb a9 0xb;
    5224:	f0 96 01          	  xor a9 0x1;
    5227:	fd f9 05          	  or a15 a9;
    522a:	fd fb 05          	  or a15 a11;
    522d:	fd fc 05          	  or a15 a12;
    5230:	fd fd 05          	  or a15 a13;
    5233:	a0 2f             	  std.w a2 a15;
    5235:	bc 1f 10          	  add.w a1 a1 a15;
    5238:	3e 42 52 00       	  jmp 0x5242;
    523c:	a6 03             	  cmp.w a0 a3;
    523e:	f5 0d 71 ff       	  brlte 0x51af;
    5242:	a0 51             	  std.w a5 a1;
    5244:	fe 49 01          	  rspr a9 SP;
    5247:	90 99 1c          	  add.w a9 a9 0x1c;
    524a:	bf 9f             	  ldd.w a15 a9;
    524c:	d9 2c 06 00 00    	  mvi a9 0x62c;
    5251:	bf 99             	  ldd.w a9 a9;
    5253:	a6 f9             	  cmp.w a15 a9;
    5255:	f4 0b 07          	  breq 0x525c;
    5258:	7e e9 42 00       	  call 0x42e9;
    525c:	fb 55 08          	  popma a5 0x1 0x8;

Disassembly of section .text._soe_vbios_read_structure:

0000525f <__soe_vbios_read_structure>:
    525f:	f4 30 fc          	  addsp -0x4;
    5262:	df 2c 06 00 00    	  mvi a15 0x62c;
    5267:	f9 42             	  pushm a4;
    5269:	bf ff             	  ldd.w a15 a15;
    526b:	b2 a0             	  mv.w a0 a10;
    526d:	b2 c2             	  mv.w a2 a12;
    526f:	fe 49 01          	  rspr a9 SP;
    5272:	b2 e3             	  mv.w a3 a14;
    5274:	90 99 14          	  add.w a9 a9 0x14;
    5277:	b2 b4             	  mv.w a4 a11;
    5279:	a0 9f             	  std.w a9 a15;
    527b:	b2 ea             	  mv.w a10 a14;
    527d:	bd c4             	  clr.w a12;
    527f:	3e de 52 00       	  jmp 0x52de;
    5283:	f0 e2 07          	  sext a14 0x7;
    5286:	94 f9 03          	  lsl.w a9 a15 0x3;
    5289:	bc ff f0          	  add.w a15 a15 a15;
    528c:	bc f9 f0          	  add.w a15 a15 a9;
    528f:	bc fe f0          	  add.w a15 a15 a14;
    5292:	3f be             	  ldd.b a14 a11;
    5294:	92 ff 30          	  sub.w a15 a15 0x30;
    5297:	90 bb 01          	  add.w a11 a11 0x1;
    529a:	b2 ba             	  mv.w a10 a11;
    529c:	12 e9 30          	  sub.b a9 a14 0x30;
    529f:	30 96 09          	  cmp.b a9 0x9;
    52a2:	f4 0d e1          	  brlte 0x5283;
    52a5:	b3 f4 00 06       	  cmpbrne.w a15 0x0 0x52ab;
    52a9:	0f 01             	  mvi a15 0x1;
    52ab:	33 e0 64 2d       	  cmpbreq.b a14 0x64 0x52d8;
    52af:	31 e6 64 00       	  cmp.b a14 0x64;
    52b3:	f4 1c 0b          	  brsgt 0x52be;
    52b6:	33 e4 62 28       	  cmpbrne.b a14 0x62 0x52de;
    52ba:	3e ca 52 00       	  jmp 0x52ca;
    52be:	33 e0 73 0c       	  cmpbreq.b a14 0x73 0x52ca;
    52c2:	33 e4 77 1c       	  cmpbrne.b a14 0x77 0x52de;
    52c6:	3e d1 52 00       	  jmp 0x52d1;
    52ca:	bc cf c0          	  add.w a12 a12 a15;
    52cd:	3e de 52 00       	  jmp 0x52de;
    52d1:	bc ff 90          	  add.w a9 a15 a15;
    52d4:	3e db 52 00       	  jmp 0x52db;
    52d8:	94 f9 02          	  lsl.w a9 a15 0x2;
    52db:	bc c9 c0          	  add.w a12 a12 a9;
    52de:	3f ae             	  ldd.b a14 a10;
    52e0:	33 e0 00 0d       	  cmpbreq.b a14 0x0 0x52ed;
    52e4:	90 ab 01          	  add.w a11 a10 0x1;
    52e7:	bd f4             	  clr.w a15;
    52e9:	3e 9a 52 00       	  jmp 0x529a;
    52ed:	b0 c6 20          	  cmp.w a12 0x20;
    52f0:	f4 0d 09          	  brlte 0x52f9;
    52f3:	f8 02             	  halt;
    52f5:	3e 06 54 00       	  jmp 0x5406;
    52f9:	b3 d0 00 06       	  cmpbreq.w a13 0x0 0x52ff;
    52fd:	a0 dc             	  std.w a13 a12;
    52ff:	bf 0f             	  ldd.w a15 a0;
    5301:	bc c2 90          	  add.w a9 a12 a2;
    5304:	01 ff             	  mvi a1 -0x1;
    5306:	a6 9f             	  cmp.w a9 a15;
    5308:	f5 0c 00 01       	  brgt 0x5408;
    530c:	da 9c 2a 00 00    	  mvi a10 0x2a9c;
    5311:	98 a9 07          	  ldd.w a9 a10 0x1c;
    5314:	98 00 01          	  ldd.w a0 a0 0x4;
    5317:	bf 9b             	  ldd.w a11 a9;
    5319:	b2 0d             	  mv.w a13 a0;
    531b:	bc 2b b0          	  add.w a11 a2 a11;
    531e:	7e aa 31 00       	  call 0x31aa;
    5322:	32 a1             	  mv.b a1 a10;
    5324:	33 ad 00 e4 00    	  cmpbrne.b a10 0x0 0x5408;
    5329:	b2 42             	  mv.w a2 a4;
    532b:	b2 0a             	  mv.w a10 a0;
    532d:	44 00 ff          	  mvi a4 -0x100;
    5330:	3e f7 53 00       	  jmp 0x53f7;
    5334:	94 c9 03          	  lsl.w a9 a12 0x3;
    5337:	c2 be 07          	  sext a14 a11 0x7;
    533a:	bc cc f0          	  add.w a15 a12 a12;
    533d:	3f db             	  ldd.b a11 a13;
    533f:	bc f9 f0          	  add.w a15 a15 a9;
    5342:	90 dd 01          	  add.w a13 a13 0x1;
    5345:	bc fe f0          	  add.w a15 a15 a14;
    5348:	92 fc 30          	  sub.w a12 a15 0x30;
    534b:	b2 d3             	  mv.w a3 a13;
    534d:	12 b9 30          	  sub.b a9 a11 0x30;
    5350:	30 96 09          	  cmp.b a9 0x9;
    5353:	f4 0d e1          	  brlte 0x5334;
    5356:	b3 c4 00 06       	  cmpbrne.w a12 0x0 0x535c;
    535a:	0c 01             	  mvi a12 0x1;
    535c:	b2 20             	  mv.w a0 a2;
    535e:	3e f0 53 00       	  jmp 0x53f0;
    5362:	33 b0 64 5b       	  cmpbreq.b a11 0x64 0x53bd;
    5366:	31 b6 64 00       	  cmp.b a11 0x64;
    536a:	f4 1c 0c          	  brsgt 0x5376;
    536d:	33 bd 62 99 00    	  cmpbrne.b a11 0x62 0x5406;
    5372:	3e 83 53 00       	  jmp 0x5383;
    5376:	33 b0 73 19       	  cmpbreq.b a11 0x73 0x538f;
    537a:	33 bd 77 8c 00    	  cmpbrne.b a11 0x77 0x5406;
    537f:	3e a5 53 00       	  jmp 0x53a5;
    5383:	3f a9             	  ldd.b a9 a10;
    5385:	90 ad 01          	  add.w a13 a10 0x1;
    5388:	c4 9f ff          	  and a15 a9 0xff;
    538b:	3e e6 53 00       	  jmp 0x53e6;
    538f:	3f a9             	  ldd.b a9 a10;
    5391:	90 ad 01          	  add.w a13 a10 0x1;
    5394:	c4 9f ff          	  and a15 a9 0xff;
    5397:	c4 f9 80          	  and a9 a15 0x80;
    539a:	33 90 00 4c       	  cmpbreq.b a9 0x0 0x53e6;
    539e:	fd f4 05          	  or a15 a4;
    53a1:	3e e6 53 00       	  jmp 0x53e6;
    53a5:	18 a9 01          	  ldd.b a9 a10 0x1;
    53a8:	3f af             	  ldd.b a15 a10;
    53aa:	90 ad 02          	  add.w a13 a10 0x2;
    53ad:	f0 94 ff          	  and a9 0xff;
    53b0:	f0 f4 ff          	  and a15 0xff;
    53b3:	b6 94 08          	  lsl.w a9 0x8;
    53b6:	ff 9f f5          	  or a15 a9 a15;
    53b9:	3e e6 53 00       	  jmp 0x53e6;
    53bd:	18 ad 03          	  ldd.b a13 a10 0x3;
    53c0:	18 af 02          	  ldd.b a15 a10 0x2;
    53c3:	3f ae             	  ldd.b a14 a10;
    53c5:	18 a9 01          	  ldd.b a9 a10 0x1;
    53c8:	b6 d4 18          	  lsl.w a13 0x18;
    53cb:	f0 f4 ff          	  and a15 0xff;
    53ce:	b6 f4 10          	  lsl.w a15 0x10;
    53d1:	f0 e4 ff          	  and a14 0xff;
    53d4:	f0 94 ff          	  and a9 0xff;
    53d7:	b6 94 08          	  lsl.w a9 0x8;
    53da:	fd 9e 05          	  or a9 a14;
    53dd:	fd 9f 05          	  or a9 a15;
    53e0:	ff 9d f5          	  or a15 a9 a13;
    53e3:	90 ad 04          	  add.w a13 a10 0x4;
    53e6:	a0 0f             	  std.w a0 a15;
    53e8:	92 cc 01          	  sub.w a12 a12 0x1;
    53eb:	90 00 04          	  add.w a0 a0 0x4;
    53ee:	b2 da             	  mv.w a10 a13;
    53f0:	b2 02             	  mv.w a2 a0;
    53f2:	b3 cd 00 70 ff    	  cmpbrne.w a12 0x0 0x5362;
    53f7:	3f 3b             	  ldd.b a11 a3;
    53f9:	33 b0 00 0f       	  cmpbreq.b a11 0x0 0x5408;
    53fd:	90 3d 01          	  add.w a13 a3 0x1;
    5400:	bd c4             	  clr.w a12;
    5402:	3e 4b 53 00       	  jmp 0x534b;
    5406:	01 ff             	  mvi a1 -0x1;
    5408:	fe 49 01          	  rspr a9 SP;
    540b:	90 99 14          	  add.w a9 a9 0x14;
    540e:	bf 9f             	  ldd.w a15 a9;
    5410:	d9 2c 06 00 00    	  mvi a9 0x62c;
    5415:	bf 99             	  ldd.w a9 a9;
    5417:	32 1a             	  mv.b a10 a1;
    5419:	a6 f9             	  cmp.w a15 a9;
    541b:	f4 0b 07          	  breq 0x5422;
    541e:	7e e9 42 00       	  call 0x42e9;
    5422:	fb 45 04          	  popma a4 0x1 0x4;

Disassembly of section .text._soe_vbios_read16:

00005425 <__soe_vbios_read16>:
    5425:	f4 30 f8          	  addsp -0x8;
    5428:	f9 22             	  pushm a2;
    542a:	d2 2c 06 00 00    	  mvi a2 0x62c;
    542f:	bf 29             	  ldd.w a9 a2;
    5431:	b2 bc             	  mv.w a12 a11;
    5433:	fe 41 01          	  rspr a1 SP;
    5436:	fe 40 01          	  rspr a0 SP;
    5439:	90 11 10          	  add.w a1 a1 0x10;
    543c:	90 00 0c          	  add.w a0 a0 0xc;
    543f:	a0 19             	  std.w a1 a9;
    5441:	bd d4             	  clr.w a13;
    5443:	b2 0b             	  mv.w a11 a0;
    5445:	de 74 00 00 00    	  mvi a14 0x74;
    544a:	7e 5f 52 00       	  call 0x525f;
    544e:	bf 1f             	  ldd.w a15 a1;
    5450:	bf 29             	  ldd.w a9 a2;
    5452:	7f 0a             	  ldd.h a10 a0;
    5454:	a6 f9             	  cmp.w a15 a9;
    5456:	f4 0b 07          	  breq 0x545d;
    5459:	7e e9 42 00       	  call 0x42e9;
    545d:	fb 25 08          	  popma a2 0x1 0x8;

Disassembly of section .text._soe_vbios_read32:

00005460 <__soe_vbios_read32>:
    5460:	f4 30 f8          	  addsp -0x8;
    5463:	f9 22             	  pushm a2;
    5465:	d2 2c 06 00 00    	  mvi a2 0x62c;
    546a:	bf 29             	  ldd.w a9 a2;
    546c:	b2 bc             	  mv.w a12 a11;
    546e:	fe 41 01          	  rspr a1 SP;
    5471:	fe 40 01          	  rspr a0 SP;
    5474:	90 11 10          	  add.w a1 a1 0x10;
    5477:	90 00 0c          	  add.w a0 a0 0xc;
    547a:	a0 19             	  std.w a1 a9;
    547c:	bd d4             	  clr.w a13;
    547e:	b2 0b             	  mv.w a11 a0;
    5480:	de 76 00 00 00    	  mvi a14 0x76;
    5485:	7e 5f 52 00       	  call 0x525f;
    5489:	bf 1f             	  ldd.w a15 a1;
    548b:	bf 29             	  ldd.w a9 a2;
    548d:	bf 0a             	  ldd.w a10 a0;
    548f:	a6 f9             	  cmp.w a15 a9;
    5491:	f4 0b 07          	  breq 0x5498;
    5494:	7e e9 42 00       	  call 0x42e9;
    5498:	fb 25 08          	  popma a2 0x1 0x8;

Disassembly of section .text._soe_vbios_read8:

0000549b <__soe_vbios_read8>:
    549b:	f4 30 f8          	  addsp -0x8;
    549e:	f9 22             	  pushm a2;
    54a0:	d2 2c 06 00 00    	  mvi a2 0x62c;
    54a5:	bf 29             	  ldd.w a9 a2;
    54a7:	b2 bc             	  mv.w a12 a11;
    54a9:	fe 41 01          	  rspr a1 SP;
    54ac:	fe 40 01          	  rspr a0 SP;
    54af:	90 11 10          	  add.w a1 a1 0x10;
    54b2:	90 00 0c          	  add.w a0 a0 0xc;
    54b5:	a0 19             	  std.w a1 a9;
    54b7:	bd d4             	  clr.w a13;
    54b9:	b2 0b             	  mv.w a11 a0;
    54bb:	de 78 00 00 00    	  mvi a14 0x78;
    54c0:	7e 5f 52 00       	  call 0x525f;
    54c4:	bf 1f             	  ldd.w a15 a1;
    54c6:	bf 29             	  ldd.w a9 a2;
    54c8:	3f 0a             	  ldd.b a10 a0;
    54ca:	a6 f9             	  cmp.w a15 a9;
    54cc:	f4 0b 07          	  breq 0x54d3;
    54cf:	7e e9 42 00       	  call 0x42e9;
    54d3:	fb 25 08          	  popma a2 0x1 0x8;

Disassembly of section .text.task_spi:

000054d6 <_task_spi>:
    54d6:	f4 30 f0          	  addsp -0x10;
    54d9:	df 2c 06 00 00    	  mvi a15 0x62c;
    54de:	f9 62             	  pushm a6;
    54e0:	bf ff             	  ldd.w a15 a15;
    54e2:	fe 49 01          	  rspr a9 SP;
    54e5:	fe 43 01          	  rspr a3 SP;
    54e8:	90 99 28          	  add.w a9 a9 0x28;
    54eb:	fe 42 01          	  rspr a2 SP;
    54ee:	a0 9f             	  std.w a9 a15;
    54f0:	d6 04 14 00 00    	  mvi a6 0x1404;
    54f5:	90 33 1c          	  add.w a3 a3 0x1c;
    54f8:	90 22 24          	  add.w a2 a2 0x24;
    54fb:	05 02             	  mvi a5 0x2;
    54fd:	04 04             	  mvi a4 0x4;
    54ff:	bf 6a             	  ldd.w a10 a6;
    5501:	0c 08             	  mvi a12 0x8;
    5503:	0d ff             	  mvi a13 -0x1;
    5505:	b2 3b             	  mv.w a11 a3;
    5507:	7e c1 00 00       	  call 0xc1;
    550b:	33 a4 00 f4       	  cmpbrne.b a10 0x0 0x54ff;
    550f:	98 31 01          	  ldd.w a1 a3 0x4;
    5512:	3f 19             	  ldd.b a9 a1;
    5514:	33 94 07 eb       	  cmpbrne.b a9 0x7 0x54ff;
    5518:	18 19 04          	  ldd.b a9 a1 0x4;
    551b:	3d 04             	  clr.b a0;
    551d:	da 9c 2a 00 00    	  mvi a10 0x2a9c;
    5522:	33 94 00 0a       	  cmpbrne.b a9 0x0 0x552c;
    5526:	7e 52 4f 00       	  call 0x4f52;
    552a:	32 a0             	  mv.b a0 a10;
    552c:	18 3b 01          	  ldd.b a11 a3 0x1;
    552f:	b2 1a             	  mv.w a10 a1;
    5531:	7e 81 0f 00       	  call 0xf81;
    5535:	33 04 00 ca       	  cmpbrne.b a0 0x0 0x54ff;
    5539:	35 20 02          	  std.b a2 0x2 a0;
    553c:	20 25             	  std.b a2 a5;
    553e:	18 11 03          	  ldd.b a1 a1 0x3;
    5541:	b2 2a             	  mv.w a10 a2;
    5543:	35 24 01          	  std.b a2 0x1 a4;
    5546:	bd b4             	  clr.w a11;
    5548:	35 21 03          	  std.b a2 0x3 a1;
    554b:	7e 71 0f 00       	  call 0xf71;
    554f:	3e ff 54 00       	  jmp 0x54ff;

Disassembly of section .text.task_smbpbi:

00005553 <_task_smbpbi>:
    5553:	f4 30 f4          	  addsp -0xc;
    5556:	df 2c 06 00 00    	  mvi a15 0x62c;
    555b:	f9 22             	  pushm a2;
    555d:	bf ff             	  ldd.w a15 a15;
    555f:	bd 94             	  clr.w a9;
    5561:	fe 40 01          	  rspr a0 SP;
    5564:	90 00 0c          	  add.w a0 a0 0xc;
    5567:	b5 09 01          	  std.w a0 0x4 a9;
    556a:	a0 09             	  std.w a0 a9;
    556c:	fe 49 01          	  rspr a9 SP;
    556f:	90 99 14          	  add.w a9 a9 0x14;
    5572:	d2 d4 2f 00 00    	  mvi a2 0x2fd4;
    5577:	a0 9f             	  std.w a9 a15;
    5579:	b2 01             	  mv.w a1 a0;
    557b:	7e 2c 8f 00       	  call 0x8f2c;
    557f:	3e 92 55 00       	  jmp 0x5592;
    5583:	98 19 01          	  ldd.w a9 a1 0x4;
    5586:	3f 99             	  ldd.b a9 a9;
    5588:	33 94 09 0a       	  cmpbrne.b a9 0x9 0x5592;
    558c:	b2 0a             	  mv.w a10 a0;
    558e:	7e 2f 3c 00       	  call 0x3c2f;
    5592:	da c8 2f 00 00    	  mvi a10 0x2fc8;
    5597:	7e 75 14 00       	  call 0x1475;
    559b:	b2 ad             	  mv.w a13 a10;
    559d:	bf 2a             	  ldd.w a10 a2;
    559f:	b2 0b             	  mv.w a11 a0;
    55a1:	0c 08             	  mvi a12 0x8;
    55a3:	7e c1 00 00       	  call 0xc1;
    55a7:	33 a0 00 dc       	  cmpbreq.b a10 0x0 0x5583;
    55ab:	da c8 2f 00 00    	  mvi a10 0x2fc8;
    55b0:	7e b5 14 00       	  call 0x14b5;
    55b4:	3e 92 55 00       	  jmp 0x5592;

Disassembly of section .imem_init:

00005600 <_bifHalIfacesSetup_TU102>:
    5600:	de 2c 06 00 00    	  mvi a14 0x62c;
    5605:	bf e9             	  ldd.w a9 a14;
    5607:	f4 30 fc          	  addsp -0x4;
    560a:	fe 4f 01          	  rspr a15 SP;
    560d:	a0 f9             	  std.w a15 a9;
    560f:	3d 94             	  clr.b a9;
    5611:	20 a9             	  std.b a10 a9;
    5613:	bf ff             	  ldd.w a15 a15;
    5615:	bf e9             	  ldd.w a9 a14;
    5617:	a6 f9             	  cmp.w a15 a9;
    5619:	f4 0b 07          	  breq 0x5620;
    561c:	7e e9 42 00       	  call 0x42e9;
    5620:	f4 30 04          	  addsp 0x4;
    5623:	f8 00             	  ret;

00005625 <_biosHalIfacesSetup_TU102>:
    5625:	de 2c 06 00 00    	  mvi a14 0x62c;
    562a:	bf e9             	  ldd.w a9 a14;
    562c:	f4 30 fc          	  addsp -0x4;
    562f:	fe 4f 01          	  rspr a15 SP;
    5632:	a0 f9             	  std.w a15 a9;
    5634:	3d 94             	  clr.b a9;
    5636:	20 a9             	  std.b a10 a9;
    5638:	bf ff             	  ldd.w a15 a15;
    563a:	bf e9             	  ldd.w a9 a14;
    563c:	a6 f9             	  cmp.w a15 a9;
    563e:	f4 0b 07          	  breq 0x5645;
    5641:	7e e9 42 00       	  call 0x42e9;
    5645:	f4 30 04          	  addsp 0x4;
    5648:	f8 00             	  ret;

0000564a <_coreHalIfacesSetup_TU102>:
    564a:	de 2c 06 00 00    	  mvi a14 0x62c;
    564f:	bf e9             	  ldd.w a9 a14;
    5651:	f4 30 fc          	  addsp -0x4;
    5654:	fe 4f 01          	  rspr a15 SP;
    5657:	a0 f9             	  std.w a15 a9;
    5659:	3d 94             	  clr.b a9;
    565b:	20 a9             	  std.b a10 a9;
    565d:	bf ff             	  ldd.w a15 a15;
    565f:	bf e9             	  ldd.w a9 a14;
    5661:	a6 f9             	  cmp.w a15 a9;
    5663:	f4 0b 07          	  breq 0x566a;
    5666:	7e e9 42 00       	  call 0x42e9;
    566a:	f4 30 04          	  addsp 0x4;
    566d:	f8 00             	  ret;

0000566f <_gpioHalIfacesSetup_TU102>:
    566f:	de 2c 06 00 00    	  mvi a14 0x62c;
    5674:	bf e9             	  ldd.w a9 a14;
    5676:	f4 30 fc          	  addsp -0x4;
    5679:	fe 4f 01          	  rspr a15 SP;
    567c:	a0 f9             	  std.w a15 a9;
    567e:	3d 94             	  clr.b a9;
    5680:	20 a9             	  std.b a10 a9;
    5682:	bf ff             	  ldd.w a15 a15;
    5684:	bf e9             	  ldd.w a9 a14;
    5686:	a6 f9             	  cmp.w a15 a9;
    5688:	f4 0b 07          	  breq 0x568f;
    568b:	7e e9 42 00       	  call 0x42e9;
    568f:	f4 30 04          	  addsp 0x4;
    5692:	f8 00             	  ret;

00005694 <_i2cHalIfacesSetup_TU102>:
    5694:	de 2c 06 00 00    	  mvi a14 0x62c;
    5699:	bf e9             	  ldd.w a9 a14;
    569b:	f4 30 fc          	  addsp -0x4;
    569e:	fe 4f 01          	  rspr a15 SP;
    56a1:	a0 f9             	  std.w a15 a9;
    56a3:	3d 94             	  clr.b a9;
    56a5:	20 a9             	  std.b a10 a9;
    56a7:	bf ff             	  ldd.w a15 a15;
    56a9:	bf e9             	  ldd.w a9 a14;
    56ab:	a6 f9             	  cmp.w a15 a9;
    56ad:	f4 0b 07          	  breq 0x56b4;
    56b0:	7e e9 42 00       	  call 0x42e9;
    56b4:	f4 30 04          	  addsp 0x4;
    56b7:	f8 00             	  ret;

000056b9 <_icHalIfacesSetup_TU102>:
    56b9:	de 2c 06 00 00    	  mvi a14 0x62c;
    56be:	bf e9             	  ldd.w a9 a14;
    56c0:	f4 30 fc          	  addsp -0x4;
    56c3:	fe 4f 01          	  rspr a15 SP;
    56c6:	a0 f9             	  std.w a15 a9;
    56c8:	3d 94             	  clr.b a9;
    56ca:	20 a9             	  std.b a10 a9;
    56cc:	bf ff             	  ldd.w a15 a15;
    56ce:	bf e9             	  ldd.w a9 a14;
    56d0:	a6 f9             	  cmp.w a15 a9;
    56d2:	f4 0b 07          	  breq 0x56d9;
    56d5:	7e e9 42 00       	  call 0x42e9;
    56d9:	f4 30 04          	  addsp 0x4;
    56dc:	f8 00             	  ret;

000056de <_ifrHalIfacesSetup_TU102>:
    56de:	de 2c 06 00 00    	  mvi a14 0x62c;
    56e3:	bf e9             	  ldd.w a9 a14;
    56e5:	f4 30 fc          	  addsp -0x4;
    56e8:	fe 4f 01          	  rspr a15 SP;
    56eb:	a0 f9             	  std.w a15 a9;
    56ed:	3d 94             	  clr.b a9;
    56ef:	20 a9             	  std.b a10 a9;
    56f1:	bf ff             	  ldd.w a15 a15;
    56f3:	bf e9             	  ldd.w a9 a14;
    56f5:	a6 f9             	  cmp.w a15 a9;
    56f7:	f4 0b 07          	  breq 0x56fe;
    56fa:	7e e9 42 00       	  call 0x42e9;
    56fe:	f4 30 04          	  addsp 0x4;
    5701:	f8 00             	  ret;

00005703 <_intrHalIfacesSetup_TU102>:
    5703:	de 2c 06 00 00    	  mvi a14 0x62c;
    5708:	bf e9             	  ldd.w a9 a14;
    570a:	f4 30 fc          	  addsp -0x4;
    570d:	fe 4f 01          	  rspr a15 SP;
    5710:	a0 f9             	  std.w a15 a9;
    5712:	3d 94             	  clr.b a9;
    5714:	20 a9             	  std.b a10 a9;
    5716:	bf ff             	  ldd.w a15 a15;
    5718:	bf e9             	  ldd.w a9 a14;
    571a:	a6 f9             	  cmp.w a15 a9;
    571c:	f4 0b 07          	  breq 0x5723;
    571f:	7e e9 42 00       	  call 0x42e9;
    5723:	f4 30 04          	  addsp 0x4;
    5726:	f8 00             	  ret;

00005728 <_lsfHalIfacesSetup_TU102>:
    5728:	de 2c 06 00 00    	  mvi a14 0x62c;
    572d:	bf e9             	  ldd.w a9 a14;
    572f:	f4 30 fc          	  addsp -0x4;
    5732:	fe 4f 01          	  rspr a15 SP;
    5735:	a0 f9             	  std.w a15 a9;
    5737:	3d 94             	  clr.b a9;
    5739:	20 a9             	  std.b a10 a9;
    573b:	bf ff             	  ldd.w a15 a15;
    573d:	bf e9             	  ldd.w a9 a14;
    573f:	a6 f9             	  cmp.w a15 a9;
    5741:	f4 0b 07          	  breq 0x5748;
    5744:	7e e9 42 00       	  call 0x42e9;
    5748:	f4 30 04          	  addsp 0x4;
    574b:	f8 00             	  ret;

0000574d <_lwlinkHalIfacesSetup_TU102>:
    574d:	de 2c 06 00 00    	  mvi a14 0x62c;
    5752:	bf e9             	  ldd.w a9 a14;
    5754:	f4 30 fc          	  addsp -0x4;
    5757:	fe 4f 01          	  rspr a15 SP;
    575a:	a0 f9             	  std.w a15 a9;
    575c:	3d 94             	  clr.b a9;
    575e:	20 a9             	  std.b a10 a9;
    5760:	bf ff             	  ldd.w a15 a15;
    5762:	bf e9             	  ldd.w a9 a14;
    5764:	a6 f9             	  cmp.w a15 a9;
    5766:	f4 0b 07          	  breq 0x576d;
    5769:	7e e9 42 00       	  call 0x42e9;
    576d:	f4 30 04          	  addsp 0x4;
    5770:	f8 00             	  ret;

00005772 <_pmgrHalIfacesSetup_TU102>:
    5772:	de 2c 06 00 00    	  mvi a14 0x62c;
    5777:	bf e9             	  ldd.w a9 a14;
    5779:	f4 30 fc          	  addsp -0x4;
    577c:	fe 4f 01          	  rspr a15 SP;
    577f:	a0 f9             	  std.w a15 a9;
    5781:	3d 94             	  clr.b a9;
    5783:	20 a9             	  std.b a10 a9;
    5785:	bf ff             	  ldd.w a15 a15;
    5787:	bf e9             	  ldd.w a9 a14;
    5789:	a6 f9             	  cmp.w a15 a9;
    578b:	f4 0b 07          	  breq 0x5792;
    578e:	7e e9 42 00       	  call 0x42e9;
    5792:	f4 30 04          	  addsp 0x4;
    5795:	f8 00             	  ret;

00005797 <_rttimerHalIfacesSetup_TU102>:
    5797:	de 2c 06 00 00    	  mvi a14 0x62c;
    579c:	bf e9             	  ldd.w a9 a14;
    579e:	f4 30 fc          	  addsp -0x4;
    57a1:	fe 4f 01          	  rspr a15 SP;
    57a4:	a0 f9             	  std.w a15 a9;
    57a6:	3d 94             	  clr.b a9;
    57a8:	20 a9             	  std.b a10 a9;
    57aa:	bf ff             	  ldd.w a15 a15;
    57ac:	bf e9             	  ldd.w a9 a14;
    57ae:	a6 f9             	  cmp.w a15 a9;
    57b0:	f4 0b 07          	  breq 0x57b7;
    57b3:	7e e9 42 00       	  call 0x42e9;
    57b7:	f4 30 04          	  addsp 0x4;
    57ba:	f8 00             	  ret;

000057bc <_sawHalIfacesSetup_TU102>:
    57bc:	de 2c 06 00 00    	  mvi a14 0x62c;
    57c1:	bf e9             	  ldd.w a9 a14;
    57c3:	f4 30 fc          	  addsp -0x4;
    57c6:	fe 4f 01          	  rspr a15 SP;
    57c9:	a0 f9             	  std.w a15 a9;
    57cb:	3d 94             	  clr.b a9;
    57cd:	20 a9             	  std.b a10 a9;
    57cf:	bf ff             	  ldd.w a15 a15;
    57d1:	bf e9             	  ldd.w a9 a14;
    57d3:	a6 f9             	  cmp.w a15 a9;
    57d5:	f4 0b 07          	  breq 0x57dc;
    57d8:	7e e9 42 00       	  call 0x42e9;
    57dc:	f4 30 04          	  addsp 0x4;
    57df:	f8 00             	  ret;

000057e1 <_smbpbiHalIfacesSetup_TU102>:
    57e1:	de 2c 06 00 00    	  mvi a14 0x62c;
    57e6:	bf e9             	  ldd.w a9 a14;
    57e8:	f4 30 fc          	  addsp -0x4;
    57eb:	fe 4f 01          	  rspr a15 SP;
    57ee:	a0 f9             	  std.w a15 a9;
    57f0:	3d 94             	  clr.b a9;
    57f2:	20 a9             	  std.b a10 a9;
    57f4:	bf ff             	  ldd.w a15 a15;
    57f6:	bf e9             	  ldd.w a9 a14;
    57f8:	a6 f9             	  cmp.w a15 a9;
    57fa:	f4 0b 07          	  breq 0x5801;
    57fd:	7e e9 42 00       	  call 0x42e9;
    5801:	f4 30 04          	  addsp 0x4;
    5804:	f8 00             	  ret;

00005806 <_soeHalIfacesSetup_TU102>:
    5806:	de 2c 06 00 00    	  mvi a14 0x62c;
    580b:	bf e9             	  ldd.w a9 a14;
    580d:	f4 30 fc          	  addsp -0x4;
    5810:	fe 4f 01          	  rspr a15 SP;
    5813:	a0 f9             	  std.w a15 a9;
    5815:	3d 94             	  clr.b a9;
    5817:	20 a9             	  std.b a10 a9;
    5819:	bf ff             	  ldd.w a15 a15;
    581b:	bf e9             	  ldd.w a9 a14;
    581d:	a6 f9             	  cmp.w a15 a9;
    581f:	f4 0b 07          	  breq 0x5826;
    5822:	7e e9 42 00       	  call 0x42e9;
    5826:	f4 30 04          	  addsp 0x4;
    5829:	f8 00             	  ret;

0000582b <_spiHalIfacesSetup_TU102>:
    582b:	de 2c 06 00 00    	  mvi a14 0x62c;
    5830:	bf e9             	  ldd.w a9 a14;
    5832:	f4 30 fc          	  addsp -0x4;
    5835:	fe 4f 01          	  rspr a15 SP;
    5838:	a0 f9             	  std.w a15 a9;
    583a:	3d 94             	  clr.b a9;
    583c:	20 a9             	  std.b a10 a9;
    583e:	bf ff             	  ldd.w a15 a15;
    5840:	bf e9             	  ldd.w a9 a14;
    5842:	a6 f9             	  cmp.w a15 a9;
    5844:	f4 0b 07          	  breq 0x584b;
    5847:	7e e9 42 00       	  call 0x42e9;
    584b:	f4 30 04          	  addsp 0x4;
    584e:	f8 00             	  ret;

00005850 <_thermHalIfacesSetup_TU102>:
    5850:	de 2c 06 00 00    	  mvi a14 0x62c;
    5855:	bf e9             	  ldd.w a9 a14;
    5857:	f4 30 fc          	  addsp -0x4;
    585a:	fe 4f 01          	  rspr a15 SP;
    585d:	a0 f9             	  std.w a15 a9;
    585f:	3d 94             	  clr.b a9;
    5861:	20 a9             	  std.b a10 a9;
    5863:	bf ff             	  ldd.w a15 a15;
    5865:	bf e9             	  ldd.w a9 a14;
    5867:	a6 f9             	  cmp.w a15 a9;
    5869:	f4 0b 07          	  breq 0x5870;
    586c:	7e e9 42 00       	  call 0x42e9;
    5870:	f4 30 04          	  addsp 0x4;
    5873:	f8 00             	  ret;

00005875 <_timerHalIfacesSetup_TU102>:
    5875:	de 2c 06 00 00    	  mvi a14 0x62c;
    587a:	bf e9             	  ldd.w a9 a14;
    587c:	f4 30 fc          	  addsp -0x4;
    587f:	fe 4f 01          	  rspr a15 SP;
    5882:	a0 f9             	  std.w a15 a9;
    5884:	3d 94             	  clr.b a9;
    5886:	20 a9             	  std.b a10 a9;
    5888:	bf ff             	  ldd.w a15 a15;
    588a:	bf e9             	  ldd.w a9 a14;
    588c:	a6 f9             	  cmp.w a15 a9;
    588e:	f4 0b 07          	  breq 0x5895;
    5891:	7e e9 42 00       	  call 0x42e9;
    5895:	f4 30 04          	  addsp 0x4;
    5898:	f8 00             	  ret;

0000589a <_InitSoeApp>:
    589a:	f4 30 fc          	  addsp -0x4;
    589d:	df 2c 06 00 00    	  mvi a15 0x62c;
    58a2:	f9 12             	  pushm a1;
    58a4:	bf ff             	  ldd.w a15 a15;
    58a6:	f4 30 d4          	  addsp -0x2c;
    58a9:	fe 49 01          	  rspr a9 SP;
    58ac:	90 99 34          	  add.w a9 a9 0x34;
    58af:	a0 9f             	  std.w a9 a15;
    58b1:	0f ff             	  mvi a15 -0x1;
    58b3:	49 00 05          	  mvi a9 0x500;
    58b6:	f7 9f 00          	  stxb a9 0x0 a15;
    58b9:	7e 99 5c 00       	  call 0x5c99;
    58bd:	7e c6 71 00       	  call 0x71c6;
    58c1:	7e ba 42 00       	  call 0x42ba;
    58c5:	7e 73 5f 00       	  call 0x5f73;
    58c9:	33 a9 00 d6 02    	  cmpbreq.b a10 0x0 0x5b9f;
    58ce:	0f 06             	  mvi a15 0x6;
    58d0:	49 00 11          	  mvi a9 0x1100;
    58d3:	f7 9f 00          	  stxb a9 0x0 a15;
    58d6:	7e 83 5e 00       	  call 0x5e83;
    58da:	7e ed 5e 00       	  call 0x5eed;
    58de:	7e b5 61 00       	  call 0x61b5;
    58e2:	7e bf 5b 00       	  call 0x5bbf;
    58e6:	7e 1f 64 00       	  call 0x641f;
    58ea:	7e b1 64 00       	  call 0x64b1;
    58ee:	7e e6 5c 00       	  call 0x5ce6;
    58f2:	7e 65 65 00       	  call 0x6565;
    58f6:	7e 49 66 00       	  call 0x6649;
    58fa:	7e 7e 66 00       	  call 0x667e;
    58fe:	7e e2 66 00       	  call 0x66e2;
    5902:	7e 38 67 00       	  call 0x6738;
    5906:	7e 8e 67 00       	  call 0x678e;
    590a:	7e e4 67 00       	  call 0x67e4;
    590e:	7e c3 89 00       	  call 0x89c3;
    5912:	7e b7 68 00       	  call 0x68b7;
    5916:	7e 84 6d 00       	  call 0x6d84;
    591a:	7e 79 63 00       	  call 0x6379;
    591e:	7e 61 68 00       	  call 0x6861;
    5922:	4c 31 77          	  mvi a12 0x7731;
    5925:	f1 c3 00 00       	  sethi a12 0x0;
    5929:	3d 94             	  clr.b a9;
    592b:	01 02             	  mvi a1 0x2;
    592d:	30 91 28          	  stdsp.b a9 0x28;
    5930:	30 91 00          	  stdsp.b a9 0x0;
    5933:	30 91 08          	  stdsp.b a9 0x8;
    5936:	30 91 10          	  stdsp.b a9 0x10;
    5939:	30 91 14          	  stdsp.b a9 0x14;
    593c:	30 91 18          	  stdsp.b a9 0x18;
    593f:	30 91 1c          	  stdsp.b a9 0x1c;
    5942:	30 91 20          	  stdsp.b a9 0x20;
    5945:	30 91 24          	  stdsp.b a9 0x24;
    5948:	b0 11 01          	  stdsp.w a1 0x4;
    594b:	30 11 0c          	  stdsp.b a1 0xc;
    594e:	da 10 06 00 00    	  mvi a10 0x610;
    5953:	db 8c 01 00 00    	  mvi a11 0x18c;
    5958:	0d 01             	  mvi a13 0x1;
    595a:	4e 80 00          	  mvi a14 0x80;
    595d:	7e d8 71 00       	  call 0x71d8;
    5961:	33 ad 00 3e 02    	  cmpbrne.b a10 0x0 0x5b9f;
    5966:	da 08 14 00 00    	  mvi a10 0x1408;
    596b:	0b 04             	  mvi a11 0x4;
    596d:	0c 01             	  mvi a12 0x1;
    596f:	7e 05 6e 00       	  call 0x6e05;
    5973:	33 ad 00 2c 02    	  cmpbrne.b a10 0x0 0x5b9f;
    5978:	4c d2 7e          	  mvi a12 0x7ed2;
    597b:	f1 c3 00 00       	  sethi a12 0x0;
    597f:	00 01             	  mvi a0 0x1;
    5981:	30 a1 28          	  stdsp.b a10 0x28;
    5984:	30 a1 00          	  stdsp.b a10 0x0;
    5987:	30 a1 08          	  stdsp.b a10 0x8;
    598a:	30 a1 0c          	  stdsp.b a10 0xc;
    598d:	30 a1 10          	  stdsp.b a10 0x10;
    5990:	30 a1 14          	  stdsp.b a10 0x14;
    5993:	30 a1 18          	  stdsp.b a10 0x18;
    5996:	30 a1 20          	  stdsp.b a10 0x20;
    5999:	30 a1 24          	  stdsp.b a10 0x24;
    599c:	db 68 01 00 00    	  mvi a11 0x168;
    59a1:	b0 01 01          	  stdsp.w a0 0x4;
    59a4:	30 01 1c          	  stdsp.b a0 0x1c;
    59a7:	0d 03             	  mvi a13 0x3;
    59a9:	4e 80 00          	  mvi a14 0x80;
    59ac:	da 14 06 00 00    	  mvi a10 0x614;
    59b1:	7e d8 71 00       	  call 0x71d8;
    59b5:	da 00 14 00 00    	  mvi a10 0x1400;
    59ba:	0b 04             	  mvi a11 0x4;
    59bc:	0c 08             	  mvi a12 0x8;
    59be:	7e 05 6e 00       	  call 0x6e05;
    59c2:	33 ad 00 dd 01    	  cmpbrne.b a10 0x0 0x5b9f;
    59c7:	4c 63 88          	  mvi a12 -0x779d;
    59ca:	f1 c3 00 00       	  sethi a12 0x0;
    59ce:	db 44 01 00 00    	  mvi a11 0x144;
    59d3:	30 a1 28          	  stdsp.b a10 0x28;
    59d6:	30 a1 00          	  stdsp.b a10 0x0;
    59d9:	30 a1 10          	  stdsp.b a10 0x10;
    59dc:	30 a1 14          	  stdsp.b a10 0x14;
    59df:	30 a1 18          	  stdsp.b a10 0x18;
    59e2:	30 a1 20          	  stdsp.b a10 0x20;
    59e5:	30 a1 24          	  stdsp.b a10 0x24;
    59e8:	b0 01 01          	  stdsp.w a0 0x4;
    59eb:	30 11 08          	  stdsp.b a1 0x8;
    59ee:	30 11 0c          	  stdsp.b a1 0xc;
    59f1:	30 01 1c          	  stdsp.b a0 0x1c;
    59f4:	0d 08             	  mvi a13 0x8;
    59f6:	4e 80 00          	  mvi a14 0x80;
    59f9:	da 18 06 00 00    	  mvi a10 0x618;
    59fe:	7e d8 71 00       	  call 0x71d8;
    5a02:	da 24 14 00 00    	  mvi a10 0x1424;
    5a07:	0b 04             	  mvi a11 0x4;
    5a09:	0c 08             	  mvi a12 0x8;
    5a0b:	7e 05 6e 00       	  call 0x6e05;
    5a0f:	33 ad 00 90 01    	  cmpbrne.b a10 0x0 0x5b9f;
    5a14:	4c 53 55          	  mvi a12 0x5553;
    5a17:	f1 c3 00 00       	  sethi a12 0x0;
    5a1b:	db 20 01 00 00    	  mvi a11 0x120;
    5a20:	30 a1 28          	  stdsp.b a10 0x28;
    5a23:	30 a1 00          	  stdsp.b a10 0x0;
    5a26:	30 a1 10          	  stdsp.b a10 0x10;
    5a29:	30 a1 14          	  stdsp.b a10 0x14;
    5a2c:	30 a1 18          	  stdsp.b a10 0x18;
    5a2f:	30 a1 20          	  stdsp.b a10 0x20;
    5a32:	30 a1 24          	  stdsp.b a10 0x24;
    5a35:	b0 01 01          	  stdsp.w a0 0x4;
    5a38:	30 11 08          	  stdsp.b a1 0x8;
    5a3b:	30 11 0c          	  stdsp.b a1 0xc;
    5a3e:	30 01 1c          	  stdsp.b a0 0x1c;
    5a41:	0d 07             	  mvi a13 0x7;
    5a43:	4e 00 01          	  mvi a14 0x100;
    5a46:	da 1c 06 00 00    	  mvi a10 0x61c;
    5a4b:	7e d8 71 00       	  call 0x71d8;
    5a4f:	da d4 2f 00 00    	  mvi a10 0x2fd4;
    5a54:	b2 1b             	  mv.w a11 a1;
    5a56:	0c 08             	  mvi a12 0x8;
    5a58:	7e 05 6e 00       	  call 0x6e05;
    5a5c:	33 ad 00 43 01    	  cmpbrne.b a10 0x0 0x5b9f;
    5a61:	4c d6 54          	  mvi a12 0x54d6;
    5a64:	f1 c3 00 00       	  sethi a12 0x0;
    5a68:	db fc 00 00 00    	  mvi a11 0xfc;
    5a6d:	30 a1 28          	  stdsp.b a10 0x28;
    5a70:	30 a1 00          	  stdsp.b a10 0x0;
    5a73:	30 a1 10          	  stdsp.b a10 0x10;
    5a76:	30 a1 14          	  stdsp.b a10 0x14;
    5a79:	30 a1 18          	  stdsp.b a10 0x18;
    5a7c:	30 a1 20          	  stdsp.b a10 0x20;
    5a7f:	30 a1 24          	  stdsp.b a10 0x24;
    5a82:	b0 01 01          	  stdsp.w a0 0x4;
    5a85:	30 11 08          	  stdsp.b a1 0x8;
    5a88:	30 11 0c          	  stdsp.b a1 0xc;
    5a8b:	30 01 1c          	  stdsp.b a0 0x1c;
    5a8e:	0d 05             	  mvi a13 0x5;
    5a90:	4e c0 00          	  mvi a14 0xc0;
    5a93:	da 20 06 00 00    	  mvi a10 0x620;
    5a98:	7e d8 71 00       	  call 0x71d8;
    5a9c:	da 04 14 00 00    	  mvi a10 0x1404;
    5aa1:	0b 04             	  mvi a11 0x4;
    5aa3:	0c 08             	  mvi a12 0x8;
    5aa5:	7e 05 6e 00       	  call 0x6e05;
    5aa9:	33 ad 00 f6 00    	  cmpbrne.b a10 0x0 0x5b9f;
    5aae:	4c f6 8a          	  mvi a12 -0x750a;
    5ab1:	f1 c3 00 00       	  sethi a12 0x0;
    5ab5:	db d8 00 00 00    	  mvi a11 0xd8;
    5aba:	30 a1 28          	  stdsp.b a10 0x28;
    5abd:	30 a1 00          	  stdsp.b a10 0x0;
    5ac0:	30 a1 10          	  stdsp.b a10 0x10;
    5ac3:	30 a1 14          	  stdsp.b a10 0x14;
    5ac6:	30 a1 18          	  stdsp.b a10 0x18;
    5ac9:	30 a1 20          	  stdsp.b a10 0x20;
    5acc:	30 a1 24          	  stdsp.b a10 0x24;
    5acf:	b0 01 01          	  stdsp.w a0 0x4;
    5ad2:	30 11 08          	  stdsp.b a1 0x8;
    5ad5:	30 11 0c          	  stdsp.b a1 0xc;
    5ad8:	30 01 1c          	  stdsp.b a0 0x1c;
    5adb:	0d 09             	  mvi a13 0x9;
    5add:	4e 80 00          	  mvi a14 0x80;
    5ae0:	da 24 06 00 00    	  mvi a10 0x624;
    5ae5:	7e d8 71 00       	  call 0x71d8;
    5ae9:	da 2c 14 00 00    	  mvi a10 0x142c;
    5aee:	0b 04             	  mvi a11 0x4;
    5af0:	0c 08             	  mvi a12 0x8;
    5af2:	7e 05 6e 00       	  call 0x6e05;
    5af6:	33 ad 00 a9 00    	  cmpbrne.b a10 0x0 0x5b9f;
    5afb:	4c bf da          	  mvi a12 -0x2541;
    5afe:	f1 c3 00 00       	  sethi a12 0x0;
    5b02:	db b4 00 00 00    	  mvi a11 0xb4;
    5b07:	30 a1 28          	  stdsp.b a10 0x28;
    5b0a:	30 a1 00          	  stdsp.b a10 0x0;
    5b0d:	30 a1 10          	  stdsp.b a10 0x10;
    5b10:	30 a1 14          	  stdsp.b a10 0x14;
    5b13:	30 a1 18          	  stdsp.b a10 0x18;
    5b16:	30 a1 20          	  stdsp.b a10 0x20;
    5b19:	30 a1 24          	  stdsp.b a10 0x24;
    5b1c:	30 11 0c          	  stdsp.b a1 0xc;
    5b1f:	30 01 1c          	  stdsp.b a0 0x1c;
    5b22:	b0 01 01          	  stdsp.w a0 0x4;
    5b25:	30 11 08          	  stdsp.b a1 0x8;
    5b28:	0d 0a             	  mvi a13 0xa;
    5b2a:	4e c0 00          	  mvi a14 0xc0;
    5b2d:	da 28 06 00 00    	  mvi a10 0x628;
    5b32:	7e d8 71 00       	  call 0x71d8;
    5b36:	da 20 14 00 00    	  mvi a10 0x1420;
    5b3b:	0b 04             	  mvi a11 0x4;
    5b3d:	0c 08             	  mvi a12 0x8;
    5b3f:	7e 05 6e 00       	  call 0x6e05;
    5b43:	33 a4 00 5c       	  cmpbrne.b a10 0x0 0x5b9f;
    5b47:	7e 65 71 00       	  call 0x7165;
    5b4b:	7e 75 5c 00       	  call 0x5c75;
    5b4f:	7e ff 6d 00       	  call 0x6dff;
    5b53:	7e 74 0a 00       	  call 0xa74;
    5b57:	7e 47 47 00       	  call 0x4747;
    5b5b:	7e 5a 64 00       	  call 0x645a;
    5b5f:	7e 17 5c 00       	  call 0x5c17;
    5b63:	7e 1b 5d 00       	  call 0x5d1b;
    5b67:	7e ae 63 00       	  call 0x63ae;
    5b6b:	7e de 63 00       	  call 0x63de;
    5b6f:	7e b3 66 00       	  call 0x66b3;
    5b73:	7e 17 67 00       	  call 0x6717;
    5b77:	7e 6d 67 00       	  call 0x676d;
    5b7b:	7e c3 67 00       	  call 0x67c3;
    5b7f:	7e 40 68 00       	  call 0x6840;
    5b83:	7e 96 68 00       	  call 0x6896;
    5b87:	7e c9 6d 00       	  call 0x6dc9;
    5b8b:	7e 89 89 00       	  call 0x8989;
    5b8f:	7e ec 68 00       	  call 0x68ec;
    5b93:	7e b8 5e 00       	  call 0x5eb8;
    5b97:	7e 7c 6e 00       	  call 0x6e7c;
    5b9b:	33 a0 00 06       	  cmpbreq.b a10 0x0 0x5ba1;
    5b9f:	f8 02             	  halt;
    5ba1:	fe 49 01          	  rspr a9 SP;
    5ba4:	90 99 34          	  add.w a9 a9 0x34;
    5ba7:	bf 9f             	  ldd.w a15 a9;
    5ba9:	d9 2c 06 00 00    	  mvi a9 0x62c;
    5bae:	bf 99             	  ldd.w a9 a9;
    5bb0:	a6 f9             	  cmp.w a15 a9;
    5bb2:	f4 0b 07          	  breq 0x5bb9;
    5bb5:	7e e9 42 00       	  call 0x42e9;
    5bb9:	f4 30 2c          	  addsp 0x2c;
    5bbc:	fb 15 04          	  popma a1 0x1 0x4;

00005bbf <_constructIc>:
    5bbf:	f4 30 fc          	  addsp -0x4;
    5bc2:	f9 12             	  pushm a1;
    5bc4:	d1 2c 06 00 00    	  mvi a1 0x62c;
    5bc9:	bf 19             	  ldd.w a9 a1;
    5bcb:	fe 40 01          	  rspr a0 SP;
    5bce:	90 00 08          	  add.w a0 a0 0x8;
    5bd1:	da e0 2f 00 00    	  mvi a10 0x2fe0;
    5bd6:	a0 09             	  std.w a0 a9;
    5bd8:	d9 34 14 00 00    	  mvi a9 0x1434;
    5bdd:	bf 99             	  ldd.w a9 a9;
    5bdf:	98 99 05          	  ldd.w a9 a9 0x14;
    5be2:	f9 95             	  call a9;
    5be4:	bf 0f             	  ldd.w a15 a0;
    5be6:	bf 19             	  ldd.w a9 a1;
    5be8:	a6 f9             	  cmp.w a15 a9;
    5bea:	f4 0b 07          	  breq 0x5bf1;
    5bed:	7e e9 42 00       	  call 0x42e9;
    5bf1:	fb 15 04          	  popma a1 0x1 0x4;

00005bf4 <_vApplicationIdleTaskStackSize>:
    5bf4:	de 2c 06 00 00    	  mvi a14 0x62c;
    5bf9:	bf ef             	  ldd.w a15 a14;
    5bfb:	f4 30 fc          	  addsp -0x4;
    5bfe:	fe 49 01          	  rspr a9 SP;
    5c01:	0a 40             	  mvi a10 0x40;
    5c03:	a0 9f             	  std.w a9 a15;
    5c05:	bf 9f             	  ldd.w a15 a9;
    5c07:	bf e9             	  ldd.w a9 a14;
    5c09:	a6 f9             	  cmp.w a15 a9;
    5c0b:	f4 0b 07          	  breq 0x5c12;
    5c0e:	7e e9 42 00       	  call 0x42e9;
    5c12:	f4 30 04          	  addsp 0x4;
    5c15:	f8 00             	  ret;

00005c17 <_icPreInit_LR10>:
    5c17:	df 2c 06 00 00    	  mvi a15 0x62c;
    5c1c:	bf ff             	  ldd.w a15 a15;
    5c1e:	f4 30 fc          	  addsp -0x4;
    5c21:	fe 49 01          	  rspr a9 SP;
    5c24:	a0 9f             	  std.w a9 a15;
    5c26:	df 70 00 00 20    	  mvi a15 0x20000070;
    5c2b:	49 00 07          	  mvi a9 0x700;
    5c2e:	f6 9f 00          	  stx a9 0x0 a15;
    5c31:	4e 00 03          	  mvi a14 0x300;
    5c34:	cf e9 00          	  ldx a9 a14 0x0;
    5c37:	4f ff cf          	  mvi a15 -0x3001;
    5c3a:	fd 9f 04          	  and a9 a15;
    5c3d:	f1 95 00 80       	  or a9 0x8000;
    5c41:	f6 e9 00          	  stx a14 0x0 a9;
    5c44:	8f 71 b0 00       	  mvi a15 0xb071;
    5c48:	49 00 04          	  mvi a9 0x400;
    5c4b:	f6 9f 00          	  stx a9 0x0 a15;
    5c4e:	8f 00 15 02       	  mvi a15 0x21500;
    5c52:	ce f9 00          	  ldxb a9 a15 0x0;
    5c55:	f0 95 01          	  or a9 0x1;
    5c58:	f7 f9 00          	  stxb a15 0x0 a9;
    5c5b:	fe 49 01          	  rspr a9 SP;
    5c5e:	bf 9f             	  ldd.w a15 a9;
    5c60:	d9 2c 06 00 00    	  mvi a9 0x62c;
    5c65:	bf 99             	  ldd.w a9 a9;
    5c67:	a6 f9             	  cmp.w a15 a9;
    5c69:	f4 0b 07          	  breq 0x5c70;
    5c6c:	7e e9 42 00       	  call 0x42e9;
    5c70:	f4 30 04          	  addsp 0x4;
    5c73:	f8 00             	  ret;

00005c75 <_icOsTickIntrMaskGet_LR10>:
    5c75:	de 2c 06 00 00    	  mvi a14 0x62c;
    5c7a:	bf ef             	  ldd.w a15 a14;
    5c7c:	f4 30 fc          	  addsp -0x4;
    5c7f:	fe 49 01          	  rspr a9 SP;
    5c82:	4a 00 20          	  mvi a10 0x2000;
    5c85:	a0 9f             	  std.w a9 a15;
    5c87:	bf 9f             	  ldd.w a15 a9;
    5c89:	bf e9             	  ldd.w a9 a14;
    5c8b:	a6 f9             	  cmp.w a15 a9;
    5c8d:	f4 0b 07          	  breq 0x5c94;
    5c90:	7e e9 42 00       	  call 0x42e9;
    5c94:	f4 30 04          	  addsp 0x4;
    5c97:	f8 00             	  ret;

00005c99 <_icHaltIntrUnmask_LR10>:
    5c99:	df 2c 06 00 00    	  mvi a15 0x62c;
    5c9e:	bf ff             	  ldd.w a15 a15;
    5ca0:	f4 30 fc          	  addsp -0x4;
    5ca3:	fe 49 01          	  rspr a9 SP;
    5ca6:	a0 9f             	  std.w a9 a15;
    5ca8:	4f 00 01          	  mvi a15 0x100;
    5cab:	ce f9 00          	  ldxb a9 a15 0x0;
    5cae:	f0 95 10          	  or a9 0x10;
    5cb1:	f7 f9 00          	  stxb a15 0x0 a9;
    5cb4:	4f 00 07          	  mvi a15 0x700;
    5cb7:	ce f9 00          	  ldxb a9 a15 0x0;
    5cba:	f0 95 10          	  or a9 0x10;
    5cbd:	f7 f9 00          	  stxb a15 0x0 a9;
    5cc0:	4f 00 04          	  mvi a15 0x400;
    5cc3:	ce f9 00          	  ldxb a9 a15 0x0;
    5cc6:	f0 95 10          	  or a9 0x10;
    5cc9:	f7 f9 00          	  stxb a15 0x0 a9;
    5ccc:	fe 49 01          	  rspr a9 SP;
    5ccf:	bf 9f             	  ldd.w a15 a9;
    5cd1:	d9 2c 06 00 00    	  mvi a9 0x62c;
    5cd6:	bf 99             	  ldd.w a9 a9;
    5cd8:	a6 f9             	  cmp.w a15 a9;
    5cda:	f4 0b 07          	  breq 0x5ce1;
    5cdd:	7e e9 42 00       	  call 0x42e9;
    5ce1:	f4 30 04          	  addsp 0x4;
    5ce4:	f8 00             	  ret;

00005ce6 <_constructLsf>:
    5ce6:	f4 30 fc          	  addsp -0x4;
    5ce9:	f9 12             	  pushm a1;
    5ceb:	d1 2c 06 00 00    	  mvi a1 0x62c;
    5cf0:	bf 19             	  ldd.w a9 a1;
    5cf2:	fe 40 01          	  rspr a0 SP;
    5cf5:	90 00 08          	  add.w a0 a0 0x8;
    5cf8:	da e2 2f 00 00    	  mvi a10 0x2fe2;
    5cfd:	a0 09             	  std.w a0 a9;
    5cff:	d9 34 14 00 00    	  mvi a9 0x1434;
    5d04:	bf 99             	  ldd.w a9 a9;
    5d06:	98 99 08          	  ldd.w a9 a9 0x20;
    5d09:	f9 95             	  call a9;
    5d0b:	bf 0f             	  ldd.w a15 a0;
    5d0d:	bf 19             	  ldd.w a9 a1;
    5d0f:	a6 f9             	  cmp.w a15 a9;
    5d11:	f4 0b 07          	  breq 0x5d18;
    5d14:	7e e9 42 00       	  call 0x42e9;
    5d18:	fb 15 04          	  popma a1 0x1 0x4;

00005d1b <_lsfPreInit>:
    5d1b:	d9 2c 06 00 00    	  mvi a9 0x62c;
    5d20:	bf 99             	  ldd.w a9 a9;
    5d22:	f4 30 fc          	  addsp -0x4;
    5d25:	fe 4f 01          	  rspr a15 SP;
    5d28:	a0 f9             	  std.w a15 a9;
    5d2a:	7e ad 5d 00       	  call 0x5dad;
    5d2e:	33 a4 00 11       	  cmpbrne.b a10 0x0 0x5d3f;
    5d32:	df ad de ad de    	  mvi a15 -0x21522153;
    5d37:	49 00 10          	  mvi a9 0x1000;
    5d3a:	f6 9f 00          	  stx a9 0x0 a15;
    5d3d:	f8 02             	  halt;
    5d3f:	7e f4 5d 00       	  call 0x5df4;
    5d43:	7e 65 5d 00       	  call 0x5d65;
    5d47:	7e 30 5e 00       	  call 0x5e30;
    5d4b:	fe 49 01          	  rspr a9 SP;
    5d4e:	bf 9f             	  ldd.w a15 a9;
    5d50:	d9 2c 06 00 00    	  mvi a9 0x62c;
    5d55:	bf 99             	  ldd.w a9 a9;
    5d57:	a6 f9             	  cmp.w a15 a9;
    5d59:	f4 0b 07          	  breq 0x5d60;
    5d5c:	7e e9 42 00       	  call 0x42e9;
    5d60:	f4 30 04          	  addsp 0x4;
    5d63:	f8 00             	  ret;

00005d65 <_lsfSetupMthdctxPrivMask_LR10>:
    5d65:	df 2c 06 00 00    	  mvi a15 0x62c;
    5d6a:	bf ff             	  ldd.w a15 a15;
    5d6c:	f4 30 fc          	  addsp -0x4;
    5d6f:	fe 49 01          	  rspr a9 SP;
    5d72:	a0 9f             	  std.w a9 a15;
    5d74:	89 00 90 00       	  mvi a9 0x9000;
    5d78:	cf 99 00          	  ldx a9 a9 0x0;
    5d7b:	f0 94 01          	  and a9 0x1;
    5d7e:	f4 0b 15          	  breq 0x5d93;
    5d81:	89 00 a5 00       	  mvi a9 0xa500;
    5d85:	cf 9f 00          	  ldx a15 a9 0x0;
    5d88:	0e ef             	  mvi a14 -0x11;
    5d8a:	f0 f5 07          	  or a15 0x7;
    5d8d:	fd fe 04          	  and a15 a14;
    5d90:	f6 9f 00          	  stx a9 0x0 a15;
    5d93:	fe 49 01          	  rspr a9 SP;
    5d96:	bf 9f             	  ldd.w a15 a9;
    5d98:	d9 2c 06 00 00    	  mvi a9 0x62c;
    5d9d:	bf 99             	  ldd.w a9 a9;
    5d9f:	a6 f9             	  cmp.w a15 a9;
    5da1:	f4 0b 07          	  breq 0x5da8;
    5da4:	7e e9 42 00       	  call 0x42e9;
    5da8:	f4 30 04          	  addsp 0x4;
    5dab:	f8 00             	  ret;

00005dad <_lsfVerifyFalconSelwreRunMode_LR10>:
    5dad:	df 2c 06 00 00    	  mvi a15 0x62c;
    5db2:	bf ff             	  ldd.w a15 a15;
    5db4:	f4 30 fc          	  addsp -0x4;
    5db7:	fe 49 01          	  rspr a9 SP;
    5dba:	a0 9f             	  std.w a9 a15;
    5dbc:	89 00 90 00       	  mvi a9 0x9000;
    5dc0:	cf 9f 00          	  ldx a15 a9 0x0;
    5dc3:	c4 f9 01          	  and a9 a15 0x1;
    5dc6:	f4 1b 09          	  brne 0x5dcf;
    5dc9:	3d a4             	  clr.b a10;
    5dcb:	3e da 5d 00       	  jmp 0x5dda;
    5dcf:	c7 f9 24          	  uxtr a9 a15 0x24;
    5dd2:	b0 96 02          	  cmp.w a9 0x2;
    5dd5:	f0 9c 0b          	  sgetb a9 0xb;
    5dd8:	32 9a             	  mv.b a10 a9;
    5dda:	fe 49 01          	  rspr a9 SP;
    5ddd:	bf 9f             	  ldd.w a15 a9;
    5ddf:	d9 2c 06 00 00    	  mvi a9 0x62c;
    5de4:	bf 99             	  ldd.w a9 a9;
    5de6:	a6 f9             	  cmp.w a15 a9;
    5de8:	f4 0b 07          	  breq 0x5def;
    5deb:	7e e9 42 00       	  call 0x42e9;
    5def:	f4 30 04          	  addsp 0x4;
    5df2:	f8 00             	  ret;

00005df4 <_lsfInitApertureSettings_LR10>:
    5df4:	df 2c 06 00 00    	  mvi a15 0x62c;
    5df9:	bf ff             	  ldd.w a15 a15;
    5dfb:	f4 30 fc          	  addsp -0x4;
    5dfe:	fe 49 01          	  rspr a9 SP;
    5e01:	a0 9f             	  std.w a9 a15;
    5e03:	0f 05             	  mvi a15 0x5;
    5e05:	89 00 80 01       	  mvi a9 0x18000;
    5e09:	f6 9f 00          	  stx a9 0x0 a15;
    5e0c:	0f 06             	  mvi a15 0x6;
    5e0e:	b8 99 00 01 00    	  add.w a9 a9 0x100;
    5e13:	f6 9f 00          	  stx a9 0x0 a15;
    5e16:	fe 49 01          	  rspr a9 SP;
    5e19:	bf 9f             	  ldd.w a15 a9;
    5e1b:	d9 2c 06 00 00    	  mvi a9 0x62c;
    5e20:	bf 99             	  ldd.w a9 a9;
    5e22:	a6 f9             	  cmp.w a15 a9;
    5e24:	f4 0b 07          	  breq 0x5e2b;
    5e27:	7e e9 42 00       	  call 0x42e9;
    5e2b:	f4 30 04          	  addsp 0x4;
    5e2e:	f8 00             	  ret;

00005e30 <_lsfVerifyPrivSecEnabled_LR10>:
    5e30:	df 2c 06 00 00    	  mvi a15 0x62c;
    5e35:	bf ff             	  ldd.w a15 a15;
    5e37:	f4 30 fc          	  addsp -0x4;
    5e3a:	fe 49 01          	  rspr a9 SP;
    5e3d:	a0 9f             	  std.w a9 a15;
    5e3f:	89 00 02 01       	  mvi a9 0x10200;
    5e43:	cf 99 00          	  ldx a9 a9 0x0;
    5e46:	8f 00 00 10       	  mvi a15 0x100000;
    5e4a:	fd 9f 04          	  and a9 a15;
    5e4d:	f4 1b 1a          	  brne 0x5e67;
    5e50:	da 34 04 82 00    	  mvi a10 0x820434;
    5e55:	7e 22 1c 00       	  call 0x1c22;
    5e59:	f0 a4 01          	  and a10 0x1;
    5e5c:	f4 1b 0b          	  brne 0x5e67;
    5e5f:	f8 02             	  halt;
    5e61:	0a 24             	  mvi a10 0x24;
    5e63:	3e 69 5e 00       	  jmp 0x5e69;
    5e67:	3d a4             	  clr.b a10;
    5e69:	fe 49 01          	  rspr a9 SP;
    5e6c:	bf 9f             	  ldd.w a15 a9;
    5e6e:	d9 2c 06 00 00    	  mvi a9 0x62c;
    5e73:	bf 99             	  ldd.w a9 a9;
    5e75:	a6 f9             	  cmp.w a15 a9;
    5e77:	f4 0b 07          	  breq 0x5e7e;
    5e7a:	7e e9 42 00       	  call 0x42e9;
    5e7e:	f4 30 04          	  addsp 0x4;
    5e81:	f8 00             	  ret;

00005e83 <_constructSoe>:
    5e83:	f4 30 fc          	  addsp -0x4;
    5e86:	f9 12             	  pushm a1;
    5e88:	d1 2c 06 00 00    	  mvi a1 0x62c;
    5e8d:	bf 19             	  ldd.w a9 a1;
    5e8f:	fe 40 01          	  rspr a0 SP;
    5e92:	90 00 08          	  add.w a0 a0 0x8;
    5e95:	da 38 14 00 00    	  mvi a10 0x1438;
    5e9a:	a0 09             	  std.w a0 a9;
    5e9c:	d9 34 14 00 00    	  mvi a9 0x1434;
    5ea1:	bf 99             	  ldd.w a9 a9;
    5ea3:	98 99 0e          	  ldd.w a9 a9 0x38;
    5ea6:	f9 95             	  call a9;
    5ea8:	bf 0f             	  ldd.w a15 a0;
    5eaa:	bf 19             	  ldd.w a9 a1;
    5eac:	a6 f9             	  cmp.w a15 a9;
    5eae:	f4 0b 07          	  breq 0x5eb5;
    5eb1:	7e e9 42 00       	  call 0x42e9;
    5eb5:	fb 15 04          	  popma a1 0x1 0x4;

00005eb8 <_soeStartOsTicksTimer>:
    5eb8:	d9 2c 06 00 00    	  mvi a9 0x62c;
    5ebd:	bf 99             	  ldd.w a9 a9;
    5ebf:	f4 30 fc          	  addsp -0x4;
    5ec2:	fe 4f 01          	  rspr a15 SP;
    5ec5:	0a 1e             	  mvi a10 0x1e;
    5ec7:	a0 f9             	  std.w a15 a9;
    5ec9:	7e 96 dc 00       	  call 0xdc96;
    5ecd:	33 a0 00 06       	  cmpbreq.b a10 0x0 0x5ed3;
    5ed1:	f8 02             	  halt;
    5ed3:	fe 49 01          	  rspr a9 SP;
    5ed6:	bf 9f             	  ldd.w a15 a9;
    5ed8:	d9 2c 06 00 00    	  mvi a9 0x62c;
    5edd:	bf 99             	  ldd.w a9 a9;
    5edf:	a6 f9             	  cmp.w a15 a9;
    5ee1:	f4 0b 07          	  breq 0x5ee8;
    5ee4:	7e e9 42 00       	  call 0x42e9;
    5ee8:	f4 30 04          	  addsp 0x4;
    5eeb:	f8 00             	  ret;

00005eed <_soeEnableEmemAperture_LR10>:
    5eed:	df 2c 06 00 00    	  mvi a15 0x62c;
    5ef2:	bf ff             	  ldd.w a15 a15;
    5ef4:	f4 30 fc          	  addsp -0x4;
    5ef7:	fe 49 01          	  rspr a9 SP;
    5efa:	a0 9f             	  std.w a9 a15;
    5efc:	8f 00 00 01       	  mvi a15 0x10000;
    5f00:	49 00 59          	  mvi a9 0x5900;
    5f03:	f6 9f 00          	  stx a9 0x0 a15;
    5f06:	fe 49 01          	  rspr a9 SP;
    5f09:	bf 9f             	  ldd.w a15 a9;
    5f0b:	d9 2c 06 00 00    	  mvi a9 0x62c;
    5f10:	bf 99             	  ldd.w a9 a9;
    5f12:	a6 f9             	  cmp.w a15 a9;
    5f14:	f4 0b 07          	  breq 0x5f1b;
    5f17:	7e e9 42 00       	  call 0x42e9;
    5f1b:	f4 30 04          	  addsp 0x4;
    5f1e:	f8 00             	  ret;

00005f20 <_soeRaisePrivLevelMasks_LR10>:
    5f20:	df 2c 06 00 00    	  mvi a15 0x62c;
    5f25:	bf ff             	  ldd.w a15 a15;
    5f27:	f4 30 fc          	  addsp -0x4;
    5f2a:	fe 49 01          	  rspr a9 SP;
    5f2d:	a0 9f             	  std.w a9 a15;
    5f2f:	89 00 90 00       	  mvi a9 0x9000;
    5f33:	ce 99 00          	  ldxb a9 a9 0x0;
    5f36:	f0 94 01          	  and a9 0x1;
    5f39:	f4 0b 20          	  breq 0x5f59;
    5f3c:	8e 00 f1 00       	  mvi a14 0xf100;
    5f40:	ce e9 00          	  ldxb a9 a14 0x0;
    5f43:	0f ef             	  mvi a15 -0x11;
    5f45:	fd 9f 04          	  and a9 a15;
    5f48:	f7 e9 00          	  stxb a14 0x0 a9;
    5f4b:	b8 ee 00 52 02    	  sub.w a14 a14 0x5200;
    5f50:	ce e9 00          	  ldxb a9 a14 0x0;
    5f53:	fd 9f 04          	  and a9 a15;
    5f56:	f7 e9 00          	  stxb a14 0x0 a9;
    5f59:	fe 49 01          	  rspr a9 SP;
    5f5c:	bf 9f             	  ldd.w a15 a9;
    5f5e:	d9 2c 06 00 00    	  mvi a9 0x62c;
    5f63:	bf 99             	  ldd.w a9 a9;
    5f65:	a6 f9             	  cmp.w a15 a9;
    5f67:	f4 0b 07          	  breq 0x5f6e;
    5f6a:	7e e9 42 00       	  call 0x42e9;
    5f6e:	f4 30 04          	  addsp 0x4;
    5f71:	f8 00             	  ret;

00005f73 <_soeVerifyChip_LR10>:
    5f73:	df 2c 06 00 00    	  mvi a15 0x62c;
    5f78:	bf ff             	  ldd.w a15 a15;
    5f7a:	f4 30 fc          	  addsp -0x4;
    5f7d:	fe 49 01          	  rspr a9 SP;
    5f80:	4a 00 0a          	  mvi a10 0xa00;
    5f83:	a0 9f             	  std.w a9 a15;
    5f85:	7e 22 1c 00       	  call 0x1c22;
    5f89:	e7 aa 14 01       	  uxtr a10 a10 0x114;
    5f8d:	92 aa 06          	  sub.w a10 a10 0x6;
    5f90:	b0 a6 01          	  cmp.w a10 0x1;
    5f93:	f4 0c 1f          	  brgt 0x5fb2;
    5f96:	4f 00 4f          	  mvi a15 0x4f00;
    5f99:	cf f9 00          	  ldx a9 a15 0x0;
    5f9c:	c7 99 e8          	  uxtr a9 a9 0xe8;
    5f9f:	b3 94 0f 13       	  cmpbrne.w a9 0xf 0x5fb2;
    5fa3:	cf f9 00          	  ldx a9 a15 0x0;
    5fa6:	f0 94 ff          	  and a9 0xff;
    5fa9:	f0 9c 0b          	  sgetb a9 0xb;
    5fac:	32 9a             	  mv.b a10 a9;
    5fae:	3e b4 5f 00       	  jmp 0x5fb4;
    5fb2:	3d a4             	  clr.b a10;
    5fb4:	fe 49 01          	  rspr a9 SP;
    5fb7:	bf 9f             	  ldd.w a15 a9;
    5fb9:	d9 2c 06 00 00    	  mvi a9 0x62c;
    5fbe:	bf 99             	  ldd.w a9 a9;
    5fc0:	a6 f9             	  cmp.w a15 a9;
    5fc2:	f4 0b 07          	  breq 0x5fc9;
    5fc5:	7e e9 42 00       	  call 0x42e9;
    5fc9:	f4 30 04          	  addsp 0x4;
    5fcc:	f8 00             	  ret;

00005fce <_soeSetupProdValues_LR10>:
    5fce:	f4 30 fc          	  addsp -0x4;
    5fd1:	df 2c 06 00 00    	  mvi a15 0x62c;
    5fd6:	f9 02             	  pushm a0;
    5fd8:	bf ff             	  ldd.w a15 a15;
    5fda:	fe 49 01          	  rspr a9 SP;
    5fdd:	90 99 04          	  add.w a9 a9 0x4;
    5fe0:	a0 9f             	  std.w a9 a15;
    5fe2:	89 00 90 00       	  mvi a9 0x9000;
    5fe6:	ce 99 00          	  ldxb a9 a9 0x0;
    5fe9:	f0 94 01          	  and a9 0x1;
    5fec:	f5 0b d7 00       	  breq 0x60c3;
    5ff0:	7e 81 62 00       	  call 0x6281;
    5ff4:	bd b4             	  clr.w a11;
    5ff6:	bd c4             	  clr.w a12;
    5ff8:	bd d4             	  clr.w a13;
    5ffa:	0a 09             	  mvi a10 0x9;
    5ffc:	7e 6b 24 00       	  call 0x246b;
    6000:	90 aa c8          	  add.w a10 a10 0xc8;
    6003:	7e 22 1c 00       	  call 0x1c22;
    6007:	0c 01             	  mvi a12 0x1;
    6009:	b2 a0             	  mv.w a0 a10;
    600b:	bd d4             	  clr.w a13;
    600d:	bd b4             	  clr.w a11;
    600f:	0a 0a             	  mvi a10 0xa;
    6011:	7e 6b 24 00       	  call 0x246b;
    6015:	0b f0             	  mvi a11 -0x10;
    6017:	90 aa c8          	  add.w a10 a10 0xc8;
    601a:	ff 0b b4          	  and a11 a0 a11;
    601d:	7e b1 1c 00       	  call 0x1cb1;
    6021:	bd c4             	  clr.w a12;
    6023:	bd d4             	  clr.w a13;
    6025:	bd b4             	  clr.w a11;
    6027:	bd a4             	  clr.w a10;
    6029:	7e 6b 24 00       	  call 0x246b;
    602d:	bd b4             	  clr.w a11;
    602f:	b2 a0             	  mv.w a0 a10;
    6031:	b8 aa 28 05 00    	  add.w a10 a10 0x528;
    6036:	7e b1 1c 00       	  call 0x1cb1;
    603a:	b8 0a 30 05 00    	  add.w a10 a0 0x530;
    603f:	bd b4             	  clr.w a11;
    6041:	7e b1 1c 00       	  call 0x1cb1;
    6045:	b8 0a 34 05 00    	  add.w a10 a0 0x534;
    604a:	bd b4             	  clr.w a11;
    604c:	7e b1 1c 00       	  call 0x1cb1;
    6050:	b8 0a 0c 01 00    	  add.w a10 a0 0x10c;
    6055:	0b 04             	  mvi a11 0x4;
    6057:	7e b1 1c 00       	  call 0x1cb1;
    605b:	b8 0a 00 01 00    	  add.w a10 a0 0x100;
    6060:	0b 4a             	  mvi a11 0x4a;
    6062:	7e b1 1c 00       	  call 0x1cb1;
    6066:	b8 0a 04 01 00    	  add.w a10 a0 0x104;
    606b:	0b 4a             	  mvi a11 0x4a;
    606d:	7e b1 1c 00       	  call 0x1cb1;
    6071:	b8 0a 08 01 00    	  add.w a10 a0 0x108;
    6076:	0b 42             	  mvi a11 0x42;
    6078:	7e b1 1c 00       	  call 0x1cb1;
    607c:	90 00 64          	  add.w a0 a0 0x64;
    607f:	b2 0a             	  mv.w a10 a0;
    6081:	7e 22 1c 00       	  call 0x1c22;
    6085:	09 fe             	  mvi a9 -0x2;
    6087:	ff a9 b4          	  and a11 a10 a9;
    608a:	b2 0a             	  mv.w a10 a0;
    608c:	7e b1 1c 00       	  call 0x1cb1;
    6090:	8a f0 e2 00       	  mvi a10 0xe2f0;
    6094:	7e 22 1c 00       	  call 0x1c22;
    6098:	c5 ab 40          	  or a11 a10 0x40;
    609b:	8a f0 e2 00       	  mvi a10 0xe2f0;
    609f:	7e b1 1c 00       	  call 0x1cb1;
    60a3:	8a f4 e2 00       	  mvi a10 0xe2f4;
    60a7:	7e 22 1c 00       	  call 0x1c22;
    60ab:	c5 ab 40          	  or a11 a10 0x40;
    60ae:	8a f4 e2 00       	  mvi a10 0xe2f4;
    60b2:	7e b1 1c 00       	  call 0x1cb1;
    60b6:	7e f4 64 00       	  call 0x64f4;
    60ba:	bd f4             	  clr.w a15;
    60bc:	89 00 8a 03       	  mvi a9 0x38a00;
    60c0:	f6 9f 00          	  stx a9 0x0 a15;
    60c3:	fe 49 01          	  rspr a9 SP;
    60c6:	90 99 04          	  add.w a9 a9 0x4;
    60c9:	bf 9f             	  ldd.w a15 a9;
    60cb:	d9 2c 06 00 00    	  mvi a9 0x62c;
    60d0:	bf 99             	  ldd.w a9 a9;
    60d2:	a6 f9             	  cmp.w a15 a9;
    60d4:	f4 0b 07          	  breq 0x60db;
    60d7:	7e e9 42 00       	  call 0x42e9;
    60db:	fb 05 04          	  popma a0 0x1 0x4;

000060de <_soeSetupPrivLevelMasks_LR10>:
    60de:	f4 30 fc          	  addsp -0x4;
    60e1:	df 2c 06 00 00    	  mvi a15 0x62c;
    60e6:	f9 12             	  pushm a1;
    60e8:	bf ff             	  ldd.w a15 a15;
    60ea:	fe 49 01          	  rspr a9 SP;
    60ed:	90 99 08          	  add.w a9 a9 0x8;
    60f0:	a0 9f             	  std.w a9 a15;
    60f2:	89 00 90 00       	  mvi a9 0x9000;
    60f6:	ce 99 00          	  ldxb a9 a9 0x0;
    60f9:	f0 94 01          	  and a9 0x1;
    60fc:	f5 0b 9e 00       	  breq 0x619a;
    6100:	bd b4             	  clr.w a11;
    6102:	bd c4             	  clr.w a12;
    6104:	bd d4             	  clr.w a13;
    6106:	0a 0b             	  mvi a10 0xb;
    6108:	7e 6b 24 00       	  call 0x246b;
    610c:	0c 01             	  mvi a12 0x1;
    610e:	bd d4             	  clr.w a13;
    6110:	b2 a1             	  mv.w a1 a10;
    6112:	bd b4             	  clr.w a11;
    6114:	0a 0c             	  mvi a10 0xc;
    6116:	7e 6b 24 00       	  call 0x246b;
    611a:	b2 a0             	  mv.w a0 a10;
    611c:	90 1a 1c          	  add.w a10 a1 0x1c;
    611f:	7e 22 1c 00       	  call 0x1c22;
    6123:	c5 ab 10          	  or a11 a10 0x10;
    6126:	90 0a 1c          	  add.w a10 a0 0x1c;
    6129:	7e b1 1c 00       	  call 0x1cb1;
    612d:	b8 1a 1c 50 00    	  add.w a10 a1 0x501c;
    6132:	7e 22 1c 00       	  call 0x1c22;
    6136:	c5 ab 10          	  or a11 a10 0x10;
    6139:	b8 0a 1c 50 00    	  add.w a10 a0 0x501c;
    613e:	7e b1 1c 00       	  call 0x1cb1;
    6142:	b8 1a 1c 10 00    	  add.w a10 a1 0x101c;
    6147:	7e 22 1c 00       	  call 0x1c22;
    614b:	c5 ab 10          	  or a11 a10 0x10;
    614e:	b8 0a 1c 10 00    	  add.w a10 a0 0x101c;
    6153:	7e b1 1c 00       	  call 0x1cb1;
    6157:	b8 1a 1c 40 00    	  add.w a10 a1 0x401c;
    615c:	7e 22 1c 00       	  call 0x1c22;
    6160:	c5 ab 10          	  or a11 a10 0x10;
    6163:	b8 0a 1c 40 00    	  add.w a10 a0 0x401c;
    6168:	7e b1 1c 00       	  call 0x1cb1;
    616c:	b8 1a 1c 30 00    	  add.w a10 a1 0x301c;
    6171:	7e 22 1c 00       	  call 0x1c22;
    6175:	c5 ab 10          	  or a11 a10 0x10;
    6178:	b8 0a 1c 30 00    	  add.w a10 a0 0x301c;
    617d:	7e b1 1c 00       	  call 0x1cb1;
    6181:	b8 1a 1c 60 00    	  add.w a10 a1 0x601c;
    6186:	7e 22 1c 00       	  call 0x1c22;
    618a:	c5 ab 10          	  or a11 a10 0x10;
    618d:	b8 0a 1c 60 00    	  add.w a10 a0 0x601c;
    6192:	7e b1 1c 00       	  call 0x1cb1;
    6196:	7e e3 62 00       	  call 0x62e3;
    619a:	fe 49 01          	  rspr a9 SP;
    619d:	90 99 08          	  add.w a9 a9 0x8;
    61a0:	bf 9f             	  ldd.w a15 a9;
    61a2:	d9 2c 06 00 00    	  mvi a9 0x62c;
    61a7:	bf 99             	  ldd.w a9 a9;
    61a9:	a6 f9             	  cmp.w a15 a9;
    61ab:	f4 0b 07          	  breq 0x61b2;
    61ae:	7e e9 42 00       	  call 0x42e9;
    61b2:	fb 15 04          	  popma a1 0x1 0x4;

000061b5 <_soePreInit_LR10>:
    61b5:	df 2c 06 00 00    	  mvi a15 0x62c;
    61ba:	bf ff             	  ldd.w a15 a15;
    61bc:	f4 30 fc          	  addsp -0x4;
    61bf:	8e 00 95 00       	  mvi a14 0x9500;
    61c3:	fe 49 01          	  rspr a9 SP;
    61c6:	a0 9f             	  std.w a9 a15;
    61c8:	cf e9 00          	  ldx a9 a14 0x0;
    61cb:	4f ff cf          	  mvi a15 -0x3001;
    61ce:	fd 9f 04          	  and a9 a15;
    61d1:	f1 95 00 20       	  or a9 0x2000;
    61d5:	f6 e9 00          	  stx a14 0x0 a9;
    61d8:	8f 00 a1 01       	  mvi a15 0x1a100;
    61dc:	cf f9 00          	  ldx a9 a15 0x0;
    61df:	f0 95 01          	  or a9 0x1;
    61e2:	f6 f9 00          	  stx a15 0x0 a9;
    61e5:	4e 00 24          	  mvi a14 0x2400;
    61e8:	cf e9 00          	  ldx a9 a14 0x0;
    61eb:	8f 00 00 06       	  mvi a15 0x60000;
    61ef:	fd 9f 05          	  or a9 a15;
    61f2:	f6 e9 00          	  stx a14 0x0 a9;
    61f5:	7e 20 5f 00       	  call 0x5f20;
    61f9:	8f 00 95 00       	  mvi a15 0x9500;
    61fd:	cf f9 00          	  ldx a9 a15 0x0;
    6200:	f0 95 20          	  or a9 0x20;
    6203:	f6 f9 00          	  stx a15 0x0 a9;
    6206:	df ff ff ff 00    	  mvi a15 0xffffff;
    620b:	89 00 c3 01       	  mvi a9 0x1c300;
    620f:	f6 9f 00          	  stx a9 0x0 a15;
    6212:	7e 3e 27 00       	  call 0x273e;
    6216:	4a 00 0a          	  mvi a10 0xa00;
    6219:	7e 22 1c 00       	  call 0x1c22;
    621d:	c7 a9 6c          	  uxtr a9 a10 0x6c;
    6220:	de 38 14 00 00    	  mvi a14 0x1438;
    6225:	35 e9 07          	  std.b a14 0x7 a9;
    6228:	09 03             	  mvi a9 0x3;
    622a:	35 e9 0d          	  std.b a14 0xd a9;
    622d:	35 e9 0c          	  std.b a14 0xc a9;
    6230:	c7 a9 98          	  uxtr a9 a10 0x98;
    6233:	35 e9 04          	  std.b a14 0x4 a9;
    6236:	c7 a9 74          	  uxtr a9 a10 0x74;
    6239:	35 e9 05          	  std.b a14 0x5 a9;
    623c:	bd 94             	  clr.w a9;
    623e:	c7 aa 70          	  uxtr a10 a10 0x70;
    6241:	b5 e9 02          	  std.w a14 0x8 a9;
    6244:	35 ea 06          	  std.b a14 0x6 a10;
    6247:	89 00 02 01       	  mvi a9 0x10200;
    624b:	cf 99 00          	  ldx a9 a9 0x0;
    624e:	8f 00 00 10       	  mvi a15 0x100000;
    6252:	fd 9f 04          	  and a9 a15;
    6255:	f4 0b 08          	  breq 0x625d;
    6258:	09 01             	  mvi a9 0x1;
    625a:	35 e9 0e          	  std.b a14 0xe a9;
    625d:	7e de 60 00       	  call 0x60de;
    6261:	7e ce 5f 00       	  call 0x5fce;
    6265:	fe 49 01          	  rspr a9 SP;
    6268:	bf 9f             	  ldd.w a15 a9;
    626a:	d9 2c 06 00 00    	  mvi a9 0x62c;
    626f:	bf 99             	  ldd.w a9 a9;
    6271:	3d a4             	  clr.b a10;
    6273:	a6 f9             	  cmp.w a15 a9;
    6275:	f4 0b 07          	  breq 0x627c;
    6278:	7e e9 42 00       	  call 0x42e9;
    627c:	f4 30 04          	  addsp 0x4;
    627f:	f8 00             	  ret;

00006281 <_soeSetupNxbarProdValues_LR10>:
    6281:	df 2c 06 00 00    	  mvi a15 0x62c;
    6286:	bf ff             	  ldd.w a15 a15;
    6288:	f4 30 fc          	  addsp -0x4;
    628b:	fe 49 01          	  rspr a9 SP;
    628e:	a0 9f             	  std.w a9 a15;
    6290:	89 00 90 00       	  mvi a9 0x9000;
    6294:	ce 99 00          	  ldxb a9 a9 0x0;
    6297:	f0 94 01          	  and a9 0x1;
    629a:	f4 0b 2f          	  breq 0x62c9;
    629d:	0c 01             	  mvi a12 0x1;
    629f:	bd d4             	  clr.w a13;
    62a1:	bd b4             	  clr.w a11;
    62a3:	0a 10             	  mvi a10 0x10;
    62a5:	7e 6b 24 00       	  call 0x246b;
    62a9:	8b 00 00 01       	  mvi a11 0x10000;
    62ad:	90 aa 40          	  add.w a10 a10 0x40;
    62b0:	7e b1 1c 00       	  call 0x1cb1;
    62b4:	bd b4             	  clr.w a11;
    62b6:	0a 0e             	  mvi a10 0xe;
    62b8:	0c 01             	  mvi a12 0x1;
    62ba:	bd d4             	  clr.w a13;
    62bc:	7e 6b 24 00       	  call 0x246b;
    62c0:	0b 01             	  mvi a11 0x1;
    62c2:	90 aa 94          	  add.w a10 a10 0x94;
    62c5:	7e b1 1c 00       	  call 0x1cb1;
    62c9:	fe 49 01          	  rspr a9 SP;
    62cc:	bf 9f             	  ldd.w a15 a9;
    62ce:	d9 2c 06 00 00    	  mvi a9 0x62c;
    62d3:	bf 99             	  ldd.w a9 a9;
    62d5:	a6 f9             	  cmp.w a15 a9;
    62d7:	f4 0b 07          	  breq 0x62de;
    62da:	7e e9 42 00       	  call 0x42e9;
    62de:	f4 30 04          	  addsp 0x4;
    62e1:	f8 00             	  ret;

000062e3 <_soeSetupNxbarPrivLevelMasks_LR10>:
    62e3:	f4 30 fc          	  addsp -0x4;
    62e6:	df 2c 06 00 00    	  mvi a15 0x62c;
    62eb:	f9 12             	  pushm a1;
    62ed:	bf ff             	  ldd.w a15 a15;
    62ef:	fe 49 01          	  rspr a9 SP;
    62f2:	90 99 08          	  add.w a9 a9 0x8;
    62f5:	a0 9f             	  std.w a9 a15;
    62f7:	89 00 90 00       	  mvi a9 0x9000;
    62fb:	ce 99 00          	  ldxb a9 a9 0x0;
    62fe:	f0 94 01          	  and a9 0x1;
    6301:	f4 0b 5d          	  breq 0x635e;
    6304:	bd b4             	  clr.w a11;
    6306:	bd c4             	  clr.w a12;
    6308:	bd d4             	  clr.w a13;
    630a:	0a 0d             	  mvi a10 0xd;
    630c:	7e 6b 24 00       	  call 0x246b;
    6310:	0c 01             	  mvi a12 0x1;
    6312:	bd d4             	  clr.w a13;
    6314:	b2 a1             	  mv.w a1 a10;
    6316:	bd b4             	  clr.w a11;
    6318:	0a 0e             	  mvi a10 0xe;
    631a:	7e 6b 24 00       	  call 0x246b;
    631e:	b2 a0             	  mv.w a0 a10;
    6320:	90 1a 0c          	  add.w a10 a1 0xc;
    6323:	7e 22 1c 00       	  call 0x1c22;
    6327:	c5 ab 10          	  or a11 a10 0x10;
    632a:	90 0a 0c          	  add.w a10 a0 0xc;
    632d:	7e b1 1c 00       	  call 0x1cb1;
    6331:	bd b4             	  clr.w a11;
    6333:	bd c4             	  clr.w a12;
    6335:	bd d4             	  clr.w a13;
    6337:	0a 0f             	  mvi a10 0xf;
    6339:	7e 6b 24 00       	  call 0x246b;
    633d:	bd b4             	  clr.w a11;
    633f:	b2 a1             	  mv.w a1 a10;
    6341:	0c 01             	  mvi a12 0x1;
    6343:	bd d4             	  clr.w a13;
    6345:	0a 10             	  mvi a10 0x10;
    6347:	7e 6b 24 00       	  call 0x246b;
    634b:	b2 a0             	  mv.w a0 a10;
    634d:	90 1a 0c          	  add.w a10 a1 0xc;
    6350:	7e 22 1c 00       	  call 0x1c22;
    6354:	c5 ab 10          	  or a11 a10 0x10;
    6357:	90 0a 0c          	  add.w a10 a0 0xc;
    635a:	7e b1 1c 00       	  call 0x1cb1;
    635e:	fe 49 01          	  rspr a9 SP;
    6361:	90 99 08          	  add.w a9 a9 0x8;
    6364:	bf 9f             	  ldd.w a15 a9;
    6366:	d9 2c 06 00 00    	  mvi a9 0x62c;
    636b:	bf 99             	  ldd.w a9 a9;
    636d:	a6 f9             	  cmp.w a15 a9;
    636f:	f4 0b 07          	  breq 0x6376;
    6372:	7e e9 42 00       	  call 0x42e9;
    6376:	fb 15 04          	  popma a1 0x1 0x4;

00006379 <_constructTimer>:
    6379:	f4 30 fc          	  addsp -0x4;
    637c:	f9 12             	  pushm a1;
    637e:	d1 2c 06 00 00    	  mvi a1 0x62c;
    6383:	bf 19             	  ldd.w a9 a1;
    6385:	fe 40 01          	  rspr a0 SP;
    6388:	90 00 08          	  add.w a0 a0 0x8;
    638b:	da 4c 2a 00 00    	  mvi a10 0x2a4c;
    6390:	a0 09             	  std.w a0 a9;
    6392:	d9 34 14 00 00    	  mvi a9 0x1434;
    6397:	bf 99             	  ldd.w a9 a9;
    6399:	98 99 11          	  ldd.w a9 a9 0x44;
    639c:	f9 95             	  call a9;
    639e:	bf 0f             	  ldd.w a15 a0;
    63a0:	bf 19             	  ldd.w a9 a1;
    63a2:	a6 f9             	  cmp.w a15 a9;
    63a4:	f4 0b 07          	  breq 0x63ab;
    63a7:	7e e9 42 00       	  call 0x42e9;
    63ab:	fb 15 04          	  popma a1 0x1 0x4;

000063ae <_timerPreInit>:
    63ae:	f4 30 fc          	  addsp -0x4;
    63b1:	f9 12             	  pushm a1;
    63b3:	d1 2c 06 00 00    	  mvi a1 0x62c;
    63b8:	bf 19             	  ldd.w a9 a1;
    63ba:	fe 40 01          	  rspr a0 SP;
    63bd:	bd a4             	  clr.w a10;
    63bf:	90 00 08          	  add.w a0 a0 0x8;
    63c2:	bd b4             	  clr.w a11;
    63c4:	a0 09             	  std.w a0 a9;
    63c6:	bd c4             	  clr.w a12;
    63c8:	3d d4             	  clr.b a13;
    63ca:	7e 61 43 00       	  call 0x4361;
    63ce:	bf 0f             	  ldd.w a15 a0;
    63d0:	bf 19             	  ldd.w a9 a1;
    63d2:	a6 f9             	  cmp.w a15 a9;
    63d4:	f4 0b 07          	  breq 0x63db;
    63d7:	7e e9 42 00       	  call 0x42e9;
    63db:	fb 15 04          	  popma a1 0x1 0x4;

000063de <_rttimerPreInit>:
    63de:	df 2c 06 00 00    	  mvi a15 0x62c;
    63e3:	bf ff             	  ldd.w a15 a15;
    63e5:	f4 30 fc          	  addsp -0x4;
    63e8:	fe 49 01          	  rspr a9 SP;
    63eb:	da 54 2a 00 00    	  mvi a10 0x2a54;
    63f0:	a0 9f             	  std.w a9 a15;
    63f2:	3d b4             	  clr.b a11;
    63f4:	7e 4d 73 00       	  call 0x734d;
    63f8:	d9 54 2a 00 00    	  mvi a9 0x2a54;
    63fd:	bf 99             	  ldd.w a9 a9;
    63ff:	b3 94 00 06       	  cmpbrne.w a9 0x0 0x6405;
    6403:	f8 02             	  halt;
    6405:	fe 49 01          	  rspr a9 SP;
    6408:	bf 9f             	  ldd.w a15 a9;
    640a:	d9 2c 06 00 00    	  mvi a9 0x62c;
    640f:	bf 99             	  ldd.w a9 a9;
    6411:	a6 f9             	  cmp.w a15 a9;
    6413:	f4 0b 07          	  breq 0x641a;
    6416:	7e e9 42 00       	  call 0x42e9;
    641a:	f4 30 04          	  addsp 0x4;
    641d:	f8 00             	  ret;

0000641f <_constructTherm>:
    641f:	f4 30 fc          	  addsp -0x4;
    6422:	f9 12             	  pushm a1;
    6424:	d1 2c 06 00 00    	  mvi a1 0x62c;
    6429:	bf 19             	  ldd.w a9 a1;
    642b:	fe 40 01          	  rspr a0 SP;
    642e:	90 00 08          	  add.w a0 a0 0x8;
    6431:	da e3 2f 00 00    	  mvi a10 0x2fe3;
    6436:	a0 09             	  std.w a0 a9;
    6438:	d9 34 14 00 00    	  mvi a9 0x1434;
    643d:	bf 9f             	  ldd.w a15 a9;
    643f:	3d 94             	  clr.b a9;
    6441:	20 a9             	  std.b a10 a9;
    6443:	98 f9 10          	  ldd.w a9 a15 0x40;
    6446:	f9 95             	  call a9;
    6448:	bf 0f             	  ldd.w a15 a0;
    644a:	bf 19             	  ldd.w a9 a1;
    644c:	3d a4             	  clr.b a10;
    644e:	a6 f9             	  cmp.w a15 a9;
    6450:	f4 0b 07          	  breq 0x6457;
    6453:	7e e9 42 00       	  call 0x42e9;
    6457:	fb 15 04          	  popma a1 0x1 0x4;

0000645a <_thermPreInit_LR10>:
    645a:	d9 0c 14 00 00    	  mvi a9 0x140c;
    645f:	f4 30 fc          	  addsp -0x4;
    6462:	f9 12             	  pushm a1;
    6464:	d1 2c 06 00 00    	  mvi a1 0x62c;
    6469:	bf 9a             	  ldd.w a10 a9;
    646b:	bf 19             	  ldd.w a9 a1;
    646d:	4b 03 03          	  mvi a11 0x303;
    6470:	fe 40 01          	  rspr a0 SP;
    6473:	b8 aa dc 02 00    	  add.w a10 a10 0x2dc;
    6478:	90 00 08          	  add.w a0 a0 0x8;
    647b:	a0 09             	  std.w a0 a9;
    647d:	7e b1 1c 00       	  call 0x1cb1;
    6481:	8a 44 6f 06       	  mvi a10 0x66f44;
    6485:	7e 22 1c 00       	  call 0x1c22;
    6489:	bf 0d             	  ldd.w a13 a0;
    648b:	bf 1e             	  ldd.w a14 a1;
    648d:	d9 50 06 00 00    	  mvi a9 0x650;
    6492:	f1 a4 ff 3f       	  and a10 0x3fff;
    6496:	8f 40 42 0f       	  mvi a15 0xf4240;
    649a:	a0 9a             	  std.w a9 a10;
    649c:	d9 54 06 00 00    	  mvi a9 0x654;
    64a1:	a0 9f             	  std.w a9 a15;
    64a3:	3d a4             	  clr.b a10;
    64a5:	a6 de             	  cmp.w a13 a14;
    64a7:	f4 0b 07          	  breq 0x64ae;
    64aa:	7e e9 42 00       	  call 0x42e9;
    64ae:	fb 15 04          	  popma a1 0x1 0x4;

000064b1 <_constructBif>:
    64b1:	f4 30 fc          	  addsp -0x4;
    64b4:	f9 12             	  pushm a1;
    64b6:	d1 2c 06 00 00    	  mvi a1 0x62c;
    64bb:	bf 19             	  ldd.w a9 a1;
    64bd:	bd b4             	  clr.w a11;
    64bf:	0c 38             	  mvi a12 0x38;
    64c1:	fe 40 01          	  rspr a0 SP;
    64c4:	da 5c 2a 00 00    	  mvi a10 0x2a5c;
    64c9:	90 00 08          	  add.w a0 a0 0x8;
    64cc:	a0 09             	  std.w a0 a9;
    64ce:	7e 94 0b 00       	  call 0xb94;
    64d2:	d9 34 14 00 00    	  mvi a9 0x1434;
    64d7:	bf 99             	  ldd.w a9 a9;
    64d9:	da 5c 2a 00 00    	  mvi a10 0x2a5c;
    64de:	bf 99             	  ldd.w a9 a9;
    64e0:	f9 95             	  call a9;
    64e2:	bf 0f             	  ldd.w a15 a0;
    64e4:	bf 19             	  ldd.w a9 a1;
    64e6:	3d a4             	  clr.b a10;
    64e8:	a6 f9             	  cmp.w a15 a9;
    64ea:	f4 0b 07          	  breq 0x64f1;
    64ed:	7e e9 42 00       	  call 0x42e9;
    64f1:	fb 15 04          	  popma a1 0x1 0x4;

000064f4 <_bifSetupProdValues_LR10>:
    64f4:	f4 30 fc          	  addsp -0x4;
    64f7:	f9 22             	  pushm a2;
    64f9:	d2 2c 06 00 00    	  mvi a2 0x62c;
    64fe:	bf 29             	  ldd.w a9 a2;
    6500:	bd c4             	  clr.w a12;
    6502:	bd d4             	  clr.w a13;
    6504:	bd b4             	  clr.w a11;
    6506:	fe 41 01          	  rspr a1 SP;
    6509:	0a 12             	  mvi a10 0x12;
    650b:	90 11 0c          	  add.w a1 a1 0xc;
    650e:	a0 19             	  std.w a1 a9;
    6510:	7e 6b 24 00       	  call 0x246b;
    6514:	b8 a0 84 04 00    	  add.w a0 a10 0x484;
    6519:	b2 0a             	  mv.w a10 a0;
    651b:	7e 22 1c 00       	  call 0x1c22;
    651f:	c5 ab 01          	  or a11 a10 0x1;
    6522:	b2 0a             	  mv.w a10 a0;
    6524:	7e b1 1c 00       	  call 0x1cb1;
    6528:	8a c0 b8 08       	  mvi a10 0x8b8c0;
    652c:	7e 22 1c 00       	  call 0x1c22;
    6530:	09 fb             	  mvi a9 -0x5;
    6532:	ff a9 b4          	  and a11 a10 a9;
    6535:	8a c0 b8 08       	  mvi a10 0x8b8c0;
    6539:	7e b1 1c 00       	  call 0x1cb1;
    653d:	8a 40 b9 08       	  mvi a10 0x8b940;
    6541:	7e 22 1c 00       	  call 0x1c22;
    6545:	09 e0             	  mvi a9 -0x20;
    6547:	ff a9 b4          	  and a11 a10 a9;
    654a:	8a 40 b9 08       	  mvi a10 0x8b940;
    654e:	f0 b5 02          	  or a11 0x2;
    6551:	7e b1 1c 00       	  call 0x1cb1;
    6555:	bf 1f             	  ldd.w a15 a1;
    6557:	bf 29             	  ldd.w a9 a2;
    6559:	a6 f9             	  cmp.w a15 a9;
    655b:	f4 0b 07          	  breq 0x6562;
    655e:	7e e9 42 00       	  call 0x42e9;
    6562:	fb 25 04          	  popma a2 0x1 0x4;

00006565 <_constructSaw>:
    6565:	f4 30 fc          	  addsp -0x4;
    6568:	f9 12             	  pushm a1;
    656a:	d1 2c 06 00 00    	  mvi a1 0x62c;
    656f:	bf 19             	  ldd.w a9 a1;
    6571:	bd b4             	  clr.w a11;
    6573:	bd c4             	  clr.w a12;
    6575:	bd d4             	  clr.w a13;
    6577:	fe 40 01          	  rspr a0 SP;
    657a:	bd a4             	  clr.w a10;
    657c:	90 00 08          	  add.w a0 a0 0x8;
    657f:	a0 09             	  std.w a0 a9;
    6581:	7e 6b 24 00       	  call 0x246b;
    6585:	d9 34 14 00 00    	  mvi a9 0x1434;
    658a:	bf 9f             	  ldd.w a15 a9;
    658c:	d9 0c 14 00 00    	  mvi a9 0x140c;
    6591:	a0 9a             	  std.w a9 a10;
    6593:	da e5 2f 00 00    	  mvi a10 0x2fe5;
    6598:	98 f9 0c          	  ldd.w a9 a15 0x30;
    659b:	f9 95             	  call a9;
    659d:	bf 0f             	  ldd.w a15 a0;
    659f:	bf 19             	  ldd.w a9 a1;
    65a1:	a6 f9             	  cmp.w a15 a9;
    65a3:	f4 0b 07          	  breq 0x65aa;
    65a6:	7e e9 42 00       	  call 0x42e9;
    65aa:	fb 15 04          	  popma a1 0x1 0x4;

000065ad <_sawPreInit_LR10>:
    65ad:	f4 30 fc          	  addsp -0x4;
    65b0:	f9 22             	  pushm a2;
    65b2:	d0 0c 14 00 00    	  mvi a0 0x140c;
    65b7:	d2 2c 06 00 00    	  mvi a2 0x62c;
    65bc:	bf 0a             	  ldd.w a10 a0;
    65be:	bf 29             	  ldd.w a9 a2;
    65c0:	0b ff             	  mvi a11 -0x1;
    65c2:	fe 41 01          	  rspr a1 SP;
    65c5:	b8 aa b8 08 00    	  add.w a10 a10 0x8b8;
    65ca:	90 11 0c          	  add.w a1 a1 0xc;
    65cd:	a0 19             	  std.w a1 a9;
    65cf:	7e b1 1c 00       	  call 0x1cb1;
    65d3:	bf 0a             	  ldd.w a10 a0;
    65d5:	0b ff             	  mvi a11 -0x1;
    65d7:	b8 aa bc 08 00    	  add.w a10 a10 0x8bc;
    65dc:	7e b1 1c 00       	  call 0x1cb1;
    65e0:	bf 0a             	  ldd.w a10 a0;
    65e2:	0b ff             	  mvi a11 -0x1;
    65e4:	b8 aa c0 08 00    	  add.w a10 a10 0x8c0;
    65e9:	7e b1 1c 00       	  call 0x1cb1;
    65ed:	bf 0a             	  ldd.w a10 a0;
    65ef:	0b ff             	  mvi a11 -0x1;
    65f1:	b8 aa c4 08 00    	  add.w a10 a10 0x8c4;
    65f6:	7e b1 1c 00       	  call 0x1cb1;
    65fa:	bf 0a             	  ldd.w a10 a0;
    65fc:	8b 00 00 70       	  mvi a11 0x700000;
    6600:	b8 aa d4 08 00    	  add.w a10 a10 0x8d4;
    6605:	7e b1 1c 00       	  call 0x1cb1;
    6609:	bf 0a             	  ldd.w a10 a0;
    660b:	db 00 00 00 01    	  mvi a11 0x1000000;
    6610:	b8 aa a8 08 00    	  add.w a10 a10 0x8a8;
    6615:	7e b1 1c 00       	  call 0x1cb1;
    6619:	bf 0a             	  ldd.w a10 a0;
    661b:	db ff ff 03 0e    	  mvi a11 0xe03ffff;
    6620:	b8 aa e0 08 00    	  add.w a10 a10 0x8e0;
    6625:	7e b1 1c 00       	  call 0x1cb1;
    6629:	bf 0a             	  ldd.w a10 a0;
    662b:	db 00 00 00 ce    	  mvi a11 -0x32000000;
    6630:	b8 aa b4 08 00    	  add.w a10 a10 0x8b4;
    6635:	7e b1 1c 00       	  call 0x1cb1;
    6639:	bf 1f             	  ldd.w a15 a1;
    663b:	bf 29             	  ldd.w a9 a2;
    663d:	a6 f9             	  cmp.w a15 a9;
    663f:	f4 0b 07          	  breq 0x6646;
    6642:	7e e9 42 00       	  call 0x42e9;
    6646:	fb 25 04          	  popma a2 0x1 0x4;

00006649 <_constructIntr>:
    6649:	f4 30 fc          	  addsp -0x4;
    664c:	f9 12             	  pushm a1;
    664e:	d1 2c 06 00 00    	  mvi a1 0x62c;
    6653:	bf 19             	  ldd.w a9 a1;
    6655:	fe 40 01          	  rspr a0 SP;
    6658:	90 00 08          	  add.w a0 a0 0x8;
    665b:	da e6 2f 00 00    	  mvi a10 0x2fe6;
    6660:	a0 09             	  std.w a0 a9;
    6662:	d9 34 14 00 00    	  mvi a9 0x1434;
    6667:	bf 99             	  ldd.w a9 a9;
    6669:	98 99 07          	  ldd.w a9 a9 0x1c;
    666c:	f9 95             	  call a9;
    666e:	bf 0f             	  ldd.w a15 a0;
    6670:	bf 19             	  ldd.w a9 a1;
    6672:	a6 f9             	  cmp.w a15 a9;
    6674:	f4 0b 07          	  breq 0x667b;
    6677:	7e e9 42 00       	  call 0x42e9;
    667b:	fb 15 04          	  popma a1 0x1 0x4;

0000667e <_constructLwlink>:
    667e:	f4 30 fc          	  addsp -0x4;
    6681:	f9 12             	  pushm a1;
    6683:	d1 2c 06 00 00    	  mvi a1 0x62c;
    6688:	bf 19             	  ldd.w a9 a1;
    668a:	fe 40 01          	  rspr a0 SP;
    668d:	90 00 08          	  add.w a0 a0 0x8;
    6690:	da e7 2f 00 00    	  mvi a10 0x2fe7;
    6695:	a0 09             	  std.w a0 a9;
    6697:	d9 34 14 00 00    	  mvi a9 0x1434;
    669c:	bf 99             	  ldd.w a9 a9;
    669e:	98 99 09          	  ldd.w a9 a9 0x24;
    66a1:	f9 95             	  call a9;
    66a3:	bf 0f             	  ldd.w a15 a0;
    66a5:	bf 19             	  ldd.w a9 a1;
    66a7:	a6 f9             	  cmp.w a15 a9;
    66a9:	f4 0b 07          	  breq 0x66b0;
    66ac:	7e e9 42 00       	  call 0x42e9;
    66b0:	fb 15 04          	  popma a1 0x1 0x4;

000066b3 <_lwlinkPreInit_LR10>:
    66b3:	de 2c 06 00 00    	  mvi a14 0x62c;
    66b8:	bf e9             	  ldd.w a9 a14;
    66ba:	f4 30 fc          	  addsp -0x4;
    66bd:	fe 4f 01          	  rspr a15 SP;
    66c0:	dd 94 2a 00 00    	  mvi a13 0x2a94;
    66c5:	a0 f9             	  std.w a15 a9;
    66c7:	bf fc             	  ldd.w a12 a15;
    66c9:	bf ef             	  ldd.w a15 a14;
    66cb:	09 ff             	  mvi a9 -0x1;
    66cd:	a0 d9             	  std.w a13 a9;
    66cf:	09 0f             	  mvi a9 0xf;
    66d1:	b5 d9 01          	  std.w a13 0x4 a9;
    66d4:	a6 cf             	  cmp.w a12 a15;
    66d6:	f4 0b 07          	  breq 0x66dd;
    66d9:	7e e9 42 00       	  call 0x42e9;
    66dd:	f4 30 04          	  addsp 0x4;
    66e0:	f8 00             	  ret;

000066e2 <_constructPmgr>:
    66e2:	f4 30 fc          	  addsp -0x4;
    66e5:	f9 12             	  pushm a1;
    66e7:	d1 2c 06 00 00    	  mvi a1 0x62c;
    66ec:	bf 19             	  ldd.w a9 a1;
    66ee:	fe 40 01          	  rspr a0 SP;
    66f1:	90 00 08          	  add.w a0 a0 0x8;
    66f4:	da e8 2f 00 00    	  mvi a10 0x2fe8;
    66f9:	a0 09             	  std.w a0 a9;
    66fb:	d9 34 14 00 00    	  mvi a9 0x1434;
    6700:	bf 99             	  ldd.w a9 a9;
    6702:	98 99 0a          	  ldd.w a9 a9 0x28;
    6705:	f9 95             	  call a9;
    6707:	bf 0f             	  ldd.w a15 a0;
    6709:	bf 19             	  ldd.w a9 a1;
    670b:	a6 f9             	  cmp.w a15 a9;
    670d:	f4 0b 07          	  breq 0x6714;
    6710:	7e e9 42 00       	  call 0x42e9;
    6714:	fb 15 04          	  popma a1 0x1 0x4;

00006717 <_pmgrPreInit_LR10>:
    6717:	df 2c 06 00 00    	  mvi a15 0x62c;
    671c:	bf fe             	  ldd.w a14 a15;
    671e:	f4 30 fc          	  addsp -0x4;
    6721:	fe 49 01          	  rspr a9 SP;
    6724:	a0 9e             	  std.w a9 a14;
    6726:	bf 9e             	  ldd.w a14 a9;
    6728:	bf f9             	  ldd.w a9 a15;
    672a:	a6 e9             	  cmp.w a14 a9;
    672c:	f4 0b 07          	  breq 0x6733;
    672f:	7e e9 42 00       	  call 0x42e9;
    6733:	f4 30 04          	  addsp 0x4;
    6736:	f8 00             	  ret;

00006738 <_constructI2c>:
    6738:	f4 30 fc          	  addsp -0x4;
    673b:	f9 12             	  pushm a1;
    673d:	d1 2c 06 00 00    	  mvi a1 0x62c;
    6742:	bf 19             	  ldd.w a9 a1;
    6744:	fe 40 01          	  rspr a0 SP;
    6747:	90 00 08          	  add.w a0 a0 0x8;
    674a:	da e9 2f 00 00    	  mvi a10 0x2fe9;
    674f:	a0 09             	  std.w a0 a9;
    6751:	d9 34 14 00 00    	  mvi a9 0x1434;
    6756:	bf 99             	  ldd.w a9 a9;
    6758:	98 99 04          	  ldd.w a9 a9 0x10;
    675b:	f9 95             	  call a9;
    675d:	bf 0f             	  ldd.w a15 a0;
    675f:	bf 19             	  ldd.w a9 a1;
    6761:	a6 f9             	  cmp.w a15 a9;
    6763:	f4 0b 07          	  breq 0x676a;
    6766:	7e e9 42 00       	  call 0x42e9;
    676a:	fb 15 04          	  popma a1 0x1 0x4;

0000676d <_i2cPreInit_LR10>:
    676d:	df 2c 06 00 00    	  mvi a15 0x62c;
    6772:	bf fe             	  ldd.w a14 a15;
    6774:	f4 30 fc          	  addsp -0x4;
    6777:	fe 49 01          	  rspr a9 SP;
    677a:	a0 9e             	  std.w a9 a14;
    677c:	bf 9e             	  ldd.w a14 a9;
    677e:	bf f9             	  ldd.w a9 a15;
    6780:	a6 e9             	  cmp.w a14 a9;
    6782:	f4 0b 07          	  breq 0x6789;
    6785:	7e e9 42 00       	  call 0x42e9;
    6789:	f4 30 04          	  addsp 0x4;
    678c:	f8 00             	  ret;

0000678e <_constructGpio>:
    678e:	f4 30 fc          	  addsp -0x4;
    6791:	f9 12             	  pushm a1;
    6793:	d1 2c 06 00 00    	  mvi a1 0x62c;
    6798:	bf 19             	  ldd.w a9 a1;
    679a:	fe 40 01          	  rspr a0 SP;
    679d:	90 00 08          	  add.w a0 a0 0x8;
    67a0:	da ea 2f 00 00    	  mvi a10 0x2fea;
    67a5:	a0 09             	  std.w a0 a9;
    67a7:	d9 34 14 00 00    	  mvi a9 0x1434;
    67ac:	bf 99             	  ldd.w a9 a9;
    67ae:	98 99 03          	  ldd.w a9 a9 0xc;
    67b1:	f9 95             	  call a9;
    67b3:	bf 0f             	  ldd.w a15 a0;
    67b5:	bf 19             	  ldd.w a9 a1;
    67b7:	a6 f9             	  cmp.w a15 a9;
    67b9:	f4 0b 07          	  breq 0x67c0;
    67bc:	7e e9 42 00       	  call 0x42e9;
    67c0:	fb 15 04          	  popma a1 0x1 0x4;

000067c3 <_gpioPreInit_LR10>:
    67c3:	df 2c 06 00 00    	  mvi a15 0x62c;
    67c8:	bf fe             	  ldd.w a14 a15;
    67ca:	f4 30 fc          	  addsp -0x4;
    67cd:	fe 49 01          	  rspr a9 SP;
    67d0:	a0 9e             	  std.w a9 a14;
    67d2:	bf 9e             	  ldd.w a14 a9;
    67d4:	bf f9             	  ldd.w a9 a15;
    67d6:	a6 e9             	  cmp.w a14 a9;
    67d8:	f4 0b 07          	  breq 0x67df;
    67db:	7e e9 42 00       	  call 0x42e9;
    67df:	f4 30 04          	  addsp 0x4;
    67e2:	f8 00             	  ret;

000067e4 <_constructSpi>:
    67e4:	f4 30 fc          	  addsp -0x4;
    67e7:	f9 12             	  pushm a1;
    67e9:	d1 2c 06 00 00    	  mvi a1 0x62c;
    67ee:	bf 19             	  ldd.w a9 a1;
    67f0:	fe 40 01          	  rspr a0 SP;
    67f3:	90 00 08          	  add.w a0 a0 0x8;
    67f6:	da d0 2a 00 00    	  mvi a10 0x2ad0;
    67fb:	a0 09             	  std.w a0 a9;
    67fd:	d9 34 14 00 00    	  mvi a9 0x1434;
    6802:	bf 99             	  ldd.w a9 a9;
    6804:	98 99 0f          	  ldd.w a9 a9 0x3c;
    6807:	f9 95             	  call a9;
    6809:	df c8 2a 00 00    	  mvi a15 0x2ac8;
    680e:	bf 0d             	  ldd.w a13 a0;
    6810:	bf 1e             	  ldd.w a14 a1;
    6812:	d9 9c 2a 00 00    	  mvi a9 0x2a9c;
    6817:	b5 9f 06          	  std.w a9 0x18 a15;
    681a:	df c0 2a 00 00    	  mvi a15 0x2ac0;
    681f:	b5 9f 05          	  std.w a9 0x14 a15;
    6822:	bd f4             	  clr.w a15;
    6824:	35 9f 09          	  std.b a9 0x9 a15;
    6827:	a0 9f             	  std.w a9 a15;
    6829:	b5 9f 01          	  std.w a9 0x4 a15;
    682c:	35 9f 08          	  std.b a9 0x8 a15;
    682f:	0f 32             	  mvi a15 0x32;
    6831:	b5 9f 03          	  std.w a9 0xc a15;
    6834:	a6 de             	  cmp.w a13 a14;
    6836:	f4 0b 07          	  breq 0x683d;
    6839:	7e e9 42 00       	  call 0x42e9;
    683d:	fb 15 04          	  popma a1 0x1 0x4;

00006840 <_spiPreInit_LR10>:
    6840:	df 2c 06 00 00    	  mvi a15 0x62c;
    6845:	bf fe             	  ldd.w a14 a15;
    6847:	f4 30 fc          	  addsp -0x4;
    684a:	fe 49 01          	  rspr a9 SP;
    684d:	a0 9e             	  std.w a9 a14;
    684f:	bf 9e             	  ldd.w a14 a9;
    6851:	bf f9             	  ldd.w a9 a15;
    6853:	a6 e9             	  cmp.w a14 a9;
    6855:	f4 0b 07          	  breq 0x685c;
    6858:	7e e9 42 00       	  call 0x42e9;
    685c:	f4 30 04          	  addsp 0x4;
    685f:	f8 00             	  ret;

00006861 <_constructIfr>:
    6861:	f4 30 fc          	  addsp -0x4;
    6864:	f9 12             	  pushm a1;
    6866:	d1 2c 06 00 00    	  mvi a1 0x62c;
    686b:	bf 19             	  ldd.w a9 a1;
    686d:	fe 40 01          	  rspr a0 SP;
    6870:	90 00 08          	  add.w a0 a0 0x8;
    6873:	da eb 2f 00 00    	  mvi a10 0x2feb;
    6878:	a0 09             	  std.w a0 a9;
    687a:	d9 34 14 00 00    	  mvi a9 0x1434;
    687f:	bf 99             	  ldd.w a9 a9;
    6881:	98 99 06          	  ldd.w a9 a9 0x18;
    6884:	f9 95             	  call a9;
    6886:	bf 0f             	  ldd.w a15 a0;
    6888:	bf 19             	  ldd.w a9 a1;
    688a:	a6 f9             	  cmp.w a15 a9;
    688c:	f4 0b 07          	  breq 0x6893;
    688f:	7e e9 42 00       	  call 0x42e9;
    6893:	fb 15 04          	  popma a1 0x1 0x4;

00006896 <_ifrPreInit_LR10>:
    6896:	df 2c 06 00 00    	  mvi a15 0x62c;
    689b:	bf fe             	  ldd.w a14 a15;
    689d:	f4 30 fc          	  addsp -0x4;
    68a0:	fe 49 01          	  rspr a9 SP;
    68a3:	a0 9e             	  std.w a9 a14;
    68a5:	bf 9e             	  ldd.w a14 a9;
    68a7:	bf f9             	  ldd.w a9 a15;
    68a9:	a6 e9             	  cmp.w a14 a9;
    68ab:	f4 0b 07          	  breq 0x68b2;
    68ae:	7e e9 42 00       	  call 0x42e9;
    68b2:	f4 30 04          	  addsp 0x4;
    68b5:	f8 00             	  ret;

000068b7 <_constructBios>:
    68b7:	f4 30 fc          	  addsp -0x4;
    68ba:	f9 12             	  pushm a1;
    68bc:	d1 2c 06 00 00    	  mvi a1 0x62c;
    68c1:	bf 19             	  ldd.w a9 a1;
    68c3:	fe 40 01          	  rspr a0 SP;
    68c6:	90 00 08          	  add.w a0 a0 0x8;
    68c9:	da f0 2a 00 00    	  mvi a10 0x2af0;
    68ce:	a0 09             	  std.w a0 a9;
    68d0:	d9 34 14 00 00    	  mvi a9 0x1434;
    68d5:	bf 99             	  ldd.w a9 a9;
    68d7:	98 99 01          	  ldd.w a9 a9 0x4;
    68da:	f9 95             	  call a9;
    68dc:	bf 0f             	  ldd.w a15 a0;
    68de:	bf 19             	  ldd.w a9 a1;
    68e0:	a6 f9             	  cmp.w a15 a9;
    68e2:	f4 0b 07          	  breq 0x68e9;
    68e5:	7e e9 42 00       	  call 0x42e9;
    68e9:	fb 15 04          	  popma a1 0x1 0x4;

000068ec <_biosPreInit_LR10>:
    68ec:	f5 30 18 ff       	  addsp -0xe8;
    68f0:	df 2c 06 00 00    	  mvi a15 0x62c;
    68f5:	f9 82             	  pushm a8;
    68f7:	bf ff             	  ldd.w a15 a15;
    68f9:	fe 49 01          	  rspr a9 SP;
    68fc:	b8 99 08 01 00    	  add.w a9 a9 0x108;
    6901:	0a 08             	  mvi a10 0x8;
    6903:	a0 9f             	  std.w a9 a15;
    6905:	7e 22 1c 00       	  call 0x1c22;
    6909:	b2 a0             	  mv.w a0 a10;
    690b:	0a 08             	  mvi a10 0x8;
    690d:	7e 22 1c 00       	  call 0x1c22;
    6911:	d9 00 00 00 40    	  mvi a9 0x40000000;
    6916:	fd 09 04          	  and a0 a9;
    6919:	f5 1b 4d 04       	  brne 0x6d66;
    691d:	95 a9 1f          	  lsr.w a9 a10 0x1f;
    6920:	b3 99 01 46 04    	  cmpbreq.w a9 0x1 0x6d66;
    6925:	3d a4             	  clr.b a10;
    6927:	4b dc 01          	  mvi a11 0x1dc;
    692a:	0c 04             	  mvi a12 0x4;
    692c:	7e 41 40 00       	  call 0x4041;
    6930:	b2 a4             	  mv.w a4 a10;
    6932:	b3 a9 00 45 03    	  cmpbreq.w a10 0x0 0x6c77;
    6937:	b5 a0 76          	  std.w a10 0x1d8 a0;
    693a:	b5 a0 71          	  std.w a10 0x1c4 a0;
    693d:	b5 a0 72          	  std.w a10 0x1c8 a0;
    6940:	b5 a0 73          	  std.w a10 0x1cc a0;
    6943:	b5 a0 74          	  std.w a10 0x1d0 a0;
    6946:	b5 a0 75          	  std.w a10 0x1d4 a0;
    6949:	d9 e8 2a 00 00    	  mvi a9 0x2ae8;
    694e:	fe 4f 01          	  rspr a15 SP;
    6951:	90 ff e8          	  add.w a15 a15 0xe8;
    6954:	da 9c 2a 00 00    	  mvi a10 0x2a9c;
    6959:	b5 9f 01          	  std.w a9 0x4 a15;
    695c:	7e b6 2f 00       	  call 0x2fb6;
    6960:	32 a2             	  mv.b a2 a10;
    6962:	33 a0 00 09       	  cmpbreq.b a10 0x0 0x696b;
    6966:	33 ad 2e 11 03    	  cmpbrne.b a10 0x2e 0x6c77;
    696b:	d9 9c 2a 00 00    	  mvi a9 0x2a9c;
    6970:	98 99 07          	  ldd.w a9 a9 0x1c;
    6973:	de e8 2a 00 00    	  mvi a14 0x2ae8;
    6978:	bf 9f             	  ldd.w a15 a9;
    697a:	98 99 01          	  ldd.w a9 a9 0x4;
    697d:	bb 9f 02          	  sub.w a9 a15;
    6980:	a0 e9             	  std.w a14 a9;
    6982:	b3 99 00 9b 00    	  cmpbreq.w a9 0x0 0x6a1d;
    6987:	98 49 75          	  ldd.w a9 a4 0x1d4;
    698a:	b3 9d 00 8b 00    	  cmpbrne.w a9 0x0 0x6a15;
    698f:	fe 43 01          	  rspr a3 SP;
    6992:	b2 e5             	  mv.w a5 a14;
    6994:	bd 14             	  clr.w a1;
    6996:	47 55 aa          	  mvi a7 -0x55ab;
    6999:	d6 50 43 49 52    	  mvi a6 0x52494350;
    699e:	90 33 a8          	  add.w a3 a3 0xa8;
    69a1:	3e 0b 6a 00       	  jmp 0x6a0b;
    69a5:	da e8 2a 00 00    	  mvi a10 0x2ae8;
    69aa:	b2 1b             	  mv.w a11 a1;
    69ac:	7e 25 54 00       	  call 0x5425;
    69b0:	66 a7             	  cmp.h a10 a7;
    69b2:	f4 1b 56          	  brne 0x6a08;
    69b5:	da e8 2a 00 00    	  mvi a10 0x2ae8;
    69ba:	90 1b 18          	  add.w a11 a1 0x18;
    69bd:	7e 25 54 00       	  call 0x5425;
    69c1:	bf 59             	  ldd.w a9 a5;
    69c3:	f0 a3 00          	  sethi a10 0x0;
    69c6:	bc a1 00          	  add.w a0 a10 a1;
    69c9:	90 0f 1c          	  add.w a15 a0 0x1c;
    69cc:	a6 f9             	  cmp.w a15 a9;
    69ce:	f4 18 3a          	  brnc 0x6a08;
    69d1:	da e8 2a 00 00    	  mvi a10 0x2ae8;
    69d6:	b2 0b             	  mv.w a11 a0;
    69d8:	7e 60 54 00       	  call 0x5460;
    69dc:	a6 a6             	  cmp.w a10 a6;
    69de:	f4 1b 2a          	  brne 0x6a08;
    69e1:	b2 0c             	  mv.w a12 a0;
    69e3:	da e8 2a 00 00    	  mvi a10 0x2ae8;
    69e8:	b2 3b             	  mv.w a11 a3;
    69ea:	bd d4             	  clr.w a13;
    69ec:	de 7a 00 00 00    	  mvi a14 0x7a;
    69f1:	7e 5f 52 00       	  call 0x525f;
    69f5:	33 a4 00 28       	  cmpbrne.b a10 0x0 0x6a1d;
    69f9:	98 39 01          	  ldd.w a9 a3 0x4;
    69fc:	b3 9e de 10 0c    	  cmpbrne.w a9 0x10de 0x6a08;
    6a01:	b5 41 75          	  std.w a4 0x1d4 a1;
    6a04:	3e 15 6a 00       	  jmp 0x6a15;
    6a08:	90 11 01          	  add.w a1 a1 0x1;
    6a0b:	bf 59             	  ldd.w a9 a5;
    6a0d:	92 99 34          	  sub.w a9 a9 0x34;
    6a10:	a6 19             	  cmp.w a1 a9;
    6a12:	f4 08 93          	  brc 0x69a5;
    6a15:	98 49 75          	  ldd.w a9 a4 0x1d4;
    6a18:	b3 99 00 5f 02    	  cmpbreq.w a9 0x0 0x6c77;
    6a1d:	33 2d 00 5a 02    	  cmpbrne.b a2 0x0 0x6c77;
    6a22:	98 49 74          	  ldd.w a9 a4 0x1d0;
    6a25:	b3 9d 00 10 01    	  cmpbrne.w a9 0x0 0x6b35;
    6a2a:	98 42 75          	  ldd.w a2 a4 0x1d4;
    6a2d:	b3 24 00 74       	  cmpbrne.w a2 0x0 0x6aa1;
    6a31:	3e 77 6c 00       	  jmp 0x6c77;
    6a35:	da e8 2a 00 00    	  mvi a10 0x2ae8;
    6a3a:	b2 2b             	  mv.w a11 a2;
    6a3c:	7e 25 54 00       	  call 0x5425;
    6a40:	66 a8             	  cmp.h a10 a8;
    6a42:	f4 1b 51          	  brne 0x6a93;
    6a45:	da e8 2a 00 00    	  mvi a10 0x2ae8;
    6a4a:	90 2b 02          	  add.w a11 a2 0x2;
    6a4d:	7e 60 54 00       	  call 0x5460;
    6a51:	a6 a7             	  cmp.w a10 a7;
    6a53:	f4 1b 40          	  brne 0x6a93;
    6a56:	b5 42 74          	  std.w a4 0x1d0 a2;
    6a59:	da e8 2a 00 00    	  mvi a10 0x2ae8;
    6a5e:	90 2b 08          	  add.w a11 a2 0x8;
    6a61:	bd 04             	  clr.w a0;
    6a63:	7e 9b 54 00       	  call 0x549b;
    6a67:	bd 14             	  clr.w a1;
    6a69:	c4 a3 ff          	  and a3 a10 0xff;
    6a6c:	3e 85 6a 00       	  jmp 0x6a85;
    6a70:	bc 02 b0          	  add.w a11 a0 a2;
    6a73:	da e8 2a 00 00    	  mvi a10 0x2ae8;
    6a78:	90 00 01          	  add.w a0 a0 0x1;
    6a7b:	7e 9b 54 00       	  call 0x549b;
    6a7f:	f0 a4 ff          	  and a10 0xff;
    6a82:	bc 1a 10          	  add.w a1 a1 a10;
    6a85:	a6 03             	  cmp.w a0 a3;
    6a87:	f4 08 e9          	  brc 0x6a70;
    6a8a:	33 10 00 09       	  cmpbreq.b a1 0x0 0x6a93;
    6a8e:	b5 56 01          	  std.w a5 0x4 a6;
    6a91:	a0 56             	  std.w a5 a6;
    6a93:	98 49 74          	  ldd.w a9 a4 0x1d0;
    6a96:	b3 94 00 24       	  cmpbrne.w a9 0x0 0x6aba;
    6a9a:	90 22 01          	  add.w a2 a2 0x1;
    6a9d:	3e af 6a 00       	  jmp 0x6aaf;
    6aa1:	d5 e8 2a 00 00    	  mvi a5 0x2ae8;
    6aa6:	48 ff b8          	  mvi a8 -0x4701;
    6aa9:	87 42 49 54       	  mvi a7 0x544942;
    6aad:	bd 64             	  clr.w a6;
    6aaf:	bf 59             	  ldd.w a9 a5;
    6ab1:	92 99 03          	  sub.w a9 a9 0x3;
    6ab4:	a6 29             	  cmp.w a2 a9;
    6ab6:	f5 08 7f ff       	  brc 0x6a35;
    6aba:	98 4c 74          	  ldd.w a12 a4 0x1d0;
    6abd:	b3 cd 00 78 02    	  cmpbrne.w a12 0x0 0x6d35;
    6ac2:	3e 77 6c 00       	  jmp 0x6c77;
    6ac6:	98 3b 04          	  ldd.w a11 a3 0x10;
    6ac9:	98 49 74          	  ldd.w a9 a4 0x1d0;
    6acc:	98 30 03          	  ldd.w a0 a3 0xc;
    6acf:	c4 1a ff          	  and a10 a1 0xff;
    6ad2:	bc 09 00          	  add.w a0 a0 a9;
    6ad5:	7e fc 16 00       	  call 0x16fc;
    6ad9:	b2 2b             	  mv.w a11 a2;
    6adb:	bc 0a 00          	  add.w a0 a0 a10;
    6ade:	bd d4             	  clr.w a13;
    6ae0:	b2 0c             	  mv.w a12 a0;
    6ae2:	da e8 2a 00 00    	  mvi a10 0x2ae8;
    6ae7:	de 87 00 00 00    	  mvi a14 0x87;
    6aec:	7e 5f 52 00       	  call 0x525f;
    6af0:	33 ad 00 87 01    	  cmpbrne.b a10 0x0 0x6c77;
    6af5:	bf 29             	  ldd.w a9 a2;
    6af7:	98 4f 75          	  ldd.w a15 a4 0x1d4;
    6afa:	98 2c 03          	  ldd.w a12 a2 0xc;
    6afd:	b3 94 49 2a       	  cmpbrne.w a9 0x49 0x6b27;
    6b01:	bc cf c0          	  add.w a12 a12 a15;
    6b04:	da e8 2a 00 00    	  mvi a10 0x2ae8;
    6b09:	b2 5b             	  mv.w a11 a5;
    6b0b:	bd d4             	  clr.w a13;
    6b0d:	de 8c 00 00 00    	  mvi a14 0x8c;
    6b12:	7e 5f 52 00       	  call 0x525f;
    6b16:	33 ad 00 61 01    	  cmpbrne.b a10 0x0 0x6c77;
    6b1b:	98 5f 0e          	  ldd.w a15 a5 0x38;
    6b1e:	98 49 75          	  ldd.w a9 a4 0x1d4;
    6b21:	bc 9f 90          	  add.w a9 a9 a15;
    6b24:	b5 49 76          	  std.w a4 0x1d8 a9;
    6b27:	10 11 01          	  add.b a1 a1 0x1;
    6b2a:	98 3f 05          	  ldd.w a15 a3 0x14;
    6b2d:	c4 19 ff          	  and a9 a1 0xff;
    6b30:	a6 9f             	  cmp.w a9 a15;
    6b32:	f4 08 94          	  brc 0x6ac6;
    6b35:	98 41 76          	  ldd.w a1 a4 0x1d8;
    6b38:	b3 19 00 3f 01    	  cmpbreq.w a1 0x0 0x6c77;
    6b3d:	da e8 2a 00 00    	  mvi a10 0x2ae8;
    6b42:	b2 1b             	  mv.w a11 a1;
    6b44:	7e 9b 54 00       	  call 0x549b;
    6b48:	33 ad 02 2f 01    	  cmpbrne.b a10 0x2 0x6c77;
    6b4d:	da e8 2a 00 00    	  mvi a10 0x2ae8;
    6b52:	90 1b 01          	  add.w a11 a1 0x1;
    6b55:	7e 9b 54 00       	  call 0x549b;
    6b59:	33 ad 08 1e 01    	  cmpbrne.b a10 0x8 0x6c77;
    6b5e:	fe 40 01          	  rspr a0 SP;
    6b61:	da e8 2a 00 00    	  mvi a10 0x2ae8;
    6b66:	90 00 7c          	  add.w a0 a0 0x7c;
    6b69:	b2 1c             	  mv.w a12 a1;
    6b6b:	b2 0b             	  mv.w a11 a0;
    6b6d:	bd d4             	  clr.w a13;
    6b6f:	de 90 00 00 00    	  mvi a14 0x90;
    6b74:	7e 5f 52 00       	  call 0x525f;
    6b78:	33 ad 00 ff 00    	  cmpbrne.b a10 0x0 0x6c77;
    6b7d:	98 05 05          	  ldd.w a5 a0 0x14;
    6b80:	b0 56 24          	  cmp.w a5 0x24;
    6b83:	f4 0d 05          	  brlte 0x6b88;
    6b86:	05 24             	  mvi a5 0x24;
    6b88:	fe 49 01          	  rspr a9 SP;
    6b8b:	90 99 7c          	  add.w a9 a9 0x7c;
    6b8e:	98 9e 02          	  ldd.w a14 a9 0x8;
    6b91:	98 9f 01          	  ldd.w a15 a9 0x4;
    6b94:	b2 40             	  mv.w a0 a4;
    6b96:	bd 94             	  clr.w a9;
    6b98:	bd 24             	  clr.w a2;
    6b9a:	bc 1f f0          	  add.w a15 a1 a15;
    6b9d:	b5 49 70          	  std.w a4 0x1c0 a9;
    6ba0:	fe 41 01          	  rspr a1 SP;
    6ba3:	bc fe 30          	  add.w a3 a15 a14;
    6ba6:	90 11 60          	  add.w a1 a1 0x60;
    6ba9:	3e f6 6b 00       	  jmp 0x6bf6;
    6bad:	da e8 2a 00 00    	  mvi a10 0x2ae8;
    6bb2:	b2 1b             	  mv.w a11 a1;
    6bb4:	b2 3c             	  mv.w a12 a3;
    6bb6:	bd d4             	  clr.w a13;
    6bb8:	de 95 00 00 00    	  mvi a14 0x95;
    6bbd:	7e 5f 52 00       	  call 0x525f;
    6bc1:	33 a4 00 3d       	  cmpbrne.b a10 0x0 0x6bfe;
    6bc5:	3f 19             	  ldd.b a9 a1;
    6bc7:	90 33 07          	  add.w a3 a3 0x7;
    6bca:	90 22 01          	  add.w a2 a2 0x1;
    6bcd:	20 09             	  std.b a0 a9;
    6bcf:	18 19 04          	  ldd.b a9 a1 0x4;
    6bd2:	35 09 01          	  std.b a0 0x1 a9;
    6bd5:	18 19 08          	  ldd.b a9 a1 0x8;
    6bd8:	35 09 02          	  std.b a0 0x2 a9;
    6bdb:	18 19 0c          	  ldd.b a9 a1 0xc;
    6bde:	35 09 03          	  std.b a0 0x3 a9;
    6be1:	18 19 10          	  ldd.b a9 a1 0x10;
    6be4:	35 09 04          	  std.b a0 0x4 a9;
    6be7:	18 19 14          	  ldd.b a9 a1 0x14;
    6bea:	35 09 05          	  std.b a0 0x5 a9;
    6bed:	18 19 18          	  ldd.b a9 a1 0x18;
    6bf0:	35 09 06          	  std.b a0 0x6 a9;
    6bf3:	90 00 07          	  add.w a0 a0 0x7;
    6bf6:	a6 25             	  cmp.w a2 a5;
    6bf8:	f4 08 b5          	  brc 0x6bad;
    6bfb:	b5 42 70          	  std.w a4 0x1c0 a2;
    6bfe:	98 41 70          	  ldd.w a1 a4 0x1c0;
    6c01:	b0 16 24          	  cmp.w a1 0x24;
    6c04:	f4 0c 0b          	  brgt 0x6c0f;
    6c07:	bd 24             	  clr.w a2;
    6c09:	3d 04             	  clr.b a0;
    6c0b:	3e 23 6c 00       	  jmp 0x6c23;
    6c0f:	49 00 10          	  mvi a9 0x1000;
    6c12:	f7 91 00          	  stxb a9 0x0 a1;
    6c15:	0f 0a             	  mvi a15 0xa;
    6c17:	49 00 11          	  mvi a9 0x1100;
    6c1a:	f7 9f 00          	  stxb a9 0x0 a15;
    6c1d:	f8 02             	  halt;
    6c1f:	3d 04             	  clr.b a0;
    6c21:	bd 24             	  clr.w a2;
    6c23:	bd 34             	  clr.w a3;
    6c25:	3e 6b 6c 00       	  jmp 0x6c6b;
    6c29:	98 4f 71          	  ldd.w a15 a4 0x1c4;
    6c2c:	94 9e 03          	  lsl.w a14 a9 0x3;
    6c2f:	bb e9 02          	  sub.w a14 a9;
    6c32:	94 f9 09          	  lsl.w a9 a15 0x9;
    6c35:	b6 f4 06          	  lsl.w a15 0x6;
    6c38:	bb 9f 02          	  sub.w a9 a15;
    6c3b:	bc e9 e0          	  add.w a14 a14 a9;
    6c3e:	bc 4e 90          	  add.w a9 a4 a14;
    6c41:	b3 90 00 27       	  cmpbreq.w a9 0x0 0x6c68;
    6c45:	3c 4e 98          	  ldd.b a9 a4 a14;
    6c48:	f0 94 02          	  and a9 0x2;
    6c4b:	33 90 00 1d       	  cmpbreq.b a9 0x0 0x6c68;
    6c4f:	0a 01             	  mvi a10 0x1;
    6c51:	bd b4             	  clr.w a11;
    6c53:	c4 0c ff          	  and a12 a0 0xff;
    6c56:	7e 66 42 00       	  call 0x4266;
    6c5a:	ff 3b 95          	  or a9 a3 a11;
    6c5d:	ff 2a a5          	  or a10 a2 a10;
    6c60:	b2 9f             	  mv.w a15 a9;
    6c62:	b2 ae             	  mv.w a14 a10;
    6c64:	b2 e2             	  mv.w a2 a14;
    6c66:	b2 f3             	  mv.w a3 a15;
    6c68:	10 00 01          	  add.b a0 a0 0x1;
    6c6b:	c4 09 ff          	  and a9 a0 0xff;
    6c6e:	a6 91             	  cmp.w a9 a1;
    6c70:	f4 08 b9          	  brc 0x6c29;
    6c73:	3e 7b 6c 00       	  jmp 0x6c7b;
    6c77:	bd 24             	  clr.w a2;
    6c79:	bd 34             	  clr.w a3;
    6c7b:	89 00 90 00       	  mvi a9 0x9000;
    6c7f:	ce 99 00          	  ldxb a9 a9 0x0;
    6c82:	f0 94 01          	  and a9 0x1;
    6c85:	f5 0b e1 00       	  breq 0x6d66;
    6c89:	bd 44             	  clr.w a4;
    6c8b:	05 f7             	  mvi a5 -0x9;
    6c8d:	3e 2a 6d 00       	  jmp 0x6d2a;
    6c91:	c4 29 01          	  and a9 a2 0x1;
    6c94:	f5 0b 8d 00       	  breq 0x6d21;
    6c98:	bd c4             	  clr.w a12;
    6c9a:	bd d4             	  clr.w a13;
    6c9c:	b2 4b             	  mv.w a11 a4;
    6c9e:	0a 08             	  mvi a10 0x8;
    6ca0:	7e 6b 24 00       	  call 0x246b;
    6ca4:	b2 a0             	  mv.w a0 a10;
    6ca6:	b8 a1 08 06 00    	  add.w a1 a10 0x608;
    6cab:	b2 1a             	  mv.w a10 a1;
    6cad:	7e 22 1c 00       	  call 0x1c22;
    6cb1:	e5 ab 00 80       	  or a11 a10 0x8000;
    6cb5:	b2 1a             	  mv.w a10 a1;
    6cb7:	7e b1 1c 00       	  call 0x1cb1;
    6cbb:	b8 01 20 06 00    	  add.w a1 a0 0x620;
    6cc0:	b2 1a             	  mv.w a10 a1;
    6cc2:	7e 22 1c 00       	  call 0x1c22;
    6cc6:	c5 ab 04          	  or a11 a10 0x4;
    6cc9:	b2 1a             	  mv.w a10 a1;
    6ccb:	7e b1 1c 00       	  call 0x1cb1;
    6ccf:	b8 01 00 06 00    	  add.w a1 a0 0x600;
    6cd4:	b2 1a             	  mv.w a10 a1;
    6cd6:	7e 22 1c 00       	  call 0x1c22;
    6cda:	e5 ab 00 80       	  or a11 a10 0x8000;
    6cde:	b2 1a             	  mv.w a10 a1;
    6ce0:	7e b1 1c 00       	  call 0x1cb1;
    6ce4:	b8 01 18 06 00    	  add.w a1 a0 0x618;
    6ce9:	b2 1a             	  mv.w a10 a1;
    6ceb:	7e 22 1c 00       	  call 0x1c22;
    6cef:	ff a5 b4          	  and a11 a10 a5;
    6cf2:	b2 1a             	  mv.w a10 a1;
    6cf4:	7e b1 1c 00       	  call 0x1cb1;
    6cf8:	b8 01 04 06 00    	  add.w a1 a0 0x604;
    6cfd:	b2 1a             	  mv.w a10 a1;
    6cff:	7e 22 1c 00       	  call 0x1c22;
    6d03:	e5 ab 00 80       	  or a11 a10 0x8000;
    6d07:	b2 1a             	  mv.w a10 a1;
    6d09:	7e b1 1c 00       	  call 0x1cb1;
    6d0d:	b8 00 1c 06 00    	  add.w a0 a0 0x61c;
    6d12:	b2 0a             	  mv.w a10 a0;
    6d14:	7e 22 1c 00       	  call 0x1c22;
    6d18:	c5 ab 04          	  or a11 a10 0x4;
    6d1b:	b2 0a             	  mv.w a10 a0;
    6d1d:	7e b1 1c 00       	  call 0x1cb1;
    6d21:	90 44 01          	  add.w a4 a4 0x1;
    6d24:	95 33 01          	  lsr.w a3 a3 0x1;
    6d27:	9d 22 01          	  lsrc.w a2 a2 0x1;
    6d2a:	ff 23 95          	  or a9 a2 a3;
    6d2d:	f5 1b 64 ff       	  brne 0x6c91;
    6d31:	3e 66 6d 00       	  jmp 0x6d66;
    6d35:	fe 40 01          	  rspr a0 SP;
    6d38:	da e8 2a 00 00    	  mvi a10 0x2ae8;
    6d3d:	90 00 60          	  add.w a0 a0 0x60;
    6d40:	bd d4             	  clr.w a13;
    6d42:	b2 0b             	  mv.w a11 a0;
    6d44:	de 98 00 00 00    	  mvi a14 0x98;
    6d49:	7e 5f 52 00       	  call 0x525f;
    6d4d:	33 ad 00 2a ff    	  cmpbrne.b a10 0x0 0x6c77;
    6d52:	fe 42 01          	  rspr a2 SP;
    6d55:	fe 45 01          	  rspr a5 SP;
    6d58:	b2 03             	  mv.w a3 a0;
    6d5a:	3d 14             	  clr.b a1;
    6d5c:	90 22 98          	  add.w a2 a2 0x98;
    6d5f:	90 55 24          	  add.w a5 a5 0x24;
    6d62:	3e 2a 6b 00       	  jmp 0x6b2a;
    6d66:	fe 49 01          	  rspr a9 SP;
    6d69:	b8 99 08 01 00    	  add.w a9 a9 0x108;
    6d6e:	bf 9f             	  ldd.w a15 a9;
    6d70:	d9 2c 06 00 00    	  mvi a9 0x62c;
    6d75:	bf 99             	  ldd.w a9 a9;
    6d77:	a6 f9             	  cmp.w a15 a9;
    6d79:	f4 0b 07          	  breq 0x6d80;
    6d7c:	7e e9 42 00       	  call 0x42e9;
    6d80:	fb 83 e8 00       	  popmb a8 0x1 0xe8;

00006d84 <_constructSmbpbi>:
    6d84:	f4 30 fc          	  addsp -0x4;
    6d87:	f9 12             	  pushm a1;
    6d89:	d1 2c 06 00 00    	  mvi a1 0x62c;
    6d8e:	bf 19             	  ldd.w a9 a1;
    6d90:	bd b4             	  clr.w a11;
    6d92:	4c c0 00          	  mvi a12 0xc0;
    6d95:	fe 40 01          	  rspr a0 SP;
    6d98:	da f4 2a 00 00    	  mvi a10 0x2af4;
    6d9d:	90 00 08          	  add.w a0 a0 0x8;
    6da0:	a0 09             	  std.w a0 a9;
    6da2:	7e 94 0b 00       	  call 0xb94;
    6da6:	d9 34 14 00 00    	  mvi a9 0x1434;
    6dab:	bf 99             	  ldd.w a9 a9;
    6dad:	da b0 2b 00 00    	  mvi a10 0x2bb0;
    6db2:	98 99 0d          	  ldd.w a9 a9 0x34;
    6db5:	f9 95             	  call a9;
    6db7:	bf 0f             	  ldd.w a15 a0;
    6db9:	bf 19             	  ldd.w a9 a1;
    6dbb:	3d a4             	  clr.b a10;
    6dbd:	a6 f9             	  cmp.w a15 a9;
    6dbf:	f4 0b 07          	  breq 0x6dc6;
    6dc2:	7e e9 42 00       	  call 0x42e9;
    6dc6:	fb 15 04          	  popma a1 0x1 0x4;

00006dc9 <_smbpbiPreInit>:
    6dc9:	d9 1c 06 00 00    	  mvi a9 0x61c;
    6dce:	f4 30 fc          	  addsp -0x4;
    6dd1:	f9 12             	  pushm a1;
    6dd3:	d1 2c 06 00 00    	  mvi a1 0x62c;
    6dd8:	bf 9a             	  ldd.w a10 a9;
    6dda:	bf 19             	  ldd.w a9 a1;
    6ddc:	fe 40 01          	  rspr a0 SP;
    6ddf:	db c8 2f 00 00    	  mvi a11 0x2fc8;
    6de4:	90 00 08          	  add.w a0 a0 0x8;
    6de7:	0c 01             	  mvi a12 0x1;
    6de9:	a0 09             	  std.w a0 a9;
    6deb:	7e f3 72 00       	  call 0x72f3;
    6def:	bf 0f             	  ldd.w a15 a0;
    6df1:	bf 19             	  ldd.w a9 a1;
    6df3:	a6 f9             	  cmp.w a15 a9;
    6df5:	f4 0b 07          	  breq 0x6dfc;
    6df8:	7e e9 42 00       	  call 0x42e9;
    6dfc:	fb 15 04          	  popma a1 0x1 0x4;

00006dff <_lwrtosFlcnSetTickIntrMask>:
    6dff:	7e 55 71 00       	  call 0x7155;
    6e03:	f8 00             	  ret;

00006e05 <_lwrtosQueueCreateOvlRes>:
    6e05:	3d d4             	  clr.b a13;
    6e07:	7e 61 73 00       	  call 0x7361;
    6e0b:	f8 00             	  ret;

00006e0d <_lwrtosTaskCreate>:
    6e0d:	f4 30 e4          	  addsp -0x1c;
    6e10:	f9 12             	  pushm a1;
    6e12:	b2 a1             	  mv.w a1 a10;
    6e14:	b2 b0             	  mv.w a0 a11;
    6e16:	b3 b0 00 61       	  cmpbreq.w a11 0x0 0x6e77;
    6e1a:	98 b9 04          	  ldd.w a9 a11 0x10;
    6e1d:	b0 96 07          	  cmp.w a9 0x7;
    6e20:	f4 0c 57          	  brgt 0x6e77;
    6e23:	3d a4             	  clr.b a10;
    6e25:	0b 44             	  mvi a11 0x44;
    6e27:	7e e5 40 00       	  call 0x40e5;
    6e2b:	b2 af             	  mv.w a15 a10;
    6e2d:	0a 05             	  mvi a10 0x5;
    6e2f:	b3 f0 00 4a       	  cmpbreq.w a15 0x0 0x6e79;
    6e33:	58 09 0a          	  ldd.h a9 a0 0x14;
    6e36:	fe 4a 01          	  rspr a10 SP;
    6e39:	90 aa 08          	  add.w a10 a10 0x8;
    6e3c:	b5 af 01          	  std.w a10 0x4 a15;
    6e3f:	98 0f 01          	  ldd.w a15 a0 0x4;
    6e42:	f0 93 00          	  sethi a9 0x0;
    6e45:	b6 94 02          	  lsl.w a9 0x2;
    6e48:	b5 a9 03          	  std.w a10 0xc a9;
    6e4b:	b5 af 02          	  std.w a10 0x8 a15;
    6e4e:	18 09 10          	  ldd.b a9 a0 0x10;
    6e51:	b2 1b             	  mv.w a11 a1;
    6e53:	35 a9 18          	  std.b a10 0x18 a9;
    6e56:	98 0f 02          	  ldd.w a15 a0 0x8;
    6e59:	b5 af 04          	  std.w a10 0x10 a15;
    6e5c:	98 09 03          	  ldd.w a9 a0 0xc;
    6e5f:	b5 a9 05          	  std.w a10 0x14 a9;
    6e62:	bf 00             	  ldd.w a0 a0;
    6e64:	a0 a0             	  std.w a10 a0;
    6e66:	7e d9 6f 00       	  call 0x6fd9;
    6e6a:	b0 a6 01          	  cmp.w a10 0x1;
    6e6d:	f0 9c 0b          	  sgetb a9 0xb;
    6e70:	12 9a 01          	  sub.b a10 a9 0x1;
    6e73:	3e 79 6e 00       	  jmp 0x6e79;
    6e77:	0a 02             	  mvi a10 0x2;
    6e79:	fb 15 1c          	  popma a1 0x1 0x1c;

00006e7c <_lwrtosTaskSchedulerStart>:
    6e7c:	7e b0 6e 00       	  call 0x6eb0;
    6e80:	3d 94             	  clr.b a9;
    6e82:	b0 a6 01          	  cmp.w a10 0x1;
    6e85:	f0 ac 0b          	  sgetb a10 0xb;
    6e88:	f0 a6 01          	  xor a10 0x1;
    6e8b:	3c 9a a2          	  sub.b a10 a9 a10;
    6e8e:	f8 00             	  ret;

00006e90 <_lwrtosTaskSchedulerInitialize>:
    6e90:	89 98 05 00       	  mvi a9 0x598;
    6e94:	bf 9e             	  ldd.w a14 a9;
    6e96:	98 9f 01          	  ldd.w a15 a9 0x4;
    6e99:	b5 9f 01          	  std.w a9 0x4 a15;
    6e9c:	a0 9e             	  std.w a9 a14;
    6e9e:	7e f4 6e 00       	  call 0x6ef4;
    6ea2:	b3 a4 01 08       	  cmpbrne.w a10 0x1 0x6eaa;
    6ea6:	3d a4             	  clr.b a10;
    6ea8:	f8 00             	  ret;
    6eaa:	f8 09             	  trap1;
    6eac:	0a ff             	  mvi a10 -0x1;
    6eae:	f8 00             	  ret;

00006eb0 <_xTaskStartScheduler>:
    6eb0:	f9 12             	  pushm a1;
    6eb2:	89 b4 0f 00       	  mvi a9 0xfb4;
    6eb6:	bf 99             	  ldd.w a9 a9;
    6eb8:	0a f2             	  mvi a10 -0xe;
    6eba:	b3 90 00 38       	  cmpbreq.w a9 0x0 0x6ef2;
    6ebe:	81 d0 0f 00       	  mvi a1 0xfd0;
    6ec2:	bf 10             	  ldd.w a0 a1;
    6ec4:	0a f1             	  mvi a10 -0xf;
    6ec6:	b3 04 00 2c       	  cmpbrne.w a0 0x0 0x6ef2;
    6eca:	7e 74 0a 00       	  call 0xa74;
    6ece:	09 01             	  mvi a9 0x1;
    6ed0:	a0 19             	  std.w a1 a9;
    6ed2:	89 c0 0f 00       	  mvi a9 0xfc0;
    6ed6:	a0 90             	  std.w a9 a0;
    6ed8:	89 a8 10 00       	  mvi a9 0x10a8;
    6edc:	0f ff             	  mvi a15 -0x1;
    6ede:	a0 9f             	  std.w a9 a15;
    6ee0:	89 b8 0f 00       	  mvi a9 0xfb8;
    6ee4:	a0 90             	  std.w a9 a0;
    6ee6:	89 bc 0f 00       	  mvi a9 0xfbc;
    6eea:	a0 9f             	  std.w a9 a15;
    6eec:	7e f1 3f 00       	  call 0x3ff1;
    6ef0:	a0 10             	  std.w a1 a0;
    6ef2:	fb 11             	  popm a1 0x1;

00006ef4 <_xTaskInitializeScheduler>:
    6ef4:	f9 12             	  pushm a1;
    6ef6:	89 b4 0f 00       	  mvi a9 0xfb4;
    6efa:	bd 04             	  clr.w a0;
    6efc:	bd b4             	  clr.w a11;
    6efe:	a0 90             	  std.w a9 a0;
    6f00:	4c a0 00          	  mvi a12 0xa0;
    6f03:	8a d4 0f 00       	  mvi a10 0xfd4;
    6f07:	7e 94 0b 00       	  call 0xb94;
    6f0b:	bd b4             	  clr.w a11;
    6f0d:	0c 14             	  mvi a12 0x14;
    6f0f:	8a b4 10 00       	  mvi a10 0x10b4;
    6f13:	7e 94 0b 00       	  call 0xb94;
    6f17:	bd b4             	  clr.w a11;
    6f19:	0c 14             	  mvi a12 0x14;
    6f1b:	8a c8 10 00       	  mvi a10 0x10c8;
    6f1f:	7e 94 0b 00       	  call 0xb94;
    6f23:	89 90 10 00       	  mvi a9 0x1090;
    6f27:	a0 90             	  std.w a9 a0;
    6f29:	89 8c 10 00       	  mvi a9 0x108c;
    6f2d:	bd b4             	  clr.w a11;
    6f2f:	a0 90             	  std.w a9 a0;
    6f31:	0c 14             	  mvi a12 0x14;
    6f33:	8a 78 10 00       	  mvi a10 0x1078;
    6f37:	7e 94 0b 00       	  call 0xb94;
    6f3b:	8a 94 10 00       	  mvi a10 0x1094;
    6f3f:	bd b4             	  clr.w a11;
    6f41:	0c 14             	  mvi a12 0x14;
    6f43:	7e 94 0b 00       	  call 0xb94;
    6f47:	89 b0 10 00       	  mvi a9 0x10b0;
    6f4b:	a0 90             	  std.w a9 a0;
    6f4d:	89 c0 0f 00       	  mvi a9 0xfc0;
    6f51:	a0 90             	  std.w a9 a0;
    6f53:	89 a8 10 00       	  mvi a9 0x10a8;
    6f57:	a0 90             	  std.w a9 a0;
    6f59:	89 74 10 00       	  mvi a9 0x1074;
    6f5d:	a0 90             	  std.w a9 a0;
    6f5f:	89 d0 0f 00       	  mvi a9 0xfd0;
    6f63:	a0 90             	  std.w a9 a0;
    6f65:	89 c4 0f 00       	  mvi a9 0xfc4;
    6f69:	a0 90             	  std.w a9 a0;
    6f6b:	89 ac 10 00       	  mvi a9 0x10ac;
    6f6f:	a0 90             	  std.w a9 a0;
    6f71:	89 cc 0f 00       	  mvi a9 0xfcc;
    6f75:	a0 90             	  std.w a9 a0;
    6f77:	89 c8 0f 00       	  mvi a9 0xfc8;
    6f7b:	a0 90             	  std.w a9 a0;
    6f7d:	89 b8 0f 00       	  mvi a9 0xfb8;
    6f81:	a0 90             	  std.w a9 a0;
    6f83:	81 74 10 00       	  mvi a1 0x1074;
    6f87:	89 bc 0f 00       	  mvi a9 0xfbc;
    6f8b:	a0 90             	  std.w a9 a0;
    6f8d:	80 d4 0f 00       	  mvi a0 0xfd4;
    6f91:	b2 0a             	  mv.w a10 a0;
    6f93:	90 00 14          	  add.w a0 a0 0x14;
    6f96:	7e d0 0b 00       	  call 0xbd0;
    6f9a:	a6 01             	  cmp.w a0 a1;
    6f9c:	f4 1b f5          	  brne 0x6f91;
    6f9f:	8a b4 10 00       	  mvi a10 0x10b4;
    6fa3:	7e d0 0b 00       	  call 0xbd0;
    6fa7:	8a c8 10 00       	  mvi a10 0x10c8;
    6fab:	7e d0 0b 00       	  call 0xbd0;
    6faf:	8a 78 10 00       	  mvi a10 0x1078;
    6fb3:	7e d0 0b 00       	  call 0xbd0;
    6fb7:	8a 94 10 00       	  mvi a10 0x1094;
    6fbb:	7e d0 0b 00       	  call 0xbd0;
    6fbf:	89 90 10 00       	  mvi a9 0x1090;
    6fc3:	8f b4 10 00       	  mvi a15 0x10b4;
    6fc7:	a0 9f             	  std.w a9 a15;
    6fc9:	89 8c 10 00       	  mvi a9 0x108c;
    6fcd:	8f c8 10 00       	  mvi a15 0x10c8;
    6fd1:	a0 9f             	  std.w a9 a15;
    6fd3:	7e 40 71 00       	  call 0x7140;
    6fd7:	fb 11             	  popm a1 0x1;

00006fd9 <_xTaskCreate>:
    6fd9:	f9 32             	  pushm a3;
    6fdb:	b2 a0             	  mv.w a0 a10;
    6fdd:	b2 b3             	  mv.w a3 a11;
    6fdf:	b3 a9 00 c7 00    	  cmpbreq.w a10 0x0 0x70a6;
    6fe4:	bf a9             	  ldd.w a9 a10;
    6fe6:	01 01             	  mvi a1 0x1;
    6fe8:	b3 94 00 06       	  cmpbrne.w a9 0x0 0x6fee;
    6fec:	01 f8             	  mvi a1 -0x8;
    6fee:	18 09 18          	  ldd.b a9 a0 0x18;
    6ff1:	30 96 07          	  cmp.b a9 0x7;
    6ff4:	f4 0d 05          	  brlte 0x6ff9;
    6ff7:	01 fe             	  mvi a1 -0x2;
    6ff9:	98 0f 02          	  ldd.w a15 a0 0x8;
    6ffc:	c4 f9 03          	  and a9 a15 0x3;
    6fff:	f4 0b 05          	  breq 0x7004;
    7002:	01 fb             	  mvi a1 -0x5;
    7004:	98 09 03          	  ldd.w a9 a0 0xc;
    7007:	f0 94 03          	  and a9 0x3;
    700a:	f4 0b 05          	  breq 0x700f;
    700d:	01 fb             	  mvi a1 -0x5;
    700f:	b3 f4 00 06       	  cmpbrne.w a15 0x0 0x7015;
    7013:	01 fa             	  mvi a1 -0x6;
    7015:	98 09 01          	  ldd.w a9 a0 0x4;
    7018:	b3 99 00 8e 00    	  cmpbreq.w a9 0x0 0x70a6;
    701d:	b3 1d 01 85 00    	  cmpbrne.w a1 0x1 0x70a2;
    7022:	b2 0a             	  mv.w a10 a0;
    7024:	7e ac 70 00       	  call 0x70ac;
    7028:	b2 a1             	  mv.w a1 a10;
    702a:	b3 a4 01 78       	  cmpbrne.w a10 0x1 0x70a2;
    702e:	b2 0a             	  mv.w a10 a0;
    7030:	98 02 01          	  ldd.w a2 a0 0x4;
    7033:	7e c7 70 00       	  call 0x70c7;
    7037:	7e 74 0a 00       	  call 0xa74;
    703b:	89 b0 10 00       	  mvi a9 0x10b0;
    703f:	bf 9f             	  ldd.w a15 a9;
    7041:	90 ff 01          	  add.w a15 a15 0x1;
    7044:	a0 9f             	  std.w a9 a15;
    7046:	bf 99             	  ldd.w a9 a9;
    7048:	b3 94 01 0e       	  cmpbrne.w a9 0x1 0x7056;
    704c:	89 b4 0f 00       	  mvi a9 0xfb4;
    7050:	a0 92             	  std.w a9 a2;
    7052:	3e 73 70 00       	  jmp 0x7073;
    7056:	89 d0 0f 00       	  mvi a9 0xfd0;
    705a:	bf 99             	  ldd.w a9 a9;
    705c:	b3 94 00 17       	  cmpbrne.w a9 0x0 0x7073;
    7060:	8e b4 0f 00       	  mvi a14 0xfb4;
    7064:	bf e9             	  ldd.w a9 a14;
    7066:	18 0f 18          	  ldd.b a15 a0 0x18;
    7069:	18 99 41          	  ldd.b a9 a9 0x41;
    706c:	26 9f             	  cmp.b a9 a15;
    706e:	f4 0c 05          	  brgt 0x7073;
    7071:	a0 e2             	  std.w a14 a2;
    7073:	b2 2a             	  mv.w a10 a2;
    7075:	7e c7 05 00       	  call 0x5c7;
    7079:	b3 30 00 06       	  cmpbreq.w a3 0x0 0x707f;
    707d:	a0 32             	  std.w a3 a2;
    707f:	7e 9b 0a 00       	  call 0xa9b;
    7083:	89 d0 0f 00       	  mvi a9 0xfd0;
    7087:	bf 99             	  ldd.w a9 a9;
    7089:	b3 90 00 19       	  cmpbreq.w a9 0x0 0x70a2;
    708d:	89 b4 0f 00       	  mvi a9 0xfb4;
    7091:	bf 99             	  ldd.w a9 a9;
    7093:	18 0f 18          	  ldd.b a15 a0 0x18;
    7096:	18 99 41          	  ldd.b a9 a9 0x41;
    7099:	26 9f             	  cmp.b a9 a15;
    709b:	f4 18 07          	  brnc 0x70a2;
    709e:	7e 0e 00 00       	  call 0xe;
    70a2:	b2 1a             	  mv.w a10 a1;
    70a4:	fb 31             	  popm a3 0x1;
    70a6:	01 fa             	  mvi a1 -0x6;
    70a8:	3e a2 70 00       	  jmp 0x70a2;

000070ac <_xPortCheckTaskParameters>:
    70ac:	98 a9 05          	  ldd.w a9 a10 0x14;
    70af:	b2 af             	  mv.w a15 a10;
    70b1:	0a fa             	  mvi a10 -0x6;
    70b3:	b3 90 00 12       	  cmpbreq.w a9 0x0 0x70c5;
    70b7:	98 f9 03          	  ldd.w a9 a15 0xc;
    70ba:	0a e8             	  mvi a10 -0x18;
    70bc:	b1 96 ff 00       	  cmp.w a9 0xff;
    70c0:	f4 0d 05          	  brlte 0x70c5;
    70c3:	0a 01             	  mvi a10 0x1;
    70c5:	f8 00             	  ret;

000070c7 <_vPortInitialiseTask>:
    70c7:	f9 12             	  pushm a1;
    70c9:	b2 a1             	  mv.w a1 a10;
    70cb:	98 ac 03          	  ldd.w a12 a10 0xc;
    70ce:	98 aa 02          	  ldd.w a10 a10 0x8;
    70d1:	98 10 01          	  ldd.w a0 a1 0x4;
    70d4:	db a5 a5 a5 a5    	  mvi a11 -0x5a5a5a5b;
    70d9:	7e 94 0b 00       	  call 0xb94;
    70dd:	98 19 03          	  ldd.w a9 a1 0xc;
    70e0:	98 1a 02          	  ldd.w a10 a1 0x8;
    70e3:	bc a9 a0          	  add.w a10 a10 a9;
    70e6:	a0 0a             	  std.w a0 a10;
    70e8:	bf 1b             	  ldd.w a11 a1;
    70ea:	98 1c 04          	  ldd.w a12 a1 0x10;
    70ed:	7e d3 3f 00       	  call 0x3fd3;
    70f1:	a0 0a             	  std.w a0 a10;
    70f3:	b9 aa 00          	  cpl.w a10 a10;
    70f6:	b5 0a 03          	  std.w a0 0xc a10;
    70f9:	98 19 05          	  ldd.w a9 a1 0x14;
    70fc:	90 0a 10          	  add.w a10 a0 0x10;
    70ff:	b5 09 01          	  std.w a0 0x4 a9;
    7102:	18 19 18          	  ldd.b a9 a1 0x18;
    7105:	35 09 41          	  std.b a0 0x41 a9;
    7108:	98 19 02          	  ldd.w a9 a1 0x8;
    710b:	b5 09 02          	  std.w a0 0x8 a9;
    710e:	bf 19             	  ldd.w a9 a1;
    7110:	b5 09 0e          	  std.w a0 0x38 a9;
    7113:	18 19 18          	  ldd.b a9 a1 0x18;
    7116:	35 09 40          	  std.b a0 0x40 a9;
    7119:	98 19 03          	  ldd.w a9 a1 0xc;
    711c:	b5 09 0f          	  std.w a0 0x3c a9;
    711f:	7e e7 0b 00       	  call 0xbe7;
    7123:	90 0a 24          	  add.w a10 a0 0x24;
    7126:	7e e7 0b 00       	  call 0xbe7;
    712a:	b5 00 07          	  std.w a0 0x1c a0;
    712d:	18 1f 18          	  ldd.b a15 a1 0x18;
    7130:	09 08             	  mvi a9 0x8;
    7132:	b5 00 0c          	  std.w a0 0x30 a0;
    7135:	f0 f4 ff          	  and a15 0xff;
    7138:	bb 9f 02          	  sub.w a9 a15;
    713b:	b5 09 09          	  std.w a0 0x24 a9;
    713e:	fb 11             	  popm a1 0x1;

00007140 <_xPortInitialize>:
    7140:	89 a4 16 00       	  mvi a9 0x16a4;
    7144:	fe 93 00          	  wspr EV a9;
    7147:	8a ad 05 00       	  mvi a10 0x5ad;
    714b:	3d b4             	  clr.b a11;
    714d:	7e a2 72 00       	  call 0x72a2;
    7151:	0a 01             	  mvi a10 0x1;
    7153:	f8 00             	  ret;

00007155 <_vPortFlcnSetTickIntrMask>:
    7155:	89 dc 10 00       	  mvi a9 0x10dc;
    7159:	a0 9a             	  std.w a9 a10;
    715b:	f8 00             	  ret;

0000715d <_uxPortFlcnGetTickIntrMask>:
    715d:	89 dc 10 00       	  mvi a9 0x10dc;
    7161:	bf 9a             	  ldd.w a10 a9;
    7163:	f8 00             	  ret;

00007165 <_osCmdmgmtPreInit_IMPL>:
    7165:	8a d8 2f 00       	  mvi a10 0x2fd8;
    7169:	3d b4             	  clr.b a11;
    716b:	7e 4d 73 00       	  call 0x734d;
    716f:	33 a0 00 08       	  cmpbreq.b a10 0x0 0x7177;
    7173:	f8 09             	  trap1;
    7175:	f8 00             	  ret;
    7177:	8a e4 10 00       	  mvi a10 0x10e4;
    717b:	3d b4             	  clr.b a11;
    717d:	7e 57 73 00       	  call 0x7357;
    7181:	33 a0 00 06       	  cmpbreq.b a10 0x0 0x7187;
    7185:	f8 09             	  trap1;
    7187:	f8 00             	  ret;

00007189 <_osDebugStackPreFill>:
    7189:	f0 b3 00          	  sethi a11 0x0;
    718c:	bd 94             	  clr.w a9;
    718e:	df a5 a5 a5 a5    	  mvi a15 -0x5a5a5a5b;
    7193:	3e 9f 71 00       	  jmp 0x719f;
    7197:	a0 af             	  std.w a10 a15;
    7199:	90 99 01          	  add.w a9 a9 0x1;
    719c:	90 aa 04          	  add.w a10 a10 0x4;
    719f:	a6 9b             	  cmp.w a9 a11;
    71a1:	f4 08 f6          	  brc 0x7197;
    71a4:	f8 00             	  ret;

000071a6 <_osDebugISRStackInit>:
    71a6:	89 50 34 00       	  mvi a9 0x3450;
    71aa:	8f 00 11 00       	  mvi a15 0x1100;
    71ae:	b2 9a             	  mv.w a10 a9;
    71b0:	b5 f9 01          	  std.w a15 0x4 a9;
    71b3:	8b 50 36 00       	  mvi a11 0x3650;
    71b7:	bb b9 02          	  sub.w a11 a9;
    71ba:	b6 b5 02          	  lsr.w a11 0x2;
    71bd:	75 fb 04          	  std.h a15 0x8 a11;
    71c0:	7e 89 71 00       	  call 0x7189;
    71c4:	f8 00             	  ret;

000071c6 <_lwosInit_IMPL>:
    71c6:	7e 90 6e 00       	  call 0x6e90;
    71ca:	33 a4 00 0c       	  cmpbrne.b a10 0x0 0x71d6;
    71ce:	7e a6 71 00       	  call 0x71a6;
    71d2:	7e ef 72 00       	  call 0x72ef;
    71d6:	f8 00             	  ret;

000071d8 <_lwosTaskCreate_IMPL>:
    71d8:	f4 30 e4          	  addsp -0x1c;
    71db:	f9 62             	  pushm a6;
    71dd:	b2 c4             	  mv.w a4 a12;
    71df:	b2 a5             	  mv.w a5 a10;
    71e1:	b2 b0             	  mv.w a0 a11;
    71e3:	32 d3             	  mv.b a3 a13;
    71e5:	72 e2             	  mv.h a2 a14;
    71e7:	34 c0 44          	  lddsp.b a12 0x44;
    71ea:	34 60 54          	  lddsp.b a6 0x54;
    71ed:	b3 a9 00 ae 00    	  cmpbreq.w a10 0x0 0x729b;
    71f2:	b3 b9 00 a9 00    	  cmpbreq.w a11 0x0 0x729b;
    71f7:	89 00 11 00       	  mvi a9 0x1100;
    71fb:	bf 9f             	  ldd.w a15 a9;
    71fd:	14 ce 06          	  lsl.b a14 a12 0x6;
    7200:	e4 2a ff ff       	  and a10 a2 0xffff;
    7204:	01 05             	  mvi a1 0x5;
    7206:	a0 bf             	  std.w a11 a15;
    7208:	34 f0 48          	  lddsp.b a15 0x48;
    720b:	a0 9b             	  std.w a9 a11;
    720d:	c4 c9 03          	  and a9 a12 0x3;
    7210:	36 94 02          	  lsl.b a9 0x2;
    7213:	f0 f4 03          	  and a15 0x3;
    7216:	14 fd 04          	  lsl.b a13 a15 0x4;
    7219:	fd 9f 05          	  or a9 a15;
    721c:	fd 9e 05          	  or a9 a14;
    721f:	fd 9d 05          	  or a9 a13;
    7222:	b6 a4 02          	  lsl.w a10 0x2;
    7225:	35 b9 1b          	  std.b a11 0x1b a9;
    7228:	7e ed 40 00       	  call 0x40ed;
    722c:	b3 a0 00 71       	  cmpbreq.w a10 0x0 0x729d;
    7230:	34 90 4c          	  lddsp.b a9 0x4c;
    7233:	35 09 1d          	  std.b a0 0x1d a9;
    7236:	34 f0 64          	  lddsp.b a15 0x64;
    7239:	b5 0a 01          	  std.w a0 0x4 a10;
    723c:	75 02 0a          	  std.h a0 0x14 a2;
    723f:	35 03 18          	  std.b a0 0x18 a3;
    7242:	35 0f 1a          	  std.b a0 0x1a a15;
    7245:	b4 f0 10          	  lddsp.w a15 0x40;
    7248:	fe 49 01          	  rspr a9 SP;
    724b:	90 99 1c          	  add.w a9 a9 0x1c;
    724e:	b5 9a 01          	  std.w a9 0x4 a10;
    7251:	b5 90 03          	  std.w a9 0xc a0;
    7254:	b5 9f 04          	  std.w a9 0x10 a15;
    7257:	a0 94             	  std.w a9 a4;
    7259:	75 92 0a          	  std.h a9 0x14 a2;
    725c:	35 93 16          	  std.b a9 0x16 a3;
    725f:	3d f4             	  clr.b a15;
    7261:	35 0f 1e          	  std.b a0 0x1e a15;
    7264:	bd f4             	  clr.w a15;
    7266:	b2 9b             	  mv.w a11 a9;
    7268:	b5 9f 02          	  std.w a9 0x8 a15;
    726b:	fe 40 01          	  rspr a0 SP;
    726e:	90 00 34          	  add.w a0 a0 0x34;
    7271:	b2 0a             	  mv.w a10 a0;
    7273:	7e 0d 6e 00       	  call 0x6e0d;
    7277:	32 a1             	  mv.b a1 a10;
    7279:	33 a4 00 24       	  cmpbrne.b a10 0x0 0x729d;
    727d:	33 60 00 10       	  cmpbreq.b a6 0x0 0x728d;
    7281:	bf 0a             	  ldd.w a10 a0;
    7283:	32 6b             	  mv.b a11 a6;
    7285:	3d c4             	  clr.b a12;
    7287:	3d d4             	  clr.b a13;
    7289:	7e cc 11 00       	  call 0x11cc;
    728d:	fe 49 01          	  rspr a9 SP;
    7290:	90 99 34          	  add.w a9 a9 0x34;
    7293:	bf 99             	  ldd.w a9 a9;
    7295:	a0 59             	  std.w a5 a9;
    7297:	3e 9d 72 00       	  jmp 0x729d;
    729b:	01 02             	  mvi a1 0x2;
    729d:	32 1a             	  mv.b a10 a1;
    729f:	fb 65 1c          	  popma a6 0x1 0x1c;

000072a2 <_vApplicationIdleTaskCreate>:
    72a2:	f9 12             	  pushm a1;
    72a4:	b2 b0             	  mv.w a0 a11;
    72a6:	f4 30 d4          	  addsp -0x2c;
    72a9:	b2 a1             	  mv.w a1 a10;
    72ab:	7e f4 5b 00       	  call 0x5bf4;
    72af:	3d 94             	  clr.b a9;
    72b1:	72 ae             	  mv.h a14 a10;
    72b3:	b0 01 01          	  stdsp.w a0 0x4;
    72b6:	b2 1c             	  mv.w a12 a1;
    72b8:	30 91 28          	  stdsp.b a9 0x28;
    72bb:	30 91 00          	  stdsp.b a9 0x0;
    72be:	30 91 08          	  stdsp.b a9 0x8;
    72c1:	30 91 0c          	  stdsp.b a9 0xc;
    72c4:	30 91 10          	  stdsp.b a9 0x10;
    72c7:	30 91 14          	  stdsp.b a9 0x14;
    72ca:	30 91 18          	  stdsp.b a9 0x18;
    72cd:	30 91 1c          	  stdsp.b a9 0x1c;
    72d0:	30 91 20          	  stdsp.b a9 0x20;
    72d3:	30 91 24          	  stdsp.b a9 0x24;
    72d6:	8a dc 2f 00       	  mvi a10 0x2fdc;
    72da:	8b ac 01 00       	  mvi a11 0x1ac;
    72de:	3d d4             	  clr.b a13;
    72e0:	7e d8 71 00       	  call 0x71d8;
    72e4:	33 a0 00 06       	  cmpbreq.b a10 0x0 0x72ea;
    72e8:	f8 02             	  halt;
    72ea:	f4 30 2c          	  addsp 0x2c;
    72ed:	fb 11             	  popm a1 0x1;

000072ef <_lwosInitOvl>:
    72ef:	3d a4             	  clr.b a10;
    72f1:	f8 00             	  ret;

000072f3 <_osTimerInitTracked>:
    72f3:	f9 02             	  pushm a0;
    72f5:	b2 b0             	  mv.w a0 a11;
    72f7:	30 c6 20          	  cmp.b a12 0x20;
    72fa:	f4 0d 05          	  brlte 0x72ff;
    72fd:	f8 02             	  halt;
    72ff:	c4 ca ff          	  and a10 a12 0xff;
    7302:	94 a9 04          	  lsl.w a9 a10 0x4;
    7305:	b6 a4 02          	  lsl.w a10 0x2;
    7308:	bc a9 a0          	  add.w a10 a10 a9;
    730b:	bd 94             	  clr.w a9;
    730d:	20 0c             	  std.b a0 a12;
    730f:	b5 09 01          	  std.w a0 0x4 a9;
    7312:	7e ed 40 00       	  call 0x40ed;
    7316:	b5 0a 02          	  std.w a0 0x8 a10;
    7319:	fb 01             	  popm a0 0x1;

0000731b <_s_lwrtosSemaphoreCreate>:
    731b:	f9 22             	  pushm a2;
    731d:	b2 c1             	  mv.w a1 a12;
    731f:	b2 a2             	  mv.w a2 a10;
    7321:	b2 d0             	  mv.w a0 a13;
    7323:	32 ba             	  mv.b a10 a11;
    7325:	0b 54             	  mvi a11 0x54;
    7327:	7e e5 40 00       	  call 0x40e5;
    732b:	b2 ac             	  mv.w a12 a10;
    732d:	0a 05             	  mvi a10 0x5;
    732f:	b3 c0 00 1c       	  cmpbreq.w a12 0x0 0x734b;
    7333:	b2 1a             	  mv.w a10 a1;
    7335:	b2 0b             	  mv.w a11 a0;
    7337:	b2 2d             	  mv.w a13 a2;
    7339:	7e 9a 74 00       	  call 0x749a;
    733d:	b3 a4 01 0a       	  cmpbrne.w a10 0x1 0x7347;
    7341:	3d a4             	  clr.b a10;
    7343:	3e 4b 73 00       	  jmp 0x734b;
    7347:	f8 02             	  halt;
    7349:	0a ff             	  mvi a10 -0x1;
    734b:	fb 21             	  popm a2 0x1;

0000734d <_lwrtosSemaphoreCreateBinaryGiven>:
    734d:	0c 01             	  mvi a12 0x1;
    734f:	b2 cd             	  mv.w a13 a12;
    7351:	7e 1b 73 00       	  call 0x731b;
    7355:	f8 00             	  ret;

00007357 <_lwrtosSemaphoreCreateBinaryTaken>:
    7357:	0c 01             	  mvi a12 0x1;
    7359:	bd d4             	  clr.w a13;
    735b:	7e 1b 73 00       	  call 0x731b;
    735f:	f8 00             	  ret;

00007361 <_lwrtosQueueCreate>:
    7361:	f9 42             	  pushm a4;
    7363:	32 d0             	  mv.b a0 a13;
    7365:	b2 c2             	  mv.w a2 a12;
    7367:	b2 b3             	  mv.w a3 a11;
    7369:	b2 a4             	  mv.w a4 a10;
    736b:	b2 ca             	  mv.w a10 a12;
    736d:	7e fc 16 00       	  call 0x16fc;
    7371:	90 a1 54          	  add.w a1 a10 0x54;
    7374:	32 0a             	  mv.b a10 a0;
    7376:	b2 1b             	  mv.w a11 a1;
    7378:	7e e5 40 00       	  call 0x40e5;
    737c:	0f 05             	  mvi a15 0x5;
    737e:	b3 a0 00 1e       	  cmpbreq.w a10 0x0 0x739c;
    7382:	b2 1b             	  mv.w a11 a1;
    7384:	b2 3c             	  mv.w a12 a3;
    7386:	b2 2d             	  mv.w a13 a2;
    7388:	b2 4e             	  mv.w a14 a4;
    738a:	7e a5 73 00       	  call 0x73a5;
    738e:	b3 a4 01 0a       	  cmpbrne.w a10 0x1 0x7398;
    7392:	3d f4             	  clr.b a15;
    7394:	3e 9c 73 00       	  jmp 0x739c;
    7398:	f8 02             	  halt;
    739a:	0f ff             	  mvi a15 -0x1;
    739c:	32 fa             	  mv.b a10 a15;
    739e:	fb 41             	  popm a4 0x1;

000073a0 <_vQueueSetSemaphoreInitialCount>:
    73a0:	b5 ab 0e          	  std.w a10 0x38 a11;
    73a3:	f8 00             	  ret;

000073a5 <_xQueueCreate>:
    73a5:	f4 30 fc          	  addsp -0x4;
    73a8:	f9 52             	  pushm a5;
    73aa:	bd 94             	  clr.w a9;
    73ac:	fe 4f 01          	  rspr a15 SP;
    73af:	90 ff 18          	  add.w a15 a15 0x18;
    73b2:	a0 f9             	  std.w a15 a9;
    73b4:	b2 a2             	  mv.w a2 a10;
    73b6:	b2 b5             	  mv.w a5 a11;
    73b8:	b2 c3             	  mv.w a3 a12;
    73ba:	b2 d4             	  mv.w a4 a13;
    73bc:	b2 e0             	  mv.w a0 a14;
    73be:	c4 a9 03          	  and a9 a10 0x3;
    73c1:	01 fb             	  mvi a1 -0x5;
    73c3:	f4 1b 05          	  brne 0x73c8;
    73c6:	01 01             	  mvi a1 0x1;
    73c8:	b3 34 00 06       	  cmpbrne.w a3 0x0 0x73ce;
    73cc:	01 f9             	  mvi a1 -0x7;
    73ce:	fe 4e 01          	  rspr a14 SP;
    73d1:	bd f4             	  clr.w a15;
    73d3:	90 ee 18          	  add.w a14 a14 0x18;
    73d6:	3e e4 73 00       	  jmp 0x73e4;
    73da:	bf e9             	  ldd.w a9 a14;
    73dc:	90 ff 01          	  add.w a15 a15 0x1;
    73df:	bc 49 90          	  add.w a9 a4 a9;
    73e2:	a0 e9             	  std.w a14 a9;
    73e4:	a6 f3             	  cmp.w a15 a3;
    73e6:	f4 08 f4          	  brc 0x73da;
    73e9:	bf e9             	  ldd.w a9 a14;
    73eb:	90 99 54          	  add.w a9 a9 0x54;
    73ee:	a6 59             	  cmp.w a5 a9;
    73f0:	f4 0b 05          	  breq 0x73f5;
    73f3:	01 e8             	  mvi a1 -0x18;
    73f5:	b3 29 00 9e 00    	  cmpbreq.w a2 0x0 0x7493;
    73fa:	b3 09 00 99 00    	  cmpbreq.w a0 0x0 0x7493;
    73ff:	b3 1d 01 96 00    	  cmpbrne.w a1 0x1 0x7495;
    7404:	a0 02             	  std.w a0 a2;
    7406:	7e 74 0a 00       	  call 0xa74;
    740a:	bf 0e             	  ldd.w a14 a0;
    740c:	98 e9 14          	  ldd.w a9 a14 0x50;
    740f:	bf ef             	  ldd.w a15 a14;
    7411:	b9 99 00          	  cpl.w a9 a9;
    7414:	a6 f9             	  cmp.w a15 a9;
    7416:	f4 1b 09          	  brne 0x741f;
    7419:	01 d1             	  mvi a1 -0x2f;
    741b:	3e 8b 74 00       	  jmp 0x748b;
    741f:	90 29 54          	  add.w a9 a2 0x54;
    7422:	a0 e9             	  std.w a14 a9;
    7424:	bf 0e             	  ldd.w a14 a0;
    7426:	92 5f 54          	  sub.w a15 a5 0x54;
    7429:	bc f4 d2          	  sub.w a13 a15 a4;
    742c:	0c ff             	  mvi a12 -0x1;
    742e:	bf e9             	  ldd.w a9 a14;
    7430:	8b b0 0f 00       	  mvi a11 0xfb0;
    7434:	bc 9f 90          	  add.w a9 a9 a15;
    7437:	b5 e9 01          	  std.w a14 0x4 a9;
    743a:	bf 0f             	  ldd.w a15 a0;
    743c:	bd 94             	  clr.w a9;
    743e:	b5 f9 0e          	  std.w a15 0x38 a9;
    7441:	bf 09             	  ldd.w a9 a0;
    7443:	bf 9f             	  ldd.w a15 a9;
    7445:	b5 9f 02          	  std.w a9 0x8 a15;
    7448:	bf 0f             	  ldd.w a15 a0;
    744a:	bf f9             	  ldd.w a9 a15;
    744c:	bc 9d 90          	  add.w a9 a9 a13;
    744f:	b5 f9 03          	  std.w a15 0xc a9;
    7452:	bf 09             	  ldd.w a9 a0;
    7454:	b5 93 0f          	  std.w a9 0x3c a3;
    7457:	bf 09             	  ldd.w a9 a0;
    7459:	b5 94 10          	  std.w a9 0x40 a4;
    745c:	bf 09             	  ldd.w a9 a0;
    745e:	b5 9c 11          	  std.w a9 0x44 a12;
    7461:	bf 09             	  ldd.w a9 a0;
    7463:	b5 9c 12          	  std.w a9 0x48 a12;
    7466:	bf 09             	  ldd.w a9 a0;
    7468:	bf bf             	  ldd.w a15 a11;
    746a:	b5 9f 13          	  std.w a9 0x4c a15;
    746d:	bf 0a             	  ldd.w a10 a0;
    746f:	a0 ba             	  std.w a11 a10;
    7471:	90 aa 10          	  add.w a10 a10 0x10;
    7474:	7e d0 0b 00       	  call 0xbd0;
    7478:	bf 0a             	  ldd.w a10 a0;
    747a:	90 aa 24          	  add.w a10 a10 0x24;
    747d:	7e d0 0b 00       	  call 0xbd0;
    7481:	bf 0f             	  ldd.w a15 a0;
    7483:	bf f9             	  ldd.w a9 a15;
    7485:	b9 99 00          	  cpl.w a9 a9;
    7488:	b5 f9 14          	  std.w a15 0x50 a9;
    748b:	7e 9b 0a 00       	  call 0xa9b;
    748f:	3e 95 74 00       	  jmp 0x7495;
    7493:	01 fa             	  mvi a1 -0x6;
    7495:	b2 1a             	  mv.w a10 a1;
    7497:	fb 55 04          	  popma a5 0x1 0x4;

0000749a <_xSemaphoreCreateCounting>:
    749a:	f9 42             	  pushm a4;
    749c:	b2 a1             	  mv.w a1 a10;
    749e:	b2 b4             	  mv.w a4 a11;
    74a0:	b2 c2             	  mv.w a2 a12;
    74a2:	b2 d3             	  mv.w a3 a13;
    74a4:	00 de             	  mvi a0 -0x22;
    74a6:	a6 ba             	  cmp.w a11 a10;
    74a8:	f4 0c 27          	  brgt 0x74cf;
    74ab:	7e 74 0a 00       	  call 0xa74;
    74af:	b2 2a             	  mv.w a10 a2;
    74b1:	b2 1c             	  mv.w a12 a1;
    74b3:	0b 54             	  mvi a11 0x54;
    74b5:	bd d4             	  clr.w a13;
    74b7:	b2 3e             	  mv.w a14 a3;
    74b9:	7e a5 73 00       	  call 0x73a5;
    74bd:	b2 a0             	  mv.w a0 a10;
    74bf:	b3 a4 01 0c       	  cmpbrne.w a10 0x1 0x74cb;
    74c3:	bf 3a             	  ldd.w a10 a3;
    74c5:	b2 4b             	  mv.w a11 a4;
    74c7:	7e a0 73 00       	  call 0x73a0;
    74cb:	7e 9b 0a 00       	  call 0xa9b;
    74cf:	b2 0a             	  mv.w a10 a0;
    74d1:	fb 41             	  popm a4 0x1;

Disassembly of section .imem_cmdmgmt:

000074d3 <_icCmdQueueIntrUnmask_LR10>:
    74d3:	df 2c 06 00 00    	  mvi a15 0x62c;
    74d8:	bf ff             	  ldd.w a15 a15;
    74da:	f4 30 fc          	  addsp -0x4;
    74dd:	fe 49 01          	  rspr a9 SP;
    74e0:	a0 9f             	  std.w a9 a15;
    74e2:	8f 00 89 02       	  mvi a15 0x28900;
    74e6:	ce f9 00          	  ldxb a9 a15 0x0;
    74e9:	f0 95 01          	  or a9 0x1;
    74ec:	f7 f9 00          	  stxb a15 0x0 a9;
    74ef:	fe 49 01          	  rspr a9 SP;
    74f2:	bf 9f             	  ldd.w a15 a9;
    74f4:	d9 2c 06 00 00    	  mvi a9 0x62c;
    74f9:	bf 99             	  ldd.w a9 a9;
    74fb:	a6 f9             	  cmp.w a15 a9;
    74fd:	f4 0b 07          	  breq 0x7504;
    7500:	7e e9 42 00       	  call 0x42e9;
    7504:	f4 30 04          	  addsp 0x4;
    7507:	f8 00             	  ret;

00007509 <_icCmdQueueIntrClear_LR10>:
    7509:	df 2c 06 00 00    	  mvi a15 0x62c;
    750e:	bf ff             	  ldd.w a15 a15;
    7510:	f4 30 fc          	  addsp -0x4;
    7513:	fe 49 01          	  rspr a9 SP;
    7516:	a0 9f             	  std.w a9 a15;
    7518:	0f 01             	  mvi a15 0x1;
    751a:	89 00 80 02       	  mvi a9 0x28000;
    751e:	f6 9f 00          	  stx a9 0x0 a15;
    7521:	fe 49 01          	  rspr a9 SP;
    7524:	bf 9f             	  ldd.w a15 a9;
    7526:	d9 2c 06 00 00    	  mvi a9 0x62c;
    752b:	bf 99             	  ldd.w a9 a9;
    752d:	a6 f9             	  cmp.w a15 a9;
    752f:	f4 0b 07          	  breq 0x7536;
    7532:	7e e9 42 00       	  call 0x42e9;
    7536:	f4 30 04          	  addsp 0x4;
    7539:	f8 00             	  ret;

0000753b <_soeWriteCmdQueueHead_LR10>:
    753b:	df 2c 06 00 00    	  mvi a15 0x62c;
    7540:	bf ff             	  ldd.w a15 a15;
    7542:	f4 30 fc          	  addsp -0x4;
    7545:	b8 aa 80 01 00    	  add.w a10 a10 0x180;
    754a:	fe 49 01          	  rspr a9 SP;
    754d:	b6 a4 09          	  lsl.w a10 0x9;
    7550:	a0 9f             	  std.w a9 a15;
    7552:	f6 ab 00          	  stx a10 0x0 a11;
    7555:	fe 49 01          	  rspr a9 SP;
    7558:	bf 9f             	  ldd.w a15 a9;
    755a:	d9 2c 06 00 00    	  mvi a9 0x62c;
    755f:	bf 99             	  ldd.w a9 a9;
    7561:	a6 f9             	  cmp.w a15 a9;
    7563:	f4 0b 07          	  breq 0x756a;
    7566:	7e e9 42 00       	  call 0x42e9;
    756a:	f4 30 04          	  addsp 0x4;
    756d:	f8 00             	  ret;

0000756f <_soeQueueRmInit_LR10>:
    756f:	df 2c 06 00 00    	  mvi a15 0x62c;
    7574:	bf ff             	  ldd.w a15 a15;
    7576:	f4 30 fc          	  addsp -0x4;
    7579:	fe 49 01          	  rspr a9 SP;
    757c:	a0 9f             	  std.w a9 a15;
    757e:	89 00 21 03       	  mvi a9 0x32100;
    7582:	f6 9a 00          	  stx a9 0x0 a10;
    7585:	b8 99 00 01 02    	  sub.w a9 a9 0x100;
    758a:	f6 9a 00          	  stx a9 0x0 a10;
    758d:	fe 49 01          	  rspr a9 SP;
    7590:	bf 9f             	  ldd.w a15 a9;
    7592:	d9 2c 06 00 00    	  mvi a9 0x62c;
    7597:	bf 99             	  ldd.w a9 a9;
    7599:	a6 f9             	  cmp.w a15 a9;
    759b:	f4 0b 07          	  breq 0x75a2;
    759e:	7e e9 42 00       	  call 0x42e9;
    75a2:	f4 30 04          	  addsp 0x4;
    75a5:	f8 00             	  ret;

000075a7 <_processCommand>:
    75a7:	f4 30 f0          	  addsp -0x10;
    75aa:	df 2c 06 00 00    	  mvi a15 0x62c;
    75af:	f9 82             	  pushm a8;
    75b1:	bf ff             	  ldd.w a15 a15;
    75b3:	fe 49 01          	  rspr a9 SP;
    75b6:	90 99 30          	  add.w a9 a9 0x30;
    75b9:	32 a1             	  mv.b a1 a10;
    75bb:	a0 9f             	  std.w a9 a15;
    75bd:	7e 09 75 00       	  call 0x7509;
    75c1:	c4 1a ff          	  and a10 a1 0xff;
    75c4:	fe 43 01          	  rspr a3 SP;
    75c7:	7e 41 1d 00       	  call 0x1d41;
    75cb:	fe 42 01          	  rspr a2 SP;
    75ce:	c4 16 ff          	  and a6 a1 0xff;
    75d1:	b2 a5             	  mv.w a5 a10;
    75d3:	d4 ac 0f 00 00    	  mvi a4 0xfac;
    75d8:	90 33 24          	  add.w a3 a3 0x24;
    75db:	90 22 2c          	  add.w a2 a2 0x2c;
    75de:	d8 00 14 00 00    	  mvi a8 0x1400;
    75e3:	d7 c0 2f 00 00    	  mvi a7 0x2fc0;
    75e8:	3e 06 77 00       	  jmp 0x7706;
    75ec:	3f 09             	  ldd.b a9 a0;
    75ee:	33 94 00 1e       	  cmpbrne.b a9 0x0 0x760c;
    75f2:	bc 7e 98          	  ldd.w a9 a7 a14;
    75f5:	b2 6a             	  mv.w a10 a6;
    75f7:	bc 49 e9          	  std.w a4 a14 a9;
    75fa:	7e 41 1d 00       	  call 0x1d41;
    75fe:	32 1b             	  mv.b a11 a1;
    7600:	b2 a5             	  mv.w a5 a10;
    7602:	b2 0a             	  mv.w a10 a0;
    7604:	7e 81 0f 00       	  call 0xf81;
    7608:	3e 06 77 00       	  jmp 0x7706;
    760c:	18 09 01          	  ldd.b a9 a0 0x1;
    760f:	0f 01             	  mvi a15 0x1;
    7611:	20 3f             	  std.b a3 a15;
    7613:	0f fc             	  mvi a15 -0x4;
    7615:	35 31 01          	  std.b a3 0x1 a1;
    7618:	b5 30 01          	  std.w a3 0x4 a0;
    761b:	f0 94 ff          	  and a9 0xff;
    761e:	90 99 03          	  add.w a9 a9 0x3;
    7621:	fd 9f 04          	  and a9 a15;
    7624:	bc 09 90          	  add.w a9 a0 a9;
    7627:	bc 49 e9          	  std.w a4 a14 a9;
    762a:	3f 0f             	  ldd.b a15 a0;
    762c:	33 f0 07 73       	  cmpbreq.b a15 0x7 0x769f;
    7630:	30 f6 07          	  cmp.b a15 0x7;
    7633:	f4 0c 15          	  brgt 0x7648;
    7636:	33 f9 04 91 00    	  cmpbreq.b a15 0x4 0x76c7;
    763b:	33 f0 05 55       	  cmpbreq.b a15 0x5 0x7690;
    763f:	33 fd 02 c7 00    	  cmpbrne.b a15 0x2 0x7706;
    7644:	3e 68 76 00       	  jmp 0x7668;
    7648:	33 f0 0a 60       	  cmpbreq.b a15 0xa 0x76a8;
    764c:	30 f6 0a          	  cmp.b a15 0xa;
    764f:	f4 0c 0c          	  brgt 0x765b;
    7652:	33 fd 09 b4 00    	  cmpbrne.b a15 0x9 0x7706;
    7657:	3e 96 76 00       	  jmp 0x7696;
    765b:	33 f0 0b 56       	  cmpbreq.b a15 0xb 0x76b1;
    765f:	33 fd 0c a7 00    	  cmpbrne.b a15 0xc 0x7706;
    7664:	3e bc 76 00       	  jmp 0x76bc;
    7668:	b2 0a             	  mv.w a10 a0;
    766a:	32 1b             	  mv.b a11 a1;
    766c:	7e 81 0f 00       	  call 0xf81;
    7670:	3f 09             	  ldd.b a9 a0;
    7672:	b2 2a             	  mv.w a10 a2;
    7674:	bd b4             	  clr.w a11;
    7676:	20 29             	  std.b a2 a9;
    7678:	3d 94             	  clr.b a9;
    767a:	35 29 02          	  std.b a2 0x2 a9;
    767d:	18 00 03          	  ldd.b a0 a0 0x3;
    7680:	09 04             	  mvi a9 0x4;
    7682:	35 29 01          	  std.b a2 0x1 a9;
    7685:	35 20 03          	  std.b a2 0x3 a0;
    7688:	7e 71 0f 00       	  call 0xf71;
    768c:	3e 06 77 00       	  jmp 0x7706;
    7690:	bf 8a             	  ldd.w a10 a8;
    7692:	3e fa 76 00       	  jmp 0x76fa;
    7696:	df d4 2f 00 00    	  mvi a15 0x2fd4;
    769b:	3e c1 76 00       	  jmp 0x76c1;
    769f:	d9 04 14 00 00    	  mvi a9 0x1404;
    76a4:	3e b6 76 00       	  jmp 0x76b6;
    76a8:	df 24 14 00 00    	  mvi a15 0x1424;
    76ad:	3e c1 76 00       	  jmp 0x76c1;
    76b1:	d9 2c 14 00 00    	  mvi a9 0x142c;
    76b6:	bf 9a             	  ldd.w a10 a9;
    76b8:	3e fa 76 00       	  jmp 0x76fa;
    76bc:	df 20 14 00 00    	  mvi a15 0x1420;
    76c1:	bf fa             	  ldd.w a10 a15;
    76c3:	3e fa 76 00       	  jmp 0x76fa;
    76c7:	20 2f             	  std.b a2 a15;
    76c9:	3d 94             	  clr.b a9;
    76cb:	b2 0a             	  mv.w a10 a0;
    76cd:	35 29 02          	  std.b a2 0x2 a9;
    76d0:	18 00 03          	  ldd.b a0 a0 0x3;
    76d3:	32 1b             	  mv.b a11 a1;
    76d5:	35 2f 01          	  std.b a2 0x1 a15;
    76d8:	35 20 03          	  std.b a2 0x3 a0;
    76db:	7e 81 0f 00       	  call 0xf81;
    76df:	bd b4             	  clr.w a11;
    76e1:	b2 2a             	  mv.w a10 a2;
    76e3:	7e 71 0f 00       	  call 0xf71;
    76e7:	7e 74 0a 00       	  call 0xa74;
    76eb:	7e 95 1b 00       	  call 0x1b95;
    76ef:	f4 28 00          	  wait 0x0;
    76f2:	7e 9b 0a 00       	  call 0xa9b;
    76f6:	3e 06 77 00       	  jmp 0x7706;
    76fa:	b3 a0 00 0c       	  cmpbreq.w a10 0x0 0x7706;
    76fe:	b2 3b             	  mv.w a11 a3;
    7700:	0c 08             	  mvi a12 0x8;
    7702:	7e a7 00 00       	  call 0xa7;
    7706:	c4 1e ff          	  and a14 a1 0xff;
    7709:	bc 4e 08          	  ldd.w a0 a4 a14;
    770c:	a6 05             	  cmp.w a0 a5;
    770e:	f5 1b de fe       	  brne 0x75ec;
    7712:	7e d3 74 00       	  call 0x74d3;
    7716:	fe 49 01          	  rspr a9 SP;
    7719:	90 99 30          	  add.w a9 a9 0x30;
    771c:	bf 9f             	  ldd.w a15 a9;
    771e:	d9 2c 06 00 00    	  mvi a9 0x62c;
    7723:	bf 99             	  ldd.w a9 a9;
    7725:	a6 f9             	  cmp.w a15 a9;
    7727:	f4 0b 07          	  breq 0x772e;
    772a:	7e e9 42 00       	  call 0x42e9;
    772e:	fb 85 10          	  popma a8 0x1 0x10;

00007731 <_task_cmdmgmt>:
    7731:	f4 30 b8          	  addsp -0x48;
    7734:	df 2c 06 00 00    	  mvi a15 0x62c;
    7739:	f9 62             	  pushm a6;
    773b:	bf ff             	  ldd.w a15 a15;
    773d:	fe 49 01          	  rspr a9 SP;
    7740:	90 99 60          	  add.w a9 a9 0x60;
    7743:	0c 3c             	  mvi a12 0x3c;
    7745:	a0 9f             	  std.w a9 a15;
    7747:	fe 40 01          	  rspr a0 SP;
    774a:	bd b4             	  clr.w a11;
    774c:	90 00 24          	  add.w a0 a0 0x24;
    774f:	b2 0a             	  mv.w a10 a0;
    7751:	7e 94 0b 00       	  call 0xb94;
    7755:	d9 00 00 00 01    	  mvi a9 0x1000000;
    775a:	d1 c0 2f 00 00    	  mvi a1 0x2fc0;
    775f:	b2 9b             	  mv.w a11 a9;
    7761:	a0 19             	  std.w a1 a9;
    7763:	d9 ac 0f 00 00    	  mvi a9 0xfac;
    7768:	bd a4             	  clr.w a10;
    776a:	a0 9b             	  std.w a9 a11;
    776c:	7e 6d 1d 00       	  call 0x1d6d;
    7770:	bf 1b             	  ldd.w a11 a1;
    7772:	bd a4             	  clr.w a10;
    7774:	3d 34             	  clr.b a3;
    7776:	46 80 00          	  mvi a6 0x80;
    7779:	7e 3b 75 00       	  call 0x753b;
    777d:	bf 11             	  ldd.w a1 a1;
    777f:	09 02             	  mvi a9 0x2;
    7781:	75 06 04          	  std.h a0 0x8 a6;
    7784:	35 09 01          	  std.b a0 0x1 a9;
    7787:	b5 01 01          	  std.w a0 0x4 a1;
    778a:	35 03 0a          	  std.b a0 0xa a3;
    778d:	35 03 0b          	  std.b a0 0xb a3;
    7790:	bd b4             	  clr.w a11;
    7792:	4c 80 00          	  mvi a12 0x80;
    7795:	da 00 00 00 01    	  mvi a10 0x1000000;
    779a:	7e 94 0b 00       	  call 0xb94;
    779e:	4c 80 00          	  mvi a12 0x80;
    77a1:	bd b4             	  clr.w a11;
    77a3:	da 80 00 00 01    	  mvi a10 0x1000080;
    77a8:	7e 94 0b 00       	  call 0xb94;
    77ac:	7e d3 74 00       	  call 0x74d3;
    77b0:	df 80 00 00 01    	  mvi a15 0x1000080;
    77b5:	d4 c4 2f 00 00    	  mvi a4 0x2fc4;
    77ba:	b2 fa             	  mv.w a10 a15;
    77bc:	a0 4f             	  std.w a4 a15;
    77be:	7e 6f 75 00       	  call 0x756f;
    77c2:	bf 4f             	  ldd.w a15 a4;
    77c4:	d2 e4 10 00 00    	  mvi a2 0x10e4;
    77c9:	75 06 08          	  std.h a0 0x10 a6;
    77cc:	35 03 12          	  std.b a0 0x12 a3;
    77cf:	90 f9 80          	  add.w a9 a15 0x80;
    77d2:	b5 29 02          	  std.w a2 0x8 a9;
    77d5:	d9 a3 1d 00 00    	  mvi a9 0x1da3;
    77da:	b5 0f 03          	  std.w a0 0xc a15;
    77dd:	b5 29 03          	  std.w a2 0xc a9;
    77e0:	d9 02 1e 00 00    	  mvi a9 0x1e02;
    77e5:	fe 45 01          	  rspr a5 SP;
    77e8:	b5 29 05          	  std.w a2 0x14 a9;
    77eb:	90 55 1f          	  add.w a5 a5 0x1f;
    77ee:	09 01             	  mvi a9 0x1;
    77f0:	35 53 03          	  std.b a5 0x3 a3;
    77f3:	20 59             	  std.b a5 a9;
    77f5:	35 09 13          	  std.b a0 0x13 a9;
    77f8:	d9 00 11 00 00    	  mvi a9 0x1100;
    77fd:	b5 2f 01          	  std.w a2 0x4 a15;
    7800:	75 09 01          	  std.h a0 0x2 a9;
    7803:	df cb 1d 00 00    	  mvi a15 0x1dcb;
    7808:	09 04             	  mvi a9 0x4;
    780a:	b5 2f 04          	  std.w a2 0x10 a15;
    780d:	35 59 02          	  std.b a5 0x2 a9;
    7810:	df 32 0e 00 00    	  mvi a15 0xe32;
    7815:	09 40             	  mvi a9 0x40;
    7817:	b5 2f 06          	  std.w a2 0x18 a15;
    781a:	35 59 01          	  std.b a5 0x1 a9;
    781d:	20 03             	  std.b a0 a3;
    781f:	7e 74 0a 00       	  call 0xa74;
    7823:	bf 2a             	  ldd.w a10 a2;
    7825:	7e 9b 00 00       	  call 0x9b;
    7829:	b2 0b             	  mv.w a11 a0;
    782b:	b2 5a             	  mv.w a10 a5;
    782d:	7e 71 0f 00       	  call 0xf71;
    7831:	7e 9b 0a 00       	  call 0xa9b;
    7835:	0f 07             	  mvi a15 0x7;
    7837:	49 00 11          	  mvi a9 0x1100;
    783a:	f7 9f 00          	  stxb a9 0x0 a15;
    783d:	d1 08 14 00 00    	  mvi a1 0x1408;
    7842:	fe 40 01          	  rspr a0 SP;
    7845:	90 00 23          	  add.w a0 a0 0x23;
    7848:	bf 1a             	  ldd.w a10 a1;
    784a:	b2 0b             	  mv.w a11 a0;
    784c:	0c 01             	  mvi a12 0x1;
    784e:	0d ff             	  mvi a13 -0x1;
    7850:	7e c1 00 00       	  call 0xc1;
    7854:	33 a4 00 f4       	  cmpbrne.b a10 0x0 0x7848;
    7858:	3f 09             	  ldd.b a9 a0;
    785a:	33 94 01 ee       	  cmpbrne.b a9 0x1 0x7848;
    785e:	7e a7 75 00       	  call 0x75a7;
    7862:	3e 48 78 00       	  jmp 0x7848;

Disassembly of section .imem_therm:

00007866 <_thermCheckThermalEventStatus_LR10>:
    7866:	d9 2c 06 00 00    	  mvi a9 0x62c;
    786b:	bf 99             	  ldd.w a9 a9;
    786d:	f4 30 fc          	  addsp -0x4;
    7870:	fe 4f 01          	  rspr a15 SP;
    7873:	8e 00 c0 01       	  mvi a14 0x1c000;
    7877:	a0 f9             	  std.w a15 a9;
    7879:	d9 0c 14 00 00    	  mvi a9 0x140c;
    787e:	bf 9f             	  ldd.w a15 a9;
    7880:	cf e9 00          	  ldx a9 a14 0x0;
    7883:	c7 99 4c          	  uxtr a9 a9 0x4c;
    7886:	b3 90 00 41       	  cmpbreq.w a9 0x0 0x78c7;
    788a:	b3 90 01 f6       	  cmpbreq.w a9 0x1 0x7880;
    788e:	f8 02             	  halt;
    7890:	3e 80 78 00       	  jmp 0x7880;
    7894:	cf f9 00          	  ldx a9 a15 0x0;
    7897:	c7 99 4c          	  uxtr a9 a9 0x4c;
    789a:	b3 90 00 0e       	  cmpbreq.w a9 0x0 0x78a8;
    789e:	b3 90 01 f6       	  cmpbreq.w a9 0x1 0x7894;
    78a2:	f8 02             	  halt;
    78a4:	3e 94 78 00       	  jmp 0x7894;
    78a8:	8a 00 c2 01       	  mvi a10 0x1c200;
    78ac:	cf aa 00          	  ldx a10 a10 0x0;
    78af:	fe 49 01          	  rspr a9 SP;
    78b2:	bf 9f             	  ldd.w a15 a9;
    78b4:	d9 2c 06 00 00    	  mvi a9 0x62c;
    78b9:	bf 99             	  ldd.w a9 a9;
    78bb:	f0 a4 01          	  and a10 0x1;
    78be:	a6 f9             	  cmp.w a15 a9;
    78c0:	f4 0b 2b          	  breq 0x78eb;
    78c3:	3e e7 78 00       	  jmp 0x78e7;
    78c7:	90 ff 60          	  add.w a15 a15 0x60;
    78ca:	89 00 c1 01       	  mvi a9 0x1c100;
    78ce:	f6 9f 00          	  stx a9 0x0 a15;
    78d1:	df f1 00 00 80    	  mvi a15 -0x7fffff0f;
    78d6:	b8 99 00 01 02    	  sub.w a9 a9 0x100;
    78db:	f7 9f 00          	  stxb a9 0x0 a15;
    78de:	cf 9f 00          	  ldx a15 a9 0x0;
    78e1:	b2 9f             	  mv.w a15 a9;
    78e3:	3e 94 78 00       	  jmp 0x7894;
    78e7:	7e e9 42 00       	  call 0x42e9;
    78eb:	f4 30 04          	  addsp 0x4;
    78ee:	f8 00             	  ret;

000078f0 <_thermForceSlowdown_LR10>:
    78f0:	f4 30 fc          	  addsp -0x4;
    78f3:	d9 2c 06 00 00    	  mvi a9 0x62c;
    78f8:	f9 02             	  pushm a0;
    78fa:	bf 99             	  ldd.w a9 a9;
    78fc:	fe 4f 01          	  rspr a15 SP;
    78ff:	90 ff 04          	  add.w a15 a15 0x4;
    7902:	d0 54 06 00 00    	  mvi a0 0x654;
    7907:	a0 f9             	  std.w a15 a9;
    7909:	33 a0 00 24       	  cmpbreq.b a10 0x0 0x792d;
    790d:	a0 0b             	  std.w a0 a11;
    790f:	8a 44 6f 06       	  mvi a10 0x66f44;
    7913:	7e 22 1c 00       	  call 0x1c22;
    7917:	49 00 c0          	  mvi a9 -0x4000;
    791a:	ff a9 b4          	  and a11 a10 a9;
    791d:	8a 44 6f 06       	  mvi a10 0x66f44;
    7921:	f1 b5 00 20       	  or a11 0x2000;
    7925:	7e b1 1c 00       	  call 0x1cb1;
    7929:	3e 57 79 00       	  jmp 0x7957;
    792d:	8a 44 6f 06       	  mvi a10 0x66f44;
    7931:	7e 22 1c 00       	  call 0x1c22;
    7935:	d9 50 06 00 00    	  mvi a9 0x650;
    793a:	bf 9b             	  ldd.w a11 a9;
    793c:	49 00 c0          	  mvi a9 -0x4000;
    793f:	ff a9 94          	  and a9 a10 a9;
    7942:	8a 44 6f 06       	  mvi a10 0x66f44;
    7946:	f1 b4 ff 3f       	  and a11 0x3fff;
    794a:	ff 9b b5          	  or a11 a9 a11;
    794d:	7e b1 1c 00       	  call 0x1cb1;
    7951:	89 40 42 0f       	  mvi a9 0xf4240;
    7955:	a0 09             	  std.w a0 a9;
    7957:	fe 49 01          	  rspr a9 SP;
    795a:	90 99 04          	  add.w a9 a9 0x4;
    795d:	bf 9f             	  ldd.w a15 a9;
    795f:	d9 2c 06 00 00    	  mvi a9 0x62c;
    7964:	bf 99             	  ldd.w a9 a9;
    7966:	3d a4             	  clr.b a10;
    7968:	a6 f9             	  cmp.w a15 a9;
    796a:	f4 0b 07          	  breq 0x7971;
    796d:	7e e9 42 00       	  call 0x42e9;
    7971:	fb 05 04          	  popma a0 0x1 0x4;

00007974 <_thermGetTsenseThresholds_LR10>:
    7974:	f4 30 fc          	  addsp -0x4;
    7977:	df 2c 06 00 00    	  mvi a15 0x62c;
    797c:	f9 12             	  pushm a1;
    797e:	bf ff             	  ldd.w a15 a15;
    7980:	fe 49 01          	  rspr a9 SP;
    7983:	90 99 08          	  add.w a9 a9 0x8;
    7986:	b2 a0             	  mv.w a0 a10;
    7988:	b2 b1             	  mv.w a1 a11;
    798a:	a0 9f             	  std.w a9 a15;
    798c:	8a 44 6f 06       	  mvi a10 0x66f44;
    7990:	7e 22 1c 00       	  call 0x1c22;
    7994:	b3 04 01 0c       	  cmpbrne.w a0 0x1 0x79a0;
    7998:	e7 aa b0 01       	  uxtr a10 a10 0x1b0;
    799c:	3e aa 79 00       	  jmp 0x79aa;
    79a0:	0e ff             	  mvi a14 -0x1;
    79a2:	b3 04 00 23       	  cmpbrne.w a0 0x0 0x79c5;
    79a6:	f1 a4 ff 3f       	  and a10 0x3fff;
    79aa:	e4 a9 00 20       	  and a9 a10 0x2000;
    79ae:	f4 1b 09          	  brne 0x79b7;
    79b1:	bd f4             	  clr.w a15;
    79b3:	3e bb 79 00       	  jmp 0x79bb;
    79b7:	8f 00 00 fe       	  mvi a15 -0x20000;
    79bb:	94 a9 03          	  lsl.w a9 a10 0x3;
    79be:	3d e4             	  clr.b a14;
    79c0:	ff f9 95          	  or a9 a15 a9;
    79c3:	a0 19             	  std.w a1 a9;
    79c5:	fe 49 01          	  rspr a9 SP;
    79c8:	90 99 08          	  add.w a9 a9 0x8;
    79cb:	bf 9f             	  ldd.w a15 a9;
    79cd:	d9 2c 06 00 00    	  mvi a9 0x62c;
    79d2:	bf 99             	  ldd.w a9 a9;
    79d4:	32 ea             	  mv.b a10 a14;
    79d6:	a6 f9             	  cmp.w a15 a9;
    79d8:	f4 0b 07          	  breq 0x79df;
    79db:	7e e9 42 00       	  call 0x42e9;
    79df:	fb 15 04          	  popma a1 0x1 0x4;

000079e2 <_thermGetTsenseMax_LR10>:
    79e2:	df 2c 06 00 00    	  mvi a15 0x62c;
    79e7:	bf ff             	  ldd.w a15 a15;
    79e9:	f4 30 fc          	  addsp -0x4;
    79ec:	fe 49 01          	  rspr a9 SP;
    79ef:	8a 40 6f 06       	  mvi a10 0x66f40;
    79f3:	a0 9f             	  std.w a9 a15;
    79f5:	7e 22 1c 00       	  call 0x1c22;
    79f9:	e4 a9 00 20       	  and a9 a10 0x2000;
    79fd:	f1 a4 ff 3f       	  and a10 0x3fff;
    7a01:	b3 94 00 0a       	  cmpbrne.w a9 0x0 0x7a0b;
    7a05:	bd e4             	  clr.w a14;
    7a07:	3e 0f 7a 00       	  jmp 0x7a0f;
    7a0b:	8e 00 00 fe       	  mvi a14 -0x20000;
    7a0f:	fe 49 01          	  rspr a9 SP;
    7a12:	bf 9f             	  ldd.w a15 a9;
    7a14:	d9 2c 06 00 00    	  mvi a9 0x62c;
    7a19:	bf 99             	  ldd.w a9 a9;
    7a1b:	b6 a4 03          	  lsl.w a10 0x3;
    7a1e:	ff ea a5          	  or a10 a14 a10;
    7a21:	a6 f9             	  cmp.w a15 a9;
    7a23:	f4 0b 07          	  breq 0x7a2a;
    7a26:	7e e9 42 00       	  call 0x42e9;
    7a2a:	f4 30 04          	  addsp 0x4;
    7a2d:	f8 00             	  ret;

00007a2f <_thermSendShutdownMessage_LR10>:
    7a2f:	df 58 06 00 00    	  mvi a15 0x658;
    7a34:	f4 30 f4          	  addsp -0xc;
    7a37:	f9 32             	  pushm a3;
    7a39:	b2 f0             	  mv.w a0 a15;
    7a3b:	fe 49 01          	  rspr a9 SP;
    7a3e:	90 99 10          	  add.w a9 a9 0x10;
    7a41:	b5 9f 01          	  std.w a9 0x4 a15;
    7a44:	df 2c 06 00 00    	  mvi a15 0x62c;
    7a49:	bf ff             	  ldd.w a15 a15;
    7a4b:	bd 14             	  clr.w a1;
    7a4d:	a0 91             	  std.w a9 a1;
    7a4f:	35 91 01          	  std.b a9 0x1 a1;
    7a52:	02 01             	  mvi a2 0x1;
    7a54:	20 92             	  std.b a9 a2;
    7a56:	90 99 08          	  add.w a9 a9 0x8;
    7a59:	03 28             	  mvi a3 0x28;
    7a5b:	a0 9f             	  std.w a9 a15;
    7a5d:	b2 0a             	  mv.w a10 a0;
    7a5f:	bd b4             	  clr.w a11;
    7a61:	b2 3c             	  mv.w a12 a3;
    7a63:	7e 94 0b 00       	  call 0xb94;
    7a67:	09 05             	  mvi a9 0x5;
    7a69:	35 02 08          	  std.b a0 0x8 a2;
    7a6c:	35 01 03          	  std.b a0 0x3 a1;
    7a6f:	35 03 01          	  std.b a0 0x1 a3;
    7a72:	35 01 02          	  std.b a0 0x2 a1;
    7a75:	35 02 04          	  std.b a0 0x4 a2;
    7a78:	20 09             	  std.b a0 a9;
    7a7a:	8f 00 c0 01       	  mvi a15 0x1c000;
    7a7e:	cf f9 00          	  ldx a9 a15 0x0;
    7a81:	c7 99 4c          	  uxtr a9 a9 0x4c;
    7a84:	b3 99 00 61 01    	  cmpbreq.w a9 0x0 0x7be5;
    7a89:	b3 90 01 f5       	  cmpbreq.w a9 0x1 0x7a7e;
    7a8d:	f8 02             	  halt;
    7a8f:	3e 7e 7a 00       	  jmp 0x7a7e;
    7a93:	cf f9 00          	  ldx a9 a15 0x0;
    7a96:	c7 99 4c          	  uxtr a9 a9 0x4c;
    7a99:	b3 99 00 34 01    	  cmpbreq.w a9 0x0 0x7bcd;
    7a9e:	b3 90 01 f5       	  cmpbreq.w a9 0x1 0x7a93;
    7aa2:	f8 02             	  halt;
    7aa4:	3e 93 7a 00       	  jmp 0x7a93;
    7aa8:	8f 00 00 fe       	  mvi a15 -0x20000;
    7aac:	b6 94 03          	  lsl.w a9 0x3;
    7aaf:	ff f9 95          	  or a9 a15 a9;
    7ab2:	df 58 06 00 00    	  mvi a15 0x658;
    7ab7:	b5 f9 03          	  std.w a15 0xc a9;
    7aba:	8f 00 c0 01       	  mvi a15 0x1c000;
    7abe:	cf f9 00          	  ldx a9 a15 0x0;
    7ac1:	c7 99 4c          	  uxtr a9 a9 0x4c;
    7ac4:	b3 99 00 e8 00    	  cmpbreq.w a9 0x0 0x7bac;
    7ac9:	b3 90 01 f5       	  cmpbreq.w a9 0x1 0x7abe;
    7acd:	f8 02             	  halt;
    7acf:	3e be 7a 00       	  jmp 0x7abe;
    7ad3:	cf f9 00          	  ldx a9 a15 0x0;
    7ad6:	c7 99 4c          	  uxtr a9 a9 0x4c;
    7ad9:	b3 99 00 b8 00    	  cmpbreq.w a9 0x0 0x7b91;
    7ade:	b3 90 01 f5       	  cmpbreq.w a9 0x1 0x7ad3;
    7ae2:	f8 02             	  halt;
    7ae4:	3e d3 7a 00       	  jmp 0x7ad3;
    7ae8:	8f 00 00 fe       	  mvi a15 -0x20000;
    7aec:	d9 0c 14 00 00    	  mvi a9 0x140c;
    7af1:	bf 9d             	  ldd.w a13 a9;
    7af3:	94 e9 03          	  lsl.w a9 a14 0x3;
    7af6:	ff f9 95          	  or a9 a15 a9;
    7af9:	df 58 06 00 00    	  mvi a15 0x658;
    7afe:	b5 f9 04          	  std.w a15 0x10 a9;
    7b01:	8f 00 c0 01       	  mvi a15 0x1c000;
    7b05:	cf f9 00          	  ldx a9 a15 0x0;
    7b08:	c7 99 4c          	  uxtr a9 a9 0x4c;
    7b0b:	b3 90 00 66       	  cmpbreq.w a9 0x0 0x7b71;
    7b0f:	b3 90 01 f6       	  cmpbreq.w a9 0x1 0x7b05;
    7b13:	f8 02             	  halt;
    7b15:	3e 05 7b 00       	  jmp 0x7b05;
    7b19:	cf f9 00          	  ldx a9 a15 0x0;
    7b1c:	c7 99 4c          	  uxtr a9 a9 0x4c;
    7b1f:	b3 90 00 0e       	  cmpbreq.w a9 0x0 0x7b2d;
    7b23:	b3 90 01 f6       	  cmpbreq.w a9 0x1 0x7b19;
    7b27:	f8 02             	  halt;
    7b29:	3e 19 7b 00       	  jmp 0x7b19;
    7b2d:	8f 00 c2 01       	  mvi a15 0x1c200;
    7b31:	cf ff 00          	  ldx a15 a15 0x0;
    7b34:	d9 00 14 00 00    	  mvi a9 0x1400;
    7b39:	bf 9a             	  ldd.w a10 a9;
    7b3b:	de 58 06 00 00    	  mvi a14 0x658;
    7b40:	c7 f9 11          	  uxtr a9 a15 0x11;
    7b43:	c7 ff 19          	  uxtr a15 a15 0x19;
    7b46:	35 e9 15          	  std.b a14 0x15 a9;
    7b49:	35 ef 14          	  std.b a14 0x14 a15;
    7b4c:	fe 4b 01          	  rspr a11 SP;
    7b4f:	0c 08             	  mvi a12 0x8;
    7b51:	90 bb 10          	  add.w a11 a11 0x10;
    7b54:	7e 6e 00 00       	  call 0x6e;
    7b58:	fe 49 01          	  rspr a9 SP;
    7b5b:	90 99 18          	  add.w a9 a9 0x18;
    7b5e:	bf 9f             	  ldd.w a15 a9;
    7b60:	d9 2c 06 00 00    	  mvi a9 0x62c;
    7b65:	bf 99             	  ldd.w a9 a9;
    7b67:	a6 f9             	  cmp.w a15 a9;
    7b69:	f5 0b a1 00       	  breq 0x7c0a;
    7b6d:	3e 06 7c 00       	  jmp 0x7c06;
    7b71:	90 df 60          	  add.w a15 a13 0x60;
    7b74:	89 00 c1 01       	  mvi a9 0x1c100;
    7b78:	f6 9f 00          	  stx a9 0x0 a15;
    7b7b:	df f1 00 00 80    	  mvi a15 -0x7fffff0f;
    7b80:	b8 99 00 01 02    	  sub.w a9 a9 0x100;
    7b85:	f7 9f 00          	  stxb a9 0x0 a15;
    7b88:	cf 9f 00          	  ldx a15 a9 0x0;
    7b8b:	b2 9f             	  mv.w a15 a9;
    7b8d:	3e 19 7b 00       	  jmp 0x7b19;
    7b91:	89 00 c2 01       	  mvi a9 0x1c200;
    7b95:	cf 99 00          	  ldx a9 a9 0x0;
    7b98:	b6 95 10          	  lsr.w a9 0x10;
    7b9b:	e4 9f 00 20       	  and a15 a9 0x2000;
    7b9f:	e4 9e ff 3f       	  and a14 a9 0x3fff;
    7ba3:	b3 fd 00 45 ff    	  cmpbrne.w a15 0x0 0x7ae8;
    7ba8:	3e ec 7a 00       	  jmp 0x7aec;
    7bac:	8f 44 6f 06       	  mvi a15 0x66f44;
    7bb0:	89 00 c1 01       	  mvi a9 0x1c100;
    7bb4:	f6 9f 00          	  stx a9 0x0 a15;
    7bb7:	df f1 00 00 80    	  mvi a15 -0x7fffff0f;
    7bbc:	b8 99 00 01 02    	  sub.w a9 a9 0x100;
    7bc1:	f7 9f 00          	  stxb a9 0x0 a15;
    7bc4:	cf 9f 00          	  ldx a15 a9 0x0;
    7bc7:	b2 9f             	  mv.w a15 a9;
    7bc9:	3e d3 7a 00       	  jmp 0x7ad3;
    7bcd:	89 00 c2 01       	  mvi a9 0x1c200;
    7bd1:	cf 99 00          	  ldx a9 a9 0x0;
    7bd4:	e4 9f 00 20       	  and a15 a9 0x2000;
    7bd8:	f1 94 ff 3f       	  and a9 0x3fff;
    7bdc:	b3 fd 00 cc fe    	  cmpbrne.w a15 0x0 0x7aa8;
    7be1:	3e ac 7a 00       	  jmp 0x7aac;
    7be5:	8f 40 6f 06       	  mvi a15 0x66f40;
    7be9:	89 00 c1 01       	  mvi a9 0x1c100;
    7bed:	f6 9f 00          	  stx a9 0x0 a15;
    7bf0:	df f1 00 00 80    	  mvi a15 -0x7fffff0f;
    7bf5:	b8 99 00 01 02    	  sub.w a9 a9 0x100;
    7bfa:	f7 9f 00          	  stxb a9 0x0 a15;
    7bfd:	cf 9f 00          	  ldx a15 a9 0x0;
    7c00:	b2 9f             	  mv.w a15 a9;
    7c02:	3e 93 7a 00       	  jmp 0x7a93;
    7c06:	7e e9 42 00       	  call 0x42e9;
    7c0a:	fb 35 0c          	  popma a3 0x1 0xc;

00007c0d <_thermServiceOvert_LR10>:
    7c0d:	f4 30 fc          	  addsp -0x4;
    7c10:	f9 12             	  pushm a1;
    7c12:	d1 2c 06 00 00    	  mvi a1 0x62c;
    7c17:	bf 19             	  ldd.w a9 a1;
    7c19:	fe 40 01          	  rspr a0 SP;
    7c1c:	90 00 08          	  add.w a0 a0 0x8;
    7c1f:	a0 09             	  std.w a0 a9;
    7c21:	7e 2f 7a 00       	  call 0x7a2f;
    7c25:	7e 7f 46 00       	  call 0x467f;
    7c29:	bf 0f             	  ldd.w a15 a0;
    7c2b:	bf 19             	  ldd.w a9 a1;
    7c2d:	a6 f9             	  cmp.w a15 a9;
    7c2f:	f4 0b 07          	  breq 0x7c36;
    7c32:	7e e9 42 00       	  call 0x42e9;
    7c36:	fb 15 04          	  popma a1 0x1 0x4;

00007c39 <_thermSendSlowdownMessage_LR10>:
    7c39:	df 58 06 00 00    	  mvi a15 0x658;
    7c3e:	f4 30 f4          	  addsp -0xc;
    7c41:	f9 42             	  pushm a4;
    7c43:	b2 f0             	  mv.w a0 a15;
    7c45:	fe 49 01          	  rspr a9 SP;
    7c48:	90 99 14          	  add.w a9 a9 0x14;
    7c4b:	b5 9f 01          	  std.w a9 0x4 a15;
    7c4e:	df 2c 06 00 00    	  mvi a15 0x62c;
    7c53:	bf ff             	  ldd.w a15 a15;
    7c55:	bd 14             	  clr.w a1;
    7c57:	a0 91             	  std.w a9 a1;
    7c59:	35 91 01          	  std.b a9 0x1 a1;
    7c5c:	03 01             	  mvi a3 0x1;
    7c5e:	20 93             	  std.b a9 a3;
    7c60:	90 99 08          	  add.w a9 a9 0x8;
    7c63:	32 a4             	  mv.b a4 a10;
    7c65:	a0 9f             	  std.w a9 a15;
    7c67:	02 28             	  mvi a2 0x28;
    7c69:	b2 0a             	  mv.w a10 a0;
    7c6b:	bd b4             	  clr.w a11;
    7c6d:	b2 2c             	  mv.w a12 a2;
    7c6f:	7e 94 0b 00       	  call 0xb94;
    7c73:	09 05             	  mvi a9 0x5;
    7c75:	35 02 01          	  std.b a0 0x1 a2;
    7c78:	35 03 04          	  std.b a0 0x4 a3;
    7c7b:	35 01 08          	  std.b a0 0x8 a1;
    7c7e:	35 04 09          	  std.b a0 0x9 a4;
    7c81:	35 01 02          	  std.b a0 0x2 a1;
    7c84:	35 01 03          	  std.b a0 0x3 a1;
    7c87:	20 09             	  std.b a0 a9;
    7c89:	8f 00 c0 01       	  mvi a15 0x1c000;
    7c8d:	cf f9 00          	  ldx a9 a15 0x0;
    7c90:	c7 99 4c          	  uxtr a9 a9 0x4c;
    7c93:	b3 99 00 66 01    	  cmpbreq.w a9 0x0 0x7df9;
    7c98:	b3 90 01 f5       	  cmpbreq.w a9 0x1 0x7c8d;
    7c9c:	f8 02             	  halt;
    7c9e:	3e 8d 7c 00       	  jmp 0x7c8d;
    7ca2:	cf f9 00          	  ldx a9 a15 0x0;
    7ca5:	c7 99 4c          	  uxtr a9 a9 0x4c;
    7ca8:	b3 99 00 39 01    	  cmpbreq.w a9 0x0 0x7de1;
    7cad:	b3 90 01 f5       	  cmpbreq.w a9 0x1 0x7ca2;
    7cb1:	f8 02             	  halt;
    7cb3:	3e a2 7c 00       	  jmp 0x7ca2;
    7cb7:	8f 00 00 fe       	  mvi a15 -0x20000;
    7cbb:	b6 94 03          	  lsl.w a9 0x3;
    7cbe:	ff f9 95          	  or a9 a15 a9;
    7cc1:	df 58 06 00 00    	  mvi a15 0x658;
    7cc6:	b5 f9 03          	  std.w a15 0xc a9;
    7cc9:	8f 00 c0 01       	  mvi a15 0x1c000;
    7ccd:	cf f9 00          	  ldx a9 a15 0x0;
    7cd0:	c7 99 4c          	  uxtr a9 a9 0x4c;
    7cd3:	b3 99 00 ed 00    	  cmpbreq.w a9 0x0 0x7dc0;
    7cd8:	b3 90 01 f5       	  cmpbreq.w a9 0x1 0x7ccd;
    7cdc:	f8 02             	  halt;
    7cde:	3e cd 7c 00       	  jmp 0x7ccd;
    7ce2:	cf f9 00          	  ldx a9 a15 0x0;
    7ce5:	c7 99 4c          	  uxtr a9 a9 0x4c;
    7ce8:	b3 99 00 c0 00    	  cmpbreq.w a9 0x0 0x7da8;
    7ced:	b3 90 01 f5       	  cmpbreq.w a9 0x1 0x7ce2;
    7cf1:	f8 02             	  halt;
    7cf3:	3e e2 7c 00       	  jmp 0x7ce2;
    7cf7:	8f 00 00 fe       	  mvi a15 -0x20000;
    7cfb:	b6 94 03          	  lsl.w a9 0x3;
    7cfe:	ff f9 95          	  or a9 a15 a9;
    7d01:	df 58 06 00 00    	  mvi a15 0x658;
    7d06:	b5 f9 04          	  std.w a15 0x10 a9;
    7d09:	33 40 00 37       	  cmpbreq.b a4 0x0 0x7d40;
    7d0d:	d9 0c 14 00 00    	  mvi a9 0x140c;
    7d12:	bf 9f             	  ldd.w a15 a9;
    7d14:	8e 00 c0 01       	  mvi a14 0x1c000;
    7d18:	cf e9 00          	  ldx a9 a14 0x0;
    7d1b:	c7 99 4c          	  uxtr a9 a9 0x4c;
    7d1e:	b3 90 00 6a       	  cmpbreq.w a9 0x0 0x7d88;
    7d22:	b3 90 01 f6       	  cmpbreq.w a9 0x1 0x7d18;
    7d26:	f8 02             	  halt;
    7d28:	3e 18 7d 00       	  jmp 0x7d18;
    7d2c:	cf f9 00          	  ldx a9 a15 0x0;
    7d2f:	c7 99 4c          	  uxtr a9 a9 0x4c;
    7d32:	b3 90 00 3a       	  cmpbreq.w a9 0x0 0x7d6c;
    7d36:	b3 90 01 f6       	  cmpbreq.w a9 0x1 0x7d2c;
    7d3a:	f8 02             	  halt;
    7d3c:	3e 2c 7d 00       	  jmp 0x7d2c;
    7d40:	d9 00 14 00 00    	  mvi a9 0x1400;
    7d45:	bf 9a             	  ldd.w a10 a9;
    7d47:	fe 4b 01          	  rspr a11 SP;
    7d4a:	0c 08             	  mvi a12 0x8;
    7d4c:	90 bb 14          	  add.w a11 a11 0x14;
    7d4f:	7e 6e 00 00       	  call 0x6e;
    7d53:	fe 49 01          	  rspr a9 SP;
    7d56:	90 99 1c          	  add.w a9 a9 0x1c;
    7d59:	bf 9f             	  ldd.w a15 a9;
    7d5b:	d9 2c 06 00 00    	  mvi a9 0x62c;
    7d60:	bf 99             	  ldd.w a9 a9;
    7d62:	a6 f9             	  cmp.w a15 a9;
    7d64:	f5 0b ba 00       	  breq 0x7e1e;
    7d68:	3e 1a 7e 00       	  jmp 0x7e1a;
    7d6c:	89 00 c2 01       	  mvi a9 0x1c200;
    7d70:	cf 99 00          	  ldx a9 a9 0x0;
    7d73:	de 58 06 00 00    	  mvi a14 0x658;
    7d78:	c7 9f 10          	  uxtr a15 a9 0x10;
    7d7b:	c7 99 18          	  uxtr a9 a9 0x18;
    7d7e:	35 ef 15          	  std.b a14 0x15 a15;
    7d81:	35 e9 14          	  std.b a14 0x14 a9;
    7d84:	3e 40 7d 00       	  jmp 0x7d40;
    7d88:	90 ff 60          	  add.w a15 a15 0x60;
    7d8b:	89 00 c1 01       	  mvi a9 0x1c100;
    7d8f:	f6 9f 00          	  stx a9 0x0 a15;
    7d92:	df f1 00 00 80    	  mvi a15 -0x7fffff0f;
    7d97:	b8 99 00 01 02    	  sub.w a9 a9 0x100;
    7d9c:	f7 9f 00          	  stxb a9 0x0 a15;
    7d9f:	cf 9f 00          	  ldx a15 a9 0x0;
    7da2:	b2 9f             	  mv.w a15 a9;
    7da4:	3e 2c 7d 00       	  jmp 0x7d2c;
    7da8:	89 00 c2 01       	  mvi a9 0x1c200;
    7dac:	cf 99 00          	  ldx a9 a9 0x0;
    7daf:	e4 9f 00 20       	  and a15 a9 0x2000;
    7db3:	f1 94 ff 3f       	  and a9 0x3fff;
    7db7:	b3 fd 00 40 ff    	  cmpbrne.w a15 0x0 0x7cf7;
    7dbc:	3e fb 7c 00       	  jmp 0x7cfb;
    7dc0:	8f 44 6f 06       	  mvi a15 0x66f44;
    7dc4:	89 00 c1 01       	  mvi a9 0x1c100;
    7dc8:	f6 9f 00          	  stx a9 0x0 a15;
    7dcb:	df f1 00 00 80    	  mvi a15 -0x7fffff0f;
    7dd0:	b8 99 00 01 02    	  sub.w a9 a9 0x100;
    7dd5:	f7 9f 00          	  stxb a9 0x0 a15;
    7dd8:	cf 9f 00          	  ldx a15 a9 0x0;
    7ddb:	b2 9f             	  mv.w a15 a9;
    7ddd:	3e e2 7c 00       	  jmp 0x7ce2;
    7de1:	89 00 c2 01       	  mvi a9 0x1c200;
    7de5:	cf 99 00          	  ldx a9 a9 0x0;
    7de8:	e4 9f 00 20       	  and a15 a9 0x2000;
    7dec:	f1 94 ff 3f       	  and a9 0x3fff;
    7df0:	b3 fd 00 c7 fe    	  cmpbrne.w a15 0x0 0x7cb7;
    7df5:	3e bb 7c 00       	  jmp 0x7cbb;
    7df9:	8f 40 6f 06       	  mvi a15 0x66f40;
    7dfd:	89 00 c1 01       	  mvi a9 0x1c100;
    7e01:	f6 9f 00          	  stx a9 0x0 a15;
    7e04:	df f1 00 00 80    	  mvi a15 -0x7fffff0f;
    7e09:	b8 99 00 01 02    	  sub.w a9 a9 0x100;
    7e0e:	f7 9f 00          	  stxb a9 0x0 a15;
    7e11:	cf 9f 00          	  ldx a15 a9 0x0;
    7e14:	b2 9f             	  mv.w a15 a9;
    7e16:	3e a2 7c 00       	  jmp 0x7ca2;
    7e1a:	7e e9 42 00       	  call 0x42e9;
    7e1e:	fb 45 0c          	  popma a4 0x1 0xc;

00007e21 <_thermServiceAlert_LR10>:
    7e21:	f4 30 fc          	  addsp -0x4;
    7e24:	df 2c 06 00 00    	  mvi a15 0x62c;
    7e29:	f9 02             	  pushm a0;
    7e2b:	bf ff             	  ldd.w a15 a15;
    7e2d:	d9 54 06 00 00    	  mvi a9 0x654;
    7e32:	bf 90             	  ldd.w a0 a9;
    7e34:	fe 49 01          	  rspr a9 SP;
    7e37:	90 99 04          	  add.w a9 a9 0x4;
    7e3a:	a0 9f             	  std.w a9 a15;
    7e3c:	7e a7 46 00       	  call 0x46a7;
    7e40:	0a 01             	  mvi a10 0x1;
    7e42:	7e c1 2b 00       	  call 0x2bc1;
    7e46:	0a 01             	  mvi a10 0x1;
    7e48:	7e 39 7c 00       	  call 0x7c39;
    7e4c:	0a 01             	  mvi a10 0x1;
    7e4e:	b2 0c             	  mv.w a12 a0;
    7e50:	3d d4             	  clr.b a13;
    7e52:	b2 ab             	  mv.w a11 a10;
    7e54:	7e 61 43 00       	  call 0x4361;
    7e58:	33 a0 00 06       	  cmpbreq.b a10 0x0 0x7e5e;
    7e5c:	f8 02             	  halt;
    7e5e:	fe 49 01          	  rspr a9 SP;
    7e61:	90 99 04          	  add.w a9 a9 0x4;
    7e64:	bf 9f             	  ldd.w a15 a9;
    7e66:	d9 2c 06 00 00    	  mvi a9 0x62c;
    7e6b:	bf 99             	  ldd.w a9 a9;
    7e6d:	a6 f9             	  cmp.w a15 a9;
    7e6f:	f4 0b 07          	  breq 0x7e76;
    7e72:	7e e9 42 00       	  call 0x42e9;
    7e76:	fb 05 04          	  popma a0 0x1 0x4;

00007e79 <_thermServiceAlertTimerCallback_LR10>:
    7e79:	d9 2c 06 00 00    	  mvi a9 0x62c;
    7e7e:	bf 99             	  ldd.w a9 a9;
    7e80:	f4 30 fc          	  addsp -0x4;
    7e83:	fe 4f 01          	  rspr a15 SP;
    7e86:	a0 f9             	  std.w a15 a9;
    7e88:	7e 66 78 00       	  call 0x7866;
    7e8c:	33 a4 00 28       	  cmpbrne.b a10 0x0 0x7eb4;
    7e90:	bd b4             	  clr.w a11;
    7e92:	bd c4             	  clr.w a12;
    7e94:	3d d4             	  clr.b a13;
    7e96:	0a 02             	  mvi a10 0x2;
    7e98:	7e 61 43 00       	  call 0x4361;
    7e9c:	3d a4             	  clr.b a10;
    7e9e:	7e c1 2b 00       	  call 0x2bc1;
    7ea2:	3d a4             	  clr.b a10;
    7ea4:	7e 39 7c 00       	  call 0x7c39;
    7ea8:	7e 48 28 00       	  call 0x2848;
    7eac:	7e cf 46 00       	  call 0x46cf;
    7eb0:	3e b8 7e 00       	  jmp 0x7eb8;
    7eb4:	7e c1 2b 00       	  call 0x2bc1;
    7eb8:	fe 49 01          	  rspr a9 SP;
    7ebb:	bf 9f             	  ldd.w a15 a9;
    7ebd:	d9 2c 06 00 00    	  mvi a9 0x62c;
    7ec2:	bf 99             	  ldd.w a9 a9;
    7ec4:	a6 f9             	  cmp.w a15 a9;
    7ec6:	f4 0b 07          	  breq 0x7ecd;
    7ec9:	7e e9 42 00       	  call 0x42e9;
    7ecd:	f4 30 04          	  addsp 0x4;
    7ed0:	f8 00             	  ret;

00007ed2 <_task_therm>:
    7ed2:	f4 30 cc          	  addsp -0x34;
    7ed5:	df 2c 06 00 00    	  mvi a15 0x62c;
    7eda:	f9 82             	  pushm a8;
    7edc:	bf ff             	  ldd.w a15 a15;
    7ede:	fe 49 01          	  rspr a9 SP;
    7ee1:	90 99 54          	  add.w a9 a9 0x54;
    7ee4:	fe 48 01          	  rspr a8 SP;
    7ee7:	a0 9f             	  std.w a9 a15;
    7ee9:	fe 44 01          	  rspr a4 SP;
    7eec:	92 99 10          	  sub.w a9 a9 0x10;
    7eef:	bd f4             	  clr.w a15;
    7ef1:	fe 47 01          	  rspr a7 SP;
    7ef4:	fe 46 01          	  rspr a6 SP;
    7ef7:	b5 9f 01          	  std.w a9 0x4 a15;
    7efa:	a0 9f             	  std.w a9 a15;
    7efc:	90 88 50          	  add.w a8 a8 0x50;
    7eff:	90 44 4c          	  add.w a4 a4 0x4c;
    7f02:	90 77 34          	  add.w a7 a7 0x34;
    7f05:	90 66 24          	  add.w a6 a6 0x24;
    7f08:	d9 00 14 00 00    	  mvi a9 0x1400;
    7f0d:	bf 9a             	  ldd.w a10 a9;
    7f0f:	fe 4b 01          	  rspr a11 SP;
    7f12:	0c 08             	  mvi a12 0x8;
    7f14:	90 bb 44          	  add.w a11 a11 0x44;
    7f17:	0d ff             	  mvi a13 -0x1;
    7f19:	7e c1 00 00       	  call 0xc1;
    7f1d:	32 a5             	  mv.b a5 a10;
    7f1f:	33 a4 00 e9       	  cmpbrne.b a10 0x0 0x7f08;
    7f23:	b4 00 12          	  lddsp.w a0 0x48;
    7f26:	3f 03             	  ldd.b a3 a0;
    7f28:	33 34 05 e0       	  cmpbrne.b a3 0x5 0x7f08;
    7f2c:	18 09 04          	  ldd.b a9 a0 0x4;
    7f2f:	34 20 45          	  lddsp.b a2 0x45;
    7f32:	33 90 00 0f       	  cmpbreq.b a9 0x0 0x7f41;
    7f36:	01 e3             	  mvi a1 -0x1d;
    7f38:	33 9d 01 87 00    	  cmpbrne.b a9 0x1 0x7fbf;
    7f3d:	3e 51 7f 00       	  jmp 0x7f51;
    7f41:	18 0a 05          	  ldd.b a10 a0 0x5;
    7f44:	98 0b 02          	  ldd.w a11 a0 0x8;
    7f47:	7e f0 78 00       	  call 0x78f0;
    7f4b:	32 a1             	  mv.b a1 a10;
    7f4d:	3e bf 7f 00       	  jmp 0x7fbf;
    7f51:	18 01 08          	  ldd.b a1 a0 0x8;
    7f54:	32 2b             	  mv.b a11 a2;
    7f56:	b2 0a             	  mv.w a10 a0;
    7f58:	7e 81 0f 00       	  call 0xf81;
    7f5c:	0f 04             	  mvi a15 0x4;
    7f5e:	20 43             	  std.b a4 a3;
    7f60:	35 45 03          	  std.b a4 0x3 a5;
    7f63:	35 4f 02          	  std.b a4 0x2 a15;
    7f66:	33 10 00 0c       	  cmpbreq.b a1 0x0 0x7f72;
    7f6a:	33 14 01 7e       	  cmpbrne.b a1 0x1 0x7fe8;
    7f6e:	3e 94 7f 00       	  jmp 0x7f94;
    7f72:	98 09 02          	  ldd.w a9 a0 0x8;
    7f75:	b2 4a             	  mv.w a10 a4;
    7f77:	b2 7b             	  mv.w a11 a7;
    7f79:	a0 79             	  std.w a7 a9;
    7f7b:	90 09 08          	  add.w a9 a0 0x8;
    7f7e:	98 9f 01          	  ldd.w a15 a9 0x4;
    7f81:	b5 7f 01          	  std.w a7 0x4 a15;
    7f84:	98 9f 02          	  ldd.w a15 a9 0x8;
    7f87:	b5 7f 02          	  std.w a7 0x8 a15;
    7f8a:	98 99 03          	  ldd.w a9 a9 0xc;
    7f8d:	b5 79 03          	  std.w a7 0xc a9;
    7f90:	3e b2 7f 00       	  jmp 0x7fb2;
    7f94:	98 0f 02          	  ldd.w a15 a0 0x8;
    7f97:	90 09 08          	  add.w a9 a0 0x8;
    7f9a:	b2 4a             	  mv.w a10 a4;
    7f9c:	b2 6b             	  mv.w a11 a6;
    7f9e:	a0 6f             	  std.w a6 a15;
    7fa0:	98 9f 01          	  ldd.w a15 a9 0x4;
    7fa3:	b5 6f 01          	  std.w a6 0x4 a15;
    7fa6:	98 9f 02          	  ldd.w a15 a9 0x8;
    7fa9:	b5 6f 02          	  std.w a6 0x8 a15;
    7fac:	98 99 03          	  ldd.w a9 a9 0xc;
    7faf:	b5 69 03          	  std.w a6 0xc a9;
    7fb2:	09 14             	  mvi a9 0x14;
    7fb4:	35 49 01          	  std.b a4 0x1 a9;
    7fb7:	7e 61 0f 00       	  call 0xf61;
    7fbb:	3e 08 7f 00       	  jmp 0x7f08;
    7fbf:	b2 0a             	  mv.w a10 a0;
    7fc1:	32 2b             	  mv.b a11 a2;
    7fc3:	7e 81 0f 00       	  call 0xf81;
    7fc7:	0f 05             	  mvi a15 0x5;
    7fc9:	3d 94             	  clr.b a9;
    7fcb:	20 8f             	  std.b a8 a15;
    7fcd:	35 89 02          	  std.b a8 0x2 a9;
    7fd0:	18 00 03          	  ldd.b a0 a0 0x3;
    7fd3:	0f 04             	  mvi a15 0x4;
    7fd5:	b2 8a             	  mv.w a10 a8;
    7fd7:	35 8f 01          	  std.b a8 0x1 a15;
    7fda:	35 80 03          	  std.b a8 0x3 a0;
    7fdd:	bd b4             	  clr.w a11;
    7fdf:	7e 71 0f 00       	  call 0xf71;
    7fe3:	33 19 00 25 ff    	  cmpbreq.b a1 0x0 0x7f08;
    7fe8:	f8 02             	  halt;
    7fea:	3e 08 7f 00       	  jmp 0x7f08;

Disassembly of section .imem_bif:

00007fee <__bifSetXpPlLinkRate_LR10>:
    7fee:	df 2c 06 00 00    	  mvi a15 0x62c;
    7ff3:	bf ff             	  ldd.w a15 a15;
    7ff5:	f4 30 fc          	  addsp -0x4;
    7ff8:	fe 49 01          	  rspr a9 SP;
    7ffb:	a0 9f             	  std.w a9 a15;
    7ffd:	b3 b0 02 2c       	  cmpbreq.w a11 0x2 0x8029;
    8001:	b0 b6 02          	  cmp.w a11 0x2;
    8004:	f4 0c 0b          	  brgt 0x800f;
    8007:	b3 b4 01 10       	  cmpbrne.w a11 0x1 0x8017;
    800b:	3e 1d 80 00       	  jmp 0x801d;
    800f:	b3 b0 03 2d       	  cmpbreq.w a11 0x3 0x803c;
    8013:	b3 b0 04 3f       	  cmpbreq.w a11 0x4 0x8052;
    8017:	0e 02             	  mvi a14 0x2;
    8019:	3e 5f 80 00       	  jmp 0x805f;
    801d:	bf a9             	  ldd.w a9 a10;
    801f:	3d e4             	  clr.b a14;
    8021:	8f 00 00 0c       	  mvi a15 0xc0000;
    8025:	3e 4b 80 00       	  jmp 0x804b;
    8029:	bf a9             	  ldd.w a9 a10;
    802b:	8f ff ff f3       	  mvi a15 -0xc0001;
    802f:	3d e4             	  clr.b a14;
    8031:	fd 9f 04          	  and a9 a15;
    8034:	8f 00 00 08       	  mvi a15 0x80000;
    8038:	3e 4b 80 00       	  jmp 0x804b;
    803c:	bf a9             	  ldd.w a9 a10;
    803e:	8f ff ff f3       	  mvi a15 -0xc0001;
    8042:	3d e4             	  clr.b a14;
    8044:	fd 9f 04          	  and a9 a15;
    8047:	8f 00 00 04       	  mvi a15 0x40000;
    804b:	fd 9f 05          	  or a9 a15;
    804e:	3e 5d 80 00       	  jmp 0x805d;
    8052:	bf a9             	  ldd.w a9 a10;
    8054:	8f ff ff f3       	  mvi a15 -0xc0001;
    8058:	3d e4             	  clr.b a14;
    805a:	fd 9f 04          	  and a9 a15;
    805d:	a0 a9             	  std.w a10 a9;
    805f:	fe 49 01          	  rspr a9 SP;
    8062:	bf 9f             	  ldd.w a15 a9;
    8064:	d9 2c 06 00 00    	  mvi a9 0x62c;
    8069:	bf 99             	  ldd.w a9 a9;
    806b:	32 ea             	  mv.b a10 a14;
    806d:	a6 f9             	  cmp.w a15 a9;
    806f:	f4 0b 07          	  breq 0x8076;
    8072:	7e e9 42 00       	  call 0x42e9;
    8076:	f4 30 04          	  addsp 0x4;
    8079:	f8 00             	  ret;

0000807b <_bifGetPcieConfigSpaceIds_LR10>:
    807b:	f4 30 fc          	  addsp -0x4;
    807e:	f9 52             	  pushm a5;
    8080:	d2 2c 06 00 00    	  mvi a2 0x62c;
    8085:	bf 29             	  ldd.w a9 a2;
    8087:	b2 b3             	  mv.w a3 a11;
    8089:	b2 c4             	  mv.w a4 a12;
    808b:	b2 d5             	  mv.w a5 a13;
    808d:	b2 a0             	  mv.w a0 a10;
    808f:	fe 41 01          	  rspr a1 SP;
    8092:	8a 00 80 08       	  mvi a10 0x88000;
    8096:	90 11 18          	  add.w a1 a1 0x18;
    8099:	a0 19             	  std.w a1 a9;
    809b:	7e 22 1c 00       	  call 0x1c22;
    809f:	60 0a             	  std.h a0 a10;
    80a1:	b6 a5 10          	  lsr.w a10 0x10;
    80a4:	60 3a             	  std.h a3 a10;
    80a6:	8a 2c 80 08       	  mvi a10 0x8802c;
    80aa:	7e 22 1c 00       	  call 0x1c22;
    80ae:	60 4a             	  std.h a4 a10;
    80b0:	b6 a5 10          	  lsr.w a10 0x10;
    80b3:	60 5a             	  std.h a5 a10;
    80b5:	bf 1f             	  ldd.w a15 a1;
    80b7:	bf 29             	  ldd.w a9 a2;
    80b9:	a6 f9             	  cmp.w a15 a9;
    80bb:	f4 0b 07          	  breq 0x80c2;
    80be:	7e e9 42 00       	  call 0x42e9;
    80c2:	fb 55 04          	  popma a5 0x1 0x4;

000080c5 <_bifGetPcieNaksSentCount_LR10>:
    80c5:	f4 30 fc          	  addsp -0x4;
    80c8:	f9 22             	  pushm a2;
    80ca:	d1 2c 06 00 00    	  mvi a1 0x62c;
    80cf:	bf 19             	  ldd.w a9 a1;
    80d1:	b2 a2             	  mv.w a2 a10;
    80d3:	fe 40 01          	  rspr a0 SP;
    80d6:	8a 00 d5 08       	  mvi a10 0x8d500;
    80da:	90 00 0c          	  add.w a0 a0 0xc;
    80dd:	a0 09             	  std.w a0 a9;
    80df:	7e 22 1c 00       	  call 0x1c22;
    80e3:	bf 0f             	  ldd.w a15 a0;
    80e5:	f0 a3 00          	  sethi a10 0x0;
    80e8:	a0 2a             	  std.w a2 a10;
    80ea:	bf 19             	  ldd.w a9 a1;
    80ec:	a6 f9             	  cmp.w a15 a9;
    80ee:	f4 0b 07          	  breq 0x80f5;
    80f1:	7e e9 42 00       	  call 0x42e9;
    80f5:	fb 25 04          	  popma a2 0x1 0x4;

000080f8 <_bifGetPcieNaksRcvdCount_LR10>:
    80f8:	f4 30 fc          	  addsp -0x4;
    80fb:	f9 22             	  pushm a2;
    80fd:	d1 2c 06 00 00    	  mvi a1 0x62c;
    8102:	bf 19             	  ldd.w a9 a1;
    8104:	b2 a2             	  mv.w a2 a10;
    8106:	fe 40 01          	  rspr a0 SP;
    8109:	8a 40 d5 08       	  mvi a10 0x8d540;
    810d:	90 00 0c          	  add.w a0 a0 0xc;
    8110:	a0 09             	  std.w a0 a9;
    8112:	7e 22 1c 00       	  call 0x1c22;
    8116:	bf 0f             	  ldd.w a15 a0;
    8118:	f0 a3 00          	  sethi a10 0x0;
    811b:	a0 2a             	  std.w a2 a10;
    811d:	bf 19             	  ldd.w a9 a1;
    811f:	a6 f9             	  cmp.w a15 a9;
    8121:	f4 0b 07          	  breq 0x8128;
    8124:	7e e9 42 00       	  call 0x42e9;
    8128:	fb 25 04          	  popma a2 0x1 0x4;

0000812b <_bifGetPcieReplayRolloverCount_LR10>:
    812b:	f4 30 fc          	  addsp -0x4;
    812e:	f9 22             	  pushm a2;
    8130:	d1 2c 06 00 00    	  mvi a1 0x62c;
    8135:	bf 19             	  ldd.w a9 a1;
    8137:	b2 a2             	  mv.w a2 a10;
    8139:	fe 40 01          	  rspr a0 SP;
    813c:	8a 80 d5 08       	  mvi a10 0x8d580;
    8140:	90 00 0c          	  add.w a0 a0 0xc;
    8143:	a0 09             	  std.w a0 a9;
    8145:	7e 22 1c 00       	  call 0x1c22;
    8149:	bf 0f             	  ldd.w a15 a0;
    814b:	f0 a3 00          	  sethi a10 0x0;
    814e:	a0 2a             	  std.w a2 a10;
    8150:	bf 19             	  ldd.w a9 a1;
    8152:	a6 f9             	  cmp.w a15 a9;
    8154:	f4 0b 07          	  breq 0x815b;
    8157:	7e e9 42 00       	  call 0x42e9;
    815b:	fb 25 04          	  popma a2 0x1 0x4;

0000815e <_bifGetPcieReplayCount_LR10>:
    815e:	f4 30 fc          	  addsp -0x4;
    8161:	f9 22             	  pushm a2;
    8163:	d1 2c 06 00 00    	  mvi a1 0x62c;
    8168:	bf 19             	  ldd.w a9 a1;
    816a:	b2 a2             	  mv.w a2 a10;
    816c:	fe 40 01          	  rspr a0 SP;
    816f:	8a 80 d5 08       	  mvi a10 0x8d580;
    8173:	90 00 0c          	  add.w a0 a0 0xc;
    8176:	a0 09             	  std.w a0 a9;
    8178:	7e 22 1c 00       	  call 0x1c22;
    817c:	a0 2a             	  std.w a2 a10;
    817e:	bf 0f             	  ldd.w a15 a0;
    8180:	bf 19             	  ldd.w a9 a1;
    8182:	a6 f9             	  cmp.w a15 a9;
    8184:	f4 0b 07          	  breq 0x818b;
    8187:	7e e9 42 00       	  call 0x42e9;
    818b:	fb 25 04          	  popma a2 0x1 0x4;

0000818e <_bifGetPcieL0ToRecoveryCount_LR10>:
    818e:	f4 30 fc          	  addsp -0x4;
    8191:	f9 22             	  pushm a2;
    8193:	d1 2c 06 00 00    	  mvi a1 0x62c;
    8198:	bf 19             	  ldd.w a9 a1;
    819a:	b2 a2             	  mv.w a2 a10;
    819c:	fe 40 01          	  rspr a0 SP;
    819f:	8a 40 d6 08       	  mvi a10 0x8d640;
    81a3:	90 00 0c          	  add.w a0 a0 0xc;
    81a6:	a0 09             	  std.w a0 a9;
    81a8:	7e 22 1c 00       	  call 0x1c22;
    81ac:	a0 2a             	  std.w a2 a10;
    81ae:	bf 0f             	  ldd.w a15 a0;
    81b0:	bf 19             	  ldd.w a9 a1;
    81b2:	a6 f9             	  cmp.w a15 a9;
    81b4:	f4 0b 07          	  breq 0x81bb;
    81b7:	7e e9 42 00       	  call 0x42e9;
    81bb:	fb 25 04          	  popma a2 0x1 0x4;

000081be <_bifGetPcieCorrectableErrorCount_LR10>:
    81be:	f4 30 fc          	  addsp -0x4;
    81c1:	f9 22             	  pushm a2;
    81c3:	d1 2c 06 00 00    	  mvi a1 0x62c;
    81c8:	bf 19             	  ldd.w a9 a1;
    81ca:	b2 a2             	  mv.w a2 a10;
    81cc:	fe 40 01          	  rspr a0 SP;
    81cf:	8a 54 88 08       	  mvi a10 0x88854;
    81d3:	90 00 0c          	  add.w a0 a0 0xc;
    81d6:	a0 09             	  std.w a0 a9;
    81d8:	7e 22 1c 00       	  call 0x1c22;
    81dc:	bf 0f             	  ldd.w a15 a0;
    81de:	f0 a3 00          	  sethi a10 0x0;
    81e1:	a0 2a             	  std.w a2 a10;
    81e3:	bf 19             	  ldd.w a9 a1;
    81e5:	a6 f9             	  cmp.w a15 a9;
    81e7:	f4 0b 07          	  breq 0x81ee;
    81ea:	7e e9 42 00       	  call 0x42e9;
    81ee:	fb 25 04          	  popma a2 0x1 0x4;

000081f1 <_bifGetPcieFatalNonFatalUnsuppReqCount_LR10>:
    81f1:	f4 30 fc          	  addsp -0x4;
    81f4:	f9 42             	  pushm a4;
    81f6:	d1 2c 06 00 00    	  mvi a1 0x62c;
    81fb:	bf 19             	  ldd.w a9 a1;
    81fd:	b2 a3             	  mv.w a3 a10;
    81ff:	b2 b2             	  mv.w a2 a11;
    8201:	b2 c4             	  mv.w a4 a12;
    8203:	fe 40 01          	  rspr a0 SP;
    8206:	8a ac 84 08       	  mvi a10 0x884ac;
    820a:	90 00 14          	  add.w a0 a0 0x14;
    820d:	a0 09             	  std.w a0 a9;
    820f:	7e 22 1c 00       	  call 0x1c22;
    8213:	c7 a9 e8          	  uxtr a9 a10 0xe8;
    8216:	a0 29             	  std.w a2 a9;
    8218:	c7 a9 f0          	  uxtr a9 a10 0xf0;
    821b:	a0 39             	  std.w a3 a9;
    821d:	b6 a5 18          	  lsr.w a10 0x18;
    8220:	a0 4a             	  std.w a4 a10;
    8222:	bf 0f             	  ldd.w a15 a0;
    8224:	bf 19             	  ldd.w a9 a1;
    8226:	a6 f9             	  cmp.w a15 a9;
    8228:	f4 0b 07          	  breq 0x822f;
    822b:	7e e9 42 00       	  call 0x42e9;
    822f:	fb 45 04          	  popma a4 0x1 0x4;

00008232 <_bifGetPcieSpeedWidth_LR10>:
    8232:	f4 30 fc          	  addsp -0x4;
    8235:	df 2c 06 00 00    	  mvi a15 0x62c;
    823a:	f9 12             	  pushm a1;
    823c:	bf ff             	  ldd.w a15 a15;
    823e:	fe 49 01          	  rspr a9 SP;
    8241:	90 99 08          	  add.w a9 a9 0x8;
    8244:	b2 a0             	  mv.w a0 a10;
    8246:	a0 9f             	  std.w a9 a15;
    8248:	b2 b1             	  mv.w a1 a11;
    824a:	8a 88 80 08       	  mvi a10 0x88088;
    824e:	7e 22 1c 00       	  call 0x1c22;
    8252:	c7 a9 70          	  uxtr a9 a10 0x70;
    8255:	b3 90 02 1a       	  cmpbreq.w a9 0x2 0x826f;
    8259:	b0 96 02          	  cmp.w a9 0x2;
    825c:	f4 0c 0b          	  brgt 0x8267;
    825f:	b3 94 01 1d       	  cmpbrne.w a9 0x1 0x827c;
    8263:	3e 6f 82 00       	  jmp 0x826f;
    8267:	b3 90 03 08       	  cmpbreq.w a9 0x3 0x826f;
    826b:	b3 94 04 11       	  cmpbrne.w a9 0x4 0x827c;
    826f:	a0 09             	  std.w a0 a9;
    8271:	c7 aa b4          	  uxtr a10 a10 0xb4;
    8274:	b3 a4 04 10       	  cmpbrne.w a10 0x4 0x8284;
    8278:	3e a8 82 00       	  jmp 0x82a8;
    827c:	bd 94             	  clr.w a9;
    827e:	a0 09             	  std.w a0 a9;
    8280:	3e c2 82 00       	  jmp 0x82c2;
    8284:	b0 a6 04          	  cmp.w a10 0x4;
    8287:	f4 0c 0f          	  brgt 0x8296;
    828a:	b3 a0 01 18       	  cmpbreq.w a10 0x1 0x82a2;
    828e:	b3 a4 02 30       	  cmpbrne.w a10 0x2 0x82be;
    8292:	3e a2 82 00       	  jmp 0x82a2;
    8296:	b3 a0 08 18       	  cmpbreq.w a10 0x8 0x82ae;
    829a:	b3 a4 10 24       	  cmpbrne.w a10 0x10 0x82be;
    829e:	3e b8 82 00       	  jmp 0x82b8;
    82a2:	a0 1a             	  std.w a1 a10;
    82a4:	3e b2 82 00       	  jmp 0x82b2;
    82a8:	09 03             	  mvi a9 0x3;
    82aa:	3e b0 82 00       	  jmp 0x82b0;
    82ae:	09 04             	  mvi a9 0x4;
    82b0:	a0 19             	  std.w a1 a9;
    82b2:	3d a4             	  clr.b a10;
    82b4:	3e c4 82 00       	  jmp 0x82c4;
    82b8:	09 05             	  mvi a9 0x5;
    82ba:	3e b0 82 00       	  jmp 0x82b0;
    82be:	bd 94             	  clr.w a9;
    82c0:	a0 19             	  std.w a1 a9;
    82c2:	0a ff             	  mvi a10 -0x1;
    82c4:	fe 49 01          	  rspr a9 SP;
    82c7:	90 99 08          	  add.w a9 a9 0x8;
    82ca:	bf 9f             	  ldd.w a15 a9;
    82cc:	d9 2c 06 00 00    	  mvi a9 0x62c;
    82d1:	bf 99             	  ldd.w a9 a9;
    82d3:	a6 f9             	  cmp.w a15 a9;
    82d5:	f4 0b 07          	  breq 0x82dc;
    82d8:	7e e9 42 00       	  call 0x42e9;
    82dc:	fb 15 04          	  popma a1 0x1 0x4;

000082df <__bifGetBusSpeed_LR10>:
    82df:	f4 30 fc          	  addsp -0x4;
    82e2:	df 2c 06 00 00    	  mvi a15 0x62c;
    82e7:	f9 02             	  pushm a0;
    82e9:	bf ff             	  ldd.w a15 a15;
    82eb:	fe 49 01          	  rspr a9 SP;
    82ee:	90 99 04          	  add.w a9 a9 0x4;
    82f1:	b2 a0             	  mv.w a0 a10;
    82f3:	a0 9f             	  std.w a9 a15;
    82f5:	8a 88 80 08       	  mvi a10 0x88088;
    82f9:	7e 22 1c 00       	  call 0x1c22;
    82fd:	c7 aa 70          	  uxtr a10 a10 0x70;
    8300:	b3 a0 02 1a       	  cmpbreq.w a10 0x2 0x831a;
    8304:	b0 a6 02          	  cmp.w a10 0x2;
    8307:	f4 0c 0b          	  brgt 0x8312;
    830a:	b3 a4 01 18       	  cmpbrne.w a10 0x1 0x8322;
    830e:	3e 1a 83 00       	  jmp 0x831a;
    8312:	b3 a0 03 08       	  cmpbreq.w a10 0x3 0x831a;
    8316:	b3 a4 04 0c       	  cmpbrne.w a10 0x4 0x8322;
    831a:	a0 0a             	  std.w a0 a10;
    831c:	3d a4             	  clr.b a10;
    831e:	3e 28 83 00       	  jmp 0x8328;
    8322:	bd 94             	  clr.w a9;
    8324:	0a ff             	  mvi a10 -0x1;
    8326:	a0 09             	  std.w a0 a9;
    8328:	fe 49 01          	  rspr a9 SP;
    832b:	90 99 04          	  add.w a9 a9 0x4;
    832e:	bf 9f             	  ldd.w a15 a9;
    8330:	d9 2c 06 00 00    	  mvi a9 0x62c;
    8335:	bf 99             	  ldd.w a9 a9;
    8337:	a6 f9             	  cmp.w a15 a9;
    8339:	f4 0b 07          	  breq 0x8340;
    833c:	7e e9 42 00       	  call 0x42e9;
    8340:	fb 05 04          	  popma a0 0x1 0x4;

00008343 <__bifLtssmIsIdle_LR10>:
    8343:	f4 30 fc          	  addsp -0x4;
    8346:	f9 12             	  pushm a1;
    8348:	d1 2c 06 00 00    	  mvi a1 0x62c;
    834d:	bf 19             	  ldd.w a9 a1;
    834f:	fe 40 01          	  rspr a0 SP;
    8352:	8a 40 c0 08       	  mvi a10 0x8c040;
    8356:	90 00 08          	  add.w a0 a0 0x8;
    8359:	a0 09             	  std.w a0 a9;
    835b:	7e 22 1c 00       	  call 0x1c22;
    835f:	bf 0f             	  ldd.w a15 a0;
    8361:	bf 19             	  ldd.w a9 a1;
    8363:	f0 a4 1f          	  and a10 0x1f;
    8366:	f0 ac 0b          	  sgetb a10 0xb;
    8369:	a6 f9             	  cmp.w a15 a9;
    836b:	f4 0b 07          	  breq 0x8372;
    836e:	7e e9 42 00       	  call 0x42e9;
    8372:	fb 15 04          	  popma a1 0x1 0x4;

00008375 <__bifLtssmIsIdleAndLinkReady_LR10>:
    8375:	d9 2c 06 00 00    	  mvi a9 0x62c;
    837a:	bf 99             	  ldd.w a9 a9;
    837c:	f4 30 fc          	  addsp -0x4;
    837f:	fe 4f 01          	  rspr a15 SP;
    8382:	a0 f9             	  std.w a15 a9;
    8384:	7e 43 83 00       	  call 0x8343;
    8388:	33 a4 00 0a       	  cmpbrne.b a10 0x0 0x8392;
    838c:	bd a4             	  clr.w a10;
    838e:	3e 9d 83 00       	  jmp 0x839d;
    8392:	8a 2c d3 08       	  mvi a10 0x8d32c;
    8396:	7e 22 1c 00       	  call 0x1c22;
    839a:	c7 aa 12          	  uxtr a10 a10 0x12;
    839d:	fe 49 01          	  rspr a9 SP;
    83a0:	bf 9f             	  ldd.w a15 a9;
    83a2:	d9 2c 06 00 00    	  mvi a9 0x62c;
    83a7:	bf 99             	  ldd.w a9 a9;
    83a9:	a6 f9             	  cmp.w a15 a9;
    83ab:	f4 0b 07          	  breq 0x83b2;
    83ae:	7e e9 42 00       	  call 0x42e9;
    83b2:	f4 30 04          	  addsp 0x4;
    83b5:	f8 00             	  ret;

000083b7 <_bifDoLaneSelect_LR10>:
    83b7:	f4 30 fc          	  addsp -0x4;
    83ba:	f9 22             	  pushm a2;
    83bc:	d2 2c 06 00 00    	  mvi a2 0x62c;
    83c1:	bf 29             	  ldd.w a9 a2;
    83c3:	b2 a0             	  mv.w a0 a10;
    83c5:	fe 41 01          	  rspr a1 SP;
    83c8:	8a 00 d1 08       	  mvi a10 0x8d100;
    83cc:	90 11 0c          	  add.w a1 a1 0xc;
    83cf:	a0 19             	  std.w a1 a9;
    83d1:	7e 22 1c 00       	  call 0x1c22;
    83d5:	89 00 00 ff       	  mvi a9 -0x10000;
    83d9:	f1 04 ff ff       	  and a0 0xffff;
    83dd:	ff a9 b4          	  and a11 a10 a9;
    83e0:	8a 00 d1 08       	  mvi a10 0x8d100;
    83e4:	ff 0b b5          	  or a11 a0 a11;
    83e7:	7e b1 1c 00       	  call 0x1cb1;
    83eb:	bf 1f             	  ldd.w a15 a1;
    83ed:	bf 29             	  ldd.w a9 a2;
    83ef:	3d a4             	  clr.b a10;
    83f1:	a6 f9             	  cmp.w a15 a9;
    83f3:	f4 0b 07          	  breq 0x83fa;
    83f6:	7e e9 42 00       	  call 0x42e9;
    83fa:	fb 25 04          	  popma a2 0x1 0x4;

000083fd <_bifPollEomDoneStatus_LR10>:
    83fd:	f4 30 f8          	  addsp -0x8;
    8400:	df 2c 06 00 00    	  mvi a15 0x62c;
    8405:	f9 62             	  pushm a6;
    8407:	bf ff             	  ldd.w a15 a15;
    8409:	fe 49 01          	  rspr a9 SP;
    840c:	90 99 1f          	  add.w a9 a9 0x1f;
    840f:	20 9c             	  std.b a9 a12;
    8411:	b2 96             	  mv.w a6 a9;
    8413:	90 99 01          	  add.w a9 a9 0x1;
    8416:	32 a4             	  mv.b a4 a10;
    8418:	a0 9f             	  std.w a9 a15;
    841a:	b2 d3             	  mv.w a3 a13;
    841c:	c4 b2 ff          	  and a2 a11 0xff;
    841f:	0a 08             	  mvi a10 0x8;
    8421:	7e 22 1c 00       	  call 0x1c22;
    8425:	d9 00 00 00 40    	  mvi a9 0x40000000;
    842a:	bd 04             	  clr.w a0;
    842c:	05 01             	  mvi a5 0x1;
    842e:	ff a9 14          	  and a1 a10 a9;
    8431:	3e 5f 84 00       	  jmp 0x845f;
    8435:	bc 02 a0          	  add.w a10 a0 a2;
    8438:	bc 5a a4          	  lsl.w a10 a5 a10;
    843b:	7e b7 83 00       	  call 0x83b7;
    843f:	b3 14 00 1d       	  cmpbrne.w a1 0x0 0x845c;
    8443:	da 9d 44 00 00    	  mvi a10 0x449d;
    8448:	b2 6b             	  mv.w a11 a6;
    844a:	b2 3c             	  mv.w a12 a3;
    844c:	7e a9 15 00       	  call 0x15a9;
    8450:	33 a4 00 0c       	  cmpbrne.b a10 0x0 0x845c;
    8454:	f8 09             	  trap1;
    8456:	0a 04             	  mvi a10 0x4;
    8458:	3e 66 84 00       	  jmp 0x8466;
    845c:	90 00 01          	  add.w a0 a0 0x1;
    845f:	26 40             	  cmp.b a4 a0;
    8461:	f4 0c d4          	  brgt 0x8435;
    8464:	3d a4             	  clr.b a10;
    8466:	fe 49 01          	  rspr a9 SP;
    8469:	90 99 20          	  add.w a9 a9 0x20;
    846c:	bf 9f             	  ldd.w a15 a9;
    846e:	d9 2c 06 00 00    	  mvi a9 0x62c;
    8473:	bf 99             	  ldd.w a9 a9;
    8475:	a6 f9             	  cmp.w a15 a9;
    8477:	f4 0b 07          	  breq 0x847e;
    847a:	7e e9 42 00       	  call 0x42e9;
    847e:	fb 65 08          	  popma a6 0x1 0x8;

00008481 <__bifWriteNewPcieLinkSpeed_LR10>:
    8481:	f4 30 f8          	  addsp -0x8;
    8484:	df 2c 06 00 00    	  mvi a15 0x62c;
    8489:	f9 12             	  pushm a1;
    848b:	bf ff             	  ldd.w a15 a15;
    848d:	fe 49 01          	  rspr a9 SP;
    8490:	90 99 0c          	  add.w a9 a9 0xc;
    8493:	b2 b1             	  mv.w a1 a11;
    8495:	a0 9f             	  std.w a9 a15;
    8497:	b2 ab             	  mv.w a11 a10;
    8499:	8a 40 c0 08       	  mvi a10 0x8c040;
    849d:	7e b1 1c 00       	  call 0x1cb1;
    84a1:	da 75 83 00 00    	  mvi a10 0x8375;
    84a6:	bd b4             	  clr.w a11;
    84a8:	dc 00 2d 31 01    	  mvi a12 0x1312d00;
    84ad:	7e a9 15 00       	  call 0x15a9;
    84b1:	0e 04             	  mvi a14 0x4;
    84b3:	33 a0 00 1f       	  cmpbreq.b a10 0x0 0x84d2;
    84b7:	fe 40 01          	  rspr a0 SP;
    84ba:	90 00 08          	  add.w a0 a0 0x8;
    84bd:	b2 0a             	  mv.w a10 a0;
    84bf:	7e df 82 00       	  call 0x82df;
    84c3:	32 ae             	  mv.b a14 a10;
    84c5:	33 a4 00 0d       	  cmpbrne.b a10 0x0 0x84d2;
    84c9:	bf 09             	  ldd.w a9 a0;
    84cb:	a6 91             	  cmp.w a9 a1;
    84cd:	f4 0b 05          	  breq 0x84d2;
    84d0:	0e 3e             	  mvi a14 0x3e;
    84d2:	fe 49 01          	  rspr a9 SP;
    84d5:	90 99 0c          	  add.w a9 a9 0xc;
    84d8:	bf 9f             	  ldd.w a15 a9;
    84da:	d9 2c 06 00 00    	  mvi a9 0x62c;
    84df:	bf 99             	  ldd.w a9 a9;
    84e1:	32 ea             	  mv.b a10 a14;
    84e3:	a6 f9             	  cmp.w a15 a9;
    84e5:	f4 0b 07          	  breq 0x84ec;
    84e8:	7e e9 42 00       	  call 0x42e9;
    84ec:	fb 15 08          	  popma a1 0x1 0x8;

000084ef <_bifGetUphyDlnCfgSpace_LR10>:
    84ef:	f4 30 fc          	  addsp -0x4;
    84f2:	df 2c 06 00 00    	  mvi a15 0x62c;
    84f7:	f9 12             	  pushm a1;
    84f9:	bf ff             	  ldd.w a15 a15;
    84fb:	fe 49 01          	  rspr a9 SP;
    84fe:	90 99 08          	  add.w a9 a9 0x8;
    8501:	b2 b0             	  mv.w a0 a11;
    8503:	a0 9f             	  std.w a9 a15;
    8505:	b2 a1             	  mv.w a1 a10;
    8507:	8a 00 d1 08       	  mvi a10 0x8d100;
    850b:	7e 22 1c 00       	  call 0x1c22;
    850f:	89 00 00 ff       	  mvi a9 -0x10000;
    8513:	f1 04 ff ff       	  and a0 0xffff;
    8517:	ff a9 b4          	  and a11 a10 a9;
    851a:	8a 00 d1 08       	  mvi a10 0x8d100;
    851e:	ff 0b b5          	  or a11 a0 a11;
    8521:	7e b1 1c 00       	  call 0x1cb1;
    8525:	8a 70 d1 08       	  mvi a10 0x8d170;
    8529:	f1 14 ff 03       	  and a1 0x3ff;
    852d:	db 00 00 00 c0    	  mvi a11 -0x40000000;
    8532:	b6 14 10          	  lsl.w a1 0x10;
    8535:	ff 1b b5          	  or a11 a1 a11;
    8538:	7e b1 1c 00       	  call 0x1cb1;
    853c:	8a 74 d1 08       	  mvi a10 0x8d174;
    8540:	7e 22 1c 00       	  call 0x1c22;
    8544:	89 00 01 02       	  mvi a9 0x20100;
    8548:	f0 a3 00          	  sethi a10 0x0;
    854b:	f7 9a 00          	  stxb a9 0x0 a10;
    854e:	fe 49 01          	  rspr a9 SP;
    8551:	90 99 08          	  add.w a9 a9 0x8;
    8554:	bf 9f             	  ldd.w a15 a9;
    8556:	d9 2c 06 00 00    	  mvi a9 0x62c;
    855b:	bf 99             	  ldd.w a9 a9;
    855d:	3d a4             	  clr.b a10;
    855f:	a6 f9             	  cmp.w a15 a9;
    8561:	f4 0b 07          	  breq 0x8568;
    8564:	7e e9 42 00       	  call 0x42e9;
    8568:	fb 15 04          	  popma a1 0x1 0x4;

0000856b <_bifSetEomParameters_LR10>:
    856b:	f4 30 fc          	  addsp -0x4;
    856e:	f9 32             	  pushm a3;
    8570:	d2 2c 06 00 00    	  mvi a2 0x62c;
    8575:	bf 29             	  ldd.w a9 a2;
    8577:	32 c1             	  mv.b a1 a12;
    8579:	32 b0             	  mv.b a0 a11;
    857b:	8a 70 d1 08       	  mvi a10 0x8d170;
    857f:	db 00 00 29 c2    	  mvi a11 -0x3dd70000;
    8584:	fe 43 01          	  rspr a3 SP;
    8587:	90 33 10          	  add.w a3 a3 0x10;
    858a:	a0 39             	  std.w a3 a9;
    858c:	7e b1 1c 00       	  call 0x1cb1;
    8590:	8a 74 d1 08       	  mvi a10 0x8d174;
    8594:	7e 22 1c 00       	  call 0x1c22;
    8598:	f1 a4 f8 ff       	  and a10 0xfff8;
    859c:	db 02 00 29 a2    	  mvi a11 -0x5dd6fffe;
    85a1:	ff ab b5          	  or a11 a10 a11;
    85a4:	8a 70 d1 08       	  mvi a10 0x8d170;
    85a8:	7e b1 1c 00       	  call 0x1cb1;
    85ac:	f0 04 ff          	  and a0 0xff;
    85af:	f0 14 0f          	  and a1 0xf;
    85b2:	94 09 0c          	  lsl.w a9 a0 0xc;
    85b5:	94 1f 08          	  lsl.w a15 a1 0x8;
    85b8:	f1 94 ff ff       	  and a9 0xffff;
    85bc:	8a 70 d1 08       	  mvi a10 0x8d170;
    85c0:	b6 04 04          	  lsl.w a0 0x4;
    85c3:	db 00 00 2a a2    	  mvi a11 -0x5dd60000;
    85c8:	f0 04 ff          	  and a0 0xff;
    85cb:	fd 09 05          	  or a0 a9;
    85ce:	fd 01 05          	  or a0 a1;
    85d1:	fd 0f 05          	  or a0 a15;
    85d4:	ff 0b b5          	  or a11 a0 a11;
    85d7:	7e b1 1c 00       	  call 0x1cb1;
    85db:	bf 3f             	  ldd.w a15 a3;
    85dd:	bf 29             	  ldd.w a9 a2;
    85df:	3d a4             	  clr.b a10;
    85e1:	a6 f9             	  cmp.w a15 a9;
    85e3:	f4 0b 07          	  breq 0x85ea;
    85e6:	7e e9 42 00       	  call 0x42e9;
    85ea:	fb 35 04          	  popma a3 0x1 0x4;

000085ed <_bifGetEomStatus_LR10>:
    85ed:	f4 30 d4          	  addsp -0x2c;
    85f0:	f9 72             	  pushm a7;
    85f2:	b4 f0 15          	  lddsp.w a15 0x54;
    85f5:	fe 49 01          	  rspr a9 SP;
    85f8:	90 99 20          	  add.w a9 a9 0x20;
    85fb:	32 a2             	  mv.b a2 a10;
    85fd:	b5 9f 01          	  std.w a9 0x4 a15;
    8600:	b4 f0 14          	  lddsp.w a15 0x50;
    8603:	32 b4             	  mv.b a4 a11;
    8605:	32 c5             	  mv.b a5 a12;
    8607:	32 d6             	  mv.b a6 a13;
    8609:	a0 9f             	  std.w a9 a15;
    860b:	df 2c 06 00 00    	  mvi a15 0x62c;
    8610:	bf ff             	  ldd.w a15 a15;
    8612:	90 99 28          	  add.w a9 a9 0x28;
    8615:	b2 e3             	  mv.w a3 a14;
    8617:	a0 9f             	  std.w a9 a15;
    8619:	b3 e4 00 0a       	  cmpbrne.w a14 0x0 0x8623;
    861d:	3d 24             	  clr.b a2;
    861f:	3e 3b 87 00       	  jmp 0x873b;
    8623:	00 ff             	  mvi a0 -0x1;
    8625:	3d 14             	  clr.b a1;
    8627:	bd f4             	  clr.w a15;
    8629:	32 0e             	  mv.b a14 a0;
    862b:	bc 3f 95          	  lsr.w a9 a3 a15;
    862e:	f0 94 01          	  and a9 0x1;
    8631:	f4 0b 0d          	  breq 0x863e;
    8634:	26 0e             	  cmp.b a0 a14;
    8636:	f4 1b 05          	  brne 0x863b;
    8639:	32 f0             	  mv.b a0 a15;
    863b:	10 11 01          	  add.b a1 a1 0x1;
    863e:	90 ff 01          	  add.w a15 a15 0x1;
    8641:	b3 f4 10 ea       	  cmpbrne.w a15 0x10 0x862b;
    8645:	30 16 10          	  cmp.b a1 0x10;
    8648:	f4 0c 12          	  brgt 0x865a;
    864b:	c4 1f ff          	  and a15 a1 0xff;
    864e:	c4 09 ff          	  and a9 a0 0xff;
    8651:	bc f9 70          	  add.w a7 a15 a9;
    8654:	b0 76 10          	  cmp.w a7 0x10;
    8657:	f4 0d 0b          	  brlte 0x8662;
    865a:	f8 09             	  trap1;
    865c:	02 02             	  mvi a2 0x2;
    865e:	3e 3b 87 00       	  jmp 0x873b;
    8662:	b2 3a             	  mv.w a10 a3;
    8664:	7e b7 83 00       	  call 0x83b7;
    8668:	32 5c             	  mv.b a12 a5;
    866a:	32 6d             	  mv.b a13 a6;
    866c:	32 4b             	  mv.b a11 a4;
    866e:	32 2a             	  mv.b a10 a2;
    8670:	7e 6b 85 00       	  call 0x856b;
    8674:	b2 3a             	  mv.w a10 a3;
    8676:	7e b7 83 00       	  call 0x83b7;
    867a:	8a 14 d1 08       	  mvi a10 0x8d114;
    867e:	7e 22 1c 00       	  call 0x1c22;
    8682:	49 7f ff          	  mvi a9 -0x81;
    8685:	ff a9 b4          	  and a11 a10 a9;
    8688:	8a 14 d1 08       	  mvi a10 0x8d114;
    868c:	7e b1 1c 00       	  call 0x1cb1;
    8690:	32 1a             	  mv.b a10 a1;
    8692:	32 0b             	  mv.b a11 a0;
    8694:	3d c4             	  clr.b a12;
    8696:	0d 64             	  mvi a13 0x64;
    8698:	7e fd 83 00       	  call 0x83fd;
    869c:	32 a2             	  mv.b a2 a10;
    869e:	33 ad 00 9d 00    	  cmpbrne.b a10 0x0 0x873b;
    86a3:	b2 3a             	  mv.w a10 a3;
    86a5:	7e b7 83 00       	  call 0x83b7;
    86a9:	8a 14 d1 08       	  mvi a10 0x8d114;
    86ad:	7e 22 1c 00       	  call 0x1c22;
    86b1:	e5 ab 80 40       	  or a11 a10 0x4080;
    86b5:	8a 14 d1 08       	  mvi a10 0x8d114;
    86b9:	7e b1 1c 00       	  call 0x1cb1;
    86bd:	32 1a             	  mv.b a10 a1;
    86bf:	32 0b             	  mv.b a11 a0;
    86c1:	0c 01             	  mvi a12 0x1;
    86c3:	8d a0 25 26       	  mvi a13 0x2625a0;
    86c7:	7e fd 83 00       	  call 0x83fd;
    86cb:	32 a2             	  mv.b a2 a10;
    86cd:	33 a4 00 6e       	  cmpbrne.b a10 0x0 0x873b;
    86d1:	b2 3a             	  mv.w a10 a3;
    86d3:	7e b7 83 00       	  call 0x83b7;
    86d7:	8a 14 d1 08       	  mvi a10 0x8d114;
    86db:	7e 22 1c 00       	  call 0x1c22;
    86df:	49 7f bf          	  mvi a9 -0x4081;
    86e2:	fe 43 01          	  rspr a3 SP;
    86e5:	ff a9 b4          	  and a11 a10 a9;
    86e8:	32 01             	  mv.b a1 a0;
    86ea:	8a 14 d1 08       	  mvi a10 0x8d114;
    86ee:	90 33 28          	  add.w a3 a3 0x28;
    86f1:	7e b1 1c 00       	  call 0x1cb1;
    86f5:	04 01             	  mvi a4 0x1;
    86f7:	3e 18 87 00       	  jmp 0x8718;
    86fb:	bc 40 a4          	  lsl.w a10 a4 a0;
    86fe:	7e b7 83 00       	  call 0x83b7;
    8702:	8a 14 d1 08       	  mvi a10 0x8d114;
    8706:	7e 22 1c 00       	  call 0x1c22;
    870a:	bc 00 90          	  add.w a9 a0 a0;
    870d:	b6 a5 10          	  lsr.w a10 0x10;
    8710:	bc 39 90          	  add.w a9 a3 a9;
    8713:	10 11 01          	  add.b a1 a1 0x1;
    8716:	60 9a             	  std.h a9 a10;
    8718:	c4 10 ff          	  and a0 a1 0xff;
    871b:	a6 07             	  cmp.w a0 a7;
    871d:	f4 1e de          	  brslt 0x86fb;
    8720:	fe 49 01          	  rspr a9 SP;
    8723:	90 99 20          	  add.w a9 a9 0x20;
    8726:	98 9c 01          	  ldd.w a12 a9 0x4;
    8729:	bf 9b             	  ldd.w a11 a9;
    872b:	b2 3a             	  mv.w a10 a3;
    872d:	bd d4             	  clr.w a13;
    872f:	0e 20             	  mvi a14 0x20;
    8731:	7e d8 26 00       	  call 0x26d8;
    8735:	33 a0 00 06       	  cmpbreq.b a10 0x0 0x873b;
    8739:	f8 02             	  halt;
    873b:	fe 49 01          	  rspr a9 SP;
    873e:	90 99 48          	  add.w a9 a9 0x48;
    8741:	bf 9f             	  ldd.w a15 a9;
    8743:	d9 2c 06 00 00    	  mvi a9 0x62c;
    8748:	bf 99             	  ldd.w a9 a9;
    874a:	32 2a             	  mv.b a10 a2;
    874c:	a6 f9             	  cmp.w a15 a9;
    874e:	f4 0b 07          	  breq 0x8755;
    8751:	7e e9 42 00       	  call 0x42e9;
    8755:	fb 75 2c          	  popma a7 0x1 0x2c;

00008758 <_bifSetPcieLinkSpeed_LR10>:
    8758:	f4 30 e8          	  addsp -0x18;
    875b:	d9 2c 06 00 00    	  mvi a9 0x62c;
    8760:	f9 52             	  pushm a5;
    8762:	bf 99             	  ldd.w a9 a9;
    8764:	fe 4f 01          	  rspr a15 SP;
    8767:	90 ff 2c          	  add.w a15 a15 0x2c;
    876a:	b2 a2             	  mv.w a2 a10;
    876c:	a0 f9             	  std.w a15 a9;
    876e:	8a c0 b8 08       	  mvi a10 0x8b8c0;
    8772:	7e 22 1c 00       	  call 0x1c22;
    8776:	b2 a5             	  mv.w a5 a10;
    8778:	8a c0 b8 08       	  mvi a10 0x8b8c0;
    877c:	c5 5b 04          	  or a11 a5 0x4;
    877f:	7e b1 1c 00       	  call 0x1cb1;
    8783:	da 43 83 00 00    	  mvi a10 0x8343;
    8788:	bd b4             	  clr.w a11;
    878a:	8c 40 0d 03       	  mvi a12 0x30d40;
    878e:	00 04             	  mvi a0 0x4;
    8790:	7e a9 15 00       	  call 0x15a9;
    8794:	33 a9 00 a8 00    	  cmpbreq.b a10 0x0 0x883c;
    8799:	8a 40 c0 08       	  mvi a10 0x8c040;
    879d:	7e 22 1c 00       	  call 0x1c22;
    87a1:	fe 41 01          	  rspr a1 SP;
    87a4:	b2 2b             	  mv.w a11 a2;
    87a6:	90 11 28          	  add.w a1 a1 0x28;
    87a9:	a0 1a             	  std.w a1 a10;
    87ab:	b2 1a             	  mv.w a10 a1;
    87ad:	7e ee 7f 00       	  call 0x7fee;
    87b1:	32 a0             	  mv.b a0 a10;
    87b3:	33 ad 00 89 00    	  cmpbrne.b a10 0x0 0x883c;
    87b8:	bf 19             	  ldd.w a9 a1;
    87ba:	0f f0             	  mvi a15 -0x10;
    87bc:	b2 13             	  mv.w a3 a1;
    87be:	fe 4a 01          	  rspr a10 SP;
    87c1:	fd 9f 04          	  and a9 a15;
    87c4:	f0 95 01          	  or a9 0x1;
    87c7:	90 aa 18          	  add.w a10 a10 0x18;
    87ca:	a0 19             	  std.w a1 a9;
    87cc:	b2 a4             	  mv.w a4 a10;
    87ce:	d1 7f f0 fa 02    	  mvi a1 0x2faf07f;
    87d3:	7e 81 15 00       	  call 0x1581;
    87d7:	bf 3a             	  ldd.w a10 a3;
    87d9:	b2 2b             	  mv.w a11 a2;
    87db:	7e 81 84 00       	  call 0x8481;
    87df:	32 a0             	  mv.b a0 a10;
    87e1:	33 a4 3e 21       	  cmpbrne.b a10 0x3e 0x8802;
    87e5:	b2 4a             	  mv.w a10 a4;
    87e7:	7e 9c 15 00       	  call 0x159c;
    87eb:	a6 a1             	  cmp.w a10 a1;
    87ed:	f4 0d ea          	  brlte 0x87d7;
    87f0:	bf 3a             	  ldd.w a10 a3;
    87f2:	b2 2b             	  mv.w a11 a2;
    87f4:	7e 81 84 00       	  call 0x8481;
    87f8:	33 a4 3e df       	  cmpbrne.b a10 0x3e 0x87d7;
    87fc:	00 04             	  mvi a0 0x4;
    87fe:	3e 06 88 00       	  jmp 0x8806;
    8802:	33 a0 00 3a       	  cmpbreq.b a10 0x0 0x883c;
    8806:	fe 49 01          	  rspr a9 SP;
    8809:	90 99 28          	  add.w a9 a9 0x28;
    880c:	bf 99             	  ldd.w a9 a9;
    880e:	fe 41 01          	  rspr a1 SP;
    8811:	fe 42 01          	  rspr a2 SP;
    8814:	90 11 24          	  add.w a1 a1 0x24;
    8817:	90 22 20          	  add.w a2 a2 0x20;
    881a:	a0 19             	  std.w a1 a9;
    881c:	b2 2a             	  mv.w a10 a2;
    881e:	7e df 82 00       	  call 0x82df;
    8822:	33 a4 00 1a       	  cmpbrne.b a10 0x0 0x883c;
    8826:	bf 2b             	  ldd.w a11 a2;
    8828:	b2 1a             	  mv.w a10 a1;
    882a:	7e ee 7f 00       	  call 0x7fee;
    882e:	33 a4 00 0e       	  cmpbrne.b a10 0x0 0x883c;
    8832:	bf 1b             	  ldd.w a11 a1;
    8834:	8a 40 c0 08       	  mvi a10 0x8c040;
    8838:	7e b1 1c 00       	  call 0x1cb1;
    883c:	8a c0 b8 08       	  mvi a10 0x8b8c0;
    8840:	b2 5b             	  mv.w a11 a5;
    8842:	7e b1 1c 00       	  call 0x1cb1;
    8846:	fe 49 01          	  rspr a9 SP;
    8849:	90 99 2c          	  add.w a9 a9 0x2c;
    884c:	bf 9f             	  ldd.w a15 a9;
    884e:	d9 2c 06 00 00    	  mvi a9 0x62c;
    8853:	bf 99             	  ldd.w a9 a9;
    8855:	32 0a             	  mv.b a10 a0;
    8857:	a6 f9             	  cmp.w a15 a9;
    8859:	f4 0b 07          	  breq 0x8860;
    885c:	7e e9 42 00       	  call 0x42e9;
    8860:	fb 55 18          	  popma a5 0x1 0x18;

00008863 <_task_bif>:
    8863:	f4 30 dc          	  addsp -0x24;
    8866:	df 2c 06 00 00    	  mvi a15 0x62c;
    886b:	f9 82             	  pushm a8;
    886d:	bf ff             	  ldd.w a15 a15;
    886f:	f4 30 f8          	  addsp -0x8;
    8872:	fe 49 01          	  rspr a9 SP;
    8875:	90 99 4c          	  add.w a9 a9 0x4c;
    8878:	a0 9f             	  std.w a9 a15;
    887a:	fe 40 01          	  rspr a0 SP;
    887d:	92 99 0c          	  sub.w a9 a9 0xc;
    8880:	bd f4             	  clr.w a15;
    8882:	90 00 2c          	  add.w a0 a0 0x2c;
    8885:	fe 42 01          	  rspr a2 SP;
    8888:	b2 93             	  mv.w a3 a9;
    888a:	b5 9f 01          	  std.w a9 0x4 a15;
    888d:	a0 9f             	  std.w a9 a15;
    888f:	90 22 48          	  add.w a2 a2 0x48;
    8892:	08 02             	  mvi a8 0x2;
    8894:	3d 74             	  clr.b a7;
    8896:	06 04             	  mvi a6 0x4;
    8898:	90 04 0c          	  add.w a4 a0 0xc;
    889b:	d9 24 14 00 00    	  mvi a9 0x1424;
    88a0:	bf 9a             	  ldd.w a10 a9;
    88a2:	b2 3b             	  mv.w a11 a3;
    88a4:	0c 08             	  mvi a12 0x8;
    88a6:	0d ff             	  mvi a13 -0x1;
    88a8:	7e c1 00 00       	  call 0xc1;
    88ac:	33 a4 00 ef       	  cmpbrne.b a10 0x0 0x889b;
    88b0:	98 31 01          	  ldd.w a1 a3 0x4;
    88b3:	3f 19             	  ldd.b a9 a1;
    88b5:	33 94 0a e6       	  cmpbrne.b a9 0xa 0x889b;
    88b9:	98 1e 01          	  ldd.w a14 a1 0x4;
    88bc:	18 1f 04          	  ldd.b a15 a1 0x4;
    88bf:	90 19 04          	  add.w a9 a1 0x4;
    88c2:	18 35 01          	  ldd.b a5 a3 0x1;
    88c5:	a0 0e             	  std.w a0 a14;
    88c7:	98 9e 01          	  ldd.w a14 a9 0x4;
    88ca:	b5 0e 01          	  std.w a0 0x4 a14;
    88cd:	98 9e 02          	  ldd.w a14 a9 0x8;
    88d0:	b5 0e 02          	  std.w a0 0x8 a14;
    88d3:	98 9e 03          	  ldd.w a14 a9 0xc;
    88d6:	b5 0e 03          	  std.w a0 0xc a14;
    88d9:	98 99 04          	  ldd.w a9 a9 0x10;
    88dc:	b5 09 04          	  std.w a0 0x10 a9;
    88df:	33 f0 02 4a       	  cmpbreq.b a15 0x2 0x8929;
    88e3:	30 f6 02          	  cmp.b a15 0x2;
    88e6:	f4 0c 0f          	  brgt 0x88f5;
    88e9:	33 f0 00 1e       	  cmpbreq.b a15 0x0 0x8907;
    88ed:	33 f4 01 ae       	  cmpbrne.b a15 0x1 0x889b;
    88f1:	3e 1b 89 00       	  jmp 0x891b;
    88f5:	33 f0 04 67       	  cmpbreq.b a15 0x4 0x895c;
    88f9:	30 f6 04          	  cmp.b a15 0x4;
    88fc:	f4 08 38          	  brc 0x8934;
    88ff:	33 f4 05 9c       	  cmpbrne.b a15 0x5 0x889b;
    8903:	3e 56 89 00       	  jmp 0x8956;
    8907:	18 0a 01          	  ldd.b a10 a0 0x1;
    890a:	18 0b 03          	  ldd.b a11 a0 0x3;
    890d:	18 0c 02          	  ldd.b a12 a0 0x2;
    8910:	18 0d 04          	  ldd.b a13 a0 0x4;
    8913:	7e 6b 85 00       	  call 0x856b;
    8917:	3e 62 89 00       	  jmp 0x8962;
    891b:	98 0a 01          	  ldd.w a10 a0 0x4;
    891e:	98 0b 02          	  ldd.w a11 a0 0x8;
    8921:	7e ef 84 00       	  call 0x84ef;
    8925:	3e 62 89 00       	  jmp 0x8962;
    8929:	98 0a 01          	  ldd.w a10 a0 0x4;
    892c:	7e 58 87 00       	  call 0x8758;
    8930:	3e 62 89 00       	  jmp 0x8962;
    8934:	bf 49             	  ldd.w a9 a4;
    8936:	18 0a 01          	  ldd.b a10 a0 0x1;
    8939:	18 0b 03          	  ldd.b a11 a0 0x3;
    893c:	18 0c 02          	  ldd.b a12 a0 0x2;
    893f:	18 0d 04          	  ldd.b a13 a0 0x4;
    8942:	98 0e 02          	  ldd.w a14 a0 0x8;
    8945:	b0 91 00          	  stdsp.w a9 0x0;
    8948:	98 49 01          	  ldd.w a9 a4 0x4;
    894b:	b0 91 01          	  stdsp.w a9 0x4;
    894e:	7e ed 85 00       	  call 0x85ed;
    8952:	3e 62 89 00       	  jmp 0x8962;
    8956:	f8 02             	  halt;
    8958:	3e 67 89 00       	  jmp 0x8967;
    895c:	f8 02             	  halt;
    895e:	3e 9b 88 00       	  jmp 0x889b;
    8962:	33 ad 00 39 ff    	  cmpbrne.b a10 0x0 0x889b;
    8967:	20 28             	  std.b a2 a8;
    8969:	35 27 02          	  std.b a2 0x2 a7;
    896c:	18 1e 03          	  ldd.b a14 a1 0x3;
    896f:	32 5b             	  mv.b a11 a5;
    8971:	b2 1a             	  mv.w a10 a1;
    8973:	35 26 01          	  std.b a2 0x1 a6;
    8976:	35 2e 03          	  std.b a2 0x3 a14;
    8979:	7e 81 0f 00       	  call 0xf81;
    897d:	b2 2a             	  mv.w a10 a2;
    897f:	bd b4             	  clr.w a11;
    8981:	7e 71 0f 00       	  call 0xf71;
    8985:	3e 9b 88 00       	  jmp 0x889b;

Disassembly of section .imem_core:

00008989 <_corePreInit>:
    8989:	d9 24 06 00 00    	  mvi a9 0x624;
    898e:	f4 30 fc          	  addsp -0x4;
    8991:	f9 12             	  pushm a1;
    8993:	d1 2c 06 00 00    	  mvi a1 0x62c;
    8998:	bf 9a             	  ldd.w a10 a9;
    899a:	bf 19             	  ldd.w a9 a1;
    899c:	db 14 14 00 00    	  mvi a11 0x1414;
    89a1:	0c 01             	  mvi a12 0x1;
    89a3:	fe 40 01          	  rspr a0 SP;
    89a6:	90 00 08          	  add.w a0 a0 0x8;
    89a9:	a0 09             	  std.w a0 a9;
    89ab:	7e f3 72 00       	  call 0x72f3;
    89af:	7e fe 89 00       	  call 0x89fe;
    89b3:	bf 0f             	  ldd.w a15 a0;
    89b5:	bf 19             	  ldd.w a9 a1;
    89b7:	a6 f9             	  cmp.w a15 a9;
    89b9:	f4 0b 07          	  breq 0x89c0;
    89bc:	7e e9 42 00       	  call 0x42e9;
    89c0:	fb 15 04          	  popma a1 0x1 0x4;

000089c3 <_constructCore>:
    89c3:	f4 30 fc          	  addsp -0x4;
    89c6:	f9 12             	  pushm a1;
    89c8:	d1 2c 06 00 00    	  mvi a1 0x62c;
    89cd:	bf 19             	  ldd.w a9 a1;
    89cf:	fe 40 01          	  rspr a0 SP;
    89d2:	90 00 08          	  add.w a0 a0 0x8;
    89d5:	da e4 2f 00 00    	  mvi a10 0x2fe4;
    89da:	a0 09             	  std.w a0 a9;
    89dc:	d9 34 14 00 00    	  mvi a9 0x1434;
    89e1:	bf 9f             	  ldd.w a15 a9;
    89e3:	3d 94             	  clr.b a9;
    89e5:	20 a9             	  std.b a10 a9;
    89e7:	98 f9 02          	  ldd.w a9 a15 0x8;
    89ea:	f9 95             	  call a9;
    89ec:	bf 0f             	  ldd.w a15 a0;
    89ee:	bf 19             	  ldd.w a9 a1;
    89f0:	3d a4             	  clr.b a10;
    89f2:	a6 f9             	  cmp.w a15 a9;
    89f4:	f4 0b 07          	  breq 0x89fb;
    89f7:	7e e9 42 00       	  call 0x42e9;
    89fb:	fb 15 04          	  popma a1 0x1 0x4;

000089fe <_corePreInit_LR10>:
    89fe:	f4 30 fc          	  addsp -0x4;
    8a01:	f9 12             	  pushm a1;
    8a03:	d1 2c 06 00 00    	  mvi a1 0x62c;
    8a08:	bf 19             	  ldd.w a9 a1;
    8a0a:	fe 40 01          	  rspr a0 SP;
    8a0d:	90 00 08          	  add.w a0 a0 0x8;
    8a10:	a0 09             	  std.w a0 a9;
    8a12:	7e 25 46 00       	  call 0x4625;
    8a16:	7e d8 44 00       	  call 0x44d8;
    8a1a:	bf 0f             	  ldd.w a15 a0;
    8a1c:	bf 19             	  ldd.w a9 a1;
    8a1e:	a6 f9             	  cmp.w a15 a9;
    8a20:	f4 0b 07          	  breq 0x8a27;
    8a23:	7e e9 42 00       	  call 0x42e9;
    8a27:	fb 15 04          	  popma a1 0x1 0x4;

00008a2a <_coreReadBios_LR10>:
    8a2a:	f4 30 f4          	  addsp -0xc;
    8a2d:	d9 2c 06 00 00    	  mvi a9 0x62c;
    8a32:	f9 22             	  pushm a2;
    8a34:	bf 99             	  ldd.w a9 a9;
    8a36:	f4 30 fc          	  addsp -0x4;
    8a39:	fe 40 01          	  rspr a0 SP;
    8a3c:	fe 4f 01          	  rspr a15 SP;
    8a3f:	90 00 10          	  add.w a0 a0 0x10;
    8a42:	90 ff 18          	  add.w a15 a15 0x18;
    8a45:	a0 0c             	  std.w a0 a12;
    8a47:	b5 0d 01          	  std.w a0 0x4 a13;
    8a4a:	b2 a1             	  mv.w a1 a10;
    8a4c:	b2 b2             	  mv.w a2 a11;
    8a4e:	a0 f9             	  std.w a15 a9;
    8a50:	7e 63 48 00       	  call 0x4863;
    8a54:	0e ff             	  mvi a14 -0x1;
    8a56:	33 a0 00 1e       	  cmpbreq.b a10 0x0 0x8a74;
    8a5a:	98 09 01          	  ldd.w a9 a0 0x4;
    8a5d:	da 9c 2a 00 00    	  mvi a10 0x2a9c;
    8a62:	b2 1c             	  mv.w a12 a1;
    8a64:	b2 2d             	  mv.w a13 a2;
    8a66:	b0 91 00          	  stdsp.w a9 0x0;
    8a69:	bf 0e             	  ldd.w a14 a0;
    8a6b:	98 ab 07          	  ldd.w a11 a10 0x1c;
    8a6e:	7e 6e 4e 00       	  call 0x4e6e;
    8a72:	32 ae             	  mv.b a14 a10;
    8a74:	fe 49 01          	  rspr a9 SP;
    8a77:	90 99 18          	  add.w a9 a9 0x18;
    8a7a:	bf 9f             	  ldd.w a15 a9;
    8a7c:	d9 2c 06 00 00    	  mvi a9 0x62c;
    8a81:	bf 99             	  ldd.w a9 a9;
    8a83:	32 ea             	  mv.b a10 a14;
    8a85:	a6 f9             	  cmp.w a15 a9;
    8a87:	f4 0b 07          	  breq 0x8a8e;
    8a8a:	7e e9 42 00       	  call 0x42e9;
    8a8e:	f4 30 04          	  addsp 0x4;
    8a91:	fb 25 0c          	  popma a2 0x1 0xc;

00008a94 <_coreReadBiosSize_LR10>:
    8a94:	df 2c 06 00 00    	  mvi a15 0x62c;
    8a99:	bf ff             	  ldd.w a15 a15;
    8a9b:	f4 30 f0          	  addsp -0x10;
    8a9e:	fe 49 01          	  rspr a9 SP;
    8aa1:	90 99 0c          	  add.w a9 a9 0xc;
    8aa4:	a0 9f             	  std.w a9 a15;
    8aa6:	d9 9c 2a 00 00    	  mvi a9 0x2a9c;
    8aab:	98 9f 07          	  ldd.w a15 a9 0x1c;
    8aae:	fe 49 01          	  rspr a9 SP;
    8ab1:	a0 9a             	  std.w a9 a10;
    8ab3:	b5 9b 01          	  std.w a9 0x4 a11;
    8ab6:	bf fe             	  ldd.w a14 a15;
    8ab8:	98 ff 01          	  ldd.w a15 a15 0x4;
    8abb:	90 99 08          	  add.w a9 a9 0x8;
    8abe:	b2 bc             	  mv.w a12 a11;
    8ac0:	bd d4             	  clr.w a13;
    8ac2:	bb fe 02          	  sub.w a15 a14;
    8ac5:	b2 ab             	  mv.w a11 a10;
    8ac7:	a0 9f             	  std.w a9 a15;
    8ac9:	b2 9a             	  mv.w a10 a9;
    8acb:	0e 04             	  mvi a14 0x4;
    8acd:	7e d8 26 00       	  call 0x26d8;
    8ad1:	33 a0 00 08       	  cmpbreq.b a10 0x0 0x8ad9;
    8ad5:	f8 02             	  halt;
    8ad7:	0a 01             	  mvi a10 0x1;
    8ad9:	fe 49 01          	  rspr a9 SP;
    8adc:	90 99 0c          	  add.w a9 a9 0xc;
    8adf:	bf 9f             	  ldd.w a15 a9;
    8ae1:	d9 2c 06 00 00    	  mvi a9 0x62c;
    8ae6:	bf 99             	  ldd.w a9 a9;
    8ae8:	a6 f9             	  cmp.w a15 a9;
    8aea:	f4 0b 07          	  breq 0x8af1;
    8aed:	7e e9 42 00       	  call 0x42e9;
    8af1:	f4 30 10          	  addsp 0x10;
    8af4:	f8 00             	  ret;

00008af6 <_task_core>:
    8af6:	f4 30 c0          	  addsp -0x40;
    8af9:	d9 2c 06 00 00    	  mvi a9 0x62c;
    8afe:	f9 82             	  pushm a8;
    8b00:	bf 99             	  ldd.w a9 a9;
    8b02:	fe 4f 01          	  rspr a15 SP;
    8b05:	90 ff 60          	  add.w a15 a15 0x60;
    8b08:	fe 46 01          	  rspr a6 SP;
    8b0b:	a0 f9             	  std.w a15 a9;
    8b0d:	bd 94             	  clr.w a9;
    8b0f:	90 66 2c          	  add.w a6 a6 0x2c;
    8b12:	b0 91 16          	  stdsp.w a9 0x58;
    8b15:	b0 91 15          	  stdsp.w a9 0x54;
    8b18:	fe 44 01          	  rspr a4 SP;
    8b1b:	fe 48 01          	  rspr a8 SP;
    8b1e:	90 69 04          	  add.w a9 a6 0x4;
    8b21:	90 44 40          	  add.w a4 a4 0x40;
    8b24:	90 88 5c          	  add.w a8 a8 0x5c;
    8b27:	b0 91 09          	  stdsp.w a9 0x24;
    8b2a:	3e 74 8c 00       	  jmp 0x8c74;
    8b2e:	b4 50 16          	  lddsp.w a5 0x58;
    8b31:	3f 59             	  ldd.b a9 a5;
    8b33:	33 9d 0b 41 01    	  cmpbrne.b a9 0xb 0x8c74;
    8b38:	98 5e 01          	  ldd.w a14 a5 0x4;
    8b3b:	18 5f 04          	  ldd.b a15 a5 0x4;
    8b3e:	90 59 04          	  add.w a9 a5 0x4;
    8b41:	a0 4e             	  std.w a4 a14;
    8b43:	34 e0 55          	  lddsp.b a14 0x55;
    8b46:	30 e1 2b          	  stdsp.b a14 0x2b;
    8b49:	98 9e 01          	  ldd.w a14 a9 0x4;
    8b4c:	b5 4e 01          	  std.w a4 0x4 a14;
    8b4f:	98 9e 02          	  ldd.w a14 a9 0x8;
    8b52:	b5 4e 02          	  std.w a4 0x8 a14;
    8b55:	98 9e 03          	  ldd.w a14 a9 0xc;
    8b58:	b5 4e 03          	  std.w a4 0xc a14;
    8b5b:	98 99 04          	  ldd.w a9 a9 0x10;
    8b5e:	b5 49 04          	  std.w a4 0x10 a9;
    8b61:	33 f0 01 2d       	  cmpbreq.b a15 0x1 0x8b8e;
    8b65:	30 f6 01          	  cmp.b a15 0x1;
    8b68:	f4 08 0c          	  brc 0x8b74;
    8b6b:	33 fd 02 07 01    	  cmpbrne.b a15 0x2 0x8c72;
    8b70:	3e ae 8b 00       	  jmp 0x8bae;
    8b74:	98 49 02          	  ldd.w a9 a4 0x8;
    8b77:	98 4a 01          	  ldd.w a10 a4 0x4;
    8b7a:	b5 69 02          	  std.w a6 0x8 a9;
    8b7d:	b4 e0 09          	  lddsp.w a14 0x24;
    8b80:	b5 6a 01          	  std.w a6 0x4 a10;
    8b83:	98 eb 01          	  ldd.w a11 a14 0x4;
    8b86:	7e 94 8a 00       	  call 0x8a94;
    8b8a:	3e 45 8c 00       	  jmp 0x8c45;
    8b8e:	98 49 02          	  ldd.w a9 a4 0x8;
    8b91:	98 4c 01          	  ldd.w a12 a4 0x4;
    8b94:	98 4b 04          	  ldd.w a11 a4 0x10;
    8b97:	98 4a 03          	  ldd.w a10 a4 0xc;
    8b9a:	b5 69 02          	  std.w a6 0x8 a9;
    8b9d:	b4 e0 09          	  lddsp.w a14 0x24;
    8ba0:	b5 6c 01          	  std.w a6 0x4 a12;
    8ba3:	98 ed 01          	  ldd.w a13 a14 0x4;
    8ba6:	7e 2a 8a 00       	  call 0x8a2a;
    8baa:	3e 45 8c 00       	  jmp 0x8c45;
    8bae:	18 40 01          	  ldd.b a0 a4 0x1;
    8bb1:	98 42 02          	  ldd.w a2 a4 0x8;
    8bb4:	98 41 01          	  ldd.w a1 a4 0x4;
    8bb7:	58 43 07          	  ldd.h a3 a4 0xe;
    8bba:	18 47 0c          	  ldd.b a7 a4 0xc;
    8bbd:	da 00 30 00 00    	  mvi a10 0x3000;
    8bc2:	bd b4             	  clr.w a11;
    8bc4:	4c 00 02          	  mvi a12 0x200;
    8bc7:	7e 94 0b 00       	  call 0xb94;
    8bcb:	33 04 01 31       	  cmpbrne.b a0 0x1 0x8bfc;
    8bcf:	c4 7b ff          	  and a11 a7 0xff;
    8bd2:	e4 3c ff ff       	  and a12 a3 0xffff;
    8bd6:	da 00 30 00 00    	  mvi a10 0x3000;
    8bdb:	7e 94 0b 00       	  call 0xb94;
    8bdf:	b2 1b             	  mv.w a11 a1;
    8be1:	b5 62 02          	  std.w a6 0x8 a2;
    8be4:	b5 61 01          	  std.w a6 0x4 a1;
    8be7:	b2 2c             	  mv.w a12 a2;
    8be9:	e4 3e ff ff       	  and a14 a3 0xffff;
    8bed:	bd d4             	  clr.w a13;
    8bef:	da 00 30 00 00    	  mvi a10 0x3000;
    8bf4:	7e d8 26 00       	  call 0x26d8;
    8bf8:	3e 49 8c 00       	  jmp 0x8c49;
    8bfc:	b2 2c             	  mv.w a12 a2;
    8bfe:	b5 62 02          	  std.w a6 0x8 a2;
    8c01:	b5 61 01          	  std.w a6 0x4 a1;
    8c04:	b2 1b             	  mv.w a11 a1;
    8c06:	e4 3e ff ff       	  and a14 a3 0xffff;
    8c0a:	da 00 30 00 00    	  mvi a10 0x3000;
    8c0f:	bd d4             	  clr.w a13;
    8c11:	7e 72 26 00       	  call 0x2672;
    8c15:	e4 3c ff ff       	  and a12 a3 0xffff;
    8c19:	bd f4             	  clr.w a15;
    8c1b:	de 00 30 00 00    	  mvi a14 0x3000;
    8c20:	bc fe 90          	  add.w a9 a15 a14;
    8c23:	a6 fc             	  cmp.w a15 a12;
    8c25:	f4 18 0e          	  brnc 0x8c33;
    8c28:	3f 99             	  ldd.b a9 a9;
    8c2a:	26 97             	  cmp.b a9 a7;
    8c2c:	f4 0b 0d          	  breq 0x8c39;
    8c2f:	3e 72 8c 00       	  jmp 0x8c72;
    8c33:	3f 99             	  ldd.b a9 a9;
    8c35:	33 94 00 3d       	  cmpbrne.b a9 0x0 0x8c72;
    8c39:	90 ff 01          	  add.w a15 a15 0x1;
    8c3c:	b3 fe 00 02 df    	  cmpbrne.w a15 0x200 0x8c1b;
    8c41:	3e 49 8c 00       	  jmp 0x8c49;
    8c45:	33 a4 00 2d       	  cmpbrne.b a10 0x0 0x8c72;
    8c49:	09 02             	  mvi a9 0x2;
    8c4b:	3d e4             	  clr.b a14;
    8c4d:	20 89             	  std.b a8 a9;
    8c4f:	35 8e 02          	  std.b a8 0x2 a14;
    8c52:	34 b0 2b          	  lddsp.b a11 0x2b;
    8c55:	18 59 03          	  ldd.b a9 a5 0x3;
    8c58:	0e 04             	  mvi a14 0x4;
    8c5a:	b2 5a             	  mv.w a10 a5;
    8c5c:	35 8e 01          	  std.b a8 0x1 a14;
    8c5f:	35 89 03          	  std.b a8 0x3 a9;
    8c62:	7e 81 0f 00       	  call 0xf81;
    8c66:	b2 8a             	  mv.w a10 a8;
    8c68:	bd b4             	  clr.w a11;
    8c6a:	7e 71 0f 00       	  call 0xf71;
    8c6e:	3e 74 8c 00       	  jmp 0x8c74;
    8c72:	f8 02             	  halt;
    8c74:	da 14 14 00 00    	  mvi a10 0x1414;
    8c79:	7e 75 14 00       	  call 0x1475;
    8c7d:	d9 2c 14 00 00    	  mvi a9 0x142c;
    8c82:	b2 ad             	  mv.w a13 a10;
    8c84:	bf 9a             	  ldd.w a10 a9;
    8c86:	fe 4b 01          	  rspr a11 SP;
    8c89:	0c 08             	  mvi a12 0x8;
    8c8b:	90 bb 54          	  add.w a11 a11 0x54;
    8c8e:	7e c1 00 00       	  call 0xc1;
    8c92:	33 a9 00 9c fe    	  cmpbreq.b a10 0x0 0x8b2e;
    8c97:	da 14 14 00 00    	  mvi a10 0x1414;
    8c9c:	7e b5 14 00       	  call 0x14b5;
    8ca0:	3e 74 8c 00       	  jmp 0x8c74;

Disassembly of section .imem_saw:

00008ca4 <_smbpbiGetFwWriteProtMode_LR10>:
    8ca4:	f4 30 fc          	  addsp -0x4;
    8ca7:	df 2c 06 00 00    	  mvi a15 0x62c;
    8cac:	f9 22             	  pushm a2;
    8cae:	d1 0c 14 00 00    	  mvi a1 0x140c;
    8cb3:	bf ff             	  ldd.w a15 a15;
    8cb5:	bf 1e             	  ldd.w a14 a1;
    8cb7:	fe 49 01          	  rspr a9 SP;
    8cba:	90 99 0c          	  add.w a9 a9 0xc;
    8cbd:	b2 a2             	  mv.w a2 a10;
    8cbf:	a0 9f             	  std.w a9 a15;
    8cc1:	b8 ea e8 04 00    	  add.w a10 a14 0x4e8;
    8cc6:	7e 22 1c 00       	  call 0x1c22;
    8cca:	b2 a0             	  mv.w a0 a10;
    8ccc:	bf 1a             	  ldd.w a10 a1;
    8cce:	f0 04 01          	  and a0 0x1;
    8cd1:	b8 aa e0 04 00    	  add.w a10 a10 0x4e0;
    8cd6:	7e 22 1c 00       	  call 0x1c22;
    8cda:	09 01             	  mvi a9 0x1;
    8cdc:	b3 04 00 07       	  cmpbrne.w a0 0x0 0x8ce3;
    8ce0:	c7 a9 18          	  uxtr a9 a10 0x18;
    8ce3:	20 29             	  std.b a2 a9;
    8ce5:	fe 49 01          	  rspr a9 SP;
    8ce8:	90 99 0c          	  add.w a9 a9 0xc;
    8ceb:	bf 9f             	  ldd.w a15 a9;
    8ced:	d9 2c 06 00 00    	  mvi a9 0x62c;
    8cf2:	bf 99             	  ldd.w a9 a9;
    8cf4:	a6 f9             	  cmp.w a15 a9;
    8cf6:	f4 0b 07          	  breq 0x8cfd;
    8cf9:	7e e9 42 00       	  call 0x42e9;
    8cfd:	fb 25 04          	  popma a2 0x1 0x4;

00008d00 <_smbpbiGetDriverSeqNum_LR10>:
    8d00:	f4 30 fc          	  addsp -0x4;
    8d03:	d9 0c 14 00 00    	  mvi a9 0x140c;
    8d08:	f9 22             	  pushm a2;
    8d0a:	bf 99             	  ldd.w a9 a9;
    8d0c:	b2 a2             	  mv.w a2 a10;
    8d0e:	d1 2c 06 00 00    	  mvi a1 0x62c;
    8d13:	fe 40 01          	  rspr a0 SP;
    8d16:	b8 9a 10 05 00    	  add.w a10 a9 0x510;
    8d1b:	bf 19             	  ldd.w a9 a1;
    8d1d:	90 00 0c          	  add.w a0 a0 0xc;
    8d20:	a0 09             	  std.w a0 a9;
    8d22:	7e 22 1c 00       	  call 0x1c22;
    8d26:	bf 0f             	  ldd.w a15 a0;
    8d28:	c7 aa f3          	  uxtr a10 a10 0xf3;
    8d2b:	a0 2a             	  std.w a2 a10;
    8d2d:	bf 19             	  ldd.w a9 a1;
    8d2f:	a6 f9             	  cmp.w a15 a9;
    8d31:	f4 0b 07          	  breq 0x8d38;
    8d34:	7e e9 42 00       	  call 0x42e9;
    8d38:	fb 25 04          	  popma a2 0x1 0x4;

00008d3b <_smbpbiGetDeviceDisableModeStatus_LR10>:
    8d3b:	f4 30 fc          	  addsp -0x4;
    8d3e:	d9 0c 14 00 00    	  mvi a9 0x140c;
    8d43:	f9 42             	  pushm a4;
    8d45:	bf 99             	  ldd.w a9 a9;
    8d47:	b2 a2             	  mv.w a2 a10;
    8d49:	d1 2c 06 00 00    	  mvi a1 0x62c;
    8d4e:	b2 b3             	  mv.w a3 a11;
    8d50:	b8 9a 10 05 00    	  add.w a10 a9 0x510;
    8d55:	bf 19             	  ldd.w a9 a1;
    8d57:	b2 c4             	  mv.w a4 a12;
    8d59:	fe 40 01          	  rspr a0 SP;
    8d5c:	90 00 14          	  add.w a0 a0 0x14;
    8d5f:	a0 09             	  std.w a0 a9;
    8d61:	7e 22 1c 00       	  call 0x1c22;
    8d65:	c7 a9 49          	  uxtr a9 a10 0x49;
    8d68:	60 29             	  std.h a2 a9;
    8d6a:	c7 a9 46          	  uxtr a9 a10 0x46;
    8d6d:	60 39             	  std.h a3 a9;
    8d6f:	c7 aa 81          	  uxtr a10 a10 0x81;
    8d72:	60 4a             	  std.h a4 a10;
    8d74:	bf 0f             	  ldd.w a15 a0;
    8d76:	bf 19             	  ldd.w a9 a1;
    8d78:	a6 f9             	  cmp.w a15 a9;
    8d7a:	f4 0b 07          	  breq 0x8d81;
    8d7d:	7e e9 42 00       	  call 0x42e9;
    8d81:	fb 45 04          	  popma a4 0x1 0x4;

00008d84 <_smbpbiGetUuid_LR10>:
    8d84:	f4 30 ec          	  addsp -0x14;
    8d87:	f9 42             	  pushm a4;
    8d89:	d1 0c 14 00 00    	  mvi a1 0x140c;
    8d8e:	bf 19             	  ldd.w a9 a1;
    8d90:	b2 a4             	  mv.w a4 a10;
    8d92:	d3 2c 06 00 00    	  mvi a3 0x62c;
    8d97:	fe 42 01          	  rspr a2 SP;
    8d9a:	b8 9a 00 05 00    	  add.w a10 a9 0x500;
    8d9f:	bf 39             	  ldd.w a9 a3;
    8da1:	90 22 24          	  add.w a2 a2 0x24;
    8da4:	fe 40 01          	  rspr a0 SP;
    8da7:	90 00 14          	  add.w a0 a0 0x14;
    8daa:	a0 29             	  std.w a2 a9;
    8dac:	7e 22 1c 00       	  call 0x1c22;
    8db0:	bf 19             	  ldd.w a9 a1;
    8db2:	a0 0a             	  std.w a0 a10;
    8db4:	b8 9a 04 05 00    	  add.w a10 a9 0x504;
    8db9:	7e 22 1c 00       	  call 0x1c22;
    8dbd:	bf 19             	  ldd.w a9 a1;
    8dbf:	b5 0a 01          	  std.w a0 0x4 a10;
    8dc2:	b8 9a 08 05 00    	  add.w a10 a9 0x508;
    8dc7:	7e 22 1c 00       	  call 0x1c22;
    8dcb:	bf 19             	  ldd.w a9 a1;
    8dcd:	b5 0a 02          	  std.w a0 0x8 a10;
    8dd0:	b8 9a 0c 05 00    	  add.w a10 a9 0x50c;
    8dd5:	7e 22 1c 00       	  call 0x1c22;
    8dd9:	b2 0b             	  mv.w a11 a0;
    8ddb:	b5 0a 03          	  std.w a0 0xc a10;
    8dde:	0c 10             	  mvi a12 0x10;
    8de0:	b2 4a             	  mv.w a10 a4;
    8de2:	7e 7e 0b 00       	  call 0xb7e;
    8de6:	bf 2f             	  ldd.w a15 a2;
    8de8:	bf 39             	  ldd.w a9 a3;
    8dea:	a6 f9             	  cmp.w a15 a9;
    8dec:	f4 0b 07          	  breq 0x8df3;
    8def:	7e e9 42 00       	  call 0x42e9;
    8df3:	fb 45 14          	  popma a4 0x1 0x14;

00008df6 <_smbpbiGetFirmwareVersion_LR10>:
    8df6:	f4 30 f0          	  addsp -0x10;
    8df9:	df 2c 06 00 00    	  mvi a15 0x62c;
    8dfe:	f9 22             	  pushm a2;
    8e00:	d0 0c 14 00 00    	  mvi a0 0x140c;
    8e05:	bf ff             	  ldd.w a15 a15;
    8e07:	bf 0e             	  ldd.w a14 a0;
    8e09:	fe 49 01          	  rspr a9 SP;
    8e0c:	90 99 18          	  add.w a9 a9 0x18;
    8e0f:	b2 a2             	  mv.w a2 a10;
    8e11:	a0 9f             	  std.w a9 a15;
    8e13:	b8 ea f8 04 00    	  add.w a10 a14 0x4f8;
    8e18:	7e 22 1c 00       	  call 0x1c22;
    8e1c:	b2 a9             	  mv.w a9 a10;
    8e1e:	bf 0a             	  ldd.w a10 a0;
    8e20:	95 9e 18          	  lsr.w a14 a9 0x18;
    8e23:	94 9d 08          	  lsl.w a13 a9 0x8;
    8e26:	94 9f 18          	  lsl.w a15 a9 0x18;
    8e29:	b6 95 08          	  lsr.w a9 0x8;
    8e2c:	f1 94 00 ff       	  and a9 0xff00;
    8e30:	fd fe 05          	  or a15 a14;
    8e33:	fd f9 05          	  or a15 a9;
    8e36:	d9 00 00 ff 00    	  mvi a9 0xff0000;
    8e3b:	fd d9 04          	  and a13 a9;
    8e3e:	fd fd 05          	  or a15 a13;
    8e41:	fe 41 01          	  rspr a1 SP;
    8e44:	b8 aa fc 04 00    	  add.w a10 a10 0x4fc;
    8e49:	90 11 0c          	  add.w a1 a1 0xc;
    8e4c:	fe 40 01          	  rspr a0 SP;
    8e4f:	a0 1f             	  std.w a1 a15;
    8e51:	90 00 14          	  add.w a0 a0 0x14;
    8e54:	a0 0f             	  std.w a0 a15;
    8e56:	7e 22 1c 00       	  call 0x1c22;
    8e5a:	b2 2e             	  mv.w a14 a2;
    8e5c:	b5 1a 01          	  std.w a1 0x4 a10;
    8e5f:	bd d4             	  clr.w a13;
    8e61:	db a1 00 00 00    	  mvi a11 0xa1;
    8e66:	01 2e             	  mvi a1 0x2e;
    8e68:	3c 0d f8          	  ldd.b a15 a0 a13;
    8e6b:	35 e1 02          	  std.b a14 0x2 a1;
    8e6e:	90 dd 01          	  add.w a13 a13 0x1;
    8e71:	dc a1 00 00 00    	  mvi a12 0xa1;
    8e76:	c4 f9 0f          	  and a9 a15 0xf;
    8e79:	c7 ff 64          	  uxtr a15 a15 0x64;
    8e7c:	3c b9 98          	  ldd.b a9 a11 a9;
    8e7f:	3c bf f8          	  ldd.b a15 a11 a15;
    8e82:	35 e9 01          	  std.b a14 0x1 a9;
    8e85:	20 ef             	  std.b a14 a15;
    8e87:	90 ee 03          	  add.w a14 a14 0x3;
    8e8a:	b3 d4 04 de       	  cmpbrne.w a13 0x4 0x8e68;
    8e8e:	c4 a9 0f          	  and a9 a10 0xf;
    8e91:	3c c9 98          	  ldd.b a9 a12 a9;
    8e94:	35 29 0d          	  std.b a2 0xd a9;
    8e97:	c7 a9 64          	  uxtr a9 a10 0x64;
    8e9a:	3c c9 98          	  ldd.b a9 a12 a9;
    8e9d:	35 29 0c          	  std.b a2 0xc a9;
    8ea0:	fe 49 01          	  rspr a9 SP;
    8ea3:	90 99 18          	  add.w a9 a9 0x18;
    8ea6:	bf 9f             	  ldd.w a15 a9;
    8ea8:	d9 2c 06 00 00    	  mvi a9 0x62c;
    8ead:	bf 99             	  ldd.w a9 a9;
    8eaf:	a6 f9             	  cmp.w a15 a9;
    8eb1:	f4 0b 07          	  breq 0x8eb8;
    8eb4:	7e e9 42 00       	  call 0x42e9;
    8eb8:	fb 25 10          	  popma a2 0x1 0x10;

00008ebb <_smbpbiInitSysIdInfo_LR10>:
    8ebb:	f4 30 fc          	  addsp -0x4;
    8ebe:	f9 22             	  pushm a2;
    8ec0:	d2 2c 06 00 00    	  mvi a2 0x62c;
    8ec5:	bf 29             	  ldd.w a9 a2;
    8ec7:	db 24 2b 00 00    	  mvi a11 0x2b24;
    8ecc:	dc 26 2b 00 00    	  mvi a12 0x2b26;
    8ed1:	dd 28 2b 00 00    	  mvi a13 0x2b28;
    8ed6:	da 22 2b 00 00    	  mvi a10 0x2b22;
    8edb:	fe 41 01          	  rspr a1 SP;
    8ede:	90 11 0c          	  add.w a1 a1 0xc;
    8ee1:	a0 19             	  std.w a1 a9;
    8ee3:	7e 7b 80 00       	  call 0x807b;
    8ee7:	d0 f4 2a 00 00    	  mvi a0 0x2af4;
    8eec:	98 09 01          	  ldd.w a9 a0 0x4;
    8eef:	da 14 2b 00 00    	  mvi a10 0x2b14;
    8ef4:	f1 95 00 1e       	  or a9 0x1e00;
    8ef8:	b5 09 01          	  std.w a0 0x4 a9;
    8efb:	7e f6 8d 00       	  call 0x8df6;
    8eff:	98 09 01          	  ldd.w a9 a0 0x4;
    8f02:	da 2a 2b 00 00    	  mvi a10 0x2b2a;
    8f07:	f1 95 00 01       	  or a9 0x100;
    8f0b:	b5 09 01          	  std.w a0 0x4 a9;
    8f0e:	7e 84 8d 00       	  call 0x8d84;
    8f12:	98 09 01          	  ldd.w a9 a0 0x4;
    8f15:	bf 1e             	  ldd.w a14 a1;
    8f17:	bf 2f             	  ldd.w a15 a2;
    8f19:	f1 95 00 20       	  or a9 0x2000;
    8f1d:	b5 09 01          	  std.w a0 0x4 a9;
    8f20:	a6 ef             	  cmp.w a14 a15;
    8f22:	f4 0b 07          	  breq 0x8f29;
    8f25:	7e e9 42 00       	  call 0x42e9;
    8f29:	fb 25 04          	  popma a2 0x1 0x4;

00008f2c <_smbpbiInit_LR10>:
    8f2c:	de f4 2a 00 00    	  mvi a14 0x2af4;
    8f31:	f4 30 fc          	  addsp -0x4;
    8f34:	f9 12             	  pushm a1;
    8f36:	98 e9 04          	  ldd.w a9 a14 0x10;
    8f39:	bf ed             	  ldd.w a13 a14;
    8f3b:	98 ec 01          	  ldd.w a12 a14 0x4;
    8f3e:	98 ef 02          	  ldd.w a15 a14 0x8;
    8f41:	f0 95 c0          	  or a9 0xc0;
    8f44:	b5 e9 04          	  std.w a14 0x10 a9;
    8f47:	d9 01 00 00 34    	  mvi a9 0x34000001;
    8f4c:	fd d9 05          	  or a13 a9;
    8f4f:	d9 00 00 40 4c    	  mvi a9 0x4c400000;
    8f54:	fd c9 05          	  or a12 a9;
    8f57:	09 e3             	  mvi a9 -0x1d;
    8f59:	d1 2c 06 00 00    	  mvi a1 0x62c;
    8f5e:	fd f9 04          	  and a15 a9;
    8f61:	bf 1b             	  ldd.w a11 a1;
    8f63:	09 fe             	  mvi a9 -0x2;
    8f65:	f0 f5 04          	  or a15 0x4;
    8f68:	fd f9 04          	  and a15 a9;
    8f6b:	d9 00 50 c7 00    	  mvi a9 0xc75000;
    8f70:	fd f9 05          	  or a15 a9;
    8f73:	09 05             	  mvi a9 0x5;
    8f75:	35 e9 14          	  std.b a14 0x14 a9;
    8f78:	09 ff             	  mvi a9 -0x1;
    8f7a:	b5 ef 02          	  std.w a14 0x8 a15;
    8f7d:	b5 e9 15          	  std.w a14 0x54 a9;
    8f80:	fe 40 01          	  rspr a0 SP;
    8f83:	a0 ed             	  std.w a14 a13;
    8f85:	90 00 08          	  add.w a0 a0 0x8;
    8f88:	b5 ec 01          	  std.w a14 0x4 a12;
    8f8b:	a0 0b             	  std.w a0 a11;
    8f8d:	7e bb 8e 00       	  call 0x8ebb;
    8f91:	bf 0f             	  ldd.w a15 a0;
    8f93:	bf 19             	  ldd.w a9 a1;
    8f95:	a6 f9             	  cmp.w a15 a9;
    8f97:	f4 0b 07          	  breq 0x8f9e;
    8f9a:	7e e9 42 00       	  call 0x42e9;
    8f9e:	fb 15 04          	  popma a1 0x1 0x4;

00008fa1 <_smbpbiSetDeviceDisableMode_LR10>:
    8fa1:	f4 30 fc          	  addsp -0x4;
    8fa4:	d9 0c 14 00 00    	  mvi a9 0x140c;
    8fa9:	f9 12             	  pushm a1;
    8fab:	bf 99             	  ldd.w a9 a9;
    8fad:	c4 ab 01          	  and a11 a10 0x1;
    8fb0:	d0 2c 06 00 00    	  mvi a0 0x62c;
    8fb5:	fe 41 01          	  rspr a1 SP;
    8fb8:	b8 9a c4 07 00    	  add.w a10 a9 0x7c4;
    8fbd:	bf 09             	  ldd.w a9 a0;
    8fbf:	90 11 08          	  add.w a1 a1 0x8;
    8fc2:	a0 19             	  std.w a1 a9;
    8fc4:	7e b1 1c 00       	  call 0x1cb1;
    8fc8:	bf 1f             	  ldd.w a15 a1;
    8fca:	bf 09             	  ldd.w a9 a0;
    8fcc:	a6 f9             	  cmp.w a15 a9;
    8fce:	f4 0b 07          	  breq 0x8fd5;
    8fd1:	7e e9 42 00       	  call 0x42e9;
    8fd5:	fb 15 04          	  popma a1 0x1 0x4;

00008fd8 <_smbpbiGetPcieSpeedWidth_LR10>:
    8fd8:	f4 30 fc          	  addsp -0x4;
    8fdb:	df 2c 06 00 00    	  mvi a15 0x62c;
    8fe0:	f9 12             	  pushm a1;
    8fe2:	bf ff             	  ldd.w a15 a15;
    8fe4:	fe 49 01          	  rspr a9 SP;
    8fe7:	90 99 08          	  add.w a9 a9 0x8;
    8fea:	b2 a0             	  mv.w a0 a10;
    8fec:	a0 9f             	  std.w a9 a15;
    8fee:	b2 b1             	  mv.w a1 a11;
    8ff0:	7e 32 82 00       	  call 0x8232;
    8ff4:	bf 09             	  ldd.w a9 a0;
    8ff6:	b3 90 02 1c       	  cmpbreq.w a9 0x2 0x9012;
    8ffa:	b0 96 02          	  cmp.w a9 0x2;
    8ffd:	f4 0c 0b          	  brgt 0x9008;
    9000:	b3 94 01 10       	  cmpbrne.w a9 0x1 0x9010;
    9004:	3e 12 90 00       	  jmp 0x9012;
    9008:	b3 90 03 0a       	  cmpbreq.w a9 0x3 0x9012;
    900c:	b3 90 04 06       	  cmpbreq.w a9 0x4 0x9012;
    9010:	bd 94             	  clr.w a9;
    9012:	a0 09             	  std.w a0 a9;
    9014:	bf 19             	  ldd.w a9 a1;
    9016:	b3 90 03 20       	  cmpbreq.w a9 0x3 0x9036;
    901a:	b0 96 03          	  cmp.w a9 0x3;
    901d:	f4 0c 0f          	  brgt 0x902c;
    9020:	b3 90 01 16       	  cmpbreq.w a9 0x1 0x9036;
    9024:	b3 94 02 10       	  cmpbrne.w a9 0x2 0x9034;
    9028:	3e 36 90 00       	  jmp 0x9036;
    902c:	b3 90 04 0a       	  cmpbreq.w a9 0x4 0x9036;
    9030:	b3 90 05 06       	  cmpbreq.w a9 0x5 0x9036;
    9034:	bd 94             	  clr.w a9;
    9036:	a0 19             	  std.w a1 a9;
    9038:	fe 49 01          	  rspr a9 SP;
    903b:	90 99 08          	  add.w a9 a9 0x8;
    903e:	bf 9f             	  ldd.w a15 a9;
    9040:	d9 2c 06 00 00    	  mvi a9 0x62c;
    9045:	bf 99             	  ldd.w a9 a9;
    9047:	a6 f9             	  cmp.w a15 a9;
    9049:	f4 0b 07          	  breq 0x9050;
    904c:	7e e9 42 00       	  call 0x42e9;
    9050:	fb 15 04          	  popma a1 0x1 0x4;

00009053 <_smbpbiExelwte_LR10>:
    9053:	f4 30 fc          	  addsp -0x4;
    9056:	df 2c 06 00 00    	  mvi a15 0x62c;
    905b:	f9 22             	  pushm a2;
    905d:	bf ff             	  ldd.w a15 a15;
    905f:	fe 49 01          	  rspr a9 SP;
    9062:	90 99 0c          	  add.w a9 a9 0xc;
    9065:	b2 a1             	  mv.w a1 a10;
    9067:	a0 9f             	  std.w a9 a15;
    9069:	b2 b0             	  mv.w a0 a11;
    906b:	b2 c2             	  mv.w a2 a12;
    906d:	33 d4 00 32       	  cmpbrne.b a13 0x0 0x909f;
    9071:	b3 a0 00 0e       	  cmpbreq.w a10 0x0 0x907f;
    9075:	8a e0 60 06       	  mvi a10 0x660e0;
    9079:	7e 22 1c 00       	  call 0x1c22;
    907d:	a0 1a             	  std.w a1 a10;
    907f:	b3 00 00 0e       	  cmpbreq.w a0 0x0 0x908d;
    9083:	8a e4 60 06       	  mvi a10 0x660e4;
    9087:	7e 22 1c 00       	  call 0x1c22;
    908b:	a0 0a             	  std.w a0 a10;
    908d:	b3 20 00 48       	  cmpbreq.w a2 0x0 0x90d5;
    9091:	8a e8 60 06       	  mvi a10 0x660e8;
    9095:	7e 22 1c 00       	  call 0x1c22;
    9099:	a0 2a             	  std.w a2 a10;
    909b:	3e d5 90 00       	  jmp 0x90d5;
    909f:	0a 02             	  mvi a10 0x2;
    90a1:	33 d4 01 36       	  cmpbrne.b a13 0x1 0x90d7;
    90a5:	b3 b0 00 0e       	  cmpbreq.w a11 0x0 0x90b3;
    90a9:	bf bb             	  ldd.w a11 a11;
    90ab:	8a e4 60 06       	  mvi a10 0x660e4;
    90af:	7e b1 1c 00       	  call 0x1cb1;
    90b3:	b3 20 00 0e       	  cmpbreq.w a2 0x0 0x90c1;
    90b7:	bf 2b             	  ldd.w a11 a2;
    90b9:	8a e8 60 06       	  mvi a10 0x660e8;
    90bd:	7e b1 1c 00       	  call 0x1cb1;
    90c1:	b3 10 00 14       	  cmpbreq.w a1 0x0 0x90d5;
    90c5:	b2 1a             	  mv.w a10 a1;
    90c7:	7e 1d a9 00       	  call 0xa91d;
    90cb:	bf 1b             	  ldd.w a11 a1;
    90cd:	8a e0 60 06       	  mvi a10 0x660e0;
    90d1:	7e b1 1c 00       	  call 0x1cb1;
    90d5:	3d a4             	  clr.b a10;
    90d7:	fe 49 01          	  rspr a9 SP;
    90da:	90 99 0c          	  add.w a9 a9 0xc;
    90dd:	bf 9f             	  ldd.w a15 a9;
    90df:	d9 2c 06 00 00    	  mvi a9 0x62c;
    90e4:	bf 99             	  ldd.w a9 a9;
    90e6:	a6 f9             	  cmp.w a15 a9;
    90e8:	f4 0b 07          	  breq 0x90ef;
    90eb:	7e e9 42 00       	  call 0x42e9;
    90ef:	fb 25 04          	  popma a2 0x1 0x4;

000090f2 <_smbpbiService_LR10>:
    90f2:	df 2c 06 00 00    	  mvi a15 0x62c;
    90f7:	bf ff             	  ldd.w a15 a15;
    90f9:	f4 30 f4          	  addsp -0xc;
    90fc:	fe 49 01          	  rspr a9 SP;
    90ff:	90 99 08          	  add.w a9 a9 0x8;
    9102:	a0 9f             	  std.w a9 a15;
    9104:	8f 00 c0 01       	  mvi a15 0x1c000;
    9108:	cf f9 00          	  ldx a9 a15 0x0;
    910b:	c7 99 4c          	  uxtr a9 a9 0x4c;
    910e:	b3 99 00 4c 01    	  cmpbreq.w a9 0x0 0x925a;
    9113:	b3 90 01 f5       	  cmpbreq.w a9 0x1 0x9108;
    9117:	f8 02             	  halt;
    9119:	3e 08 91 00       	  jmp 0x9108;
    911d:	cf f9 00          	  ldx a9 a15 0x0;
    9120:	c7 99 4c          	  uxtr a9 a9 0x4c;
    9123:	b3 99 00 25 01    	  cmpbreq.w a9 0x0 0x9248;
    9128:	b3 90 01 f5       	  cmpbreq.w a9 0x1 0x911d;
    912c:	f8 02             	  halt;
    912e:	3e 1d 91 00       	  jmp 0x911d;
    9132:	d9 ff ff ff 7f    	  mvi a9 0x7fffffff;
    9137:	ff f9 c4          	  and a12 a15 a9;
    913a:	8f 00 c0 01       	  mvi a15 0x1c000;
    913e:	cf f9 00          	  ldx a9 a15 0x0;
    9141:	c7 99 4c          	  uxtr a9 a9 0x4c;
    9144:	b3 99 00 db 00    	  cmpbreq.w a9 0x0 0x921f;
    9149:	b3 90 01 f5       	  cmpbreq.w a9 0x1 0x913e;
    914d:	f8 02             	  halt;
    914f:	3e 3e 91 00       	  jmp 0x913e;
    9153:	cf f9 00          	  ldx a9 a15 0x0;
    9156:	c7 99 4c          	  uxtr a9 a9 0x4c;
    9159:	b3 90 00 0e       	  cmpbreq.w a9 0x0 0x9167;
    915d:	b3 90 01 f6       	  cmpbreq.w a9 0x1 0x9153;
    9161:	f8 02             	  halt;
    9163:	3e 53 91 00       	  jmp 0x9153;
    9167:	8f 00 c0 01       	  mvi a15 0x1c000;
    916b:	cf f9 00          	  ldx a9 a15 0x0;
    916e:	c7 99 4c          	  uxtr a9 a9 0x4c;
    9171:	b3 99 00 8d 00    	  cmpbreq.w a9 0x0 0x91fe;
    9176:	b3 90 01 f5       	  cmpbreq.w a9 0x1 0x916b;
    917a:	f8 02             	  halt;
    917c:	3e 6b 91 00       	  jmp 0x916b;
    9180:	cf f9 00          	  ldx a9 a15 0x0;
    9183:	c7 9d 4c          	  uxtr a13 a9 0x4c;
    9186:	b3 d0 00 5e       	  cmpbreq.w a13 0x0 0x91e4;
    918a:	b3 d0 01 f6       	  cmpbreq.w a13 0x1 0x9180;
    918e:	f8 02             	  halt;
    9190:	3e 80 91 00       	  jmp 0x9180;
    9194:	10 f9 01          	  add.b a9 a15 0x1;
    9197:	35 e9 48          	  std.b a14 0x48 a9;
    919a:	33 fd 00 e1 00    	  cmpbrne.b a15 0x0 0x927b;
    919f:	d9 84 06 00 00    	  mvi a9 0x684;
    91a4:	fe 4f 01          	  rspr a15 SP;
    91a7:	b5 f9 01          	  std.w a15 0x4 a9;
    91aa:	d9 d4 2f 00 00    	  mvi a9 0x2fd4;
    91af:	bf 9a             	  ldd.w a10 a9;
    91b1:	a0 fd             	  std.w a15 a13;
    91b3:	09 48             	  mvi a9 0x48;
    91b5:	20 f9             	  std.b a15 a9;
    91b7:	09 09             	  mvi a9 0x9;
    91b9:	de 84 06 00 00    	  mvi a14 0x684;
    91be:	20 e9             	  std.b a14 a9;
    91c0:	09 04             	  mvi a9 0x4;
    91c2:	b5 ec 02          	  std.w a14 0x8 a12;
    91c5:	35 fd 01          	  std.b a15 0x1 a13;
    91c8:	fe 4b 01          	  rspr a11 SP;
    91cb:	35 ed 03          	  std.b a14 0x3 a13;
    91ce:	35 ed 02          	  std.b a14 0x2 a13;
    91d1:	35 e9 01          	  std.b a14 0x1 a9;
    91d4:	0c 08             	  mvi a12 0x8;
    91d6:	7e 6e 00 00       	  call 0x6e;
    91da:	3e 7b 92 00       	  jmp 0x927b;
    91de:	f8 09             	  trap1;
    91e0:	3e 7b 92 00       	  jmp 0x927b;
    91e4:	89 00 c2 01       	  mvi a9 0x1c200;
    91e8:	cf 99 00          	  ldx a9 a9 0x0;
    91eb:	de f4 2a 00 00    	  mvi a14 0x2af4;
    91f0:	18 ef 48          	  ldd.b a15 a14 0x48;
    91f3:	09 ff             	  mvi a9 -0x1;
    91f5:	26 f9             	  cmp.b a15 a9;
    91f7:	f4 1b 9d          	  brne 0x9194;
    91fa:	3e 7b 92 00       	  jmp 0x927b;
    91fe:	8f e0 60 06       	  mvi a15 0x660e0;
    9202:	89 00 c1 01       	  mvi a9 0x1c100;
    9206:	f6 9f 00          	  stx a9 0x0 a15;
    9209:	df f1 00 00 80    	  mvi a15 -0x7fffff0f;
    920e:	b8 99 00 01 02    	  sub.w a9 a9 0x100;
    9213:	f7 9f 00          	  stxb a9 0x0 a15;
    9216:	cf 9f 00          	  ldx a15 a9 0x0;
    9219:	b2 9f             	  mv.w a15 a9;
    921b:	3e 80 91 00       	  jmp 0x9180;
    921f:	8f e0 60 06       	  mvi a15 0x660e0;
    9223:	89 00 c1 01       	  mvi a9 0x1c100;
    9227:	f6 9f 00          	  stx a9 0x0 a15;
    922a:	b8 99 00 01 00    	  add.w a9 a9 0x100;
    922f:	f6 9c 00          	  stx a9 0x0 a12;
    9232:	df f2 00 00 80    	  mvi a15 -0x7fffff0e;
    9237:	b8 99 00 02 02    	  sub.w a9 a9 0x200;
    923c:	f6 9f 00          	  stx a9 0x0 a15;
    923f:	cf 9f 00          	  ldx a15 a9 0x0;
    9242:	b2 9f             	  mv.w a15 a9;
    9244:	3e 53 91 00       	  jmp 0x9153;
    9248:	89 00 c2 01       	  mvi a9 0x1c200;
    924c:	cf 9f 00          	  ldx a15 a9 0x0;
    924f:	95 f9 1f          	  lsr.w a9 a15 0x1f;
    9252:	b3 94 01 8c       	  cmpbrne.w a9 0x1 0x91de;
    9256:	3e 32 91 00       	  jmp 0x9132;
    925a:	8f e0 60 06       	  mvi a15 0x660e0;
    925e:	89 00 c1 01       	  mvi a9 0x1c100;
    9262:	f6 9f 00          	  stx a9 0x0 a15;
    9265:	df f1 00 00 80    	  mvi a15 -0x7fffff0f;
    926a:	b8 99 00 01 02    	  sub.w a9 a9 0x100;
    926f:	f7 9f 00          	  stxb a9 0x0 a15;
    9272:	cf 9f 00          	  ldx a15 a9 0x0;
    9275:	b2 9f             	  mv.w a15 a9;
    9277:	3e 1d 91 00       	  jmp 0x911d;
    927b:	fe 49 01          	  rspr a9 SP;
    927e:	90 99 08          	  add.w a9 a9 0x8;
    9281:	bf 9f             	  ldd.w a15 a9;
    9283:	d9 2c 06 00 00    	  mvi a9 0x62c;
    9288:	bf 99             	  ldd.w a9 a9;
    928a:	a6 f9             	  cmp.w a15 a9;
    928c:	f4 0b 07          	  breq 0x9293;
    928f:	7e e9 42 00       	  call 0x42e9;
    9293:	f4 30 0c          	  addsp 0xc;
    9296:	f8 00             	  ret;

00009298 <_smbpbiGetEccV6_LR10>:
    9298:	f4 30 f4          	  addsp -0xc;
    929b:	df 2c 06 00 00    	  mvi a15 0x62c;
    92a0:	f9 22             	  pushm a2;
    92a2:	bf ff             	  ldd.w a15 a15;
    92a4:	fe 49 01          	  rspr a9 SP;
    92a7:	90 99 14          	  add.w a9 a9 0x14;
    92aa:	b2 c1             	  mv.w a1 a12;
    92ac:	a0 9f             	  std.w a9 a15;
    92ae:	d9 f4 2a 00 00    	  mvi a9 0x2af4;
    92b3:	98 9f 01          	  ldd.w a15 a9 0x4;
    92b6:	b2 d2             	  mv.w a2 a13;
    92b8:	d9 00 00 00 40    	  mvi a9 0x40000000;
    92bd:	0e 08             	  mvi a14 0x8;
    92bf:	fd f9 04          	  and a15 a9;
    92c2:	f4 0b 75          	  breq 0x9337;
    92c5:	33 a0 00 10       	  cmpbreq.b a10 0x0 0x92d5;
    92c9:	0e 03             	  mvi a14 0x3;
    92cb:	33 a4 01 6c       	  cmpbrne.b a10 0x1 0x9337;
    92cf:	32 a0             	  mv.b a0 a10;
    92d1:	3e d7 92 00       	  jmp 0x92d7;
    92d5:	3d 04             	  clr.b a0;
    92d7:	0e 04             	  mvi a14 0x4;
    92d9:	33 b4 00 5e       	  cmpbrne.b a11 0x0 0x9337;
    92dd:	7e 7c a6 00       	  call 0xa67c;
    92e1:	33 a0 00 24       	  cmpbreq.b a10 0x0 0x9305;
    92e5:	4b 80 00          	  mvi a11 0x80;
    92e8:	33 04 00 07       	  cmpbrne.b a0 0x0 0x92ef;
    92ec:	4b 88 00          	  mvi a11 0x88;
    92ef:	fe 4a 01          	  rspr a10 SP;
    92f2:	0c 08             	  mvi a12 0x8;
    92f4:	90 aa 0c          	  add.w a10 a10 0xc;
    92f7:	7e 9f a7 00       	  call 0xa79f;
    92fb:	0e 06             	  mvi a14 0x6;
    92fd:	33 a4 00 3a       	  cmpbrne.b a10 0x0 0x9337;
    9301:	3e 51 93 00       	  jmp 0x9351;
    9305:	d9 80 06 00 00    	  mvi a9 0x680;
    930a:	bf 99             	  ldd.w a9 a9;
    930c:	0e 08             	  mvi a14 0x8;
    930e:	b3 90 00 29       	  cmpbreq.w a9 0x0 0x9337;
    9312:	fe 4f 01          	  rspr a15 SP;
    9315:	90 ff 0c          	  add.w a15 a15 0xc;
    9318:	33 00 00 10       	  cmpbreq.b a0 0x0 0x9328;
    931c:	98 9e 20          	  ldd.w a14 a9 0x80;
    931f:	a0 fe             	  std.w a15 a14;
    9321:	98 99 21          	  ldd.w a9 a9 0x84;
    9324:	3e 30 93 00       	  jmp 0x9330;
    9328:	98 9e 22          	  ldd.w a14 a9 0x88;
    932b:	a0 fe             	  std.w a15 a14;
    932d:	98 99 23          	  ldd.w a9 a9 0x8c;
    9330:	b5 f9 01          	  std.w a15 0x4 a9;
    9333:	3e 51 93 00       	  jmp 0x9351;
    9337:	fe 49 01          	  rspr a9 SP;
    933a:	90 99 14          	  add.w a9 a9 0x14;
    933d:	bf 9f             	  ldd.w a15 a9;
    933f:	d9 2c 06 00 00    	  mvi a9 0x62c;
    9344:	bf 99             	  ldd.w a9 a9;
    9346:	32 ea             	  mv.b a10 a14;
    9348:	a6 f9             	  cmp.w a15 a9;
    934a:	f4 0b 20          	  breq 0x936a;
    934d:	3e 66 93 00       	  jmp 0x9366;
    9351:	fe 49 01          	  rspr a9 SP;
    9354:	90 99 0c          	  add.w a9 a9 0xc;
    9357:	bf 9f             	  ldd.w a15 a9;
    9359:	0e 1f             	  mvi a14 0x1f;
    935b:	a0 1f             	  std.w a1 a15;
    935d:	98 99 01          	  ldd.w a9 a9 0x4;
    9360:	a0 29             	  std.w a2 a9;
    9362:	3e 37 93 00       	  jmp 0x9337;
    9366:	7e e9 42 00       	  call 0x42e9;
    936a:	fb 25 0c          	  popma a2 0x1 0xc;

0000936d <_smbpbiGetLwlinkNumLinks_LR10>:
    936d:	de 2c 06 00 00    	  mvi a14 0x62c;
    9372:	bf e9             	  ldd.w a9 a14;
    9374:	f4 30 fc          	  addsp -0x4;
    9377:	fe 4f 01          	  rspr a15 SP;
    937a:	a0 f9             	  std.w a15 a9;
    937c:	09 24             	  mvi a9 0x24;
    937e:	a0 a9             	  std.w a10 a9;
    9380:	bf ff             	  ldd.w a15 a15;
    9382:	bf e9             	  ldd.w a9 a14;
    9384:	0a 1f             	  mvi a10 0x1f;
    9386:	a6 f9             	  cmp.w a15 a9;
    9388:	f4 0b 07          	  breq 0x938f;
    938b:	7e e9 42 00       	  call 0x42e9;
    938f:	f4 30 04          	  addsp 0x4;
    9392:	f8 00             	  ret;

00009394 <_smbpbiGetLwlinkErrorState_LR10>:
    9394:	f4 30 e4          	  addsp -0x1c;
    9397:	df 2c 06 00 00    	  mvi a15 0x62c;
    939c:	f9 82             	  pushm a8;
    939e:	bf ff             	  ldd.w a15 a15;
    93a0:	fe 49 01          	  rspr a9 SP;
    93a3:	90 99 3c          	  add.w a9 a9 0x3c;
    93a6:	d0 f4 2a 00 00    	  mvi a0 0x2af4;
    93ab:	a0 9f             	  std.w a9 a15;
    93ad:	98 09 2d          	  ldd.w a9 a0 0xb4;
    93b0:	98 02 28          	  ldd.w a2 a0 0xa0;
    93b3:	98 01 2b          	  ldd.w a1 a0 0xac;
    93b6:	98 0f 29          	  ldd.w a15 a0 0xa4;
    93b9:	b0 91 0d          	  stdsp.w a9 0x34;
    93bc:	b0 c1 0b          	  stdsp.w a12 0x2c;
    93bf:	98 09 2a          	  ldd.w a9 a0 0xa8;
    93c2:	b0 d1 0a          	  stdsp.w a13 0x28;
    93c5:	b0 e1 09          	  stdsp.w a14 0x24;
    93c8:	98 00 2e          	  ldd.w a0 a0 0xb8;
    93cb:	bf cc             	  ldd.w a12 a12;
    93cd:	ff 92 64          	  and a6 a9 a2;
    93d0:	ff 1f 74          	  and a7 a1 a15;
    93d3:	b0 01 0e          	  stdsp.w a0 0x38;
    93d6:	b0 c1 0c          	  stdsp.w a12 0x30;
    93d9:	33 a0 0d 0c       	  cmpbreq.b a10 0xd 0x93e5;
    93dd:	33 a4 0e 10       	  cmpbrne.b a10 0xe 0x93ed;
    93e1:	3e f5 93 00       	  jmp 0x93f5;
    93e5:	b2 64             	  mv.w a4 a6;
    93e7:	b2 75             	  mv.w a5 a7;
    93e9:	3e fb 93 00       	  jmp 0x93fb;
    93ed:	bd 44             	  clr.w a4;
    93ef:	bd 54             	  clr.w a5;
    93f1:	3e fb 93 00       	  jmp 0x93fb;
    93f5:	b4 40 0d          	  lddsp.w a4 0x34;
    93f8:	b4 50 0e          	  lddsp.w a5 0x38;
    93fb:	09 ff             	  mvi a9 -0x1;
    93fd:	26 b9             	  cmp.b a11 a9;
    93ff:	f5 1b 85 00       	  brne 0x9484;
    9403:	95 5d 01          	  lsr.w a13 a5 0x1;
    9406:	9d 4c 01          	  lsrc.w a12 a4 0x1;
    9409:	d9 55 55 55 55    	  mvi a9 0x55555555;
    940e:	d0 33 33 33 33    	  mvi a0 0x33333333;
    9413:	ff c9 e4          	  and a14 a12 a9;
    9416:	ff d9 f4          	  and a15 a13 a9;
    9419:	bc 4e e2          	  sub.w a14 a4 a14;
    941c:	bc 5f f3          	  subc.w a15 a5 a15;
    941f:	ff e0 c4          	  and a12 a14 a0;
    9422:	94 f9 1e          	  lsl.w a9 a15 0x1e;
    9425:	b6 e5 02          	  lsr.w a14 0x2;
    9428:	ff 9e e5          	  or a14 a9 a14;
    942b:	ff f0 d4          	  and a13 a15 a0;
    942e:	d2 0f 0f 0f 0f    	  mvi a2 0xf0f0f0f;
    9433:	95 f1 02          	  lsr.w a1 a15 0x2;
    9436:	ff e0 a4          	  and a10 a14 a0;
    9439:	ff 10 b4          	  and a11 a1 a0;
    943c:	bc ac a0          	  add.w a10 a10 a12;
    943f:	bc bd b1          	  addc.w a11 a11 a13;
    9442:	94 b9 1c          	  lsl.w a9 a11 0x1c;
    9445:	95 ae 04          	  lsr.w a14 a10 0x4;
    9448:	95 bf 04          	  lsr.w a15 a11 0x4;
    944b:	ff 9e e5          	  or a14 a9 a14;
    944e:	bc ea e0          	  add.w a14 a14 a10;
    9451:	bc fb f1          	  addc.w a15 a15 a11;
    9454:	fd e2 04          	  and a14 a2;
    9457:	dc 01 01 01 01    	  mvi a12 0x1010101;
    945c:	ff f2 b4          	  and a11 a15 a2;
    945f:	b2 cd             	  mv.w a13 a12;
    9461:	b2 ea             	  mv.w a10 a14;
    9463:	7e 5b 41 00       	  call 0x415b;
    9467:	b6 b5 18          	  lsr.w a11 0x18;
    946a:	b3 b0 24 0b       	  cmpbreq.w a11 0x24 0x9475;
    946e:	0e 09             	  mvi a14 0x9;
    9470:	b3 bd 00 33 01    	  cmpbrne.w a11 0x0 0x95a3;
    9475:	b0 b6 00          	  cmp.w a11 0x0;
    9478:	f0 3c 0b          	  sgetb a3 0xb;
    947b:	f0 36 01          	  xor a3 0x1;
    947e:	bd 84             	  clr.w a8;
    9480:	3e 9a 94 00       	  jmp 0x949a;
    9484:	c4 ba ff          	  and a10 a11 0xff;
    9487:	0c 40             	  mvi a12 0x40;
    9489:	0b 24             	  mvi a11 0x24;
    948b:	7e e5 9f 00       	  call 0x9fe5;
    948f:	0e 04             	  mvi a14 0x4;
    9491:	33 a9 00 12 01    	  cmpbreq.b a10 0x0 0x95a3;
    9496:	b2 58             	  mv.w a8 a5;
    9498:	b2 43             	  mv.w a3 a4;
    949a:	95 7d 01          	  lsr.w a13 a7 0x1;
    949d:	9d 6c 01          	  lsrc.w a12 a6 0x1;
    94a0:	d1 33 33 33 33    	  mvi a1 0x33333333;
    94a5:	d2 55 55 55 55    	  mvi a2 0x55555555;
    94aa:	ff c2 e4          	  and a14 a12 a2;
    94ad:	ff d2 f4          	  and a15 a13 a2;
    94b0:	bc 6e e2          	  sub.w a14 a6 a14;
    94b3:	bc 7f f3          	  subc.w a15 a7 a15;
    94b6:	ff e1 c4          	  and a12 a14 a1;
    94b9:	94 f9 1e          	  lsl.w a9 a15 0x1e;
    94bc:	b6 e5 02          	  lsr.w a14 0x2;
    94bf:	ff 9e e5          	  or a14 a9 a14;
    94c2:	ff f1 d4          	  and a13 a15 a1;
    94c5:	d4 0f 0f 0f 0f    	  mvi a4 0xf0f0f0f;
    94ca:	95 f0 02          	  lsr.w a0 a15 0x2;
    94cd:	ff e1 a4          	  and a10 a14 a1;
    94d0:	ff 01 b4          	  and a11 a0 a1;
    94d3:	bc ac a0          	  add.w a10 a10 a12;
    94d6:	bc bd b1          	  addc.w a11 a11 a13;
    94d9:	94 b9 1c          	  lsl.w a9 a11 0x1c;
    94dc:	95 ae 04          	  lsr.w a14 a10 0x4;
    94df:	95 bf 04          	  lsr.w a15 a11 0x4;
    94e2:	ff 9e e5          	  or a14 a9 a14;
    94e5:	bc ea e0          	  add.w a14 a14 a10;
    94e8:	bc fb f1          	  addc.w a15 a15 a11;
    94eb:	fd e4 04          	  and a14 a4;
    94ee:	dc 01 01 01 01    	  mvi a12 0x1010101;
    94f3:	ff f4 b4          	  and a11 a15 a4;
    94f6:	b2 cd             	  mv.w a13 a12;
    94f8:	b2 ea             	  mv.w a10 a14;
    94fa:	7e 5b 41 00       	  call 0x415b;
    94fe:	95 b5 18          	  lsr.w a5 a11 0x18;
    9501:	b0 56 24          	  cmp.w a5 0x24;
    9504:	f5 0c 9d 00       	  brgt 0x95a1;
    9508:	b4 e0 0d          	  lddsp.w a14 0x34;
    950b:	b4 f0 0e          	  lddsp.w a15 0x38;
    950e:	95 fd 01          	  lsr.w a13 a15 0x1;
    9511:	9d ec 01          	  lsrc.w a12 a14 0x1;
    9514:	ff c2 e4          	  and a14 a12 a2;
    9517:	ff d2 f4          	  and a15 a13 a2;
    951a:	b4 c0 0d          	  lddsp.w a12 0x34;
    951d:	b4 d0 0e          	  lddsp.w a13 0x38;
    9520:	bc ce e2          	  sub.w a14 a12 a14;
    9523:	bc df f3          	  subc.w a15 a13 a15;
    9526:	ff e1 c4          	  and a12 a14 a1;
    9529:	94 f9 1e          	  lsl.w a9 a15 0x1e;
    952c:	b6 e5 02          	  lsr.w a14 0x2;
    952f:	ff 9e e5          	  or a14 a9 a14;
    9532:	ff f1 d4          	  and a13 a15 a1;
    9535:	95 f0 02          	  lsr.w a0 a15 0x2;
    9538:	ff e1 a4          	  and a10 a14 a1;
    953b:	ff 01 b4          	  and a11 a0 a1;
    953e:	bc ac a0          	  add.w a10 a10 a12;
    9541:	bc bd b1          	  addc.w a11 a11 a13;
    9544:	94 b9 1c          	  lsl.w a9 a11 0x1c;
    9547:	95 ae 04          	  lsr.w a14 a10 0x4;
    954a:	95 bf 04          	  lsr.w a15 a11 0x4;
    954d:	ff 9e e5          	  or a14 a9 a14;
    9550:	bc ea e0          	  add.w a14 a14 a10;
    9553:	bc fb f1          	  addc.w a15 a15 a11;
    9556:	fd e4 04          	  and a14 a4;
    9559:	dc 01 01 01 01    	  mvi a12 0x1010101;
    955e:	ff f4 b4          	  and a11 a15 a4;
    9561:	b2 cd             	  mv.w a13 a12;
    9563:	b2 ea             	  mv.w a10 a14;
    9565:	7e 5b 41 00       	  call 0x415b;
    9569:	95 b9 18          	  lsr.w a9 a11 0x18;
    956c:	b0 96 24          	  cmp.w a9 0x24;
    956f:	f4 0c 32          	  brgt 0x95a1;
    9572:	b4 d0 0c          	  lddsp.w a13 0x30;
    9575:	de ff 0f 00 ff    	  mvi a14 -0xfff001;
    957a:	4f 00 f0          	  mvi a15 -0x1000;
    957d:	b6 94 0c          	  lsl.w a9 0xc;
    9580:	ff df f4          	  and a15 a13 a15;
    9583:	ff 5f f5          	  or a15 a5 a15;
    9586:	fd fe 04          	  and a15 a14;
    9589:	b4 e0 0b          	  lddsp.w a14 0x2c;
    958c:	fd f9 05          	  or a15 a9;
    958f:	a0 ef             	  std.w a14 a15;
    9591:	b4 f0 0a          	  lddsp.w a15 0x28;
    9594:	0e 1f             	  mvi a14 0x1f;
    9596:	a0 f3             	  std.w a15 a3;
    9598:	b4 90 09          	  lddsp.w a9 0x24;
    959b:	a0 98             	  std.w a9 a8;
    959d:	3e a3 95 00       	  jmp 0x95a3;
    95a1:	0e 06             	  mvi a14 0x6;
    95a3:	fe 49 01          	  rspr a9 SP;
    95a6:	90 99 3c          	  add.w a9 a9 0x3c;
    95a9:	bf 9f             	  ldd.w a15 a9;
    95ab:	d9 2c 06 00 00    	  mvi a9 0x62c;
    95b0:	bf 99             	  ldd.w a9 a9;
    95b2:	32 ea             	  mv.b a10 a14;
    95b4:	a6 f9             	  cmp.w a15 a9;
    95b6:	f4 0b 07          	  breq 0x95bd;
    95b9:	7e e9 42 00       	  call 0x42e9;
    95bd:	fb 85 1c          	  popma a8 0x1 0x1c;

000095c0 <_smbpbiGetSublinkLaneWidth_LR10>:
    95c0:	f4 30 fc          	  addsp -0x4;
    95c3:	df 2c 06 00 00    	  mvi a15 0x62c;
    95c8:	f9 22             	  pushm a2;
    95ca:	bf ff             	  ldd.w a15 a15;
    95cc:	d9 00 00 01 01    	  mvi a9 0x1010000;
    95d1:	f0 a4 ff          	  and a10 0xff;
    95d4:	f0 b4 ff          	  and a11 0xff;
    95d7:	b6 a4 14          	  lsl.w a10 0x14;
    95da:	b6 b4 0f          	  lsl.w a11 0xf;
    95dd:	bc a9 a0          	  add.w a10 a10 a9;
    95e0:	fe 49 01          	  rspr a9 SP;
    95e3:	90 99 0c          	  add.w a9 a9 0xc;
    95e6:	bc ab 20          	  add.w a2 a10 a11;
    95e9:	a0 9f             	  std.w a9 a15;
    95eb:	b2 c0             	  mv.w a0 a12;
    95ed:	b2 d1             	  mv.w a1 a13;
    95ef:	b8 2a 24 20 00    	  add.w a10 a2 0x2024;
    95f4:	7e 22 1c 00       	  call 0x1c22;
    95f8:	09 03             	  mvi a9 0x3;
    95fa:	c7 aa 64          	  uxtr a10 a10 0x64;
    95fd:	b3 a0 00 0c       	  cmpbreq.w a10 0x0 0x9609;
    9601:	09 01             	  mvi a9 0x1;
    9603:	b3 a0 04 06       	  cmpbreq.w a10 0x4 0x9609;
    9607:	3d 94             	  clr.b a9;
    9609:	20 09             	  std.b a0 a9;
    960b:	b8 2a 14 30 00    	  add.w a10 a2 0x3014;
    9610:	7e 22 1c 00       	  call 0x1c22;
    9614:	09 03             	  mvi a9 0x3;
    9616:	c7 aa 64          	  uxtr a10 a10 0x64;
    9619:	b3 a0 00 0c       	  cmpbreq.w a10 0x0 0x9625;
    961d:	09 01             	  mvi a9 0x1;
    961f:	b3 a0 04 06       	  cmpbreq.w a10 0x4 0x9625;
    9623:	3d 94             	  clr.b a9;
    9625:	20 19             	  std.b a1 a9;
    9627:	fe 49 01          	  rspr a9 SP;
    962a:	90 99 0c          	  add.w a9 a9 0xc;
    962d:	bf 9f             	  ldd.w a15 a9;
    962f:	d9 2c 06 00 00    	  mvi a9 0x62c;
    9634:	bf 99             	  ldd.w a9 a9;
    9636:	a6 f9             	  cmp.w a15 a9;
    9638:	f4 0b 07          	  breq 0x963f;
    963b:	7e e9 42 00       	  call 0x42e9;
    963f:	fb 25 04          	  popma a2 0x1 0x4;

00009642 <_smbpbiGetLwlinkSublinkWidth_LR10>:
    9642:	f4 30 f0          	  addsp -0x10;
    9645:	df 2c 06 00 00    	  mvi a15 0x62c;
    964a:	f9 32             	  pushm a3;
    964c:	bf ff             	  ldd.w a15 a15;
    964e:	f4 30 fc          	  addsp -0x4;
    9651:	fe 49 01          	  rspr a9 SP;
    9654:	90 99 20          	  add.w a9 a9 0x20;
    9657:	a0 9f             	  std.w a9 a15;
    9659:	fe 41 01          	  rspr a1 SP;
    965c:	bd 94             	  clr.w a9;
    965e:	90 11 1c          	  add.w a1 a1 0x1c;
    9661:	fe 4e 01          	  rspr a14 SP;
    9664:	a0 19             	  std.w a1 a9;
    9666:	90 ee 18          	  add.w a14 a14 0x18;
    9669:	a0 e9             	  std.w a14 a9;
    966b:	b2 c2             	  mv.w a2 a12;
    966d:	b2 d3             	  mv.w a3 a13;
    966f:	09 ff             	  mvi a9 -0x1;
    9671:	26 b9             	  cmp.b a11 a9;
    9673:	f4 1b 20          	  brne 0x9693;
    9676:	fe 40 01          	  rspr a0 SP;
    9679:	0b 24             	  mvi a11 0x24;
    967b:	90 00 14          	  add.w a0 a0 0x14;
    967e:	b2 0c             	  mv.w a12 a0;
    9680:	7e d9 a3 00       	  call 0xa3d9;
    9684:	f0 a4 ff          	  and a10 0xff;
    9687:	b3 a4 1f 3c       	  cmpbrne.w a10 0x1f 0x96c3;
    968b:	bf 00             	  ldd.w a0 a0;
    968d:	a0 10             	  std.w a1 a0;
    968f:	3e ad 96 00       	  jmp 0x96ad;
    9693:	b0 e1 00          	  stdsp.w a14 0x0;
    9696:	f0 a4 ff          	  and a10 0xff;
    9699:	f0 b4 ff          	  and a11 0xff;
    969c:	b2 1e             	  mv.w a14 a1;
    969e:	0c 05             	  mvi a12 0x5;
    96a0:	0d 24             	  mvi a13 0x24;
    96a2:	7e 52 a4 00       	  call 0xa452;
    96a6:	f0 a4 ff          	  and a10 0xff;
    96a9:	b3 a4 1f 1a       	  cmpbrne.w a10 0x1f 0x96c3;
    96ad:	fe 49 01          	  rspr a9 SP;
    96b0:	90 99 1c          	  add.w a9 a9 0x1c;
    96b3:	bf 99             	  ldd.w a9 a9;
    96b5:	0a 1f             	  mvi a10 0x1f;
    96b7:	a0 29             	  std.w a2 a9;
    96b9:	fe 49 01          	  rspr a9 SP;
    96bc:	90 99 18          	  add.w a9 a9 0x18;
    96bf:	bf 99             	  ldd.w a9 a9;
    96c1:	a0 39             	  std.w a3 a9;
    96c3:	fe 49 01          	  rspr a9 SP;
    96c6:	90 99 20          	  add.w a9 a9 0x20;
    96c9:	bf 9f             	  ldd.w a15 a9;
    96cb:	d9 2c 06 00 00    	  mvi a9 0x62c;
    96d0:	bf 99             	  ldd.w a9 a9;
    96d2:	a6 f9             	  cmp.w a15 a9;
    96d4:	f4 0b 07          	  breq 0x96db;
    96d7:	7e e9 42 00       	  call 0x42e9;
    96db:	f4 30 04          	  addsp 0x4;
    96de:	fb 35 10          	  popma a3 0x1 0x10;

000096e1 <_smbpbiGetLwlinkStateV2_LR10>:
    96e1:	f4 30 f0          	  addsp -0x10;
    96e4:	df 2c 06 00 00    	  mvi a15 0x62c;
    96e9:	f9 32             	  pushm a3;
    96eb:	bf ff             	  ldd.w a15 a15;
    96ed:	f4 30 fc          	  addsp -0x4;
    96f0:	fe 49 01          	  rspr a9 SP;
    96f3:	90 99 20          	  add.w a9 a9 0x20;
    96f6:	a0 9f             	  std.w a9 a15;
    96f8:	fe 41 01          	  rspr a1 SP;
    96fb:	bd 94             	  clr.w a9;
    96fd:	90 11 18          	  add.w a1 a1 0x18;
    9700:	fe 4e 01          	  rspr a14 SP;
    9703:	a0 19             	  std.w a1 a9;
    9705:	90 ee 14          	  add.w a14 a14 0x14;
    9708:	a0 e9             	  std.w a14 a9;
    970a:	b2 c2             	  mv.w a2 a12;
    970c:	b2 d3             	  mv.w a3 a13;
    970e:	09 ff             	  mvi a9 -0x1;
    9710:	26 b9             	  cmp.b a11 a9;
    9712:	f4 1b 1d          	  brne 0x972f;
    9715:	fe 40 01          	  rspr a0 SP;
    9718:	0b 24             	  mvi a11 0x24;
    971a:	90 00 1c          	  add.w a0 a0 0x1c;
    971d:	b2 0c             	  mv.w a12 a0;
    971f:	7e d9 a3 00       	  call 0xa3d9;
    9723:	33 a4 1f 39       	  cmpbrne.b a10 0x1f 0x975c;
    9727:	bf 00             	  ldd.w a0 a0;
    9729:	a0 10             	  std.w a1 a0;
    972b:	3e 46 97 00       	  jmp 0x9746;
    972f:	b0 e1 00          	  stdsp.w a14 0x0;
    9732:	f0 a4 ff          	  and a10 0xff;
    9735:	f0 b4 ff          	  and a11 0xff;
    9738:	b2 1e             	  mv.w a14 a1;
    973a:	0c 08             	  mvi a12 0x8;
    973c:	0d 24             	  mvi a13 0x24;
    973e:	7e 52 a4 00       	  call 0xa452;
    9742:	33 a4 1f 1a       	  cmpbrne.b a10 0x1f 0x975c;
    9746:	fe 49 01          	  rspr a9 SP;
    9749:	90 99 18          	  add.w a9 a9 0x18;
    974c:	bf 99             	  ldd.w a9 a9;
    974e:	0a 1f             	  mvi a10 0x1f;
    9750:	a0 29             	  std.w a2 a9;
    9752:	fe 49 01          	  rspr a9 SP;
    9755:	90 99 14          	  add.w a9 a9 0x14;
    9758:	bf 99             	  ldd.w a9 a9;
    975a:	a0 39             	  std.w a3 a9;
    975c:	fe 49 01          	  rspr a9 SP;
    975f:	90 99 20          	  add.w a9 a9 0x20;
    9762:	bf 9f             	  ldd.w a15 a9;
    9764:	d9 2c 06 00 00    	  mvi a9 0x62c;
    9769:	bf 99             	  ldd.w a9 a9;
    976b:	a6 f9             	  cmp.w a15 a9;
    976d:	f4 0b 07          	  breq 0x9774;
    9770:	7e e9 42 00       	  call 0x42e9;
    9774:	f4 30 04          	  addsp 0x4;
    9777:	fb 35 10          	  popma a3 0x1 0x10;

0000977a <_smbpbiGetLwlinkBandwidth_LR10>:
    977a:	f4 30 f4          	  addsp -0xc;
    977d:	df 2c 06 00 00    	  mvi a15 0x62c;
    9782:	f9 22             	  pushm a2;
    9784:	bf ff             	  ldd.w a15 a15;
    9786:	f4 30 fc          	  addsp -0x4;
    9789:	fe 49 01          	  rspr a9 SP;
    978c:	90 99 18          	  add.w a9 a9 0x18;
    978f:	a0 9f             	  std.w a9 a15;
    9791:	fe 4e 01          	  rspr a14 SP;
    9794:	bd 94             	  clr.w a9;
    9796:	90 ee 14          	  add.w a14 a14 0x14;
    9799:	fe 40 01          	  rspr a0 SP;
    979c:	a0 e9             	  std.w a14 a9;
    979e:	90 00 10          	  add.w a0 a0 0x10;
    97a1:	a0 09             	  std.w a0 a9;
    97a3:	b2 c1             	  mv.w a1 a12;
    97a5:	b2 d2             	  mv.w a2 a13;
    97a7:	09 ff             	  mvi a9 -0x1;
    97a9:	26 b9             	  cmp.b a11 a9;
    97ab:	f4 1b 0f          	  brne 0x97ba;
    97ae:	b2 ec             	  mv.w a12 a14;
    97b0:	0b 24             	  mvi a11 0x24;
    97b2:	7e d9 a3 00       	  call 0xa3d9;
    97b6:	3e cb 97 00       	  jmp 0x97cb;
    97ba:	b0 01 00          	  stdsp.w a0 0x0;
    97bd:	f0 a4 ff          	  and a10 0xff;
    97c0:	f0 b4 ff          	  and a11 0xff;
    97c3:	0c 01             	  mvi a12 0x1;
    97c5:	0d 24             	  mvi a13 0x24;
    97c7:	7e 52 a4 00       	  call 0xa452;
    97cb:	33 a4 1f 20       	  cmpbrne.b a10 0x1f 0x97eb;
    97cf:	fe 49 01          	  rspr a9 SP;
    97d2:	90 99 14          	  add.w a9 a9 0x14;
    97d5:	bf 99             	  ldd.w a9 a9;
    97d7:	fe 4f 01          	  rspr a15 SP;
    97da:	90 ff 10          	  add.w a15 a15 0x10;
    97dd:	bf ff             	  ldd.w a15 a15;
    97df:	e7 99 81 03       	  uxtr a9 a9 0x381;
    97e3:	a0 19             	  std.w a1 a9;
    97e5:	e7 ff 81 03       	  uxtr a15 a15 0x381;
    97e9:	a0 2f             	  std.w a2 a15;
    97eb:	fe 49 01          	  rspr a9 SP;
    97ee:	90 99 18          	  add.w a9 a9 0x18;
    97f1:	bf 9f             	  ldd.w a15 a9;
    97f3:	d9 2c 06 00 00    	  mvi a9 0x62c;
    97f8:	bf 99             	  ldd.w a9 a9;
    97fa:	a6 f9             	  cmp.w a15 a9;
    97fc:	f4 0b 07          	  breq 0x9803;
    97ff:	7e e9 42 00       	  call 0x42e9;
    9803:	f4 30 04          	  addsp 0x4;
    9806:	fb 25 0c          	  popma a2 0x1 0xc;

00009809 <_smbpbiGetLwlinkStateV1_LR10>:
    9809:	f4 30 f4          	  addsp -0xc;
    980c:	df 2c 06 00 00    	  mvi a15 0x62c;
    9811:	f9 22             	  pushm a2;
    9813:	bf ff             	  ldd.w a15 a15;
    9815:	f4 30 fc          	  addsp -0x4;
    9818:	fe 49 01          	  rspr a9 SP;
    981b:	90 99 18          	  add.w a9 a9 0x18;
    981e:	a0 9f             	  std.w a9 a15;
    9820:	fe 4e 01          	  rspr a14 SP;
    9823:	bd 94             	  clr.w a9;
    9825:	90 ee 14          	  add.w a14 a14 0x14;
    9828:	fe 40 01          	  rspr a0 SP;
    982b:	a0 e9             	  std.w a14 a9;
    982d:	90 00 10          	  add.w a0 a0 0x10;
    9830:	a0 09             	  std.w a0 a9;
    9832:	b2 c1             	  mv.w a1 a12;
    9834:	b2 d2             	  mv.w a2 a13;
    9836:	09 ff             	  mvi a9 -0x1;
    9838:	26 b9             	  cmp.b a11 a9;
    983a:	f4 1b 0f          	  brne 0x9849;
    983d:	b2 ec             	  mv.w a12 a14;
    983f:	0b 24             	  mvi a11 0x24;
    9841:	7e d9 a3 00       	  call 0xa3d9;
    9845:	3e 5a 98 00       	  jmp 0x985a;
    9849:	b0 01 00          	  stdsp.w a0 0x0;
    984c:	f0 a4 ff          	  and a10 0xff;
    984f:	f0 b4 ff          	  and a11 0xff;
    9852:	0c 20             	  mvi a12 0x20;
    9854:	0d 24             	  mvi a13 0x24;
    9856:	7e 52 a4 00       	  call 0xa452;
    985a:	33 a4 1f 18       	  cmpbrne.b a10 0x1f 0x9872;
    985e:	fe 49 01          	  rspr a9 SP;
    9861:	90 99 14          	  add.w a9 a9 0x14;
    9864:	bf 99             	  ldd.w a9 a9;
    9866:	a0 19             	  std.w a1 a9;
    9868:	fe 49 01          	  rspr a9 SP;
    986b:	90 99 10          	  add.w a9 a9 0x10;
    986e:	bf 99             	  ldd.w a9 a9;
    9870:	a0 29             	  std.w a2 a9;
    9872:	fe 49 01          	  rspr a9 SP;
    9875:	90 99 18          	  add.w a9 a9 0x18;
    9878:	bf 9f             	  ldd.w a15 a9;
    987a:	d9 2c 06 00 00    	  mvi a9 0x62c;
    987f:	bf 99             	  ldd.w a9 a9;
    9881:	a6 f9             	  cmp.w a15 a9;
    9883:	f4 0b 07          	  breq 0x988a;
    9886:	7e e9 42 00       	  call 0x42e9;
    988a:	f4 30 04          	  addsp 0x4;
    988d:	fb 25 0c          	  popma a2 0x1 0xc;

00009890 <_smbpbiGetLwlinkErrorCountPerLink_LR10>:
    9890:	f4 30 f4          	  addsp -0xc;
    9893:	df 2c 06 00 00    	  mvi a15 0x62c;
    9898:	f9 52             	  pushm a5;
    989a:	bf ff             	  ldd.w a15 a15;
    989c:	fe 49 01          	  rspr a9 SP;
    989f:	90 99 20          	  add.w a9 a9 0x20;
    98a2:	32 b0             	  mv.b a0 a11;
    98a4:	a0 9f             	  std.w a9 a15;
    98a6:	b2 c4             	  mv.w a4 a12;
    98a8:	05 04             	  mvi a5 0x4;
    98aa:	b0 a6 23          	  cmp.w a10 0x23;
    98ad:	f5 0c bb 00       	  brgt 0x9968;
    98b1:	bd 34             	  clr.w a3;
    98b3:	fe 42 01          	  rspr a2 SP;
    98b6:	fe 41 01          	  rspr a1 SP;
    98b9:	90 22 18          	  add.w a2 a2 0x18;
    98bc:	90 11 1c          	  add.w a1 a1 0x1c;
    98bf:	a0 23             	  std.w a2 a3;
    98c1:	a0 13             	  std.w a1 a3;
    98c3:	b2 1b             	  mv.w a11 a1;
    98c5:	b2 2c             	  mv.w a12 a2;
    98c7:	7e a6 9f 00       	  call 0x9fa6;
    98cb:	32 a5             	  mv.b a5 a10;
    98cd:	33 ad 1f 9b 00    	  cmpbrne.b a10 0x1f 0x9968;
    98d2:	bf 1a             	  ldd.w a10 a1;
    98d4:	bf 2b             	  ldd.w a11 a2;
    98d6:	7e d3 a0 00       	  call 0xa0d3;
    98da:	33 a4 00 0a       	  cmpbrne.b a10 0x0 0x98e4;
    98de:	a0 43             	  std.w a4 a3;
    98e0:	3e 68 99 00       	  jmp 0x9968;
    98e4:	bf 2f             	  ldd.w a15 a2;
    98e6:	bf 19             	  ldd.w a9 a1;
    98e8:	b6 f4 0f          	  lsl.w a15 0xf;
    98eb:	b6 94 14          	  lsl.w a9 0x14;
    98ee:	bc f9 90          	  add.w a9 a15 a9;
    98f1:	df 00 00 01 01    	  mvi a15 0x1010000;
    98f6:	bc 9f 90          	  add.w a9 a9 a15;
    98f9:	33 00 04 2e       	  cmpbreq.b a0 0x4 0x9927;
    98fd:	30 06 04          	  cmp.b a0 0x4;
    9900:	f4 0c 0b          	  brgt 0x990b;
    9903:	33 04 03 65       	  cmpbrne.b a0 0x3 0x9968;
    9907:	3e 17 99 00       	  jmp 0x9917;
    990b:	33 00 05 2d       	  cmpbreq.b a0 0x5 0x9938;
    990f:	33 04 06 59       	  cmpbrne.b a0 0x6 0x9968;
    9913:	3e 48 99 00       	  jmp 0x9948;
    9917:	b8 9a 88 22 00    	  add.w a10 a9 0x2288;
    991c:	7e 22 1c 00       	  call 0x1c22;
    9920:	b6 a5 10          	  lsr.w a10 0x10;
    9923:	3e 32 99 00       	  jmp 0x9932;
    9927:	90 9a 8c          	  add.w a10 a9 0x8c;
    992a:	7e 22 1c 00       	  call 0x1c22;
    992e:	f1 a4 ff 03       	  and a10 0x3ff;
    9932:	a0 4a             	  std.w a4 a10;
    9934:	3e 68 99 00       	  jmp 0x9968;
    9938:	b8 9a 88 32 00    	  add.w a10 a9 0x3288;
    993d:	7e 22 1c 00       	  call 0x1c22;
    9941:	f0 a3 00          	  sethi a10 0x0;
    9944:	3e 32 99 00       	  jmp 0x9932;
    9948:	b8 9a 8c 32 00    	  add.w a10 a9 0x328c;
    994d:	7e 22 1c 00       	  call 0x1c22;
    9951:	95 ae 18          	  lsr.w a14 a10 0x18;
    9954:	c7 a9 e8          	  uxtr a9 a10 0xe8;
    9957:	c7 af f0          	  uxtr a15 a10 0xf0;
    995a:	f0 a4 ff          	  and a10 0xff;
    995d:	bc 9f 90          	  add.w a9 a9 a15;
    9960:	bc 9a 90          	  add.w a9 a9 a10;
    9963:	bc 9e 90          	  add.w a9 a9 a14;
    9966:	a0 49             	  std.w a4 a9;
    9968:	fe 49 01          	  rspr a9 SP;
    996b:	90 99 20          	  add.w a9 a9 0x20;
    996e:	bf 9f             	  ldd.w a15 a9;
    9970:	d9 2c 06 00 00    	  mvi a9 0x62c;
    9975:	bf 99             	  ldd.w a9 a9;
    9977:	32 5a             	  mv.b a10 a5;
    9979:	a6 f9             	  cmp.w a15 a9;
    997b:	f4 0b 07          	  breq 0x9982;
    997e:	7e e9 42 00       	  call 0x42e9;
    9982:	fb 55 0c          	  popma a5 0x1 0xc;

00009985 <_smbpbiGetLwlinkErrorCount_LR10>:
    9985:	f4 30 f4          	  addsp -0xc;
    9988:	df 2c 06 00 00    	  mvi a15 0x62c;
    998d:	f9 42             	  pushm a4;
    998f:	bf ff             	  ldd.w a15 a15;
    9991:	fe 49 01          	  rspr a9 SP;
    9994:	90 99 1c          	  add.w a9 a9 0x1c;
    9997:	fe 4e 01          	  rspr a14 SP;
    999a:	a0 9f             	  std.w a9 a15;
    999c:	90 ee 18          	  add.w a14 a14 0x18;
    999f:	bd 94             	  clr.w a9;
    99a1:	fe 4f 01          	  rspr a15 SP;
    99a4:	a0 e9             	  std.w a14 a9;
    99a6:	90 ff 14          	  add.w a15 a15 0x14;
    99a9:	a0 f9             	  std.w a15 a9;
    99ab:	32 a1             	  mv.b a1 a10;
    99ad:	b2 c4             	  mv.w a4 a12;
    99af:	09 ff             	  mvi a9 -0x1;
    99b1:	26 b9             	  cmp.b a11 a9;
    99b3:	f4 1b 2b          	  brne 0x99de;
    99b6:	b2 e3             	  mv.w a3 a14;
    99b8:	b2 f2             	  mv.w a2 a15;
    99ba:	bd 04             	  clr.w a0;
    99bc:	b2 0a             	  mv.w a10 a0;
    99be:	32 1b             	  mv.b a11 a1;
    99c0:	b2 3c             	  mv.w a12 a3;
    99c2:	7e 90 98 00       	  call 0x9890;
    99c6:	33 a4 1f 31       	  cmpbrne.b a10 0x1f 0x99f7;
    99ca:	bf 2f             	  ldd.w a15 a2;
    99cc:	bf 39             	  ldd.w a9 a3;
    99ce:	90 00 01          	  add.w a0 a0 0x1;
    99d1:	bc 9f 90          	  add.w a9 a9 a15;
    99d4:	a0 29             	  std.w a2 a9;
    99d6:	b3 04 24 e6       	  cmpbrne.w a0 0x24 0x99bc;
    99da:	3e ed 99 00       	  jmp 0x99ed;
    99de:	c4 ba ff          	  and a10 a11 0xff;
    99e1:	b2 fc             	  mv.w a12 a15;
    99e3:	32 1b             	  mv.b a11 a1;
    99e5:	7e 90 98 00       	  call 0x9890;
    99e9:	33 a4 1f 0e       	  cmpbrne.b a10 0x1f 0x99f7;
    99ed:	fe 49 01          	  rspr a9 SP;
    99f0:	90 99 14          	  add.w a9 a9 0x14;
    99f3:	bf 99             	  ldd.w a9 a9;
    99f5:	a0 49             	  std.w a4 a9;
    99f7:	fe 49 01          	  rspr a9 SP;
    99fa:	90 99 1c          	  add.w a9 a9 0x1c;
    99fd:	bf 9f             	  ldd.w a15 a9;
    99ff:	d9 2c 06 00 00    	  mvi a9 0x62c;
    9a04:	bf 99             	  ldd.w a9 a9;
    9a06:	a6 f9             	  cmp.w a15 a9;
    9a08:	f4 0b 07          	  breq 0x9a0f;
    9a0b:	7e e9 42 00       	  call 0x42e9;
    9a0f:	fb 45 0c          	  popma a4 0x1 0xc;

00009a12 <_smbpbiGetLwlinkThroughput_LR10>:
    9a12:	f4 30 b8          	  addsp -0x48;
    9a15:	df 2c 06 00 00    	  mvi a15 0x62c;
    9a1a:	f9 82             	  pushm a8;
    9a1c:	bf ff             	  ldd.w a15 a15;
    9a1e:	fe 49 01          	  rspr a9 SP;
    9a21:	90 99 68          	  add.w a9 a9 0x68;
    9a24:	05 01             	  mvi a5 0x1;
    9a26:	a0 9f             	  std.w a9 a15;
    9a28:	b0 c1 11          	  stdsp.w a12 0x44;
    9a2b:	30 b1 49          	  stdsp.b a11 0x49;
    9a2e:	b0 d1 10          	  stdsp.w a13 0x40;
    9a31:	b0 e1 0f          	  stdsp.w a14 0x3c;
    9a34:	bf c4             	  ldd.w a4 a12;
    9a36:	33 a0 0a 18       	  cmpbreq.b a10 0xa 0x9a4e;
    9a3a:	30 a6 0a          	  cmp.b a10 0xa;
    9a3d:	f4 08 0f          	  brc 0x9a4c;
    9a40:	05 02             	  mvi a5 0x2;
    9a42:	33 a0 0b 0c       	  cmpbreq.b a10 0xb 0x9a4e;
    9a46:	05 03             	  mvi a5 0x3;
    9a48:	33 a0 0c 06       	  cmpbreq.b a10 0xc 0x9a4e;
    9a4c:	3d 54             	  clr.b a5;
    9a4e:	bd 94             	  clr.w a9;
    9a50:	fe 4f 01          	  rspr a15 SP;
    9a53:	bd 64             	  clr.w a6;
    9a55:	90 ff 60          	  add.w a15 a15 0x60;
    9a58:	bd 04             	  clr.w a0;
    9a5a:	b5 f9 01          	  std.w a15 0x4 a9;
    9a5d:	a0 f9             	  std.w a15 a9;
    9a5f:	bd 74             	  clr.w a7;
    9a61:	92 ff 08          	  sub.w a15 a15 0x8;
    9a64:	20 f9             	  std.b a15 a9;
    9a66:	b2 f1             	  mv.w a1 a15;
    9a68:	b2 0a             	  mv.w a10 a0;
    9a6a:	b2 1b             	  mv.w a11 a1;
    9a6c:	7e 10 a2 00       	  call 0xa210;
    9a70:	33 ad 1f 80 04    	  cmpbrne.b a10 0x1f 0x9ef0;
    9a75:	3f 19             	  ldd.b a9 a1;
    9a77:	33 90 00 1c       	  cmpbreq.b a9 0x0 0x9a93;
    9a7b:	0a 01             	  mvi a10 0x1;
    9a7d:	bd b4             	  clr.w a11;
    9a7f:	b2 0c             	  mv.w a12 a0;
    9a81:	7e 66 42 00       	  call 0x4266;
    9a85:	ff 7b 95          	  or a9 a7 a11;
    9a88:	ff 6a a5          	  or a10 a6 a10;
    9a8b:	b2 9f             	  mv.w a15 a9;
    9a8d:	b2 ae             	  mv.w a14 a10;
    9a8f:	b2 e6             	  mv.w a6 a14;
    9a91:	b2 f7             	  mv.w a7 a15;
    9a93:	90 00 01          	  add.w a0 a0 0x1;
    9a96:	b3 04 24 d2       	  cmpbrne.w a0 0x24 0x9a68;
    9a9a:	3e 08 9f 00       	  jmp 0x9f08;
    9a9e:	34 90 49          	  lddsp.b a9 0x49;
    9aa1:	0a 04             	  mvi a10 0x4;
    9aa3:	30 96 23          	  cmp.b a9 0x23;
    9aa6:	f5 0c 4a 04       	  brgt 0x9ef0;
    9aaa:	34 c0 49          	  lddsp.b a12 0x49;
    9aad:	0a 01             	  mvi a10 0x1;
    9aaf:	bd b4             	  clr.w a11;
    9ab1:	f0 c4 ff          	  and a12 0xff;
    9ab4:	7e 66 42 00       	  call 0x4266;
    9ab8:	b2 a0             	  mv.w a0 a10;
    9aba:	b2 b1             	  mv.w a1 a11;
    9abc:	c5 49 08          	  or a9 a4 0x8;
    9abf:	df 08 00 00 ff    	  mvi a15 -0xfffff8;
    9ac4:	ff 9f f4          	  and a15 a9 a15;
    9ac7:	b0 f1 13          	  stdsp.w a15 0x4c;
    9aca:	7e 7c a6 00       	  call 0xa67c;
    9ace:	33 a4 00 4d       	  cmpbrne.b a10 0x0 0x9b1b;
    9ad2:	fe 46 01          	  rspr a6 SP;
    9ad5:	bd 24             	  clr.w a2;
    9ad7:	0a 1f             	  mvi a10 0x1f;
    9ad9:	bd 34             	  clr.w a3;
    9adb:	3d 44             	  clr.b a4;
    9add:	90 66 60          	  add.w a6 a6 0x60;
    9ae0:	3e 0c 9b 00       	  jmp 0x9b0c;
    9ae4:	c4 09 01          	  and a9 a0 0x1;
    9ae7:	f4 0b 1c          	  breq 0x9b03;
    9aea:	32 4a             	  mv.b a10 a4;
    9aec:	32 5b             	  mv.b a11 a5;
    9aee:	b2 6c             	  mv.w a12 a6;
    9af0:	7e cc a5 00       	  call 0xa5cc;
    9af4:	33 a4 1f 0f       	  cmpbrne.b a10 0x1f 0x9b03;
    9af8:	bf 6e             	  ldd.w a14 a6;
    9afa:	98 6f 01          	  ldd.w a15 a6 0x4;
    9afd:	bc 2e 20          	  add.w a2 a2 a14;
    9b00:	bc 3f 31          	  addc.w a3 a3 a15;
    9b03:	10 44 01          	  add.b a4 a4 0x1;
    9b06:	95 11 01          	  lsr.w a1 a1 0x1;
    9b09:	9d 00 01          	  lsrc.w a0 a0 0x1;
    9b0c:	ff 01 95          	  or a9 a0 a1;
    9b0f:	f4 1b d5          	  brne 0x9ae4;
    9b12:	33 a9 1f c7 03    	  cmpbreq.b a10 0x1f 0x9ed9;
    9b17:	3e f0 9e 00       	  jmp 0x9ef0;
    9b1b:	34 b0 49          	  lddsp.b a11 0x49;
    9b1e:	09 ff             	  mvi a9 -0x1;
    9b20:	26 b9             	  cmp.b a11 a9;
    9b22:	f4 0b 78          	  breq 0x9b9a;
    9b25:	df f4 2a 00 00    	  mvi a15 0x2af4;
    9b2a:	c4 5e ff          	  and a14 a5 0xff;
    9b2d:	94 e9 03          	  lsl.w a9 a14 0x3;
    9b30:	bc 9f 90          	  add.w a9 a9 a15;
    9b33:	98 9f 18          	  ldd.w a15 a9 0x60;
    9b36:	98 99 17          	  ldd.w a9 a9 0x5c;
    9b39:	fd f1 04          	  and a15 a1;
    9b3c:	fd 90 04          	  and a9 a0;
    9b3f:	a6 90             	  cmp.w a9 a0;
    9b41:	f4 1b 08          	  brne 0x9b49;
    9b44:	a6 f1             	  cmp.w a15 a1;
    9b46:	f4 0b 54          	  breq 0x9b9a;
    9b49:	ff 02 94          	  and a9 a0 a2;
    9b4c:	ff 13 f4          	  and a15 a1 a3;
    9b4f:	a6 90             	  cmp.w a9 a0;
    9b51:	f4 1b 08          	  brne 0x9b59;
    9b54:	a6 f1             	  cmp.w a15 a1;
    9b56:	f4 0b 44          	  breq 0x9b9a;
    9b59:	d9 f4 2a 00 00    	  mvi a9 0x2af4;
    9b5e:	94 ef 03          	  lsl.w a15 a14 0x3;
    9b61:	bc f9 f0          	  add.w a15 a15 a9;
    9b64:	98 f9 1f          	  ldd.w a9 a15 0x7c;
    9b67:	b9 0c 00          	  cpl.w a12 a0;
    9b6a:	90 fe 7c          	  add.w a14 a15 0x7c;
    9b6d:	b9 1b 00          	  cpl.w a11 a1;
    9b70:	fd 9c 04          	  and a9 a12;
    9b73:	b5 f9 1f          	  std.w a15 0x7c a9;
    9b76:	98 e9 01          	  ldd.w a9 a14 0x4;
    9b79:	90 fd 5c          	  add.w a13 a15 0x5c;
    9b7c:	0a 09             	  mvi a10 0x9;
    9b7e:	fd 9b 04          	  and a9 a11;
    9b81:	b5 e9 01          	  std.w a14 0x4 a9;
    9b84:	98 f9 17          	  ldd.w a9 a15 0x5c;
    9b87:	fd 9c 04          	  and a9 a12;
    9b8a:	b5 f9 17          	  std.w a15 0x5c a9;
    9b8d:	98 d9 01          	  ldd.w a9 a13 0x4;
    9b90:	fd 9b 04          	  and a9 a11;
    9b93:	b5 d9 01          	  std.w a13 0x4 a9;
    9b96:	3e f0 9e 00       	  jmp 0x9ef0;
    9b9a:	f0 54 ff          	  and a5 0xff;
    9b9d:	db f4 2a 00 00    	  mvi a11 0x2af4;
    9ba2:	b2 59             	  mv.w a9 a5;
    9ba4:	b6 94 03          	  lsl.w a9 0x3;
    9ba7:	bc 9b 90          	  add.w a9 a9 a11;
    9baa:	98 9f 20          	  ldd.w a15 a9 0x80;
    9bad:	98 99 1f          	  ldd.w a9 a9 0x7c;
    9bb0:	b0 51 14          	  stdsp.w a5 0x50;
    9bb3:	fd f1 04          	  and a15 a1;
    9bb6:	fd 90 04          	  and a9 a0;
    9bb9:	a6 90             	  cmp.w a9 a0;
    9bbb:	f4 1b 08          	  brne 0x9bc3;
    9bbe:	a6 f1             	  cmp.w a15 a1;
    9bc0:	f4 0b 10          	  breq 0x9bd0;
    9bc3:	0e 01             	  mvi a14 0x1;
    9bc5:	bd 44             	  clr.w a4;
    9bc7:	30 e1 4a          	  stdsp.b a14 0x4a;
    9bca:	bd 54             	  clr.w a5;
    9bcc:	3e 1a 9c 00       	  jmp 0x9c1a;
    9bd0:	bd 44             	  clr.w a4;
    9bd2:	b2 1d             	  mv.w a13 a1;
    9bd4:	b2 0c             	  mv.w a12 a0;
    9bd6:	bd 54             	  clr.w a5;
    9bd8:	3d b4             	  clr.b a11;
    9bda:	3e 0f 9c 00       	  jmp 0x9c0f;
    9bde:	c4 c9 01          	  and a9 a12 0x1;
    9be1:	f4 0b 25          	  breq 0x9c06;
    9be4:	b4 f0 14          	  lddsp.w a15 0x50;
    9be7:	de cc 06 00 00    	  mvi a14 0x6cc;
    9bec:	c4 b9 ff          	  and a9 a11 0xff;
    9bef:	b6 94 03          	  lsl.w a9 0x3;
    9bf2:	bc 9f 90          	  add.w a9 a9 a15;
    9bf5:	b6 94 03          	  lsl.w a9 0x3;
    9bf8:	bc 9e 90          	  add.w a9 a9 a14;
    9bfb:	bf 9e             	  ldd.w a14 a9;
    9bfd:	98 9f 01          	  ldd.w a15 a9 0x4;
    9c00:	bc 4e 40          	  add.w a4 a4 a14;
    9c03:	bc 5f 51          	  addc.w a5 a5 a15;
    9c06:	10 bb 01          	  add.b a11 a11 0x1;
    9c09:	95 dd 01          	  lsr.w a13 a13 0x1;
    9c0c:	9d cc 01          	  lsrc.w a12 a12 0x1;
    9c0f:	ff cd 95          	  or a9 a12 a13;
    9c12:	f4 1b cc          	  brne 0x9bde;
    9c15:	3d f4             	  clr.b a15;
    9c17:	30 f1 4a          	  stdsp.b a15 0x4a;
    9c1a:	b4 90 14          	  lddsp.w a9 0x50;
    9c1d:	db f4 2a 00 00    	  mvi a11 0x2af4;
    9c22:	b6 94 03          	  lsl.w a9 0x3;
    9c25:	bc 9b 90          	  add.w a9 a9 a11;
    9c28:	98 9f 18          	  ldd.w a15 a9 0x60;
    9c2b:	98 99 17          	  ldd.w a9 a9 0x5c;
    9c2e:	fd f1 04          	  and a15 a1;
    9c31:	fd 90 04          	  and a9 a0;
    9c34:	a6 90             	  cmp.w a9 a0;
    9c36:	f4 1b 09          	  brne 0x9c3f;
    9c39:	a6 f1             	  cmp.w a15 a1;
    9c3b:	f5 0b 20 01       	  breq 0x9d5b;
    9c3f:	bd 94             	  clr.w a9;
    9c41:	3d e4             	  clr.b a14;
    9c43:	b0 91 17          	  stdsp.w a9 0x5c;
    9c46:	b0 91 16          	  stdsp.w a9 0x58;
    9c49:	30 e1 4b          	  stdsp.b a14 0x4b;
    9c4c:	3e 1b 9d 00       	  jmp 0x9d1b;
    9c50:	c4 69 01          	  and a9 a6 0x1;
    9c53:	f5 0b b9 00       	  breq 0x9d0c;
    9c57:	34 90 4b          	  lddsp.b a9 0x4b;
    9c5a:	34 c0 4b          	  lddsp.b a12 0x4b;
    9c5d:	df ac 06 00 00    	  mvi a15 0x6ac;
    9c62:	0a 01             	  mvi a10 0x1;
    9c64:	f0 94 ff          	  and a9 0xff;
    9c67:	bd b4             	  clr.w a11;
    9c69:	94 98 06          	  lsl.w a8 a9 0x6;
    9c6c:	f0 c4 ff          	  and a12 0xff;
    9c6f:	bc 8f 80          	  add.w a8 a8 a15;
    9c72:	7e 66 42 00       	  call 0x4266;
    9c76:	d2 50 2b 00 00    	  mvi a2 0x2b50;
    9c7b:	b9 b9 00          	  cpl.w a9 a11;
    9c7e:	b0 b1 0d          	  stdsp.w a11 0x34;
    9c81:	b0 a1 0e          	  stdsp.w a10 0x38;
    9c84:	b9 ab 00          	  cpl.w a11 a10;
    9c87:	b0 91 0b          	  stdsp.w a9 0x2c;
    9c8a:	b0 b1 0c          	  stdsp.w a11 0x30;
    9c8d:	b2 8d             	  mv.w a13 a8;
    9c8f:	3d 34             	  clr.b a3;
    9c91:	34 a0 4b          	  lddsp.b a10 0x4b;
    9c94:	b0 d1 09          	  stdsp.w a13 0x24;
    9c97:	32 3b             	  mv.b a11 a3;
    9c99:	fe 4c 01          	  rspr a12 SP;
    9c9c:	90 cc 58          	  add.w a12 a12 0x58;
    9c9f:	7e cc a5 00       	  call 0xa5cc;
    9ca3:	bf 29             	  ldd.w a9 a2;
    9ca5:	98 2c 01          	  ldd.w a12 a2 0x4;
    9ca8:	b4 d0 09          	  lddsp.w a13 0x24;
    9cab:	33 a0 1f 35       	  cmpbreq.b a10 0x1f 0x9ce0;
    9caf:	bd e4             	  clr.w a14;
    9cb1:	a0 de             	  std.w a13 a14;
    9cb3:	b5 de 01          	  std.w a13 0x4 a14;
    9cb6:	b4 b0 0c          	  lddsp.w a11 0x30;
    9cb9:	98 2f 08          	  ldd.w a15 a2 0x20;
    9cbc:	98 2e 09          	  ldd.w a14 a2 0x24;
    9cbf:	fd 9b 04          	  and a9 a11;
    9cc2:	a0 29             	  std.w a2 a9;
    9cc4:	b4 b0 0b          	  lddsp.w a11 0x2c;
    9cc7:	ff cb 94          	  and a9 a12 a11;
    9cca:	b5 29 01          	  std.w a2 0x4 a9;
    9ccd:	b4 90 0c          	  lddsp.w a9 0x30;
    9cd0:	fd eb 04          	  and a14 a11;
    9cd3:	b5 2e 09          	  std.w a2 0x24 a14;
    9cd6:	fd f9 04          	  and a15 a9;
    9cd9:	b5 2f 08          	  std.w a2 0x20 a15;
    9cdc:	3e fc 9c 00       	  jmp 0x9cfc;
    9ce0:	b4 e0 16          	  lddsp.w a14 0x58;
    9ce3:	b4 f0 17          	  lddsp.w a15 0x5c;
    9ce6:	b5 8f 01          	  std.w a8 0x4 a15;
    9ce9:	a0 8e             	  std.w a8 a14;
    9ceb:	b4 f0 0e          	  lddsp.w a15 0x38;
    9cee:	fd 9f 05          	  or a9 a15;
    9cf1:	a0 29             	  std.w a2 a9;
    9cf3:	b4 b0 0d          	  lddsp.w a11 0x34;
    9cf6:	ff cb 95          	  or a9 a12 a11;
    9cf9:	b5 29 01          	  std.w a2 0x4 a9;
    9cfc:	10 33 01          	  add.b a3 a3 0x1;
    9cff:	90 dd 08          	  add.w a13 a13 0x8;
    9d02:	90 22 08          	  add.w a2 a2 0x8;
    9d05:	90 88 08          	  add.w a8 a8 0x8;
    9d08:	33 34 04 89       	  cmpbrne.b a3 0x4 0x9c91;
    9d0c:	34 e0 4b          	  lddsp.b a14 0x4b;
    9d0f:	95 77 01          	  lsr.w a7 a7 0x1;
    9d12:	9d 66 01          	  lsrc.w a6 a6 0x1;
    9d15:	10 ee 01          	  add.b a14 a14 0x1;
    9d18:	30 e1 4b          	  stdsp.b a14 0x4b;
    9d1b:	ff 67 95          	  or a9 a6 a7;
    9d1e:	f5 1b 32 ff       	  brne 0x9c50;
    9d22:	34 f0 49          	  lddsp.b a15 0x49;
    9d25:	09 ff             	  mvi a9 -0x1;
    9d27:	26 f9             	  cmp.b a15 a9;
    9d29:	f4 0b 29          	  breq 0x9d52;
    9d2c:	b4 90 14          	  lddsp.w a9 0x50;
    9d2f:	db f4 2a 00 00    	  mvi a11 0x2af4;
    9d34:	b6 94 03          	  lsl.w a9 0x3;
    9d37:	bc 9b 90          	  add.w a9 a9 a11;
    9d3a:	98 9f 18          	  ldd.w a15 a9 0x60;
    9d3d:	98 99 17          	  ldd.w a9 a9 0x5c;
    9d40:	fd f1 04          	  and a15 a1;
    9d43:	fd 90 04          	  and a9 a0;
    9d46:	a6 90             	  cmp.w a9 a0;
    9d48:	f5 1b d7 01       	  brne 0x9f1f;
    9d4c:	a6 f1             	  cmp.w a15 a1;
    9d4e:	f5 1b d1 01       	  brne 0x9f1f;
    9d52:	b4 e0 13          	  lddsp.w a14 0x4c;
    9d55:	f0 e5 04          	  or a14 0x4;
    9d58:	b0 e1 13          	  stdsp.w a14 0x4c;
    9d5b:	fe 49 01          	  rspr a9 SP;
    9d5e:	90 99 60          	  add.w a9 a9 0x60;
    9d61:	bf 96             	  ldd.w a6 a9;
    9d63:	98 97 01          	  ldd.w a7 a9 0x4;
    9d66:	b4 90 14          	  lddsp.w a9 0x50;
    9d69:	df f4 2a 00 00    	  mvi a15 0x2af4;
    9d6e:	3d e4             	  clr.b a14;
    9d70:	bd 24             	  clr.w a2;
    9d72:	b6 94 03          	  lsl.w a9 0x3;
    9d75:	bd 34             	  clr.w a3;
    9d77:	bc 9f 90          	  add.w a9 a9 a15;
    9d7a:	30 e1 57          	  stdsp.b a14 0x57;
    9d7d:	90 9b 7c          	  add.w a11 a9 0x7c;
    9d80:	90 98 5c          	  add.w a8 a9 0x5c;
    9d83:	b0 b1 0a          	  stdsp.w a11 0x28;
    9d86:	3e 0e 9e 00       	  jmp 0x9e0e;
    9d8a:	c4 09 01          	  and a9 a0 0x1;
    9d8d:	f4 0b 72          	  breq 0x9dff;
    9d90:	b4 f0 14          	  lddsp.w a15 0x50;
    9d93:	34 90 57          	  lddsp.b a9 0x57;
    9d96:	de ac 06 00 00    	  mvi a14 0x6ac;
    9d9b:	db cc 06 00 00    	  mvi a11 0x6cc;
    9da0:	0a 01             	  mvi a10 0x1;
    9da2:	f0 94 ff          	  and a9 0xff;
    9da5:	b6 94 03          	  lsl.w a9 0x3;
    9da8:	bc 9f 90          	  add.w a9 a9 a15;
    9dab:	94 9f 03          	  lsl.w a15 a9 0x3;
    9dae:	b6 94 03          	  lsl.w a9 0x3;
    9db1:	bc fb f0          	  add.w a15 a15 a11;
    9db4:	bc 9e 90          	  add.w a9 a9 a14;
    9db7:	bf 96             	  ldd.w a6 a9;
    9db9:	98 97 01          	  ldd.w a7 a9 0x4;
    9dbc:	b5 f7 01          	  std.w a15 0x4 a7;
    9dbf:	a0 f6             	  std.w a15 a6;
    9dc1:	34 c0 57          	  lddsp.b a12 0x57;
    9dc4:	bd b4             	  clr.w a11;
    9dc6:	bc 26 20          	  add.w a2 a2 a6;
    9dc9:	bc 37 31          	  addc.w a3 a3 a7;
    9dcc:	f0 c4 ff          	  and a12 0xff;
    9dcf:	7e 66 42 00       	  call 0x4266;
    9dd3:	98 8f 01          	  ldd.w a15 a8 0x4;
    9dd6:	bf 8e             	  ldd.w a14 a8;
    9dd8:	b9 b9 00          	  cpl.w a9 a11;
    9ddb:	fd f9 04          	  and a15 a9;
    9dde:	b9 a9 00          	  cpl.w a9 a10;
    9de1:	b5 8f 01          	  std.w a8 0x4 a15;
    9de4:	fd e9 04          	  and a14 a9;
    9de7:	a0 8e             	  std.w a8 a14;
    9de9:	b4 f0 0a          	  lddsp.w a15 0x28;
    9dec:	bf f9             	  ldd.w a9 a15;
    9dee:	98 ff 01          	  ldd.w a15 a15 0x4;
    9df1:	fd 9a 05          	  or a9 a10;
    9df4:	fd fb 05          	  or a15 a11;
    9df7:	b4 b0 0a          	  lddsp.w a11 0x28;
    9dfa:	a0 b9             	  std.w a11 a9;
    9dfc:	b5 bf 01          	  std.w a11 0x4 a15;
    9dff:	34 e0 57          	  lddsp.b a14 0x57;
    9e02:	95 11 01          	  lsr.w a1 a1 0x1;
    9e05:	9d 00 01          	  lsrc.w a0 a0 0x1;
    9e08:	10 ee 01          	  add.b a14 a14 0x1;
    9e0b:	30 e1 57          	  stdsp.b a14 0x57;
    9e0e:	ff 01 95          	  or a9 a0 a1;
    9e11:	f5 1b 79 ff       	  brne 0x9d8a;
    9e15:	fe 49 01          	  rspr a9 SP;
    9e18:	90 99 60          	  add.w a9 a9 0x60;
    9e1b:	b5 97 01          	  std.w a9 0x4 a7;
    9e1e:	a0 96             	  std.w a9 a6;
    9e20:	34 f0 4a          	  lddsp.b a15 0x4a;
    9e23:	33 fd 00 b6 00    	  cmpbrne.b a15 0x0 0x9ed9;
    9e28:	bc 24 c2          	  sub.w a12 a2 a4;
    9e2b:	bc 35 d3          	  subc.w a13 a3 a5;
    9e2e:	b3 d4 00 13       	  cmpbrne.w a13 0x0 0x9e41;
    9e32:	89 fe ff 0f       	  mvi a9 0xffffe;
    9e36:	a6 c9             	  cmp.w a12 a9;
    9e38:	f4 0c 09          	  brgt 0x9e41;
    9e3b:	3d f4             	  clr.b a15;
    9e3d:	3e 9d 9e 00       	  jmp 0x9e9d;
    9e41:	94 df 16          	  lsl.w a15 a13 0x16;
    9e44:	95 da 0a          	  lsr.w a10 a13 0xa;
    9e47:	95 c9 0a          	  lsr.w a9 a12 0xa;
    9e4a:	ff f9 b5          	  or a11 a15 a9;
    9e4d:	b2 af             	  mv.w a15 a10;
    9e4f:	b2 be             	  mv.w a14 a11;
    9e51:	b2 ec             	  mv.w a12 a14;
    9e53:	b2 fd             	  mv.w a13 a15;
    9e55:	b3 d4 00 0f       	  cmpbrne.w a13 0x0 0x9e64;
    9e59:	0f 01             	  mvi a15 0x1;
    9e5b:	89 fe ff 0f       	  mvi a9 0xffffe;
    9e5f:	a6 c9             	  cmp.w a12 a9;
    9e61:	f4 0d 3c          	  brlte 0x9e9d;
    9e64:	95 bf 0a          	  lsr.w a15 a11 0xa;
    9e67:	94 a9 16          	  lsl.w a9 a10 0x16;
    9e6a:	95 ab 0a          	  lsr.w a11 a10 0xa;
    9e6d:	ff 9f a5          	  or a10 a9 a15;
    9e70:	b2 bf             	  mv.w a15 a11;
    9e72:	b2 ae             	  mv.w a14 a10;
    9e74:	b2 ec             	  mv.w a12 a14;
    9e76:	b2 fd             	  mv.w a13 a15;
    9e78:	b3 d4 00 0f       	  cmpbrne.w a13 0x0 0x9e87;
    9e7c:	0f 02             	  mvi a15 0x2;
    9e7e:	89 fe ff 0f       	  mvi a9 0xffffe;
    9e82:	a6 c9             	  cmp.w a12 a9;
    9e84:	f4 0d 19          	  brlte 0x9e9d;
    9e87:	95 af 0a          	  lsr.w a15 a10 0xa;
    9e8a:	95 bd 0a          	  lsr.w a13 a11 0xa;
    9e8d:	94 b9 16          	  lsl.w a9 a11 0x16;
    9e90:	fd 9f 05          	  or a9 a15;
    9e93:	b2 df             	  mv.w a15 a13;
    9e95:	b2 9e             	  mv.w a14 a9;
    9e97:	b2 ec             	  mv.w a12 a14;
    9e99:	b2 fd             	  mv.w a13 a15;
    9e9b:	0f 03             	  mvi a15 0x3;
    9e9d:	b4 b0 13          	  lddsp.w a11 0x4c;
    9ea0:	f0 f4 03          	  and a15 0x3;
    9ea3:	09 fc             	  mvi a9 -0x4;
    9ea5:	ff b9 94          	  and a9 a11 a9;
    9ea8:	ff f9 e5          	  or a14 a15 a9;
    9eab:	b3 d4 00 0d       	  cmpbrne.w a13 0x0 0x9eb8;
    9eaf:	89 ff ff 0f       	  mvi a9 0xfffff;
    9eb3:	a6 c9             	  cmp.w a12 a9;
    9eb5:	f4 0d 0a          	  brlte 0x9ebf;
    9eb8:	c5 e9 08          	  or a9 a14 0x8;
    9ebb:	3e df 9e 00       	  jmp 0x9edf;
    9ebf:	ff c9 94          	  and a9 a12 a9;
    9ec2:	b6 94 04          	  lsl.w a9 0x4;
    9ec5:	df 0f 00 00 ff    	  mvi a15 -0xfffff1;
    9eca:	ff ef f4          	  and a15 a14 a15;
    9ecd:	fd f9 05          	  or a15 a9;
    9ed0:	09 f7             	  mvi a9 -0x9;
    9ed2:	ff f9 94          	  and a9 a15 a9;
    9ed5:	3e df 9e 00       	  jmp 0x9edf;
    9ed9:	b4 90 13          	  lddsp.w a9 0x4c;
    9edc:	f0 95 08          	  or a9 0x8;
    9edf:	b4 e0 10          	  lddsp.w a14 0x40;
    9ee2:	0a 1f             	  mvi a10 0x1f;
    9ee4:	a0 e2             	  std.w a14 a2;
    9ee6:	b4 f0 0f          	  lddsp.w a15 0x3c;
    9ee9:	a0 f3             	  std.w a15 a3;
    9eeb:	b4 b0 11          	  lddsp.w a11 0x44;
    9eee:	a0 b9             	  std.w a11 a9;
    9ef0:	fe 49 01          	  rspr a9 SP;
    9ef3:	90 99 68          	  add.w a9 a9 0x68;
    9ef6:	bf 9f             	  ldd.w a15 a9;
    9ef8:	d9 2c 06 00 00    	  mvi a9 0x62c;
    9efd:	bf 99             	  ldd.w a9 a9;
    9eff:	a6 f9             	  cmp.w a15 a9;
    9f01:	f4 0b 28          	  breq 0x9f29;
    9f04:	3e 25 9f 00       	  jmp 0x9f25;
    9f08:	34 e0 49          	  lddsp.b a14 0x49;
    9f0b:	b2 62             	  mv.w a2 a6;
    9f0d:	b2 73             	  mv.w a3 a7;
    9f0f:	09 ff             	  mvi a9 -0x1;
    9f11:	26 e9             	  cmp.b a14 a9;
    9f13:	f5 1b 8b fb       	  brne 0x9a9e;
    9f17:	b2 60             	  mv.w a0 a6;
    9f19:	b2 71             	  mv.w a1 a7;
    9f1b:	3e bc 9a 00       	  jmp 0x9abc;
    9f1f:	0a 09             	  mvi a10 0x9;
    9f21:	3e f0 9e 00       	  jmp 0x9ef0;
    9f25:	7e e9 42 00       	  call 0x42e9;
    9f29:	fb 85 48          	  popma a8 0x1 0x48;

00009f2c <__soeBar0RegWr32NonPosted_LR10>:
    9f2c:	df 2c 06 00 00    	  mvi a15 0x62c;
    9f31:	bf ff             	  ldd.w a15 a15;
    9f33:	f4 30 fc          	  addsp -0x4;
    9f36:	fe 49 01          	  rspr a9 SP;
    9f39:	a0 9f             	  std.w a9 a15;
    9f3b:	8f 00 c0 01       	  mvi a15 0x1c000;
    9f3f:	cf f9 00          	  ldx a9 a15 0x0;
    9f42:	c7 99 4c          	  uxtr a9 a9 0x4c;
    9f45:	b3 90 00 22       	  cmpbreq.w a9 0x0 0x9f67;
    9f49:	b3 90 01 f6       	  cmpbreq.w a9 0x1 0x9f3f;
    9f4d:	f8 02             	  halt;
    9f4f:	3e 3f 9f 00       	  jmp 0x9f3f;
    9f53:	cf f9 00          	  ldx a9 a15 0x0;
    9f56:	c7 99 4c          	  uxtr a9 a9 0x4c;
    9f59:	b3 90 00 33       	  cmpbreq.w a9 0x0 0x9f8c;
    9f5d:	b3 90 01 f6       	  cmpbreq.w a9 0x1 0x9f53;
    9f61:	f8 02             	  halt;
    9f63:	3e 53 9f 00       	  jmp 0x9f53;
    9f67:	89 00 c1 01       	  mvi a9 0x1c100;
    9f6b:	f6 9a 00          	  stx a9 0x0 a10;
    9f6e:	b8 99 00 01 00    	  add.w a9 a9 0x100;
    9f73:	f6 9b 00          	  stx a9 0x0 a11;
    9f76:	df f2 00 00 80    	  mvi a15 -0x7fffff0e;
    9f7b:	b8 99 00 02 02    	  sub.w a9 a9 0x200;
    9f80:	f6 9f 00          	  stx a9 0x0 a15;
    9f83:	cf 9f 00          	  ldx a15 a9 0x0;
    9f86:	b2 9f             	  mv.w a15 a9;
    9f88:	3e 53 9f 00       	  jmp 0x9f53;
    9f8c:	fe 49 01          	  rspr a9 SP;
    9f8f:	bf 9f             	  ldd.w a15 a9;
    9f91:	d9 2c 06 00 00    	  mvi a9 0x62c;
    9f96:	bf 99             	  ldd.w a9 a9;
    9f98:	a6 f9             	  cmp.w a15 a9;
    9f9a:	f4 0b 07          	  breq 0x9fa1;
    9f9d:	7e e9 42 00       	  call 0x42e9;
    9fa1:	f4 30 04          	  addsp 0x4;
    9fa4:	f8 00             	  ret;

00009fa6 <__smbpbiGetIndexesFromLwlink>:
    9fa6:	df 2c 06 00 00    	  mvi a15 0x62c;
    9fab:	bf ff             	  ldd.w a15 a15;
    9fad:	f4 30 fc          	  addsp -0x4;
    9fb0:	fe 49 01          	  rspr a9 SP;
    9fb3:	a0 9f             	  std.w a9 a15;
    9fb5:	b2 a9             	  mv.w a9 a10;
    9fb7:	95 af 02          	  lsr.w a15 a10 0x2;
    9fba:	0a 06             	  mvi a10 0x6;
    9fbc:	b0 f6 08          	  cmp.w a15 0x8;
    9fbf:	f4 0c 0c          	  brgt 0x9fcb;
    9fc2:	a0 bf             	  std.w a11 a15;
    9fc4:	f0 94 03          	  and a9 0x3;
    9fc7:	0a 1f             	  mvi a10 0x1f;
    9fc9:	a0 c9             	  std.w a12 a9;
    9fcb:	fe 49 01          	  rspr a9 SP;
    9fce:	bf 9f             	  ldd.w a15 a9;
    9fd0:	d9 2c 06 00 00    	  mvi a9 0x62c;
    9fd5:	bf 99             	  ldd.w a9 a9;
    9fd7:	a6 f9             	  cmp.w a15 a9;
    9fd9:	f4 0b 07          	  breq 0x9fe0;
    9fdc:	7e e9 42 00       	  call 0x42e9;
    9fe0:	f4 30 04          	  addsp 0x4;
    9fe3:	f8 00             	  ret;

00009fe5 <__smbpbiLwlinkPageInNumPages>:
    9fe5:	df 2c 06 00 00    	  mvi a15 0x62c;
    9fea:	bf fe             	  ldd.w a14 a15;
    9fec:	f4 30 fc          	  addsp -0x4;
    9fef:	fe 49 01          	  rspr a9 SP;
    9ff2:	92 bb 01          	  sub.w a11 a11 0x1;
    9ff5:	a0 9e             	  std.w a9 a14;
    9ff7:	bf 9e             	  ldd.w a14 a9;
    9ff9:	bf f9             	  ldd.w a9 a15;
    9ffb:	bc bc b0          	  add.w a11 a11 a12;
    9ffe:	ff bc bc          	  udiv a11 a11 a12;
    a001:	f0 b4 ff          	  and a11 0xff;
    a004:	a6 ab             	  cmp.w a10 a11;
    a006:	f0 ac 08          	  sgetb a10 0x8;
    a009:	a6 e9             	  cmp.w a14 a9;
    a00b:	f4 0b 07          	  breq 0xa012;
    a00e:	7e e9 42 00       	  call 0x42e9;
    a012:	f4 30 04          	  addsp 0x4;
    a015:	f8 00             	  ret;

0000a017 <__smbpbiFormatLwlinkQueryData>:
    a017:	f4 30 fc          	  addsp -0x4;
    a01a:	df 2c 06 00 00    	  mvi a15 0x62c;
    a01f:	f9 02             	  pushm a0;
    a021:	bf ff             	  ldd.w a15 a15;
    a023:	fe 49 01          	  rspr a9 SP;
    a026:	90 99 04          	  add.w a9 a9 0x4;
    a029:	b2 c0             	  mv.w a0 a12;
    a02b:	a0 9f             	  std.w a9 a15;
    a02d:	b2 dc             	  mv.w a12 a13;
    a02f:	b3 a0 02 39       	  cmpbreq.w a10 0x2 0xa068;
    a033:	b0 a6 02          	  cmp.w a10 0x2;
    a036:	f4 0c 0b          	  brgt 0xa041;
    a039:	b3 a4 01 10       	  cmpbrne.w a10 0x1 0xa049;
    a03d:	3e 4f a0 00       	  jmp 0xa04f;
    a041:	b3 a0 07 2d       	  cmpbreq.w a10 0x7 0xa06e;
    a045:	b3 a0 08 3b       	  cmpbreq.w a10 0x8 0xa080;
    a049:	0a 06             	  mvi a10 0x6;
    a04b:	3e b8 a0 00       	  jmp 0xa0b8;
    a04f:	0a 1f             	  mvi a10 0x1f;
    a051:	b3 04 01 67       	  cmpbrne.w a0 0x1 0xa0b8;
    a055:	bf df             	  ldd.w a15 a13;
    a057:	c4 b9 1f          	  and a9 a11 0x1f;
    a05a:	0a 1f             	  mvi a10 0x1f;
    a05c:	bc 09 94          	  lsl.w a9 a0 a9;
    a05f:	fd f9 05          	  or a15 a9;
    a062:	a0 df             	  std.w a13 a15;
    a064:	3e b8 a0 00       	  jmp 0xa0b8;
    a068:	a0 d0             	  std.w a13 a0;
    a06a:	3e b6 a0 00       	  jmp 0xa0b6;
    a06e:	c4 b9 07          	  and a9 a11 0x7;
    a071:	bf dd             	  ldd.w a13 a13;
    a073:	b6 94 02          	  lsl.w a9 0x2;
    a076:	c4 9e 1f          	  and a14 a9 0x1f;
    a079:	90 99 03          	  add.w a9 a9 0x3;
    a07c:	3e 94 a0 00       	  jmp 0xa094;
    a080:	bf dd             	  ldd.w a13 a13;
    a082:	cd bf 05          	  umod a15 a11 0x5;
    a085:	bc ff 90          	  add.w a9 a15 a15;
    a088:	bc 9f 90          	  add.w a9 a9 a15;
    a08b:	bc 99 90          	  add.w a9 a9 a9;
    a08e:	c4 9e 1f          	  and a14 a9 0x1f;
    a091:	90 99 05          	  add.w a9 a9 0x5;
    a094:	b9 99 00          	  cpl.w a9 a9;
    a097:	f0 94 1f          	  and a9 0x1f;
    a09a:	bc 9e 90          	  add.w a9 a9 a14;
    a09d:	0f ff             	  mvi a15 -0x1;
    a09f:	bb f9 05          	  lsr.w a15 a9;
    a0a2:	ff f0 94          	  and a9 a15 a0;
    a0a5:	bb fe 04          	  lsl.w a15 a14;
    a0a8:	bb 9e 04          	  lsl.w a9 a14;
    a0ab:	b9 ff 00          	  cpl.w a15 a15;
    a0ae:	fd fd 04          	  and a15 a13;
    a0b1:	fd f9 05          	  or a15 a9;
    a0b4:	a0 cf             	  std.w a12 a15;
    a0b6:	0a 1f             	  mvi a10 0x1f;
    a0b8:	fe 49 01          	  rspr a9 SP;
    a0bb:	90 99 04          	  add.w a9 a9 0x4;
    a0be:	bf 9f             	  ldd.w a15 a9;
    a0c0:	d9 2c 06 00 00    	  mvi a9 0x62c;
    a0c5:	bf 99             	  ldd.w a9 a9;
    a0c7:	a6 f9             	  cmp.w a15 a9;
    a0c9:	f4 0b 07          	  breq 0xa0d0;
    a0cc:	7e e9 42 00       	  call 0x42e9;
    a0d0:	fb 05 04          	  popma a0 0x1 0x4;

0000a0d3 <__smbpbiIsLwlinkAccessible>:
    a0d3:	f4 30 fc          	  addsp -0x4;
    a0d6:	d9 2c 06 00 00    	  mvi a9 0x62c;
    a0db:	f9 12             	  pushm a1;
    a0dd:	bf 99             	  ldd.w a9 a9;
    a0df:	fe 4f 01          	  rspr a15 SP;
    a0e2:	90 ff 08          	  add.w a15 a15 0x8;
    a0e5:	b2 b1             	  mv.w a1 a11;
    a0e7:	b2 a0             	  mv.w a0 a10;
    a0e9:	a0 f9             	  std.w a15 a9;
    a0eb:	7e f7 46 00       	  call 0x46f7;
    a0ef:	33 a0 00 0a       	  cmpbreq.b a10 0x0 0xa0f9;
    a0f3:	3d a4             	  clr.b a10;
    a0f5:	3e 27 a1 00       	  jmp 0xa127;
    a0f9:	94 19 0f          	  lsl.w a9 a1 0xf;
    a0fc:	df 00 70 01 01    	  mvi a15 0x1017000;
    a101:	b6 04 14          	  lsl.w a0 0x14;
    a104:	bc 0f 00          	  add.w a0 a0 a15;
    a107:	bc 09 00          	  add.w a0 a0 a9;
    a10a:	b8 0a 00 06 00    	  add.w a10 a0 0x600;
    a10f:	7e 22 1c 00       	  call 0x1c22;
    a113:	b2 a1             	  mv.w a1 a10;
    a115:	b8 0a 80 03 00    	  add.w a10 a0 0x380;
    a11a:	7e 22 1c 00       	  call 0x1c22;
    a11e:	fd a1 05          	  or a10 a1;
    a121:	f0 a6 01          	  xor a10 0x1;
    a124:	f0 a4 01          	  and a10 0x1;
    a127:	fe 49 01          	  rspr a9 SP;
    a12a:	90 99 08          	  add.w a9 a9 0x8;
    a12d:	bf 9f             	  ldd.w a15 a9;
    a12f:	d9 2c 06 00 00    	  mvi a9 0x62c;
    a134:	bf 99             	  ldd.w a9 a9;
    a136:	a6 f9             	  cmp.w a15 a9;
    a138:	f4 0b 07          	  breq 0xa13f;
    a13b:	7e e9 42 00       	  call 0x42e9;
    a13f:	fb 15 04          	  popma a1 0x1 0x4;

0000a142 <__smbpbiGetLwlinkStatePerLink>:
    a142:	f4 30 f4          	  addsp -0xc;
    a145:	df 2c 06 00 00    	  mvi a15 0x62c;
    a14a:	f9 32             	  pushm a3;
    a14c:	bf ff             	  ldd.w a15 a15;
    a14e:	fe 49 01          	  rspr a9 SP;
    a151:	90 99 18          	  add.w a9 a9 0x18;
    a154:	b2 b2             	  mv.w a2 a11;
    a156:	a0 9f             	  std.w a9 a15;
    a158:	03 06             	  mvi a3 0x6;
    a15a:	b0 a6 23          	  cmp.w a10 0x23;
    a15d:	f5 0c 96 00       	  brgt 0xa1f3;
    a161:	fe 41 01          	  rspr a1 SP;
    a164:	fe 40 01          	  rspr a0 SP;
    a167:	90 11 14          	  add.w a1 a1 0x14;
    a16a:	90 00 10          	  add.w a0 a0 0x10;
    a16d:	b2 1b             	  mv.w a11 a1;
    a16f:	b2 0c             	  mv.w a12 a0;
    a171:	7e a6 9f 00       	  call 0x9fa6;
    a175:	32 a3             	  mv.b a3 a10;
    a177:	33 a4 1f 7c       	  cmpbrne.b a10 0x1f 0xa1f3;
    a17b:	bf 1a             	  ldd.w a10 a1;
    a17d:	bf 0b             	  ldd.w a11 a0;
    a17f:	7e d3 a0 00       	  call 0xa0d3;
    a183:	33 a0 00 5a       	  cmpbreq.b a10 0x0 0xa1dd;
    a187:	bf 19             	  ldd.w a9 a1;
    a189:	bf 0a             	  ldd.w a10 a0;
    a18b:	b6 94 14          	  lsl.w a9 0x14;
    a18e:	b6 a4 0f          	  lsl.w a10 0xf;
    a191:	bc a9 a0          	  add.w a10 a10 a9;
    a194:	d9 00 00 01 01    	  mvi a9 0x1010000;
    a199:	bc a9 a0          	  add.w a10 a10 a9;
    a19c:	7e 22 1c 00       	  call 0x1c22;
    a1a0:	f0 a4 ff          	  and a10 0xff;
    a1a3:	b3 a0 04 4c       	  cmpbreq.w a10 0x4 0xa1ef;
    a1a7:	b0 a6 04          	  cmp.w a10 0x4;
    a1aa:	f4 0c 13          	  brgt 0xa1bd;
    a1ad:	b0 a6 02          	  cmp.w a10 0x2;
    a1b0:	f4 0c 39          	  brgt 0xa1e9;
    a1b3:	b0 a6 01          	  cmp.w a10 0x1;
    a1b6:	f4 18 2d          	  brnc 0xa1e3;
    a1b9:	3e dd a1 00       	  jmp 0xa1dd;
    a1bd:	b3 a0 08 2c       	  cmpbreq.w a10 0x8 0xa1e9;
    a1c1:	b0 a6 08          	  cmp.w a10 0x8;
    a1c4:	f4 0c 0b          	  brgt 0xa1cf;
    a1c7:	b3 a4 05 10       	  cmpbrne.w a10 0x5 0xa1d7;
    a1cb:	3e dd a1 00       	  jmp 0xa1dd;
    a1cf:	b3 a0 0a 1a       	  cmpbreq.w a10 0xa 0xa1e9;
    a1d3:	b3 a0 0b 10       	  cmpbreq.w a10 0xb 0xa1e3;
    a1d7:	03 06             	  mvi a3 0x6;
    a1d9:	3e f3 a1 00       	  jmp 0xa1f3;
    a1dd:	bd 94             	  clr.w a9;
    a1df:	3e f1 a1 00       	  jmp 0xa1f1;
    a1e3:	09 01             	  mvi a9 0x1;
    a1e5:	3e f1 a1 00       	  jmp 0xa1f1;
    a1e9:	09 02             	  mvi a9 0x2;
    a1eb:	3e f1 a1 00       	  jmp 0xa1f1;
    a1ef:	09 03             	  mvi a9 0x3;
    a1f1:	a0 29             	  std.w a2 a9;
    a1f3:	fe 49 01          	  rspr a9 SP;
    a1f6:	90 99 18          	  add.w a9 a9 0x18;
    a1f9:	bf 9f             	  ldd.w a15 a9;
    a1fb:	d9 2c 06 00 00    	  mvi a9 0x62c;
    a200:	bf 99             	  ldd.w a9 a9;
    a202:	32 3a             	  mv.b a10 a3;
    a204:	a6 f9             	  cmp.w a15 a9;
    a206:	f4 0b 07          	  breq 0xa20d;
    a209:	7e e9 42 00       	  call 0x42e9;
    a20d:	fb 35 0c          	  popma a3 0x1 0xc;

0000a210 <__smbpbiIsLwlinkStateActive>:
    a210:	f4 30 f8          	  addsp -0x8;
    a213:	d9 2c 06 00 00    	  mvi a9 0x62c;
    a218:	f9 12             	  pushm a1;
    a21a:	bf 99             	  ldd.w a9 a9;
    a21c:	fe 4f 01          	  rspr a15 SP;
    a21f:	90 ff 0c          	  add.w a15 a15 0xc;
    a222:	b2 b1             	  mv.w a1 a11;
    a224:	a0 f9             	  std.w a15 a9;
    a226:	09 ff             	  mvi a9 -0x1;
    a228:	fe 40 01          	  rspr a0 SP;
    a22b:	90 00 08          	  add.w a0 a0 0x8;
    a22e:	a0 09             	  std.w a0 a9;
    a230:	b2 0b             	  mv.w a11 a0;
    a232:	7e 42 a1 00       	  call 0xa142;
    a236:	33 a4 1f 0e       	  cmpbrne.b a10 0x1f 0xa244;
    a23a:	bf 09             	  ldd.w a9 a0;
    a23c:	b0 96 02          	  cmp.w a9 0x2;
    a23f:	f0 9c 0b          	  sgetb a9 0xb;
    a242:	20 19             	  std.b a1 a9;
    a244:	fe 49 01          	  rspr a9 SP;
    a247:	90 99 0c          	  add.w a9 a9 0xc;
    a24a:	bf 9f             	  ldd.w a15 a9;
    a24c:	d9 2c 06 00 00    	  mvi a9 0x62c;
    a251:	bf 99             	  ldd.w a9 a9;
    a253:	a6 f9             	  cmp.w a15 a9;
    a255:	f4 0b 07          	  breq 0xa25c;
    a258:	7e e9 42 00       	  call 0x42e9;
    a25c:	fb 15 08          	  popma a1 0x1 0x8;

0000a25f <__smbpbiLwlinkCommandDispatch>:
    a25f:	f4 30 e8          	  addsp -0x18;
    a262:	df 2c 06 00 00    	  mvi a15 0x62c;
    a267:	f9 42             	  pushm a4;
    a269:	bf ff             	  ldd.w a15 a15;
    a26b:	fe 49 01          	  rspr a9 SP;
    a26e:	90 99 28          	  add.w a9 a9 0x28;
    a271:	b2 b0             	  mv.w a0 a11;
    a273:	a0 9f             	  std.w a9 a15;
    a275:	b2 c3             	  mv.w a3 a12;
    a277:	33 a0 02 45       	  cmpbreq.b a10 0x2 0xa2bc;
    a27b:	30 a6 02          	  cmp.b a10 0x2;
    a27e:	f4 0c 0c          	  brgt 0xa28a;
    a281:	33 ad 01 a6 00    	  cmpbrne.b a10 0x1 0xa327;
    a286:	3e 98 a2 00       	  jmp 0xa298;
    a28a:	33 a9 07 b4 00    	  cmpbreq.b a10 0x7 0xa33e;
    a28f:	33 ad 08 98 00    	  cmpbrne.b a10 0x8 0xa327;
    a294:	3e 4c a3 00       	  jmp 0xa34c;
    a298:	b2 ba             	  mv.w a10 a11;
    a29a:	fe 40 01          	  rspr a0 SP;
    a29d:	90 00 27          	  add.w a0 a0 0x27;
    a2a0:	b2 0b             	  mv.w a11 a0;
    a2a2:	7e 10 a2 00       	  call 0xa210;
    a2a6:	32 a2             	  mv.b a2 a10;
    a2a8:	33 ad 1f 14 01    	  cmpbrne.b a10 0x1f 0xa3bc;
    a2ad:	3f 09             	  ldd.b a9 a0;
    a2af:	30 96 00          	  cmp.b a9 0x0;
    a2b2:	f0 9c 0b          	  sgetb a9 0xb;
    a2b5:	f0 96 01          	  xor a9 0x1;
    a2b8:	3e ba a3 00       	  jmp 0xa3ba;
    a2bc:	02 04             	  mvi a2 0x4;
    a2be:	30 b6 23          	  cmp.b a11 0x23;
    a2c1:	f5 0c fb 00       	  brgt 0xa3bc;
    a2c5:	c4 ba ff          	  and a10 a11 0xff;
    a2c8:	fe 44 01          	  rspr a4 SP;
    a2cb:	fe 41 01          	  rspr a1 SP;
    a2ce:	90 44 20          	  add.w a4 a4 0x20;
    a2d1:	90 11 1c          	  add.w a1 a1 0x1c;
    a2d4:	b2 4b             	  mv.w a11 a4;
    a2d6:	b2 1c             	  mv.w a12 a1;
    a2d8:	7e a6 9f 00       	  call 0x9fa6;
    a2dc:	32 a2             	  mv.b a2 a10;
    a2de:	33 ad 1f de 00    	  cmpbrne.b a10 0x1f 0xa3bc;
    a2e3:	c4 0a ff          	  and a10 a0 0xff;
    a2e6:	fe 40 01          	  rspr a0 SP;
    a2e9:	90 00 27          	  add.w a0 a0 0x27;
    a2ec:	b2 0b             	  mv.w a11 a0;
    a2ee:	7e 10 a2 00       	  call 0xa210;
    a2f2:	32 a2             	  mv.b a2 a10;
    a2f4:	33 ad 1f c8 00    	  cmpbrne.b a10 0x1f 0xa3bc;
    a2f9:	3f 09             	  ldd.b a9 a0;
    a2fb:	33 94 00 0a       	  cmpbrne.b a9 0x0 0xa305;
    a2ff:	bd 94             	  clr.w a9;
    a301:	3e ba a3 00       	  jmp 0xa3ba;
    a305:	bf 49             	  ldd.w a9 a4;
    a307:	bf 1a             	  ldd.w a10 a1;
    a309:	b6 94 14          	  lsl.w a9 0x14;
    a30c:	b6 a4 0f          	  lsl.w a10 0xf;
    a30f:	bc a9 a0          	  add.w a10 a10 a9;
    a312:	d9 0c 76 01 01    	  mvi a9 0x101760c;
    a317:	bc a9 a0          	  add.w a10 a10 a9;
    a31a:	7e 22 1c 00       	  call 0x1c22;
    a31e:	b6 a5 08          	  lsr.w a10 0x8;
    a321:	30 a6 07          	  cmp.b a10 0x7;
    a324:	f4 0d 09          	  brlte 0xa32d;
    a327:	02 06             	  mvi a2 0x6;
    a329:	3e bc a3 00       	  jmp 0xa3bc;
    a32d:	c4 af ff          	  and a15 a10 0xff;
    a330:	d9 48 00 00 00    	  mvi a9 0x48;
    a335:	bc 9f f8          	  ldd.w a15 a9 a15;
    a338:	a0 3f             	  std.w a3 a15;
    a33a:	3e bc a3 00       	  jmp 0xa3bc;
    a33e:	b2 ba             	  mv.w a10 a11;
    a340:	b2 cb             	  mv.w a11 a12;
    a342:	7e 42 a1 00       	  call 0xa142;
    a346:	32 a2             	  mv.b a2 a10;
    a348:	3e bc a3 00       	  jmp 0xa3bc;
    a34c:	02 04             	  mvi a2 0x4;
    a34e:	30 b6 23          	  cmp.b a11 0x23;
    a351:	f4 0c 6b          	  brgt 0xa3bc;
    a354:	c4 ba ff          	  and a10 a11 0xff;
    a357:	fe 41 01          	  rspr a1 SP;
    a35a:	fe 44 01          	  rspr a4 SP;
    a35d:	90 11 18          	  add.w a1 a1 0x18;
    a360:	90 44 14          	  add.w a4 a4 0x14;
    a363:	b2 1b             	  mv.w a11 a1;
    a365:	b2 4c             	  mv.w a12 a4;
    a367:	7e a6 9f 00       	  call 0x9fa6;
    a36b:	32 a2             	  mv.b a2 a10;
    a36d:	33 a4 1f 4f       	  cmpbrne.b a10 0x1f 0xa3bc;
    a371:	c4 0a ff          	  and a10 a0 0xff;
    a374:	fe 40 01          	  rspr a0 SP;
    a377:	90 00 20          	  add.w a0 a0 0x20;
    a37a:	b2 0b             	  mv.w a11 a0;
    a37c:	7e 10 a2 00       	  call 0xa210;
    a380:	32 a2             	  mv.b a2 a10;
    a382:	33 a4 1f 3a       	  cmpbrne.b a10 0x1f 0xa3bc;
    a386:	3f 09             	  ldd.b a9 a0;
    a388:	33 94 00 0a       	  cmpbrne.b a9 0x0 0xa392;
    a38c:	09 3f             	  mvi a9 0x3f;
    a38e:	3e ba a3 00       	  jmp 0xa3ba;
    a392:	3f 1a             	  ldd.b a10 a1;
    a394:	3f 4b             	  ldd.b a11 a4;
    a396:	fe 41 01          	  rspr a1 SP;
    a399:	fe 40 01          	  rspr a0 SP;
    a39c:	90 11 27          	  add.w a1 a1 0x27;
    a39f:	90 00 1c          	  add.w a0 a0 0x1c;
    a3a2:	b2 1c             	  mv.w a12 a1;
    a3a4:	b2 0d             	  mv.w a13 a0;
    a3a6:	7e c0 95 00       	  call 0x95c0;
    a3aa:	3f 09             	  ldd.b a9 a0;
    a3ac:	3f 1f             	  ldd.b a15 a1;
    a3ae:	f0 94 07          	  and a9 0x7;
    a3b1:	f0 f4 07          	  and a15 0x7;
    a3b4:	b6 94 03          	  lsl.w a9 0x3;
    a3b7:	fd 9f 05          	  or a9 a15;
    a3ba:	a0 39             	  std.w a3 a9;
    a3bc:	fe 49 01          	  rspr a9 SP;
    a3bf:	90 99 28          	  add.w a9 a9 0x28;
    a3c2:	bf 9f             	  ldd.w a15 a9;
    a3c4:	d9 2c 06 00 00    	  mvi a9 0x62c;
    a3c9:	bf 99             	  ldd.w a9 a9;
    a3cb:	32 2a             	  mv.b a10 a2;
    a3cd:	a6 f9             	  cmp.w a15 a9;
    a3cf:	f4 0b 07          	  breq 0xa3d6;
    a3d2:	7e e9 42 00       	  call 0x42e9;
    a3d6:	fb 45 18          	  popma a4 0x1 0x18;

0000a3d9 <__smbpbiLwlinkAggregateCommandHandler>:
    a3d9:	f4 30 f8          	  addsp -0x8;
    a3dc:	df 2c 06 00 00    	  mvi a15 0x62c;
    a3e1:	f9 62             	  pushm a6;
    a3e3:	bf ff             	  ldd.w a15 a15;
    a3e5:	fe 49 01          	  rspr a9 SP;
    a3e8:	01 ff             	  mvi a1 -0x1;
    a3ea:	90 99 20          	  add.w a9 a9 0x20;
    a3ed:	fe 42 01          	  rspr a2 SP;
    a3f0:	32 a5             	  mv.b a5 a10;
    a3f2:	b2 b3             	  mv.w a3 a11;
    a3f4:	b2 c4             	  mv.w a4 a12;
    a3f6:	a0 9f             	  std.w a9 a15;
    a3f8:	bd 04             	  clr.w a0;
    a3fa:	90 22 1c          	  add.w a2 a2 0x1c;
    a3fd:	b2 16             	  mv.w a6 a1;
    a3ff:	3e 2c a4 00       	  jmp 0xa42c;
    a403:	32 5a             	  mv.b a10 a5;
    a405:	b2 0b             	  mv.w a11 a0;
    a407:	b2 2c             	  mv.w a12 a2;
    a409:	7e 5f a2 00       	  call 0xa25f;
    a40d:	33 a4 1f 2a       	  cmpbrne.b a10 0x1f 0xa437;
    a411:	bf 29             	  ldd.w a9 a2;
    a413:	a6 16             	  cmp.w a1 a6;
    a415:	f4 1b 09          	  brne 0xa41e;
    a418:	b2 91             	  mv.w a1 a9;
    a41a:	3e 29 a4 00       	  jmp 0xa429;
    a41e:	a6 19             	  cmp.w a1 a9;
    a420:	f4 0b 09          	  breq 0xa429;
    a423:	0a 09             	  mvi a10 0x9;
    a425:	3e 37 a4 00       	  jmp 0xa437;
    a429:	90 00 01          	  add.w a0 a0 0x1;
    a42c:	a6 03             	  cmp.w a0 a3;
    a42e:	f4 08 d5          	  brc 0xa403;
    a431:	bf 22             	  ldd.w a2 a2;
    a433:	0a 1f             	  mvi a10 0x1f;
    a435:	a0 42             	  std.w a4 a2;
    a437:	fe 49 01          	  rspr a9 SP;
    a43a:	90 99 20          	  add.w a9 a9 0x20;
    a43d:	bf 9f             	  ldd.w a15 a9;
    a43f:	d9 2c 06 00 00    	  mvi a9 0x62c;
    a444:	bf 99             	  ldd.w a9 a9;
    a446:	a6 f9             	  cmp.w a15 a9;
    a448:	f4 0b 07          	  breq 0xa44f;
    a44b:	7e e9 42 00       	  call 0x42e9;
    a44f:	fb 65 08          	  popma a6 0x1 0x8;

0000a452 <__smbpbiLwlinkDataAndExtDataHandler>:
    a452:	f4 30 f8          	  addsp -0x8;
    a455:	df 2c 06 00 00    	  mvi a15 0x62c;
    a45a:	f9 82             	  pushm a8;
    a45c:	bf ff             	  ldd.w a15 a15;
    a45e:	fe 49 01          	  rspr a9 SP;
    a461:	90 99 28          	  add.w a9 a9 0x28;
    a464:	b2 c2             	  mv.w a2 a12;
    a466:	b2 b0             	  mv.w a0 a11;
    a468:	b2 d5             	  mv.w a5 a13;
    a46a:	b2 cb             	  mv.w a11 a12;
    a46c:	a0 9f             	  std.w a9 a15;
    a46e:	b2 e7             	  mv.w a7 a14;
    a470:	b2 a4             	  mv.w a4 a10;
    a472:	bc 00 a0          	  add.w a10 a0 a0;
    a475:	7e fc 16 00       	  call 0x16fc;
    a479:	b2 5b             	  mv.w a11 a5;
    a47b:	b2 a3             	  mv.w a3 a10;
    a47d:	bc 22 c0          	  add.w a12 a2 a2;
    a480:	b2 0a             	  mv.w a10 a0;
    a482:	bc 32 60          	  add.w a6 a3 a2;
    a485:	7e e5 9f 00       	  call 0x9fe5;
    a489:	01 04             	  mvi a1 0x4;
    a48b:	b4 80 0c          	  lddsp.w a8 0x30;
    a48e:	33 a0 00 75       	  cmpbreq.b a10 0x0 0xa503;
    a492:	b2 30             	  mv.w a0 a3;
    a494:	fe 43 01          	  rspr a3 SP;
    a497:	90 33 24          	  add.w a3 a3 0x24;
    a49a:	3e bd a4 00       	  jmp 0xa4bd;
    a49e:	32 4a             	  mv.b a10 a4;
    a4a0:	b2 0b             	  mv.w a11 a0;
    a4a2:	b2 3c             	  mv.w a12 a3;
    a4a4:	7e 5f a2 00       	  call 0xa25f;
    a4a8:	32 a1             	  mv.b a1 a10;
    a4aa:	33 a4 1f 59       	  cmpbrne.b a10 0x1f 0xa503;
    a4ae:	bf 3c             	  ldd.w a12 a3;
    a4b0:	b2 0b             	  mv.w a11 a0;
    a4b2:	b2 4a             	  mv.w a10 a4;
    a4b4:	90 00 01          	  add.w a0 a0 0x1;
    a4b7:	b2 7d             	  mv.w a13 a7;
    a4b9:	7e 17 a0 00       	  call 0xa017;
    a4bd:	a6 05             	  cmp.w a0 a5;
    a4bf:	f4 18 42          	  brnc 0xa501;
    a4c2:	a6 06             	  cmp.w a0 a6;
    a4c4:	f4 08 da          	  brc 0xa49e;
    a4c7:	3e f3 a4 00       	  jmp 0xa4f3;
    a4cb:	32 4a             	  mv.b a10 a4;
    a4cd:	b2 0b             	  mv.w a11 a0;
    a4cf:	b2 3c             	  mv.w a12 a3;
    a4d1:	7e 5f a2 00       	  call 0xa25f;
    a4d5:	32 a1             	  mv.b a1 a10;
    a4d7:	33 a4 1f 2c       	  cmpbrne.b a10 0x1f 0xa503;
    a4db:	bf 3c             	  ldd.w a12 a3;
    a4dd:	b2 0b             	  mv.w a11 a0;
    a4df:	b2 4a             	  mv.w a10 a4;
    a4e1:	90 00 01          	  add.w a0 a0 0x1;
    a4e4:	b2 8d             	  mv.w a13 a8;
    a4e6:	7e 17 a0 00       	  call 0xa017;
    a4ea:	a6 05             	  cmp.w a0 a5;
    a4ec:	f4 08 10          	  brc 0xa4fc;
    a4ef:	3e 03 a5 00       	  jmp 0xa503;
    a4f3:	fe 43 01          	  rspr a3 SP;
    a4f6:	bc 62 20          	  add.w a2 a6 a2;
    a4f9:	90 33 24          	  add.w a3 a3 0x24;
    a4fc:	a6 02             	  cmp.w a0 a2;
    a4fe:	f4 08 cd          	  brc 0xa4cb;
    a501:	01 1f             	  mvi a1 0x1f;
    a503:	fe 49 01          	  rspr a9 SP;
    a506:	90 99 28          	  add.w a9 a9 0x28;
    a509:	bf 9f             	  ldd.w a15 a9;
    a50b:	d9 2c 06 00 00    	  mvi a9 0x62c;
    a510:	bf 99             	  ldd.w a9 a9;
    a512:	32 1a             	  mv.b a10 a1;
    a514:	a6 f9             	  cmp.w a15 a9;
    a516:	f4 0b 07          	  breq 0xa51d;
    a519:	7e e9 42 00       	  call 0x42e9;
    a51d:	fb 85 08          	  popma a8 0x1 0x8;

0000a520 <__smbpbiGetLwlinkThroughputCounterValue>:
    a520:	f4 30 f4          	  addsp -0xc;
    a523:	df 2c 06 00 00    	  mvi a15 0x62c;
    a528:	f9 62             	  pushm a6;
    a52a:	bf ff             	  ldd.w a15 a15;
    a52c:	bd 94             	  clr.w a9;
    a52e:	fe 41 01          	  rspr a1 SP;
    a531:	fe 40 01          	  rspr a0 SP;
    a534:	90 11 20          	  add.w a1 a1 0x20;
    a537:	90 00 1c          	  add.w a0 a0 0x1c;
    a53a:	a0 19             	  std.w a1 a9;
    a53c:	a0 09             	  std.w a0 a9;
    a53e:	fe 49 01          	  rspr a9 SP;
    a541:	90 99 24          	  add.w a9 a9 0x24;
    a544:	b2 b2             	  mv.w a2 a11;
    a546:	b2 c6             	  mv.w a6 a12;
    a548:	b2 d5             	  mv.w a5 a13;
    a54a:	a0 9f             	  std.w a9 a15;
    a54c:	b2 1b             	  mv.w a11 a1;
    a54e:	b2 0c             	  mv.w a12 a0;
    a550:	7e a6 9f 00       	  call 0x9fa6;
    a554:	32 a3             	  mv.b a3 a10;
    a556:	33 a4 1f 59       	  cmpbrne.b a10 0x1f 0xa5af;
    a55a:	bf 1a             	  ldd.w a10 a1;
    a55c:	bf 0b             	  ldd.w a11 a0;
    a55e:	7e d3 a0 00       	  call 0xa0d3;
    a562:	33 a4 00 0a       	  cmpbrne.b a10 0x0 0xa56c;
    a566:	03 09             	  mvi a3 0x9;
    a568:	3e af a5 00       	  jmp 0xa5af;
    a56c:	bf 19             	  ldd.w a9 a1;
    a56e:	bf 00             	  ldd.w a0 a0;
    a570:	b6 94 14          	  lsl.w a9 0x14;
    a573:	b6 04 0f          	  lsl.w a0 0xf;
    a576:	bc 09 00          	  add.w a0 a0 a9;
    a579:	7e 0e 01 00       	  call 0x10e;
    a57d:	d9 00 50 01 01    	  mvi a9 0x1015000;
    a582:	bc 09 00          	  add.w a0 a0 a9;
    a585:	bc 02 40          	  add.w a4 a0 a2;
    a588:	bc 60 10          	  add.w a1 a6 a0;
    a58b:	b2 1a             	  mv.w a10 a1;
    a58d:	7e 22 1c 00       	  call 0x1c22;
    a591:	b2 a0             	  mv.w a0 a10;
    a593:	b2 4a             	  mv.w a10 a4;
    a595:	7e 22 1c 00       	  call 0x1c22;
    a599:	b2 a2             	  mv.w a2 a10;
    a59b:	b2 1a             	  mv.w a10 a1;
    a59d:	7e 22 1c 00       	  call 0x1c22;
    a5a1:	a6 0a             	  cmp.w a0 a10;
    a5a3:	f4 1b e8          	  brne 0xa58b;
    a5a6:	7e 08 01 00       	  call 0x108;
    a5aa:	b5 50 01          	  std.w a5 0x4 a0;
    a5ad:	a0 52             	  std.w a5 a2;
    a5af:	fe 49 01          	  rspr a9 SP;
    a5b2:	90 99 24          	  add.w a9 a9 0x24;
    a5b5:	bf 9f             	  ldd.w a15 a9;
    a5b7:	d9 2c 06 00 00    	  mvi a9 0x62c;
    a5bc:	bf 99             	  ldd.w a9 a9;
    a5be:	32 3a             	  mv.b a10 a3;
    a5c0:	a6 f9             	  cmp.w a15 a9;
    a5c2:	f4 0b 07          	  breq 0xa5c9;
    a5c5:	7e e9 42 00       	  call 0x42e9;
    a5c9:	fb 65 0c          	  popma a6 0x1 0xc;

0000a5cc <__smbpbiGetLwlinkThroughputCounterKib>:
    a5cc:	f4 30 f4          	  addsp -0xc;
    a5cf:	df 2c 06 00 00    	  mvi a15 0x62c;
    a5d4:	f9 02             	  pushm a0;
    a5d6:	bf ff             	  ldd.w a15 a15;
    a5d8:	fe 49 01          	  rspr a9 SP;
    a5db:	90 99 0c          	  add.w a9 a9 0xc;
    a5de:	b2 c0             	  mv.w a0 a12;
    a5e0:	a0 9f             	  std.w a9 a15;
    a5e2:	32 af             	  mv.b a15 a10;
    a5e4:	0a 04             	  mvi a10 0x4;
    a5e6:	30 f6 23          	  cmp.b a15 0x23;
    a5e9:	f4 0c 78          	  brgt 0xa661;
    a5ec:	bd 94             	  clr.w a9;
    a5ee:	fe 4d 01          	  rspr a13 SP;
    a5f1:	90 dd 04          	  add.w a13 a13 0x4;
    a5f4:	b5 d9 01          	  std.w a13 0x4 a9;
    a5f7:	a0 d9             	  std.w a13 a9;
    a5f9:	33 b0 01 25       	  cmpbreq.b a11 0x1 0xa61e;
    a5fd:	30 b6 01          	  cmp.b a11 0x1;
    a600:	f4 08 11          	  brc 0xa611;
    a603:	33 b0 02 28       	  cmpbreq.b a11 0x2 0xa62b;
    a607:	0a 1f             	  mvi a10 0x1f;
    a609:	33 b4 03 3c       	  cmpbrne.b a11 0x3 0xa645;
    a60d:	3e 38 a6 00       	  jmp 0xa638;
    a611:	c4 fa ff          	  and a10 a15 0xff;
    a614:	4b 4c 15          	  mvi a11 0x154c;
    a617:	4c 50 15          	  mvi a12 0x1550;
    a61a:	3e 41 a6 00       	  jmp 0xa641;
    a61e:	c4 fa ff          	  and a10 a15 0xff;
    a621:	4b 4c 1d          	  mvi a11 0x1d4c;
    a624:	4c 50 1d          	  mvi a12 0x1d50;
    a627:	3e 41 a6 00       	  jmp 0xa641;
    a62b:	c4 fa ff          	  and a10 a15 0xff;
    a62e:	4b f4 15          	  mvi a11 0x15f4;
    a631:	4c f8 15          	  mvi a12 0x15f8;
    a634:	3e 41 a6 00       	  jmp 0xa641;
    a638:	c4 fa ff          	  and a10 a15 0xff;
    a63b:	4b f4 1d          	  mvi a11 0x1df4;
    a63e:	4c f8 1d          	  mvi a12 0x1df8;
    a641:	7e 20 a5 00       	  call 0xa520;
    a645:	fe 49 01          	  rspr a9 SP;
    a648:	90 99 04          	  add.w a9 a9 0x4;
    a64b:	bf 9e             	  ldd.w a14 a9;
    a64d:	98 99 01          	  ldd.w a9 a9 0x4;
    a650:	b6 e5 06          	  lsr.w a14 0x6;
    a653:	95 9f 06          	  lsr.w a15 a9 0x6;
    a656:	b6 94 1a          	  lsl.w a9 0x1a;
    a659:	b5 0f 01          	  std.w a0 0x4 a15;
    a65c:	fd e9 05          	  or a14 a9;
    a65f:	a0 0e             	  std.w a0 a14;
    a661:	fe 49 01          	  rspr a9 SP;
    a664:	90 99 0c          	  add.w a9 a9 0xc;
    a667:	bf 9f             	  ldd.w a15 a9;
    a669:	d9 2c 06 00 00    	  mvi a9 0x62c;
    a66e:	bf 99             	  ldd.w a9 a9;
    a670:	a6 f9             	  cmp.w a15 a9;
    a672:	f4 0b 07          	  breq 0xa679;
    a675:	7e e9 42 00       	  call 0x42e9;
    a679:	fb 05 0c          	  popma a0 0x1 0xc;

0000a67c <_smbpbiIsSharedSurfaceAvailable>:
    a67c:	de 2c 06 00 00    	  mvi a14 0x62c;
    a681:	bf e9             	  ldd.w a9 a14;
    a683:	f4 30 fc          	  addsp -0x4;
    a686:	fe 4f 01          	  rspr a15 SP;
    a689:	a0 f9             	  std.w a15 a9;
    a68b:	d9 f4 2a 00 00    	  mvi a9 0x2af4;
    a690:	bf ff             	  ldd.w a15 a15;
    a692:	18 9a 15          	  ldd.b a10 a9 0x15;
    a695:	bf e9             	  ldd.w a9 a14;
    a697:	a6 f9             	  cmp.w a15 a9;
    a699:	f4 0b 07          	  breq 0xa6a0;
    a69c:	7e e9 42 00       	  call 0x42e9;
    a6a0:	f4 30 04          	  addsp 0x4;
    a6a3:	f8 00             	  ret;

0000a6a5 <_smbpbiMapSoeStatusToMsgBoxStatus>:
    a6a5:	df 2c 06 00 00    	  mvi a15 0x62c;
    a6aa:	bf ff             	  ldd.w a15 a15;
    a6ac:	f4 30 fc          	  addsp -0x4;
    a6af:	fe 49 01          	  rspr a9 SP;
    a6b2:	0e 08             	  mvi a14 0x8;
    a6b4:	a0 9f             	  std.w a9 a15;
    a6b6:	33 a0 01 19       	  cmpbreq.b a10 0x1 0xa6cf;
    a6ba:	0e 1f             	  mvi a14 0x1f;
    a6bc:	30 a6 01          	  cmp.b a10 0x1;
    a6bf:	f4 08 10          	  brc 0xa6cf;
    a6c2:	12 a9 30          	  sub.b a9 a10 0x30;
    a6c5:	0e 06             	  mvi a14 0x6;
    a6c7:	30 96 04          	  cmp.b a9 0x4;
    a6ca:	f4 0c 05          	  brgt 0xa6cf;
    a6cd:	0e 07             	  mvi a14 0x7;
    a6cf:	fe 49 01          	  rspr a9 SP;
    a6d2:	bf 9f             	  ldd.w a15 a9;
    a6d4:	d9 2c 06 00 00    	  mvi a9 0x62c;
    a6d9:	bf 99             	  ldd.w a9 a9;
    a6db:	32 ea             	  mv.b a10 a14;
    a6dd:	a6 f9             	  cmp.w a15 a9;
    a6df:	f4 0b 07          	  breq 0xa6e6;
    a6e2:	7e e9 42 00       	  call 0x42e9;
    a6e6:	f4 30 04          	  addsp 0x4;
    a6e9:	f8 00             	  ret;

0000a6eb <__smbpbiMonitorDriverState>:
    a6eb:	f4 30 f8          	  addsp -0x8;
    a6ee:	f9 22             	  pushm a2;
    a6f0:	d2 2c 06 00 00    	  mvi a2 0x62c;
    a6f5:	bf 29             	  ldd.w a9 a2;
    a6f7:	fe 41 01          	  rspr a1 SP;
    a6fa:	90 11 10          	  add.w a1 a1 0x10;
    a6fd:	fe 40 01          	  rspr a0 SP;
    a700:	a0 19             	  std.w a1 a9;
    a702:	7e 0e 01 00       	  call 0x10e;
    a706:	90 00 0c          	  add.w a0 a0 0xc;
    a709:	b2 0a             	  mv.w a10 a0;
    a70b:	7e 00 8d 00       	  call 0x8d00;
    a70f:	df f4 2a 00 00    	  mvi a15 0x2af4;
    a714:	bf 0e             	  ldd.w a14 a0;
    a716:	98 f9 15          	  ldd.w a9 a15 0x54;
    a719:	b5 fe 15          	  std.w a15 0x54 a14;
    a71c:	a6 9e             	  cmp.w a9 a14;
    a71e:	f0 9c 0b          	  sgetb a9 0xb;
    a721:	35 f9 58          	  std.b a15 0x58 a9;
    a724:	7e 08 01 00       	  call 0x108;
    a728:	bf 1f             	  ldd.w a15 a1;
    a72a:	bf 29             	  ldd.w a9 a2;
    a72c:	a6 f9             	  cmp.w a15 a9;
    a72e:	f4 0b 07          	  breq 0xa735;
    a731:	7e e9 42 00       	  call 0x42e9;
    a735:	fb 25 08          	  popma a2 0x1 0x8;

0000a738 <_smbpbiInforomWrite>:
    a738:	df 2c 06 00 00    	  mvi a15 0x62c;
    a73d:	bf ff             	  ldd.w a15 a15;
    a73f:	f4 30 fc          	  addsp -0x4;
    a742:	fe 49 01          	  rspr a9 SP;
    a745:	b2 ad             	  mv.w a13 a10;
    a747:	a0 9f             	  std.w a9 a15;
    a749:	d9 f4 2a 00 00    	  mvi a9 0x2af4;
    a74e:	18 99 15          	  ldd.b a9 a9 0x15;
    a751:	b2 be             	  mv.w a14 a11;
    a753:	b2 cf             	  mv.w a15 a12;
    a755:	33 90 00 1c       	  cmpbreq.b a9 0x0 0xa771;
    a759:	d9 0c 2b 00 00    	  mvi a9 0x2b0c;
    a75e:	98 9c 01          	  ldd.w a12 a9 0x4;
    a761:	bf 9b             	  ldd.w a11 a9;
    a763:	b2 fa             	  mv.w a10 a15;
    a765:	7e d8 26 00       	  call 0x26d8;
    a769:	7e a5 a6 00       	  call 0xa6a5;
    a76d:	3e 85 a7 00       	  jmp 0xa785;
    a771:	d9 80 06 00 00    	  mvi a9 0x680;
    a776:	bf 9a             	  ldd.w a10 a9;
    a778:	b2 cb             	  mv.w a11 a12;
    a77a:	b2 ec             	  mv.w a12 a14;
    a77c:	bc ad a0          	  add.w a10 a10 a13;
    a77f:	7e 7e 0b 00       	  call 0xb7e;
    a783:	0a 1f             	  mvi a10 0x1f;
    a785:	fe 49 01          	  rspr a9 SP;
    a788:	bf 9f             	  ldd.w a15 a9;
    a78a:	d9 2c 06 00 00    	  mvi a9 0x62c;
    a78f:	bf 99             	  ldd.w a9 a9;
    a791:	a6 f9             	  cmp.w a15 a9;
    a793:	f4 0b 07          	  breq 0xa79a;
    a796:	7e e9 42 00       	  call 0x42e9;
    a79a:	f4 30 04          	  addsp 0x4;
    a79d:	f8 00             	  ret;

0000a79f <_smbpbiReadSharedSurface>:
    a79f:	d9 2c 06 00 00    	  mvi a9 0x62c;
    a7a4:	bf 99             	  ldd.w a9 a9;
    a7a6:	f4 30 fc          	  addsp -0x4;
    a7a9:	fe 4f 01          	  rspr a15 SP;
    a7ac:	b2 bd             	  mv.w a13 a11;
    a7ae:	a0 f9             	  std.w a15 a9;
    a7b0:	b2 ce             	  mv.w a14 a12;
    a7b2:	b3 a0 00 38       	  cmpbreq.w a10 0x0 0xa7ea;
    a7b6:	b1 b6 bf 23       	  cmp.w a11 0x23bf;
    a7ba:	f4 0c 30          	  brgt 0xa7ea;
    a7bd:	49 c0 23          	  mvi a9 0x23c0;
    a7c0:	bb 9b 02          	  sub.w a9 a11;
    a7c3:	a6 c9             	  cmp.w a12 a9;
    a7c5:	f4 0c 25          	  brgt 0xa7ea;
    a7c8:	d9 f4 2a 00 00    	  mvi a9 0x2af4;
    a7cd:	18 99 15          	  ldd.b a9 a9 0x15;
    a7d0:	0c 01             	  mvi a12 0x1;
    a7d2:	33 90 00 1a       	  cmpbreq.b a9 0x0 0xa7ec;
    a7d6:	d9 0c 2b 00 00    	  mvi a9 0x2b0c;
    a7db:	98 9c 01          	  ldd.w a12 a9 0x4;
    a7de:	bf 9b             	  ldd.w a11 a9;
    a7e0:	7e 72 26 00       	  call 0x2672;
    a7e4:	32 ac             	  mv.b a12 a10;
    a7e6:	3e ec a7 00       	  jmp 0xa7ec;
    a7ea:	0c 02             	  mvi a12 0x2;
    a7ec:	fe 49 01          	  rspr a9 SP;
    a7ef:	bf 9f             	  ldd.w a15 a9;
    a7f1:	d9 2c 06 00 00    	  mvi a9 0x62c;
    a7f6:	bf 99             	  ldd.w a9 a9;
    a7f8:	32 ca             	  mv.b a10 a12;
    a7fa:	a6 f9             	  cmp.w a15 a9;
    a7fc:	f4 0b 07          	  breq 0xa803;
    a7ff:	7e e9 42 00       	  call 0x42e9;
    a803:	f4 30 04          	  addsp 0x4;
    a806:	f8 00             	  ret;

0000a808 <_smbpbiHostMemRead>:
    a808:	f4 30 d8          	  addsp -0x28;
    a80b:	df 2c 06 00 00    	  mvi a15 0x62c;
    a810:	f9 72             	  pushm a7;
    a812:	bf ff             	  ldd.w a15 a15;
    a814:	fe 49 01          	  rspr a9 SP;
    a817:	90 99 44          	  add.w a9 a9 0x44;
    a81a:	fe 46 01          	  rspr a6 SP;
    a81d:	a0 9f             	  std.w a9 a15;
    a81f:	b2 a0             	  mv.w a0 a10;
    a821:	b2 b1             	  mv.w a1 a11;
    a823:	b2 c4             	  mv.w a4 a12;
    a825:	90 66 24          	  add.w a6 a6 0x24;
    a828:	b1 a6 c0 23       	  cmp.w a10 0x23c0;
    a82c:	f4 0c 7d          	  brgt 0xa8a9;
    a82f:	b1 b6 c0 23       	  cmp.w a11 0x23c0;
    a833:	f4 0c 76          	  brgt 0xa8a9;
    a836:	bc ba 90          	  add.w a9 a11 a10;
    a839:	b1 96 c0 23       	  cmp.w a9 0x23c0;
    a83d:	f4 0c 6c          	  brgt 0xa8a9;
    a840:	7e 06 0e 00       	  call 0xe06;
    a844:	c4 02 03          	  and a2 a0 0x3;
    a847:	d5 0c 2b 00 00    	  mvi a5 0x2b0c;
    a84c:	c4 29 ff          	  and a9 a2 0xff;
    a84f:	07 20             	  mvi a7 0x20;
    a851:	bc 09 32          	  sub.w a3 a0 a9;
    a854:	3e 9b a8 00       	  jmp 0xa89b;
    a858:	bf 5b             	  ldd.w a11 a5;
    a85a:	98 5c 01          	  ldd.w a12 a5 0x4;
    a85d:	b2 6a             	  mv.w a10 a6;
    a85f:	b2 3d             	  mv.w a13 a3;
    a861:	0e 20             	  mvi a14 0x20;
    a863:	7e 72 26 00       	  call 0x2672;
    a867:	33 a0 00 0a       	  cmpbreq.b a10 0x0 0xa871;
    a86b:	00 06             	  mvi a0 0x6;
    a86d:	3e a1 a8 00       	  jmp 0xa8a1;
    a871:	c4 29 ff          	  and a9 a2 0xff;
    a874:	bc 79 02          	  sub.w a0 a7 a9;
    a877:	a6 01             	  cmp.w a0 a1;
    a879:	f4 0d 05          	  brlte 0xa87e;
    a87c:	b2 10             	  mv.w a0 a1;
    a87e:	c4 2b ff          	  and a11 a2 0xff;
    a881:	c4 0c ff          	  and a12 a0 0xff;
    a884:	b2 4a             	  mv.w a10 a4;
    a886:	f0 04 ff          	  and a0 0xff;
    a889:	bc 6b b0          	  add.w a11 a6 a11;
    a88c:	90 33 20          	  add.w a3 a3 0x20;
    a88f:	bb 10 02          	  sub.w a1 a0;
    a892:	7e 7e 0b 00       	  call 0xb7e;
    a896:	bc 40 40          	  add.w a4 a4 a0;
    a899:	3d 24             	  clr.b a2;
    a89b:	b3 14 00 bd       	  cmpbrne.w a1 0x0 0xa858;
    a89f:	00 1f             	  mvi a0 0x1f;
    a8a1:	7e dd 0d 00       	  call 0xddd;
    a8a5:	3e ab a8 00       	  jmp 0xa8ab;
    a8a9:	00 06             	  mvi a0 0x6;
    a8ab:	fe 49 01          	  rspr a9 SP;
    a8ae:	90 99 44          	  add.w a9 a9 0x44;
    a8b1:	bf 9f             	  ldd.w a15 a9;
    a8b3:	d9 2c 06 00 00    	  mvi a9 0x62c;
    a8b8:	bf 99             	  ldd.w a9 a9;
    a8ba:	32 0a             	  mv.b a10 a0;
    a8bc:	a6 f9             	  cmp.w a15 a9;
    a8be:	f4 0b 07          	  breq 0xa8c5;
    a8c1:	7e e9 42 00       	  call 0x42e9;
    a8c5:	fb 75 28          	  popma a7 0x1 0x28;

0000a8c8 <_smbpbiInforomRead>:
    a8c8:	df 2c 06 00 00    	  mvi a15 0x62c;
    a8cd:	bf ff             	  ldd.w a15 a15;
    a8cf:	f4 30 fc          	  addsp -0x4;
    a8d2:	fe 49 01          	  rspr a9 SP;
    a8d5:	b2 ad             	  mv.w a13 a10;
    a8d7:	a0 9f             	  std.w a9 a15;
    a8d9:	d9 f4 2a 00 00    	  mvi a9 0x2af4;
    a8de:	18 99 15          	  ldd.b a9 a9 0x15;
    a8e1:	b2 be             	  mv.w a14 a11;
    a8e3:	33 90 00 0c       	  cmpbreq.b a9 0x0 0xa8ef;
    a8e7:	7e 08 a8 00       	  call 0xa808;
    a8eb:	3e 03 a9 00       	  jmp 0xa903;
    a8ef:	d9 80 06 00 00    	  mvi a9 0x680;
    a8f4:	bf 9b             	  ldd.w a11 a9;
    a8f6:	b2 ca             	  mv.w a10 a12;
    a8f8:	b2 ec             	  mv.w a12 a14;
    a8fa:	bc bd b0          	  add.w a11 a11 a13;
    a8fd:	7e 7e 0b 00       	  call 0xb7e;
    a901:	0a 1f             	  mvi a10 0x1f;
    a903:	fe 49 01          	  rspr a9 SP;
    a906:	bf 9f             	  ldd.w a15 a9;
    a908:	d9 2c 06 00 00    	  mvi a9 0x62c;
    a90d:	bf 99             	  ldd.w a9 a9;
    a90f:	a6 f9             	  cmp.w a15 a9;
    a911:	f4 0b 07          	  breq 0xa918;
    a914:	7e e9 42 00       	  call 0x42e9;
    a918:	f4 30 04          	  addsp 0x4;
    a91b:	f8 00             	  ret;

0000a91d <_smbpbiCheckEvents>:
    a91d:	f4 30 f4          	  addsp -0xc;
    a920:	df 2c 06 00 00    	  mvi a15 0x62c;
    a925:	f9 32             	  pushm a3;
    a927:	bf ff             	  ldd.w a15 a15;
    a929:	fe 49 01          	  rspr a9 SP;
    a92c:	90 99 18          	  add.w a9 a9 0x18;
    a92f:	b2 a2             	  mv.w a2 a10;
    a931:	a0 9f             	  std.w a9 a15;
    a933:	bf a9             	  ldd.w a9 a10;
    a935:	c7 99 98          	  uxtr a9 a9 0x98;
    a938:	b3 99 1d aa 00    	  cmpbreq.w a9 0x1d 0xa9e2;
    a93d:	d9 f4 2a 00 00    	  mvi a9 0x2af4;
    a942:	98 99 02          	  ldd.w a9 a9 0x8;
    a945:	c7 99 42          	  uxtr a9 a9 0x42;
    a948:	b3 99 00 9a 00    	  cmpbreq.w a9 0x0 0xa9e2;
    a94d:	fe 40 01          	  rspr a0 SP;
    a950:	0a 01             	  mvi a10 0x1;
    a952:	90 00 14          	  add.w a0 a0 0x14;
    a955:	b2 0b             	  mv.w a11 a0;
    a957:	7e cd b1 00       	  call 0xb1cd;
    a95b:	33 a4 1f 55       	  cmpbrne.b a10 0x1f 0xa9b0;
    a95f:	fe 4b 01          	  rspr a11 SP;
    a962:	0a 02             	  mvi a10 0x2;
    a964:	90 bb 10          	  add.w a11 a11 0x10;
    a967:	7e cd b1 00       	  call 0xb1cd;
    a96b:	33 a4 1f 45       	  cmpbrne.b a10 0x1f 0xa9b0;
    a96f:	bf 09             	  ldd.w a9 a0;
    a971:	03 01             	  mvi a3 0x1;
    a973:	bd 04             	  clr.w a0;
    a975:	ff 93 14          	  and a1 a9 a3;
    a978:	bc 30 95          	  lsr.w a9 a3 a0;
    a97b:	f0 94 01          	  and a9 0x1;
    a97e:	f4 1b 12          	  brne 0xa990;
    a981:	b3 04 02 0f       	  cmpbrne.w a0 0x2 0xa990;
    a985:	7e f0 b7 00       	  call 0xb7f0;
    a989:	33 a0 00 07       	  cmpbreq.b a10 0x0 0xa990;
    a98d:	f0 15 04          	  or a1 0x4;
    a990:	90 00 01          	  add.w a0 a0 0x1;
    a993:	b3 04 07 e5       	  cmpbrne.w a0 0x7 0xa978;
    a997:	fe 49 01          	  rspr a9 SP;
    a99a:	90 99 14          	  add.w a9 a9 0x14;
    a99d:	bf 99             	  ldd.w a9 a9;
    a99f:	a6 19             	  cmp.w a1 a9;
    a9a1:	f4 0b 15          	  breq 0xa9b6;
    a9a4:	0a 01             	  mvi a10 0x1;
    a9a6:	b2 1b             	  mv.w a11 a1;
    a9a8:	7e 0f b2 00       	  call 0xb20f;
    a9ac:	33 a0 1f 0a       	  cmpbreq.b a10 0x1f 0xa9b6;
    a9b0:	f8 09             	  trap1;
    a9b2:	3e e4 a9 00       	  jmp 0xa9e4;
    a9b6:	bf 2e             	  ldd.w a14 a2;
    a9b8:	fe 49 01          	  rspr a9 SP;
    a9bb:	90 99 10          	  add.w a9 a9 0x10;
    a9be:	bf 99             	  ldd.w a9 a9;
    a9c0:	df ff ff ff bf    	  mvi a15 -0x40000001;
    a9c5:	0a 1f             	  mvi a10 0x1f;
    a9c7:	fd ef 04          	  and a14 a15;
    a9ca:	b9 99 00          	  cpl.w a9 a9;
    a9cd:	ff 19 94          	  and a9 a1 a9;
    a9d0:	f0 9c 0b          	  sgetb a9 0xb;
    a9d3:	f0 96 01          	  xor a9 0x1;
    a9d6:	b6 94 1e          	  lsl.w a9 0x1e;
    a9d9:	fd 9e 05          	  or a9 a14;
    a9dc:	a0 29             	  std.w a2 a9;
    a9de:	3e e4 a9 00       	  jmp 0xa9e4;
    a9e2:	0a 1f             	  mvi a10 0x1f;
    a9e4:	fe 49 01          	  rspr a9 SP;
    a9e7:	90 99 18          	  add.w a9 a9 0x18;
    a9ea:	bf 9f             	  ldd.w a15 a9;
    a9ec:	d9 2c 06 00 00    	  mvi a9 0x62c;
    a9f1:	bf 99             	  ldd.w a9 a9;
    a9f3:	a6 f9             	  cmp.w a15 a9;
    a9f5:	f4 0b 07          	  breq 0xa9fc;
    a9f8:	7e e9 42 00       	  call 0x42e9;
    a9fc:	fb 35 0c          	  popma a3 0x1 0xc;

0000a9ff <_smbpbiHandleMsgBoxRequest>:
    a9ff:	f4 30 e4          	  addsp -0x1c;
    aa02:	df 2c 06 00 00    	  mvi a15 0x62c;
    aa07:	f9 52             	  pushm a5;
    aa09:	bf ff             	  ldd.w a15 a15;
    aa0b:	fe 49 01          	  rspr a9 SP;
    aa0e:	90 99 30          	  add.w a9 a9 0x30;
    aa11:	b2 a3             	  mv.w a3 a10;
    aa13:	a0 9f             	  std.w a9 a15;
    aa15:	bf af             	  ldd.w a15 a10;
    aa17:	b2 c5             	  mv.w a5 a12;
    aa19:	b2 b4             	  mv.w a4 a11;
    aa1b:	c7 fd 1d          	  uxtr a13 a15 0x1d;
    aa1e:	b3 dd 00 5b 07    	  cmpbrne.w a13 0x0 0xb179;
    aa23:	95 fa 08          	  lsr.w a10 a15 0x8;
    aa26:	95 f9 10          	  lsr.w a9 a15 0x10;
    aa29:	32 f0             	  mv.b a0 a15;
    aa2b:	32 a1             	  mv.b a1 a10;
    aa2d:	32 92             	  mv.b a2 a9;
    aa2f:	33 f9 15 d5 00    	  cmpbreq.b a15 0x15 0xab04;
    aa34:	30 f6 15          	  cmp.b a15 0x15;
    aa37:	f4 0c 46          	  brgt 0xaa7d;
    aa3a:	33 f9 05 fa 05    	  cmpbreq.b a15 0x5 0xb034;
    aa3f:	30 f6 05          	  cmp.b a15 0x5;
    aa42:	f4 0c 1c          	  brgt 0xaa5e;
    aa45:	33 f9 01 87 00    	  cmpbreq.b a15 0x1 0xaacc;
    aa4a:	0a 1f             	  mvi a10 0x1f;
    aa4c:	30 f6 01          	  cmp.b a15 0x1;
    aa4f:	f5 08 38 07       	  brc 0xb187;
    aa53:	30 f6 03          	  cmp.b a15 0x3;
    aa56:	f5 0c 23 07       	  brgt 0xb179;
    aa5a:	3e e9 aa 00       	  jmp 0xaae9;
    aa5e:	33 f9 10 19 04    	  cmpbreq.b a15 0x10 0xae77;
    aa63:	30 f6 10          	  cmp.b a15 0x10;
    aa66:	f4 0c 0e          	  brgt 0xaa74;
    aa69:	30 f6 0d          	  cmp.b a15 0xd;
    aa6c:	f5 08 0d 07       	  brc 0xb179;
    aa70:	3e 16 ae 00       	  jmp 0xae16;
    aa74:	33 fd 11 05 07    	  cmpbrne.b a15 0x11 0xb179;
    aa79:	3e 20 ae 00       	  jmp 0xae20;
    aa7d:	33 f9 1d 41 06    	  cmpbreq.b a15 0x1d 0xb0be;
    aa82:	30 f6 1d          	  cmp.b a15 0x1d;
    aa85:	f4 0c 25          	  brgt 0xaaaa;
    aa88:	33 f9 18 f9 03    	  cmpbreq.b a15 0x18 0xae81;
    aa8d:	30 f6 18          	  cmp.b a15 0x18;
    aa90:	f4 0c 0c          	  brgt 0xaa9c;
    aa93:	33 fd 17 e6 06    	  cmpbrne.b a15 0x17 0xb179;
    aa98:	3e c8 b0 00       	  jmp 0xb0c8;
    aa9c:	33 f9 1a 00 01    	  cmpbreq.b a15 0x1a 0xab9c;
    aaa1:	33 fd 1c d8 06    	  cmpbrne.b a15 0x1c 0xb179;
    aaa6:	3e 85 b1 00       	  jmp 0xb185;
    aaaa:	33 f9 21 62 02    	  cmpbreq.b a15 0x21 0xad0c;
    aaaf:	30 f6 21          	  cmp.b a15 0x21;
    aab2:	f4 0c 0c          	  brgt 0xaabe;
    aab5:	33 fd 1e c4 06    	  cmpbrne.b a15 0x1e 0xb179;
    aaba:	3e 8e ab 00       	  jmp 0xab8e;
    aabe:	33 f9 24 38 06    	  cmpbreq.b a15 0x24 0xb0f6;
    aac3:	33 fd 25 b6 06    	  cmpbrne.b a15 0x25 0xb179;
    aac8:	3e 59 b1 00       	  jmp 0xb159;
    aacc:	df f4 2a 00 00    	  mvi a15 0x2af4;
    aad1:	18 f9 14          	  ldd.b a9 a15 0x14;
    aad4:	26 a9             	  cmp.b a10 a9;
    aad6:	f4 18 0d          	  brnc 0xaae3;
    aad9:	c4 a9 ff          	  and a9 a10 0xff;
    aadc:	bc f9 98          	  ldd.w a9 a15 a9;
    aadf:	3e 2e b0 00       	  jmp 0xb02e;
    aae3:	a0 bd             	  std.w a11 a13;
    aae5:	3e f0 b0 00       	  jmp 0xb0f0;
    aae9:	0a 08             	  mvi a10 0x8;
    aaeb:	33 1d 00 9c 06    	  cmpbrne.b a1 0x0 0xb187;
    aaf0:	7e e2 79 00       	  call 0x79e2;
    aaf4:	33 00 03 0a       	  cmpbreq.b a0 0x3 0xaafe;
    aaf8:	49 00 ff          	  mvi a9 -0x100;
    aafb:	fd a9 04          	  and a10 a9;
    aafe:	a0 4a             	  std.w a4 a10;
    ab00:	3e f0 b0 00       	  jmp 0xb0f0;
    ab04:	0a 03             	  mvi a10 0x3;
    ab06:	30 16 04          	  cmp.b a1 0x4;
    ab09:	f5 0c 7e 06       	  brgt 0xb187;
    ab0d:	d9 f4 2a 00 00    	  mvi a9 0x2af4;
    ab12:	bf 99             	  ldd.w a9 a9;
    ab14:	0e 01             	  mvi a14 0x1;
    ab16:	0a 08             	  mvi a10 0x8;
    ab18:	bc e1 f4          	  lsl.w a15 a14 a1;
    ab1b:	c7 99 98          	  uxtr a9 a9 0x98;
    ab1e:	fd 9f 04          	  and a9 a15;
    ab21:	f5 0b 66 06       	  breq 0xb187;
    ab25:	33 10 02 0e       	  cmpbreq.b a1 0x2 0xab33;
    ab29:	33 10 04 10       	  cmpbreq.b a1 0x4 0xab39;
    ab2d:	32 ea             	  mv.b a10 a14;
    ab2f:	3e 45 ab 00       	  jmp 0xab45;
    ab33:	b2 ea             	  mv.w a10 a14;
    ab35:	3e 3b ab 00       	  jmp 0xab3b;
    ab39:	bd a4             	  clr.w a10;
    ab3b:	fe 4b 01          	  rspr a11 SP;
    ab3e:	90 bb 2c          	  add.w a11 a11 0x2c;
    ab41:	7e 74 79 00       	  call 0x7974;
    ab45:	7e a5 a6 00       	  call 0xa6a5;
    ab49:	33 ad 1f 3e 06    	  cmpbrne.b a10 0x1f 0xb187;
    ab4e:	fe 49 01          	  rspr a9 SP;
    ab51:	90 99 2c          	  add.w a9 a9 0x2c;
    ab54:	bf 9e             	  ldd.w a14 a9;
    ab56:	95 e9 1f          	  lsr.w a9 a14 0x1f;
    ab59:	b3 90 01 0a       	  cmpbreq.w a9 0x1 0xab63;
    ab5d:	bd d4             	  clr.w a13;
    ab5f:	3e 68 ab 00       	  jmp 0xab68;
    ab63:	dd 00 00 00 ff    	  mvi a13 -0x1000000;
    ab68:	c4 e9 80          	  and a9 a14 0x80;
    ab6b:	33 94 00 0a       	  cmpbrne.b a9 0x0 0xab75;
    ab6f:	bd f4             	  clr.w a15;
    ab71:	3e 7f ab 00       	  jmp 0xab7f;
    ab75:	0f 01             	  mvi a15 0x1;
    ab77:	b0 e6 00          	  cmp.w a14 0x0;
    ab7a:	f4 1f 05          	  brsgte 0xab7f;
    ab7d:	0f ff             	  mvi a15 -0x1;
    ab7f:	95 e9 08          	  lsr.w a9 a14 0x8;
    ab82:	ff d9 95          	  or a9 a13 a9;
    ab85:	bc f9 90          	  add.w a9 a15 a9;
    ab88:	a0 49             	  std.w a4 a9;
    ab8a:	3e 87 b1 00       	  jmp 0xb187;
    ab8e:	32 9b             	  mv.b a11 a9;
    ab90:	b2 4c             	  mv.w a12 a4;
    ab92:	b2 5d             	  mv.w a13 a5;
    ab94:	7e 98 92 00       	  call 0x9298;
    ab98:	3e 87 b1 00       	  jmp 0xb187;
    ab9c:	33 a0 07 55       	  cmpbreq.b a10 0x7 0xabf1;
    aba0:	30 a6 07          	  cmp.b a10 0x7;
    aba3:	f4 0c 12          	  brgt 0xabb5;
    aba6:	d9 f4 2a 00 00    	  mvi a9 0x2af4;
    abab:	30 a6 02          	  cmp.b a10 0x2;
    abae:	f4 0d 2b          	  brlte 0xabd9;
    abb1:	3e e5 ab 00       	  jmp 0xabe5;
    abb5:	30 a6 0c          	  cmp.b a10 0xc;
    abb8:	f4 0c 12          	  brgt 0xabca;
    abbb:	d9 f4 2a 00 00    	  mvi a9 0x2af4;
    abc0:	30 a6 09          	  cmp.b a10 0x9;
    abc3:	f4 18 57          	  brnc 0xac1a;
    abc6:	3e 08 ac 00       	  jmp 0xac08;
    abca:	33 a0 0d 61       	  cmpbreq.b a10 0xd 0xac2b;
    abce:	0a 03             	  mvi a10 0x3;
    abd0:	33 1d 0e b7 05    	  cmpbrne.b a1 0xe 0xb187;
    abd5:	3e 3b ac 00       	  jmp 0xac3b;
    abd9:	98 99 01          	  ldd.w a9 a9 0x4;
    abdc:	df 00 00 00 04    	  mvi a15 0x4000000;
    abe1:	3e 21 ac 00       	  jmp 0xac21;
    abe5:	98 99 01          	  ldd.w a9 a9 0x4;
    abe8:	df 00 00 00 08    	  mvi a15 0x8000000;
    abed:	3e 21 ac 00       	  jmp 0xac21;
    abf1:	d9 f4 2a 00 00    	  mvi a9 0x2af4;
    abf6:	98 99 02          	  ldd.w a9 a9 0x8;
    abf9:	8f 00 00 02       	  mvi a15 0x20000;
    abfd:	fd 9f 04          	  and a9 a15;
    ac00:	f5 1b c6 00       	  brne 0xacc6;
    ac04:	3e 06 ad 00       	  jmp 0xad06;
    ac08:	98 99 02          	  ldd.w a9 a9 0x8;
    ac0b:	8f 00 00 04       	  mvi a15 0x40000;
    ac0f:	fd 9f 04          	  and a9 a15;
    ac12:	f5 1b c4 00       	  brne 0xacd6;
    ac16:	3e 06 ad 00       	  jmp 0xad06;
    ac1a:	98 99 02          	  ldd.w a9 a9 0x8;
    ac1d:	8f 00 00 01       	  mvi a15 0x10000;
    ac21:	fd 9f 04          	  and a9 a15;
    ac24:	f4 1b 2f          	  brne 0xac53;
    ac27:	3e 06 ad 00       	  jmp 0xad06;
    ac2b:	d9 f4 2a 00 00    	  mvi a9 0x2af4;
    ac30:	8f 00 00 40       	  mvi a15 0x400000;
    ac34:	98 99 02          	  ldd.w a9 a9 0x8;
    ac37:	3e 48 ac 00       	  jmp 0xac48;
    ac3b:	d9 f4 2a 00 00    	  mvi a9 0x2af4;
    ac40:	98 99 02          	  ldd.w a9 a9 0x8;
    ac43:	df 00 00 80 00    	  mvi a15 0x800000;
    ac48:	fd 9f 04          	  and a9 a15;
    ac4b:	f5 1b a9 00       	  brne 0xacf4;
    ac4f:	3e 06 ad 00       	  jmp 0xad06;
    ac53:	33 10 07 73       	  cmpbreq.b a1 0x7 0xacc6;
    ac57:	30 16 07          	  cmp.b a1 0x7;
    ac5a:	f4 0c 1a          	  brgt 0xac74;
    ac5d:	33 10 02 4b       	  cmpbreq.b a1 0x2 0xaca8;
    ac61:	30 16 02          	  cmp.b a1 0x2;
    ac64:	f4 0c 54          	  brgt 0xacb8;
    ac67:	33 10 00 27       	  cmpbreq.b a1 0x0 0xac8e;
    ac6b:	33 1d 01 85 04    	  cmpbrne.b a1 0x1 0xb0f0;
    ac70:	3e 98 ac 00       	  jmp 0xac98;
    ac74:	30 16 0c          	  cmp.b a1 0xc;
    ac77:	f4 0c 0d          	  brgt 0xac84;
    ac7a:	30 16 09          	  cmp.b a1 0x9;
    ac7d:	f4 18 65          	  brnc 0xace2;
    ac80:	3e d6 ac 00       	  jmp 0xacd6;
    ac84:	30 16 0e          	  cmp.b a1 0xe;
    ac87:	f4 0d 6d          	  brlte 0xacf4;
    ac8a:	3e f0 b0 00       	  jmp 0xb0f0;
    ac8e:	b2 4a             	  mv.w a10 a4;
    ac90:	7e 6d 93 00       	  call 0x936d;
    ac94:	3e 87 b1 00       	  jmp 0xb187;
    ac98:	32 1a             	  mv.b a10 a1;
    ac9a:	32 2b             	  mv.b a11 a2;
    ac9c:	b2 4c             	  mv.w a12 a4;
    ac9e:	b2 5d             	  mv.w a13 a5;
    aca0:	7e 09 98 00       	  call 0x9809;
    aca4:	3e 87 b1 00       	  jmp 0xb187;
    aca8:	32 1a             	  mv.b a10 a1;
    acaa:	32 2b             	  mv.b a11 a2;
    acac:	b2 4c             	  mv.w a12 a4;
    acae:	b2 5d             	  mv.w a13 a5;
    acb0:	7e 7a 97 00       	  call 0x977a;
    acb4:	3e 87 b1 00       	  jmp 0xb187;
    acb8:	32 1a             	  mv.b a10 a1;
    acba:	32 2b             	  mv.b a11 a2;
    acbc:	b2 4c             	  mv.w a12 a4;
    acbe:	7e 85 99 00       	  call 0x9985;
    acc2:	3e 87 b1 00       	  jmp 0xb187;
    acc6:	32 2b             	  mv.b a11 a2;
    acc8:	b2 4c             	  mv.w a12 a4;
    acca:	b2 5d             	  mv.w a13 a5;
    accc:	0a 07             	  mvi a10 0x7;
    acce:	7e e1 96 00       	  call 0x96e1;
    acd2:	3e 87 b1 00       	  jmp 0xb187;
    acd6:	0a 08             	  mvi a10 0x8;
    acd8:	32 2b             	  mv.b a11 a2;
    acda:	b2 4c             	  mv.w a12 a4;
    acdc:	b2 5d             	  mv.w a13 a5;
    acde:	7e 42 96 00       	  call 0x9642;
    ace2:	32 1a             	  mv.b a10 a1;
    ace4:	32 2b             	  mv.b a11 a2;
    ace6:	b2 3c             	  mv.w a12 a3;
    ace8:	b2 4d             	  mv.w a13 a4;
    acea:	b2 5e             	  mv.w a14 a5;
    acec:	7e 12 9a 00       	  call 0x9a12;
    acf0:	3e 87 b1 00       	  jmp 0xb187;
    acf4:	32 1a             	  mv.b a10 a1;
    acf6:	32 2b             	  mv.b a11 a2;
    acf8:	b2 3c             	  mv.w a12 a3;
    acfa:	b2 4d             	  mv.w a13 a4;
    acfc:	b2 5e             	  mv.w a14 a5;
    acfe:	7e 94 93 00       	  call 0x9394;
    ad02:	3e 87 b1 00       	  jmp 0xb187;
    ad06:	0a 08             	  mvi a10 0x8;
    ad08:	3e 87 b1 00       	  jmp 0xb187;
    ad0c:	0a 04             	  mvi a10 0x4;
    ad0e:	33 9d 00 79 04    	  cmpbrne.b a9 0x0 0xb187;
    ad13:	d9 f4 2a 00 00    	  mvi a9 0x2af4;
    ad18:	98 99 02          	  ldd.w a9 a9 0x8;
    ad1b:	0a 08             	  mvi a10 0x8;
    ad1d:	f1 94 00 40       	  and a9 0x4000;
    ad21:	f5 0b 66 04       	  breq 0xb187;
    ad25:	fe 49 01          	  rspr a9 SP;
    ad28:	fe 42 01          	  rspr a2 SP;
    ad2b:	90 99 2c          	  add.w a9 a9 0x2c;
    ad2e:	90 22 18          	  add.w a2 a2 0x18;
    ad31:	a0 9d             	  std.w a9 a13;
    ad33:	a0 2d             	  std.w a2 a13;
    ad35:	92 99 04          	  sub.w a9 a9 0x4;
    ad38:	a0 9d             	  std.w a9 a13;
    ad3a:	92 99 04          	  sub.w a9 a9 0x4;
    ad3d:	a0 9d             	  std.w a9 a13;
    ad3f:	92 99 04          	  sub.w a9 a9 0x4;
    ad42:	a0 9d             	  std.w a9 a13;
    ad44:	92 99 04          	  sub.w a9 a9 0x4;
    ad47:	a0 9d             	  std.w a9 a13;
    ad49:	33 19 01 85 00    	  cmpbreq.b a1 0x1 0xadce;
    ad4e:	30 16 01          	  cmp.b a1 0x1;
    ad51:	f4 08 0e          	  brc 0xad5f;
    ad54:	0a 03             	  mvi a10 0x3;
    ad56:	33 1d 02 31 04    	  cmpbrne.b a1 0x2 0xb187;
    ad5b:	3e e2 ad 00       	  jmp 0xade2;
    ad5f:	fe 41 01          	  rspr a1 SP;
    ad62:	fe 40 01          	  rspr a0 SP;
    ad65:	90 11 2c          	  add.w a1 a1 0x2c;
    ad68:	90 00 28          	  add.w a0 a0 0x28;
    ad6b:	b2 1a             	  mv.w a10 a1;
    ad6d:	b2 0b             	  mv.w a11 a0;
    ad6f:	7e d8 8f 00       	  call 0x8fd8;
    ad73:	bf 19             	  ldd.w a9 a1;
    ad75:	bf 00             	  ldd.w a0 a0;
    ad77:	fe 43 01          	  rspr a3 SP;
    ad7a:	fe 42 01          	  rspr a2 SP;
    ad7d:	f0 94 07          	  and a9 0x7;
    ad80:	90 33 24          	  add.w a3 a3 0x24;
    ad83:	90 22 20          	  add.w a2 a2 0x20;
    ad86:	b2 3a             	  mv.w a10 a3;
    ad88:	fe 41 01          	  rspr a1 SP;
    ad8b:	b2 2b             	  mv.w a11 a2;
    ad8d:	90 11 1c          	  add.w a1 a1 0x1c;
    ad90:	f0 04 07          	  and a0 0x7;
    ad93:	b2 1c             	  mv.w a12 a1;
    ad95:	b6 04 04          	  lsl.w a0 0x4;
    ad98:	fd 09 05          	  or a0 a9;
    ad9b:	7e f1 81 00       	  call 0x81f1;
    ad9f:	bf 29             	  ldd.w a9 a2;
    ada1:	bf 3f             	  ldd.w a15 a3;
    ada3:	bf 1e             	  ldd.w a14 a1;
    ada5:	fe 41 01          	  rspr a1 SP;
    ada8:	b6 94 08          	  lsl.w a9 0x8;
    adab:	f0 f4 ff          	  and a15 0xff;
    adae:	f1 94 ff ff       	  and a9 0xffff;
    adb2:	b6 f4 10          	  lsl.w a15 0x10;
    adb5:	b6 e4 18          	  lsl.w a14 0x18;
    adb8:	90 11 18          	  add.w a1 a1 0x18;
    adbb:	fd 09 05          	  or a0 a9;
    adbe:	b2 1a             	  mv.w a10 a1;
    adc0:	fd 0f 05          	  or a0 a15;
    adc3:	fd 0e 05          	  or a0 a14;
    adc6:	7e be 81 00       	  call 0x81be;
    adca:	3e 08 ae 00       	  jmp 0xae08;
    adce:	b2 2a             	  mv.w a10 a2;
    add0:	7e 8e 81 00       	  call 0x818e;
    add4:	b2 2a             	  mv.w a10 a2;
    add6:	bf 20             	  ldd.w a0 a2;
    add8:	7e 5e 81 00       	  call 0x815e;
    addc:	bf 29             	  ldd.w a9 a2;
    adde:	3e 0e ae 00       	  jmp 0xae0e;
    ade2:	fe 41 01          	  rspr a1 SP;
    ade5:	90 11 18          	  add.w a1 a1 0x18;
    ade8:	b2 1a             	  mv.w a10 a1;
    adea:	7e 2b 81 00       	  call 0x812b;
    adee:	b2 1a             	  mv.w a10 a1;
    adf0:	bf 10             	  ldd.w a0 a1;
    adf2:	7e f8 80 00       	  call 0x80f8;
    adf6:	bf 19             	  ldd.w a9 a1;
    adf8:	b2 1a             	  mv.w a10 a1;
    adfa:	f1 04 ff ff       	  and a0 0xffff;
    adfe:	b6 94 10          	  lsl.w a9 0x10;
    ae01:	ff 90 05          	  or a0 a9 a0;
    ae04:	7e c5 80 00       	  call 0x80c5;
    ae08:	bf 19             	  ldd.w a9 a1;
    ae0a:	f1 94 ff ff       	  and a9 0xffff;
    ae0e:	a0 40             	  std.w a4 a0;
    ae10:	a0 59             	  std.w a5 a9;
    ae12:	3e f0 b0 00       	  jmp 0xb0f0;
    ae16:	b2 fa             	  mv.w a10 a15;
    ae18:	7e 4b b3 00       	  call 0xb34b;
    ae1c:	3e 87 b1 00       	  jmp 0xb187;
    ae20:	33 a0 00 0d       	  cmpbreq.b a10 0x0 0xae2d;
    ae24:	33 ad 01 5b 03    	  cmpbrne.b a10 0x1 0xb17f;
    ae29:	3e 6d ae 00       	  jmp 0xae6d;
    ae2d:	bf b0             	  ldd.w a0 a11;
    ae2f:	33 90 01 0c       	  cmpbreq.b a9 0x1 0xae3b;
    ae33:	33 94 02 2e       	  cmpbrne.b a9 0x2 0xae61;
    ae37:	3e 5e ae 00       	  jmp 0xae5e;
    ae3b:	fe 41 01          	  rspr a1 SP;
    ae3e:	0a 01             	  mvi a10 0x1;
    ae40:	90 11 18          	  add.w a1 a1 0x18;
    ae43:	b2 1b             	  mv.w a11 a1;
    ae45:	7e cd b1 00       	  call 0xb1cd;
    ae49:	33 ad 1f 3e 03    	  cmpbrne.b a10 0x1f 0xb187;
    ae4e:	bf 1f             	  ldd.w a15 a1;
    ae50:	09 fe             	  mvi a9 -0x2;
    ae52:	ff 09 95          	  or a9 a0 a9;
    ae55:	ff 9f 04          	  and a0 a9 a15;
    ae58:	a0 10             	  std.w a1 a0;
    ae5a:	3e 61 ae 00       	  jmp 0xae61;
    ae5e:	f0 04 7f          	  and a0 0x7f;
    ae61:	32 2a             	  mv.b a10 a2;
    ae63:	b2 0b             	  mv.w a11 a0;
    ae65:	7e 0f b2 00       	  call 0xb20f;
    ae69:	3e 87 b1 00       	  jmp 0xb187;
    ae6d:	32 9a             	  mv.b a10 a9;
    ae6f:	7e cd b1 00       	  call 0xb1cd;
    ae73:	3e 87 b1 00       	  jmp 0xb187;
    ae77:	b2 fa             	  mv.w a10 a15;
    ae79:	7e 4f b2 00       	  call 0xb24f;
    ae7d:	3e 87 b1 00       	  jmp 0xb187;
    ae81:	d3 f4 2a 00 00    	  mvi a3 0x2af4;
    ae86:	bf 39             	  ldd.w a9 a3;
    ae88:	df 00 00 00 20    	  mvi a15 0x20000000;
    ae8d:	0a 08             	  mvi a10 0x8;
    ae8f:	fd 9f 04          	  and a9 a15;
    ae92:	f5 0b f5 02       	  breq 0xb187;
    ae96:	0a 03             	  mvi a10 0x3;
    ae98:	33 1d 00 ef 02    	  cmpbrne.b a1 0x0 0xb187;
    ae9d:	fe 40 01          	  rspr a0 SP;
    aea0:	fe 4c 01          	  rspr a12 SP;
    aea3:	90 00 28          	  add.w a0 a0 0x28;
    aea6:	90 cc 2c          	  add.w a12 a12 0x2c;
    aea9:	b2 0b             	  mv.w a11 a0;
    aeab:	fe 42 01          	  rspr a2 SP;
    aeae:	90 22 24          	  add.w a2 a2 0x24;
    aeb1:	b2 2a             	  mv.w a10 a2;
    aeb3:	7e 3b 8d 00       	  call 0x8d3b;
    aeb7:	7f 09             	  ldd.h a9 a0;
    aeb9:	70 96 03          	  cmp.h a9 0x3;
    aebc:	f0 9c 0b          	  sgetb a9 0xb;
    aebf:	94 91 07          	  lsl.w a1 a9 0x7;
    aec2:	7e 0e 01 00       	  call 0x10e;
    aec6:	18 30 58          	  ldd.b a0 a3 0x58;
    aec9:	7e 08 01 00       	  call 0x108;
    aecd:	33 00 00 0a       	  cmpbreq.b a0 0x0 0xaed7;
    aed1:	b2 1f             	  mv.w a15 a1;
    aed3:	3e 0c af 00       	  jmp 0xaf0c;
    aed7:	7f 2a             	  ldd.h a10 a2;
    aed9:	73 a4 00 0a       	  cmpbrne.h a10 0x0 0xaee3;
    aedd:	b2 19             	  mv.w a9 a1;
    aedf:	3e 0a af 00       	  jmp 0xaf0a;
    aee3:	c5 19 40          	  or a9 a1 0x40;
    aee6:	73 a0 03 14       	  cmpbreq.h a10 0x3 0xaefa;
    aeea:	73 a0 04 18       	  cmpbreq.h a10 0x4 0xaf02;
    aeee:	73 a4 02 1c       	  cmpbrne.h a10 0x2 0xaf0a;
    aef2:	e5 9f 00 01       	  or a15 a9 0x100;
    aef6:	3e 0c af 00       	  jmp 0xaf0c;
    aefa:	e5 9f 00 02       	  or a15 a9 0x200;
    aefe:	3e 0c af 00       	  jmp 0xaf0c;
    af02:	e5 9f 00 03       	  or a15 a9 0x300;
    af06:	3e 0c af 00       	  jmp 0xaf0c;
    af0a:	b2 9f             	  mv.w a15 a9;
    af0c:	fe 49 01          	  rspr a9 SP;
    af0f:	90 99 2c          	  add.w a9 a9 0x2c;
    af12:	7f 99             	  ldd.h a9 a9;
    af14:	73 99 04 88 00    	  cmpbreq.h a9 0x4 0xaf9c;
    af19:	70 96 04          	  cmp.h a9 0x4;
    af1c:	f4 0c 1a          	  brgt 0xaf36;
    af1f:	73 90 01 48       	  cmpbreq.h a9 0x1 0xaf67;
    af23:	70 96 01          	  cmp.h a9 0x1;
    af26:	f4 08 36          	  brc 0xaf5c;
    af29:	73 90 02 4c       	  cmpbreq.h a9 0x2 0xaf75;
    af2d:	73 9d 03 e3 00    	  cmpbrne.h a9 0x3 0xb010;
    af32:	3e 8e af 00       	  jmp 0xaf8e;
    af36:	73 99 07 9b 00    	  cmpbreq.h a9 0x7 0xafd1;
    af3b:	70 96 07          	  cmp.h a9 0x7;
    af3e:	f4 0c 10          	  brgt 0xaf4e;
    af41:	73 90 05 69       	  cmpbreq.h a9 0x5 0xafaa;
    af45:	73 9d 06 cb 00    	  cmpbrne.h a9 0x6 0xb010;
    af4a:	3e c3 af 00       	  jmp 0xafc3;
    af4e:	73 99 08 9c 00    	  cmpbreq.h a9 0x8 0xafea;
    af53:	73 9d 09 bd 00    	  cmpbrne.h a9 0x9 0xb010;
    af58:	3e f8 af 00       	  jmp 0xaff8;
    af5c:	89 ff 07 fe       	  mvi a9 -0x1f801;
    af60:	fd f9 04          	  and a15 a9;
    af63:	3e 10 b0 00       	  jmp 0xb010;
    af67:	49 ff c7          	  mvi a9 -0x3801;
    af6a:	ff f9 94          	  and a9 a15 a9;
    af6d:	f1 95 00 20       	  or a9 0x2000;
    af71:	3e 7f af 00       	  jmp 0xaf7f;
    af75:	49 ff c7          	  mvi a9 -0x3801;
    af78:	ff f9 94          	  and a9 a15 a9;
    af7b:	f1 95 00 18       	  or a9 0x1800;
    af7f:	8f ff 3f fe       	  mvi a15 -0x1c001;
    af83:	fd 9f 04          	  and a9 a15;
    af86:	e5 9f 00 40       	  or a15 a9 0x4000;
    af8a:	3e 10 b0 00       	  jmp 0xb010;
    af8e:	49 ff c7          	  mvi a9 -0x3801;
    af91:	ff f9 94          	  and a9 a15 a9;
    af94:	f1 95 00 10       	  or a9 0x1000;
    af98:	3e 7f af 00       	  jmp 0xaf7f;
    af9c:	49 ff c7          	  mvi a9 -0x3801;
    af9f:	ff f9 94          	  and a9 a15 a9;
    afa2:	f1 95 00 08       	  or a9 0x800;
    afa6:	3e b4 af 00       	  jmp 0xafb4;
    afaa:	49 ff c7          	  mvi a9 -0x3801;
    afad:	ff f9 94          	  and a9 a15 a9;
    afb0:	f1 95 00 10       	  or a9 0x1000;
    afb4:	8f ff 3f fe       	  mvi a15 -0x1c001;
    afb8:	fd 9f 04          	  and a9 a15;
    afbb:	e5 9f 00 80       	  or a15 a9 0x8000;
    afbf:	3e 10 b0 00       	  jmp 0xb010;
    afc3:	49 ff c7          	  mvi a9 -0x3801;
    afc6:	ff f9 94          	  and a9 a15 a9;
    afc9:	f1 95 00 08       	  or a9 0x800;
    afcd:	3e db af 00       	  jmp 0xafdb;
    afd1:	49 ff c7          	  mvi a9 -0x3801;
    afd4:	ff f9 94          	  and a9 a15 a9;
    afd7:	f1 95 00 10       	  or a9 0x1000;
    afdb:	8f ff 3f fe       	  mvi a15 -0x1c001;
    afdf:	fd 9f 04          	  and a9 a15;
    afe2:	e5 9f 00 c0       	  or a15 a9 0xc000;
    afe6:	3e 10 b0 00       	  jmp 0xb010;
    afea:	49 ff c7          	  mvi a9 -0x3801;
    afed:	ff f9 94          	  and a9 a15 a9;
    aff0:	f1 95 00 08       	  or a9 0x800;
    aff4:	3e 02 b0 00       	  jmp 0xb002;
    aff8:	49 ff c7          	  mvi a9 -0x3801;
    affb:	ff f9 94          	  and a9 a15 a9;
    affe:	f1 95 00 10       	  or a9 0x1000;
    b002:	8f ff 3f fe       	  mvi a15 -0x1c001;
    b006:	fd 9f 04          	  and a9 a15;
    b009:	8f 00 00 01       	  mvi a15 0x10000;
    b00d:	ff 9f f5          	  or a15 a9 a15;
    b010:	d9 f4 2a 00 00    	  mvi a9 0x2af4;
    b015:	18 99 50          	  ldd.b a9 a9 0x50;
    b018:	33 90 00 0f       	  cmpbreq.b a9 0x0 0xb027;
    b01c:	89 00 00 02       	  mvi a9 0x20000;
    b020:	ff f9 95          	  or a9 a15 a9;
    b023:	3e 2e b0 00       	  jmp 0xb02e;
    b027:	89 ff ff fd       	  mvi a9 -0x20001;
    b02b:	ff f9 94          	  and a9 a15 a9;
    b02e:	a0 49             	  std.w a4 a9;
    b030:	3e f0 b0 00       	  jmp 0xb0f0;
    b034:	30 a6 14          	  cmp.b a10 0x14;
    b037:	f5 0c 48 01       	  brgt 0xb17f;
    b03b:	c4 af ff          	  and a15 a10 0xff;
    b03e:	d9 1c 05 00 00    	  mvi a9 0x51c;
    b043:	bc 9f e8          	  ldd.w a14 a9 a15;
    b046:	d9 f4 2a 00 00    	  mvi a9 0x2af4;
    b04b:	0a 08             	  mvi a10 0x8;
    b04d:	c7 ef 3b          	  uxtr a15 a14 0x3b;
    b050:	bc 9f 98          	  ldd.w a9 a9 a15;
    b053:	c7 ef 96          	  uxtr a15 a14 0x96;
    b056:	bb 9f 05          	  lsr.w a9 a15;
    b059:	f0 94 01          	  and a9 0x1;
    b05c:	f5 0b 2b 01       	  breq 0xb187;
    b060:	c4 29 ff          	  and a9 a2 0xff;
    b063:	e7 ef 0d 01       	  uxtr a15 a14 0x10d;
    b067:	54 9b 02          	  lsl.h a11 a9 0x2;
    b06a:	0a 04             	  mvi a10 0x4;
    b06c:	66 bf             	  cmp.h a11 a15;
    b06e:	f5 18 19 01       	  brnc 0xb187;
    b072:	f0 f3 00          	  sethi a15 0x0;
    b075:	e4 b9 ff ff       	  and a9 a11 0xffff;
    b079:	bc f9 c2          	  sub.w a12 a15 a9;
    b07c:	b0 c6 04          	  cmp.w a12 0x4;
    b07f:	f4 0d 09          	  brlte 0xb088;
    b082:	0c 04             	  mvi a12 0x4;
    b084:	3e 8a b0 00       	  jmp 0xb08a;
    b088:	a0 4d             	  std.w a4 a13;
    b08a:	e4 ba ff ff       	  and a10 a11 0xffff;
    b08e:	c4 e9 03          	  and a9 a14 0x3;
    b091:	e7 eb 42 01       	  uxtr a11 a14 0x142;
    b095:	33 94 00 12       	  cmpbrne.b a9 0x0 0xb0a7;
    b099:	bc ba b0          	  add.w a11 a11 a10;
    b09c:	d9 14 2b 00 00    	  mvi a9 0x2b14;
    b0a1:	b2 4a             	  mv.w a10 a4;
    b0a3:	3e b3 b0 00       	  jmp 0xb0b3;
    b0a7:	d9 80 06 00 00    	  mvi a9 0x680;
    b0ac:	bf 99             	  ldd.w a9 a9;
    b0ae:	bc ba b0          	  add.w a11 a11 a10;
    b0b1:	b2 4a             	  mv.w a10 a4;
    b0b3:	bc 9b b0          	  add.w a11 a9 a11;
    b0b6:	7e 7e 0b 00       	  call 0xb7e;
    b0ba:	3e f0 b0 00       	  jmp 0xb0f0;
    b0be:	32 9b             	  mv.b a11 a9;
    b0c0:	7e 96 b8 00       	  call 0xb896;
    b0c4:	3e 87 b1 00       	  jmp 0xb187;
    b0c8:	33 a0 00 0f       	  cmpbreq.b a10 0x0 0xb0d7;
    b0cc:	0a 08             	  mvi a10 0x8;
    b0ce:	33 1d 01 b1 00    	  cmpbrne.b a1 0x1 0xb17f;
    b0d3:	3e 87 b1 00       	  jmp 0xb187;
    b0d7:	fe 40 01          	  rspr a0 SP;
    b0da:	90 00 24          	  add.w a0 a0 0x24;
    b0dd:	b2 0a             	  mv.w a10 a0;
    b0df:	7e a4 8c 00       	  call 0x8ca4;
    b0e3:	3f 09             	  ldd.b a9 a0;
    b0e5:	4f a5 00          	  mvi a15 0xa5;
    b0e8:	33 94 00 06       	  cmpbrne.b a9 0x0 0xb0ee;
    b0ec:	0f 5a             	  mvi a15 0x5a;
    b0ee:	a0 4f             	  std.w a4 a15;
    b0f0:	0a 1f             	  mvi a10 0x1f;
    b0f2:	3e 87 b1 00       	  jmp 0xb187;
    b0f6:	d9 f4 2a 00 00    	  mvi a9 0x2af4;
    b0fb:	18 99 15          	  ldd.b a9 a9 0x15;
    b0fe:	33 99 00 87 00    	  cmpbreq.b a9 0x0 0xb185;
    b103:	33 a0 02 38       	  cmpbreq.b a10 0x2 0xb13b;
    b107:	30 a6 02          	  cmp.b a10 0x2;
    b10a:	f4 0c 0f          	  brgt 0xb119;
    b10d:	33 a0 00 18       	  cmpbreq.b a10 0x0 0xb125;
    b111:	33 a4 01 6e       	  cmpbrne.b a10 0x1 0xb17f;
    b115:	3e 2f b1 00       	  jmp 0xb12f;
    b119:	33 a0 03 2c       	  cmpbreq.b a10 0x3 0xb145;
    b11d:	33 a4 04 62       	  cmpbrne.b a10 0x4 0xb17f;
    b121:	3e 4f b1 00       	  jmp 0xb14f;
    b125:	b2 3a             	  mv.w a10 a3;
    b127:	7e 95 bb 00       	  call 0xbb95;
    b12b:	3e 87 b1 00       	  jmp 0xb187;
    b12f:	b2 ba             	  mv.w a10 a11;
    b131:	b2 cb             	  mv.w a11 a12;
    b133:	7e 0f be 00       	  call 0xbe0f;
    b137:	3e 87 b1 00       	  jmp 0xb187;
    b13b:	32 2a             	  mv.b a10 a2;
    b13d:	7e 1e bb 00       	  call 0xbb1e;
    b141:	3e 87 b1 00       	  jmp 0xb187;
    b145:	32 2a             	  mv.b a10 a2;
    b147:	7e 25 c0 00       	  call 0xc025;
    b14b:	3e 87 b1 00       	  jmp 0xb187;
    b14f:	32 2a             	  mv.b a10 a2;
    b151:	7e b9 bf 00       	  call 0xbfb9;
    b155:	3e 87 b1 00       	  jmp 0xb187;
    b159:	d9 f4 2a 00 00    	  mvi a9 0x2af4;
    b15e:	18 99 15          	  ldd.b a9 a9 0x15;
    b161:	33 90 00 24       	  cmpbreq.b a9 0x0 0xb185;
    b165:	c7 fb 6c          	  uxtr a11 a15 0x6c;
    b168:	32 2c             	  mv.b a12 a2;
    b16a:	b2 4d             	  mv.w a13 a4;
    b16c:	b2 5e             	  mv.w a14 a5;
    b16e:	f0 a4 0f          	  and a10 0xf;
    b171:	7e bf bc 00       	  call 0xbcbf;
    b175:	3e 87 b1 00       	  jmp 0xb187;
    b179:	0a 02             	  mvi a10 0x2;
    b17b:	3e 87 b1 00       	  jmp 0xb187;
    b17f:	0a 03             	  mvi a10 0x3;
    b181:	3e 87 b1 00       	  jmp 0xb187;
    b185:	0a 09             	  mvi a10 0x9;
    b187:	fe 49 01          	  rspr a9 SP;
    b18a:	90 99 30          	  add.w a9 a9 0x30;
    b18d:	bf 9f             	  ldd.w a15 a9;
    b18f:	d9 2c 06 00 00    	  mvi a9 0x62c;
    b194:	bf 99             	  ldd.w a9 a9;
    b196:	a6 f9             	  cmp.w a15 a9;
    b198:	f4 0b 07          	  breq 0xb19f;
    b19b:	7e e9 42 00       	  call 0x42e9;
    b19f:	fb 55 1c          	  popma a5 0x1 0x1c;

0000b1a2 <_smbpbiScratchPtr2Offset>:
    b1a2:	de 2c 06 00 00    	  mvi a14 0x62c;
    b1a7:	bf ef             	  ldd.w a15 a14;
    b1a9:	f4 30 fc          	  addsp -0x4;
    b1ac:	fe 49 01          	  rspr a9 SP;
    b1af:	f0 a4 ff          	  and a10 0xff;
    b1b2:	a0 9f             	  std.w a9 a15;
    b1b4:	b6 a4 02          	  lsl.w a10 0x2;
    b1b7:	a0 ca             	  std.w a12 a10;
    b1b9:	bf 9f             	  ldd.w a15 a9;
    b1bb:	bf e9             	  ldd.w a9 a14;
    b1bd:	0a 1f             	  mvi a10 0x1f;
    b1bf:	a6 f9             	  cmp.w a15 a9;
    b1c1:	f4 0b 07          	  breq 0xb1c8;
    b1c4:	7e e9 42 00       	  call 0x42e9;
    b1c8:	f4 30 04          	  addsp 0x4;
    b1cb:	f8 00             	  ret;

0000b1cd <_smbpbiRegRd>:
    b1cd:	df 2c 06 00 00    	  mvi a15 0x62c;
    b1d2:	bf ff             	  ldd.w a15 a15;
    b1d4:	f4 30 fc          	  addsp -0x4;
    b1d7:	fe 49 01          	  rspr a9 SP;
    b1da:	0e 04             	  mvi a14 0x4;
    b1dc:	a0 9f             	  std.w a9 a15;
    b1de:	30 a6 02          	  cmp.b a10 0x2;
    b1e1:	f4 0c 12          	  brgt 0xb1f3;
    b1e4:	c4 af ff          	  and a15 a10 0xff;
    b1e7:	d9 b4 2b 00 00    	  mvi a9 0x2bb4;
    b1ec:	bc 9f f8          	  ldd.w a15 a9 a15;
    b1ef:	0e 1f             	  mvi a14 0x1f;
    b1f1:	a0 bf             	  std.w a11 a15;
    b1f3:	fe 49 01          	  rspr a9 SP;
    b1f6:	bf 9f             	  ldd.w a15 a9;
    b1f8:	d9 2c 06 00 00    	  mvi a9 0x62c;
    b1fd:	bf 99             	  ldd.w a9 a9;
    b1ff:	32 ea             	  mv.b a10 a14;
    b201:	a6 f9             	  cmp.w a15 a9;
    b203:	f4 0b 07          	  breq 0xb20a;
    b206:	7e e9 42 00       	  call 0x42e9;
    b20a:	f4 30 04          	  addsp 0x4;
    b20d:	f8 00             	  ret;

0000b20f <_smbpbiRegWr>:
    b20f:	df 2c 06 00 00    	  mvi a15 0x62c;
    b214:	bf ff             	  ldd.w a15 a15;
    b216:	f4 30 fc          	  addsp -0x4;
    b219:	fe 49 01          	  rspr a9 SP;
    b21c:	0e 04             	  mvi a14 0x4;
    b21e:	a0 9f             	  std.w a9 a15;
    b220:	30 a6 02          	  cmp.b a10 0x2;
    b223:	f4 0c 10          	  brgt 0xb233;
    b226:	c4 af ff          	  and a15 a10 0xff;
    b229:	d9 b4 2b 00 00    	  mvi a9 0x2bb4;
    b22e:	0e 1f             	  mvi a14 0x1f;
    b230:	bc 9b f9          	  std.w a9 a15 a11;
    b233:	fe 49 01          	  rspr a9 SP;
    b236:	bf 9f             	  ldd.w a15 a9;
    b238:	d9 2c 06 00 00    	  mvi a9 0x62c;
    b23d:	bf 99             	  ldd.w a9 a9;
    b23f:	32 ea             	  mv.b a10 a14;
    b241:	a6 f9             	  cmp.w a15 a9;
    b243:	f4 0b 07          	  breq 0xb24a;
    b246:	7e e9 42 00       	  call 0x42e9;
    b24a:	f4 30 04          	  addsp 0x4;
    b24d:	f8 00             	  ret;

0000b24f <_smbpbiHandleAsyncRequest>:
    b24f:	f4 30 fc          	  addsp -0x4;
    b252:	df 2c 06 00 00    	  mvi a15 0x62c;
    b257:	f9 12             	  pushm a1;
    b259:	bf ff             	  ldd.w a15 a15;
    b25b:	fe 49 01          	  rspr a9 SP;
    b25e:	90 99 08          	  add.w a9 a9 0x8;
    b261:	b2 b1             	  mv.w a1 a11;
    b263:	a0 9f             	  std.w a9 a15;
    b265:	95 ae 08          	  lsr.w a14 a10 0x8;
    b268:	95 af 10          	  lsr.w a15 a10 0x10;
    b26b:	d0 f4 2a 00 00    	  mvi a0 0x2af4;
    b270:	09 ff             	  mvi a9 -0x1;
    b272:	26 e9             	  cmp.b a14 a9;
    b274:	f4 1b 3d          	  brne 0xb2b1;
    b277:	18 09 49          	  ldd.b a9 a0 0x49;
    b27a:	26 f9             	  cmp.b a15 a9;
    b27c:	f5 1b b2 00       	  brne 0xb32e;
    b280:	18 09 4a          	  ldd.b a9 a0 0x4a;
    b283:	0a 1c             	  mvi a10 0x1c;
    b285:	33 99 01 ab 00    	  cmpbreq.b a9 0x1 0xb330;
    b28a:	30 96 01          	  cmp.b a9 0x1;
    b28d:	f5 08 a1 00       	  brc 0xb32e;
    b291:	0a 06             	  mvi a10 0x6;
    b293:	33 9d 02 9d 00    	  cmpbrne.b a9 0x2 0xb330;
    b298:	98 09 13          	  ldd.w a9 a0 0x4c;
    b29b:	3d f4             	  clr.b a15;
    b29d:	0a 1f             	  mvi a10 0x1f;
    b29f:	a0 b9             	  std.w a11 a9;
    b2a1:	18 09 49          	  ldd.b a9 a0 0x49;
    b2a4:	35 0f 4a          	  std.b a0 0x4a a15;
    b2a7:	10 99 01          	  add.b a9 a9 0x1;
    b2aa:	35 09 49          	  std.b a0 0x49 a9;
    b2ad:	3e 30 b3 00       	  jmp 0xb330;
    b2b1:	18 09 4a          	  ldd.b a9 a0 0x4a;
    b2b4:	0a 0a             	  mvi a10 0xa;
    b2b6:	33 94 00 7a       	  cmpbrne.b a9 0x0 0xb330;
    b2ba:	d9 b4 2b 00 00    	  mvi a9 0x2bb4;
    b2bf:	bf 99             	  ldd.w a9 a9;
    b2c1:	f0 f4 ff          	  and a15 0xff;
    b2c4:	c7 99 e8          	  uxtr a9 a9 0xe8;
    b2c7:	b6 94 06          	  lsl.w a9 0x6;
    b2ca:	bc f9 f0          	  add.w a15 a15 a9;
    b2cd:	b0 f6 3f          	  cmp.w a15 0x3f;
    b2d0:	f4 0c 5e          	  brgt 0xb32e;
    b2d3:	0a 03             	  mvi a10 0x3;
    b2d5:	33 e4 0c 5b       	  cmpbrne.b a14 0xc 0xb330;
    b2d9:	90 f9 04          	  add.w a9 a15 0x4;
    b2dc:	b1 96 40 00       	  cmp.w a9 0x40;
    b2e0:	f4 0c 4e          	  brgt 0xb32e;
    b2e3:	94 f9 02          	  lsl.w a9 a15 0x2;
    b2e6:	df c0 2b 00 00    	  mvi a15 0x2bc0;
    b2eb:	bc 9f 90          	  add.w a9 a9 a15;
    b2ee:	7f 9f             	  ldd.h a15 a9;
    b2f0:	58 9a 01          	  ldd.h a10 a9 0x2;
    b2f3:	0d 08             	  mvi a13 0x8;
    b2f5:	73 f4 02 1b       	  cmpbrne.h a15 0x2 0xb310;
    b2f9:	98 09 04          	  ldd.w a9 a0 0x10;
    b2fc:	0d 29             	  mvi a13 0x29;
    b2fe:	f0 94 80          	  and a9 0x80;
    b301:	33 90 00 0f       	  cmpbreq.b a9 0x0 0xb310;
    b305:	7e a1 8f 00       	  call 0x8fa1;
    b309:	09 01             	  mvi a9 0x1;
    b30b:	3d d4             	  clr.b a13;
    b30d:	35 09 50          	  std.b a0 0x50 a9;
    b310:	df f4 2a 00 00    	  mvi a15 0x2af4;
    b315:	18 fe 49          	  ldd.b a14 a15 0x49;
    b318:	c4 d9 ff          	  and a9 a13 0xff;
    b31b:	b5 f9 13          	  std.w a15 0x4c a9;
    b31e:	09 02             	  mvi a9 0x2;
    b320:	35 f9 4a          	  std.b a15 0x4a a9;
    b323:	f0 e4 ff          	  and a14 0xff;
    b326:	0a 1c             	  mvi a10 0x1c;
    b328:	a0 1e             	  std.w a1 a14;
    b32a:	3e 30 b3 00       	  jmp 0xb330;
    b32e:	0a 04             	  mvi a10 0x4;
    b330:	fe 49 01          	  rspr a9 SP;
    b333:	90 99 08          	  add.w a9 a9 0x8;
    b336:	bf 9f             	  ldd.w a15 a9;
    b338:	d9 2c 06 00 00    	  mvi a9 0x62c;
    b33d:	bf 99             	  ldd.w a9 a9;
    b33f:	a6 f9             	  cmp.w a15 a9;
    b341:	f4 0b 07          	  breq 0xb348;
    b344:	7e e9 42 00       	  call 0x42e9;
    b348:	fb 15 04          	  popma a1 0x1 0x4;

0000b34b <_smbpbiHandleScratchRegAccess>:
    b34b:	f4 30 fc          	  addsp -0x4;
    b34e:	df 2c 06 00 00    	  mvi a15 0x62c;
    b353:	f9 22             	  pushm a2;
    b355:	bf ff             	  ldd.w a15 a15;
    b357:	fe 49 01          	  rspr a9 SP;
    b35a:	90 99 0c          	  add.w a9 a9 0xc;
    b35d:	b2 b2             	  mv.w a2 a11;
    b35f:	a0 9f             	  std.w a9 a15;
    b361:	b2 ad             	  mv.w a13 a10;
    b363:	c7 a0 e8          	  uxtr a0 a10 0xe8;
    b366:	bf bb             	  ldd.w a11 a11;
    b368:	b0 06 3f          	  cmp.w a0 0x3f;
    b36b:	f5 0c cc 00       	  brgt 0xb437;
    b36f:	c4 bc ff          	  and a12 a11 0xff;
    b372:	c4 ae ff          	  and a14 a10 0xff;
    b375:	b3 e4 0f 0d       	  cmpbrne.w a14 0xf 0xb382;
    b379:	0a 05             	  mvi a10 0x5;
    b37b:	b0 c6 3f          	  cmp.w a12 0x3f;
    b37e:	f5 0c bb 00       	  brgt 0xb439;
    b382:	d9 b4 2b 00 00    	  mvi a9 0x2bb4;
    b387:	bf 99             	  ldd.w a9 a9;
    b389:	c4 9f ff          	  and a15 a9 0xff;
    b38c:	c7 99 e8          	  uxtr a9 a9 0xe8;
    b38f:	94 f1 06          	  lsl.w a1 a15 0x6;
    b392:	b6 94 06          	  lsl.w a9 0x6;
    b395:	b3 e0 0e 2c       	  cmpbreq.w a14 0xe 0xb3c1;
    b399:	b3 e0 0f 44       	  cmpbreq.w a14 0xf 0xb3dd;
    b39d:	0a 1f             	  mvi a10 0x1f;
    b39f:	b3 ed 0d 9a 00    	  cmpbrne.w a14 0xd 0xb439;
    b3a4:	7c 09 90          	  add.h a9 a0 a9;
    b3a7:	71 96 ff 00       	  cmp.h a9 0xff;
    b3ab:	f5 0c 8c 00       	  brgt 0xb437;
    b3af:	e4 9f ff ff       	  and a15 a9 0xffff;
    b3b3:	d9 c0 2b 00 00    	  mvi a9 0x2bc0;
    b3b8:	bc 9f f8          	  ldd.w a15 a9 a15;
    b3bb:	a0 2f             	  std.w a2 a15;
    b3bd:	3e d7 b3 00       	  jmp 0xb3d7;
    b3c1:	7c 01 90          	  add.h a9 a0 a1;
    b3c4:	71 96 ff 00       	  cmp.h a9 0xff;
    b3c8:	f4 0c 6f          	  brgt 0xb437;
    b3cb:	e4 9f ff ff       	  and a15 a9 0xffff;
    b3cf:	d9 c0 2b 00 00    	  mvi a9 0x2bc0;
    b3d4:	bc 9b f9          	  std.w a9 a15 a11;
    b3d7:	0a 1f             	  mvi a10 0x1f;
    b3d9:	3e 39 b4 00       	  jmp 0xb439;
    b3dd:	bc c9 f0          	  add.w a15 a12 a9;
    b3e0:	0a 05             	  mvi a10 0x5;
    b3e2:	c7 d9 f0          	  uxtr a9 a13 0xf0;
    b3e5:	94 fb 02          	  lsl.w a11 a15 0x2;
    b3e8:	90 99 01          	  add.w a9 a9 0x1;
    b3eb:	94 9c 02          	  lsl.w a12 a9 0x2;
    b3ee:	bc cb e0          	  add.w a14 a12 a11;
    b3f1:	b1 e6 00 10       	  cmp.w a14 0x1000;
    b3f5:	f4 0c 44          	  brgt 0xb439;
    b3f8:	bc 01 90          	  add.w a9 a0 a1;
    b3fb:	0a 03             	  mvi a10 0x3;
    b3fd:	b6 94 02          	  lsl.w a9 0x2;
    b400:	bc c9 f0          	  add.w a15 a12 a9;
    b403:	b1 f6 00 10       	  cmp.w a15 0x1000;
    b407:	f4 0c 32          	  brgt 0xb439;
    b40a:	a6 9b             	  cmp.w a9 a11;
    b40c:	f4 08 08          	  brc 0xb414;
    b40f:	a6 9e             	  cmp.w a9 a14;
    b411:	f4 08 20          	  brc 0xb431;
    b414:	a6 b9             	  cmp.w a11 a9;
    b416:	f4 0d 08          	  brlte 0xb41e;
    b419:	a6 bf             	  cmp.w a11 a15;
    b41b:	f4 08 16          	  brc 0xb431;
    b41e:	df c0 2b 00 00    	  mvi a15 0x2bc0;
    b423:	bc 9f a0          	  add.w a10 a9 a15;
    b426:	bc bf b0          	  add.w a11 a11 a15;
    b429:	7e 7e 0b 00       	  call 0xb7e;
    b42d:	3e d7 b3 00       	  jmp 0xb3d7;
    b431:	0a 04             	  mvi a10 0x4;
    b433:	3e 39 b4 00       	  jmp 0xb439;
    b437:	0a 03             	  mvi a10 0x3;
    b439:	fe 49 01          	  rspr a9 SP;
    b43c:	90 99 0c          	  add.w a9 a9 0xc;
    b43f:	bf 9f             	  ldd.w a15 a9;
    b441:	d9 2c 06 00 00    	  mvi a9 0x62c;
    b446:	bf 99             	  ldd.w a9 a9;
    b448:	a6 f9             	  cmp.w a15 a9;
    b44a:	f4 0b 07          	  breq 0xb451;
    b44d:	7e e9 42 00       	  call 0x42e9;
    b451:	fb 25 04          	  popma a2 0x1 0x4;

0000b454 <_smbpbiScratchRW>:
    b454:	df 2c 06 00 00    	  mvi a15 0x62c;
    b459:	bf ff             	  ldd.w a15 a15;
    b45b:	f4 30 fc          	  addsp -0x4;
    b45e:	fe 49 01          	  rspr a9 SP;
    b461:	a0 9f             	  std.w a9 a15;
    b463:	b2 c9             	  mv.w a9 a12;
    b465:	b1 a6 ff 0f       	  cmp.w a10 0xfff;
    b469:	f4 0c 2d          	  brgt 0xb496;
    b46c:	bc 9a 90          	  add.w a9 a9 a10;
    b46f:	b1 96 00 10       	  cmp.w a9 0x1000;
    b473:	f4 0c 23          	  brgt 0xb496;
    b476:	de c0 2b 00 00    	  mvi a14 0x2bc0;
    b47b:	bc ae 90          	  add.w a9 a10 a14;
    b47e:	33 d0 00 0a       	  cmpbreq.b a13 0x0 0xb488;
    b482:	b2 9a             	  mv.w a10 a9;
    b484:	3e 8c b4 00       	  jmp 0xb48c;
    b488:	b2 ba             	  mv.w a10 a11;
    b48a:	b2 9b             	  mv.w a11 a9;
    b48c:	7e 7e 0b 00       	  call 0xb7e;
    b490:	0a 1f             	  mvi a10 0x1f;
    b492:	3e 98 b4 00       	  jmp 0xb498;
    b496:	0a 04             	  mvi a10 0x4;
    b498:	fe 49 01          	  rspr a9 SP;
    b49b:	bf 9f             	  ldd.w a15 a9;
    b49d:	d9 2c 06 00 00    	  mvi a9 0x62c;
    b4a2:	bf 99             	  ldd.w a9 a9;
    b4a4:	a6 f9             	  cmp.w a15 a9;
    b4a6:	f4 0b 07          	  breq 0xb4ad;
    b4a9:	7e e9 42 00       	  call 0x42e9;
    b4ad:	f4 30 04          	  addsp 0x4;
    b4b0:	f8 00             	  ret;

0000b4b2 <_s_smbpbiApplyRule>:
    b4b2:	f4 30 e4          	  addsp -0x1c;
    b4b5:	df 2c 06 00 00    	  mvi a15 0x62c;
    b4ba:	f9 12             	  pushm a1;
    b4bc:	bf ff             	  ldd.w a15 a15;
    b4be:	fe 49 01          	  rspr a9 SP;
    b4c1:	90 99 20          	  add.w a9 a9 0x20;
    b4c4:	b2 a0             	  mv.w a0 a10;
    b4c6:	a0 9f             	  std.w a9 a15;
    b4c8:	b2 d1             	  mv.w a1 a13;
    b4ca:	f0 b4 ff          	  and a11 0xff;
    b4cd:	b2 ed             	  mv.w a13 a14;
    b4cf:	b4 a0 0a          	  lddsp.w a10 0x28;
    b4d2:	b4 e0 0b          	  lddsp.w a14 0x2c;
    b4d5:	c4 09 07          	  and a9 a0 0x7;
    b4d8:	a6 9b             	  cmp.w a9 a11;
    b4da:	f4 1b 75          	  brne 0xb54f;
    b4dd:	c7 0f 2f          	  uxtr a15 a0 0x2f;
    b4e0:	fe 49 01          	  rspr a9 SP;
    b4e3:	90 99 08          	  add.w a9 a9 0x8;
    b4e6:	a0 9d             	  std.w a9 a13;
    b4e8:	b5 9e 02          	  std.w a9 0x8 a14;
    b4eb:	b5 9a 01          	  std.w a9 0x4 a10;
    b4ee:	bc 9f b8          	  ldd.w a11 a9 a15;
    b4f1:	bd 94             	  clr.w a9;
    b4f3:	fe 4f 01          	  rspr a15 SP;
    b4f6:	90 ff 14          	  add.w a15 a15 0x14;
    b4f9:	a0 f9             	  std.w a15 a9;
    b4fb:	b5 fc 01          	  std.w a15 0x4 a12;
    b4fe:	b5 f1 02          	  std.w a15 0x8 a1;
    b501:	c7 09 23          	  uxtr a9 a0 0x23;
    b504:	bf ba             	  ldd.w a10 a11;
    b506:	bc f9 c8          	  ldd.w a12 a15 a9;
    b509:	c7 0f 85          	  uxtr a15 a0 0x85;
    b50c:	c7 09 8a          	  uxtr a9 a0 0x8a;
    b50f:	3c 9f e0          	  add.b a14 a9 a15;
    b512:	f0 f4 1f          	  and a15 0x1f;
    b515:	c7 0d 91          	  uxtr a13 a0 0x91;
    b518:	bb cf 05          	  lsr.w a12 a15;
    b51b:	3c d9 90          	  add.b a9 a13 a9;
    b51e:	b9 ee 00          	  cpl.w a14 a14;
    b521:	f0 d4 1f          	  and a13 0x1f;
    b524:	f0 e4 1f          	  and a14 0x1f;
    b527:	b9 99 00          	  cpl.w a9 a9;
    b52a:	bc ef e0          	  add.w a14 a14 a15;
    b52d:	f0 94 1f          	  and a9 0x1f;
    b530:	0f ff             	  mvi a15 -0x1;
    b532:	bc 9d 90          	  add.w a9 a9 a13;
    b535:	bc f9 95          	  lsr.w a9 a15 a9;
    b538:	bb fe 05          	  lsr.w a15 a14;
    b53b:	bb 9d 04          	  lsl.w a9 a13;
    b53e:	fd fc 04          	  and a15 a12;
    b541:	b9 99 00          	  cpl.w a9 a9;
    b544:	bb fd 04          	  lsl.w a15 a13;
    b547:	fd 9a 04          	  and a9 a10;
    b54a:	fd 9f 05          	  or a9 a15;
    b54d:	a0 b9             	  std.w a11 a9;
    b54f:	fe 49 01          	  rspr a9 SP;
    b552:	90 99 20          	  add.w a9 a9 0x20;
    b555:	bf 9f             	  ldd.w a15 a9;
    b557:	d9 2c 06 00 00    	  mvi a9 0x62c;
    b55c:	bf 99             	  ldd.w a9 a9;
    b55e:	a6 f9             	  cmp.w a15 a9;
    b560:	f4 0b 07          	  breq 0xb567;
    b563:	7e e9 42 00       	  call 0x42e9;
    b567:	fb 15 1c          	  popma a1 0x1 0x1c;

0000b56a <_s_smbpbiBundleRulesCheck>:
    b56a:	f4 30 f4          	  addsp -0xc;
    b56d:	d9 2c 06 00 00    	  mvi a9 0x62c;
    b572:	f9 82             	  pushm a8;
    b574:	bf 99             	  ldd.w a9 a9;
    b576:	b2 d1             	  mv.w a1 a13;
    b578:	fe 4f 01          	  rspr a15 SP;
    b57b:	90 ff 2c          	  add.w a15 a15 0x2c;
    b57e:	a0 f9             	  std.w a15 a9;
    b580:	3f dd             	  ldd.b a13 a13;
    b582:	92 ff 03          	  sub.w a15 a15 0x3;
    b585:	00 1f             	  mvi a0 0x1f;
    b587:	09 17             	  mvi a9 0x17;
    b589:	35 f0 01          	  std.b a15 0x1 a0;
    b58c:	35 f0 02          	  std.b a15 0x2 a0;
    b58f:	20 f9             	  std.b a15 a9;
    b591:	b2 b6             	  mv.w a6 a11;
    b593:	b2 e3             	  mv.w a3 a14;
    b595:	b2 a5             	  mv.w a5 a10;
    b597:	33 d4 00 19       	  cmpbrne.b a13 0x0 0xb5b0;
    b59b:	db 74 05 00 00    	  mvi a11 0x574;
    b5a0:	0c 24             	  mvi a12 0x24;
    b5a2:	7e 7e 0b 00       	  call 0xb7e;
    b5a6:	09 09             	  mvi a9 0x9;
    b5a8:	32 0a             	  mv.b a10 a0;
    b5aa:	20 19             	  std.b a1 a9;
    b5ac:	3e 2d b6 00       	  jmp 0xb62d;
    b5b0:	0a 03             	  mvi a10 0x3;
    b5b2:	30 d6 09          	  cmp.b a13 0x9;
    b5b5:	f4 0c 78          	  brgt 0xb62d;
    b5b8:	fe 47 01          	  rspr a7 SP;
    b5bb:	c4 c4 ff          	  and a4 a12 0xff;
    b5be:	b2 f8             	  mv.w a8 a15;
    b5c0:	3d 04             	  clr.b a0;
    b5c2:	90 77 24          	  add.w a7 a7 0x24;
    b5c5:	3e 24 b6 00       	  jmp 0xb624;
    b5c9:	c4 09 ff          	  and a9 a0 0xff;
    b5cc:	b2 7b             	  mv.w a11 a7;
    b5ce:	94 92 02          	  lsl.w a2 a9 0x2;
    b5d1:	0c 04             	  mvi a12 0x4;
    b5d3:	bc 26 a0          	  add.w a10 a2 a6;
    b5d6:	3d d4             	  clr.b a13;
    b5d8:	7e 54 b4 00       	  call 0xb454;
    b5dc:	33 a4 1f 6b       	  cmpbrne.b a10 0x1f 0xb647;
    b5e0:	bf 7f             	  ldd.w a15 a7;
    b5e2:	c4 f9 07          	  and a9 a15 0x7;
    b5e5:	a6 94             	  cmp.w a9 a4;
    b5e7:	f4 18 5e          	  brnc 0xb645;
    b5ea:	c7 f9 23          	  uxtr a9 a15 0x23;
    b5ed:	12 99 01          	  sub.b a9 a9 0x1;
    b5f0:	30 96 01          	  cmp.b a9 0x1;
    b5f3:	f4 0c 52          	  brgt 0xb645;
    b5f6:	c7 fe 2f          	  uxtr a14 a15 0x2f;
    b5f9:	c4 e9 ff          	  and a9 a14 0xff;
    b5fc:	3c 89 c8          	  ldd.b a12 a8 a9;
    b5ff:	c7 fd 8a          	  uxtr a13 a15 0x8a;
    b602:	c7 f9 85          	  uxtr a9 a15 0x85;
    b605:	3c d9 90          	  add.b a9 a13 a9;
    b608:	26 9c             	  cmp.b a9 a12;
    b60a:	f4 0c 3b          	  brgt 0xb645;
    b60d:	33 e0 03 38       	  cmpbreq.b a14 0x3 0xb645;
    b611:	c7 f9 91          	  uxtr a9 a15 0x91;
    b614:	3c 9d 90          	  add.b a9 a9 a13;
    b617:	26 9c             	  cmp.b a9 a12;
    b619:	f4 0c 2c          	  brgt 0xb645;
    b61c:	bc 52 90          	  add.w a9 a5 a2;
    b61f:	10 00 01          	  add.b a0 a0 0x1;
    b622:	a0 9f             	  std.w a9 a15;
    b624:	3f 19             	  ldd.b a9 a1;
    b626:	26 09             	  cmp.b a0 a9;
    b628:	f4 08 a1          	  brc 0xb5c9;
    b62b:	0a 1f             	  mvi a10 0x1f;
    b62d:	fe 49 01          	  rspr a9 SP;
    b630:	90 99 2c          	  add.w a9 a9 0x2c;
    b633:	bf 9f             	  ldd.w a15 a9;
    b635:	d9 2c 06 00 00    	  mvi a9 0x62c;
    b63a:	bf 99             	  ldd.w a9 a9;
    b63c:	a6 f9             	  cmp.w a15 a9;
    b63e:	f4 0b 23          	  breq 0xb661;
    b641:	3e 5d b6 00       	  jmp 0xb65d;
    b645:	0a 0d             	  mvi a10 0xd;
    b647:	bf 39             	  ldd.w a9 a3;
    b649:	c4 0f ff          	  and a15 a0 0xff;
    b64c:	de 00 00 00 ff    	  mvi a14 -0x1000000;
    b651:	fd 9e 04          	  and a9 a14;
    b654:	fd f9 05          	  or a15 a9;
    b657:	a0 3f             	  std.w a3 a15;
    b659:	3e 2d b6 00       	  jmp 0xb62d;
    b65d:	7e e9 42 00       	  call 0x42e9;
    b661:	fb 85 0c          	  popma a8 0x1 0xc;

0000b664 <_smbpbiBundleLaunch>:
    b664:	f4 30 a8          	  addsp -0x58;
    b667:	d9 2c 06 00 00    	  mvi a9 0x62c;
    b66c:	f9 82             	  pushm a8;
    b66e:	bf 99             	  ldd.w a9 a9;
    b670:	f4 30 f8          	  addsp -0x8;
    b673:	b2 a7             	  mv.w a7 a10;
    b675:	fe 4f 01          	  rspr a15 SP;
    b678:	90 ff 80          	  add.w a15 a15 0x80;
    b67b:	a0 f9             	  std.w a15 a9;
    b67d:	bf aa             	  ldd.w a10 a10;
    b67f:	b0 b1 0e          	  stdsp.w a11 0x38;
    b682:	b0 c1 0d          	  stdsp.w a12 0x34;
    b685:	c7 a6 68          	  uxtr a6 a10 0x68;
    b688:	12 69 01          	  sub.b a9 a6 0x1;
    b68b:	30 96 03          	  cmp.b a9 0x3;
    b68e:	f5 0c 3b 01       	  brgt 0xb7c9;
    b692:	c7 a9 6c          	  uxtr a9 a10 0x6c;
    b695:	30 96 0a          	  cmp.b a9 0xa;
    b698:	f5 0c 31 01       	  brgt 0xb7c9;
    b69c:	fe 41 01          	  rspr a1 SP;
    b69f:	fe 40 01          	  rspr a0 SP;
    b6a2:	90 11 57          	  add.w a1 a1 0x57;
    b6a5:	90 00 50          	  add.w a0 a0 0x50;
    b6a8:	b6 a5 10          	  lsr.w a10 0x10;
    b6ab:	20 19             	  std.b a1 a9;
    b6ad:	bd b4             	  clr.w a11;
    b6af:	b2 0c             	  mv.w a12 a0;
    b6b1:	7e a2 b1 00       	  call 0xb1a2;
    b6b5:	33 ad 1f 1d 01    	  cmpbrne.b a10 0x1f 0xb7d2;
    b6ba:	bf 09             	  ldd.w a9 a0;
    b6bc:	fe 42 01          	  rspr a2 SP;
    b6bf:	c4 6b ff          	  and a11 a6 0xff;
    b6c2:	90 22 58          	  add.w a2 a2 0x58;
    b6c5:	b6 b4 04          	  lsl.w a11 0x4;
    b6c8:	b2 2a             	  mv.w a10 a2;
    b6ca:	bc b9 b0          	  add.w a11 a11 a9;
    b6cd:	32 6c             	  mv.b a12 a6;
    b6cf:	b2 1d             	  mv.w a13 a1;
    b6d1:	b2 7e             	  mv.w a14 a7;
    b6d3:	7e 6a b5 00       	  call 0xb56a;
    b6d7:	30 a1 3f          	  stdsp.b a10 0x3f;
    b6da:	33 ad 1f f5 00    	  cmpbrne.b a10 0x1f 0xb7cf;
    b6df:	fe 41 01          	  rspr a1 SP;
    b6e2:	08 01             	  mvi a8 0x1;
    b6e4:	90 11 40          	  add.w a1 a1 0x40;
    b6e7:	3d 24             	  clr.b a2;
    b6e9:	90 19 08          	  add.w a9 a1 0x8;
    b6ec:	90 1e 0c          	  add.w a14 a1 0xc;
    b6ef:	3d 34             	  clr.b a3;
    b6f1:	bd 54             	  clr.w a5;
    b6f3:	b0 91 0c          	  stdsp.w a9 0x30;
    b6f6:	b0 e1 0b          	  stdsp.w a14 0x2c;
    b6f9:	3e b9 b7 00       	  jmp 0xb7b9;
    b6fd:	b4 90 14          	  lddsp.w a9 0x50;
    b700:	b2 1b             	  mv.w a11 a1;
    b702:	0c 10             	  mvi a12 0x10;
    b704:	3d d4             	  clr.b a13;
    b706:	bc 59 40          	  add.w a4 a5 a9;
    b709:	b2 4a             	  mv.w a10 a4;
    b70b:	7e 54 b4 00       	  call 0xb454;
    b70f:	33 ad 1f c3 00    	  cmpbrne.b a10 0x1f 0xb7d2;
    b714:	bf 19             	  ldd.w a9 a1;
    b716:	98 1f 01          	  ldd.w a15 a1 0x4;
    b719:	de ff ff ff e0    	  mvi a14 -0x1f000001;
    b71e:	fd 9e 04          	  and a9 a14;
    b721:	b5 1f 02          	  std.w a1 0x8 a15;
    b724:	a0 19             	  std.w a1 a9;
    b726:	33 20 00 0a       	  cmpbreq.b a2 0x0 0xb730;
    b72a:	3d 04             	  clr.b a0;
    b72c:	3e 53 b7 00       	  jmp 0xb753;
    b730:	b4 b0 0c          	  lddsp.w a11 0x30;
    b733:	b4 c0 0b          	  lddsp.w a12 0x2c;
    b736:	b2 1a             	  mv.w a10 a1;
    b738:	7e ff a9 00       	  call 0xa9ff;
    b73c:	bf 1f             	  ldd.w a15 a1;
    b73e:	32 a0             	  mv.b a0 a10;
    b740:	de ff ff ff e0    	  mvi a14 -0x1f000001;
    b745:	c4 09 1f          	  and a9 a0 0x1f;
    b748:	fd fe 04          	  and a15 a14;
    b74b:	b6 94 18          	  lsl.w a9 0x18;
    b74e:	fd 9f 05          	  or a9 a15;
    b751:	a0 19             	  std.w a1 a9;
    b753:	b2 4a             	  mv.w a10 a4;
    b755:	b2 1b             	  mv.w a11 a1;
    b757:	0c 10             	  mvi a12 0x10;
    b759:	0d 01             	  mvi a13 0x1;
    b75b:	7e 54 b4 00       	  call 0xb454;
    b75f:	33 a4 1f 73       	  cmpbrne.b a10 0x1f 0xb7d2;
    b763:	33 20 00 0a       	  cmpbreq.b a2 0x0 0xb76d;
    b767:	02 01             	  mvi a2 0x1;
    b769:	3e b3 b7 00       	  jmp 0xb7b3;
    b76d:	33 04 1f 3f       	  cmpbrne.b a0 0x1f 0xb7ac;
    b771:	3d 04             	  clr.b a0;
    b773:	3e a0 b7 00       	  jmp 0xb7a0;
    b777:	c4 09 ff          	  and a9 a0 0xff;
    b77a:	98 1c 02          	  ldd.w a12 a1 0x8;
    b77d:	98 1d 03          	  ldd.w a13 a1 0xc;
    b780:	b4 e0 0d          	  lddsp.w a14 0x34;
    b783:	fe 4f 01          	  rspr a15 SP;
    b786:	90 ff 58          	  add.w a15 a15 0x58;
    b789:	bc f9 a8          	  ldd.w a10 a15 a9;
    b78c:	b4 90 0e          	  lddsp.w a9 0x38;
    b78f:	b0 e1 01          	  stdsp.w a14 0x4;
    b792:	10 00 01          	  add.b a0 a0 0x1;
    b795:	32 3b             	  mv.b a11 a3;
    b797:	b0 91 00          	  stdsp.w a9 0x0;
    b79a:	b2 7e             	  mv.w a14 a7;
    b79c:	7e b2 b4 00       	  call 0xb4b2;
    b7a0:	34 90 57          	  lddsp.b a9 0x57;
    b7a3:	26 09             	  cmp.b a0 a9;
    b7a5:	f4 08 d2          	  brc 0xb777;
    b7a8:	3e b3 b7 00       	  jmp 0xb7b3;
    b7ac:	bf 19             	  ldd.w a9 a1;
    b7ae:	3d 84             	  clr.b a8;
    b7b0:	95 92 1f          	  lsr.w a2 a9 0x1f;
    b7b3:	10 33 01          	  add.b a3 a3 0x1;
    b7b6:	90 55 10          	  add.w a5 a5 0x10;
    b7b9:	26 36             	  cmp.b a3 a6;
    b7bb:	f5 08 42 ff       	  brc 0xb6fd;
    b7bf:	0a 1b             	  mvi a10 0x1b;
    b7c1:	33 80 00 11       	  cmpbreq.b a8 0x0 0xb7d2;
    b7c5:	3e cf b7 00       	  jmp 0xb7cf;
    b7c9:	0a 03             	  mvi a10 0x3;
    b7cb:	3e d2 b7 00       	  jmp 0xb7d2;
    b7cf:	34 a0 3f          	  lddsp.b a10 0x3f;
    b7d2:	fe 49 01          	  rspr a9 SP;
    b7d5:	90 99 80          	  add.w a9 a9 0x80;
    b7d8:	bf 9f             	  ldd.w a15 a9;
    b7da:	d9 2c 06 00 00    	  mvi a9 0x62c;
    b7df:	bf 99             	  ldd.w a9 a9;
    b7e1:	a6 f9             	  cmp.w a15 a9;
    b7e3:	f4 0b 07          	  breq 0xb7ea;
    b7e6:	7e e9 42 00       	  call 0x42e9;
    b7ea:	f4 30 08          	  addsp 0x8;
    b7ed:	fb 85 58          	  popma a8 0x1 0x58;

0000b7f0 <_smbpbiDemEventSource>:
    b7f0:	f4 30 f4          	  addsp -0xc;
    b7f3:	df 2c 06 00 00    	  mvi a15 0x62c;
    b7f8:	f9 12             	  pushm a1;
    b7fa:	bf ff             	  ldd.w a15 a15;
    b7fc:	fe 49 01          	  rspr a9 SP;
    b7ff:	90 99 10          	  add.w a9 a9 0x10;
    b802:	fe 41 01          	  rspr a1 SP;
    b805:	a0 9f             	  std.w a9 a15;
    b807:	90 11 0c          	  add.w a1 a1 0xc;
    b80a:	4a b8 00          	  mvi a10 0xb8;
    b80d:	0b 04             	  mvi a11 0x4;
    b80f:	b2 1c             	  mv.w a12 a1;
    b811:	7e c8 a8 00       	  call 0xa8c8;
    b815:	33 a4 1f 2b       	  cmpbrne.b a10 0x1f 0xb840;
    b819:	fe 40 01          	  rspr a0 SP;
    b81c:	4a b4 00          	  mvi a10 0xb4;
    b81f:	90 00 08          	  add.w a0 a0 0x8;
    b822:	0b 04             	  mvi a11 0x4;
    b824:	b2 0c             	  mv.w a12 a0;
    b826:	7e c8 a8 00       	  call 0xa8c8;
    b82a:	33 a4 1f 16       	  cmpbrne.b a10 0x1f 0xb840;
    b82e:	bf 19             	  ldd.w a9 a1;
    b830:	bf 0f             	  ldd.w a15 a0;
    b832:	a6 9f             	  cmp.w a9 a15;
    b834:	f0 9c 0b          	  sgetb a9 0xb;
    b837:	f0 96 01          	  xor a9 0x1;
    b83a:	32 9a             	  mv.b a10 a9;
    b83c:	3e 42 b8 00       	  jmp 0xb842;
    b840:	3d a4             	  clr.b a10;
    b842:	fe 49 01          	  rspr a9 SP;
    b845:	90 99 10          	  add.w a9 a9 0x10;
    b848:	bf 9f             	  ldd.w a15 a9;
    b84a:	d9 2c 06 00 00    	  mvi a9 0x62c;
    b84f:	bf 99             	  ldd.w a9 a9;
    b851:	a6 f9             	  cmp.w a15 a9;
    b853:	f4 0b 07          	  breq 0xb85a;
    b856:	7e e9 42 00       	  call 0x42e9;
    b85a:	fb 15 0c          	  popma a1 0x1 0xc;

0000b85d <_smbpbiInitDem>:
    b85d:	f4 30 fc          	  addsp -0x4;
    b860:	f9 12             	  pushm a1;
    b862:	d1 2c 06 00 00    	  mvi a1 0x62c;
    b867:	98 a9 04          	  ldd.w a9 a10 0x10;
    b86a:	bf 1f             	  ldd.w a15 a1;
    b86c:	fe 40 01          	  rspr a0 SP;
    b86f:	90 00 08          	  add.w a0 a0 0x8;
    b872:	f0 95 20          	  or a9 0x20;
    b875:	a0 0f             	  std.w a0 a15;
    b877:	b5 a9 04          	  std.w a10 0x10 a9;
    b87a:	90 ac 59          	  add.w a12 a10 0x59;
    b87d:	0b 01             	  mvi a11 0x1;
    b87f:	4a 90 00          	  mvi a10 0x90;
    b882:	7e c8 a8 00       	  call 0xa8c8;
    b886:	bf 0f             	  ldd.w a15 a0;
    b888:	bf 19             	  ldd.w a9 a1;
    b88a:	a6 f9             	  cmp.w a15 a9;
    b88c:	f4 0b 07          	  breq 0xb893;
    b88f:	7e e9 42 00       	  call 0x42e9;
    b893:	fb 15 04          	  popma a1 0x1 0x4;

0000b896 <_smbpbiGetDem>:
    b896:	f4 30 90          	  addsp -0x70;
    b899:	d9 2c 06 00 00    	  mvi a9 0x62c;
    b89e:	f9 52             	  pushm a5;
    b8a0:	bf 99             	  ldd.w a9 a9;
    b8a2:	fe 4f 01          	  rspr a15 SP;
    b8a5:	90 ff 84          	  add.w a15 a15 0x84;
    b8a8:	0e 03             	  mvi a14 0x3;
    b8aa:	a0 f9             	  std.w a15 a9;
    b8ac:	33 ad 00 05 01    	  cmpbrne.b a10 0x0 0xb9b1;
    b8b1:	d9 f4 2a 00 00    	  mvi a9 0x2af4;
    b8b6:	18 99 59          	  ldd.b a9 a9 0x59;
    b8b9:	33 99 00 f6 00    	  cmpbreq.b a9 0x0 0xb9af;
    b8be:	32 ba             	  mv.b a10 a11;
    b8c0:	fe 4c 01          	  rspr a12 SP;
    b8c3:	bd b4             	  clr.w a11;
    b8c5:	90 cc 20          	  add.w a12 a12 0x20;
    b8c8:	7e a2 b1 00       	  call 0xb1a2;
    b8cc:	32 ae             	  mv.b a14 a10;
    b8ce:	33 ad 1f e3 00    	  cmpbrne.b a10 0x1f 0xb9b1;
    b8d3:	fe 44 01          	  rspr a4 SP;
    b8d6:	4a b8 00          	  mvi a10 0xb8;
    b8d9:	90 44 1c          	  add.w a4 a4 0x1c;
    b8dc:	0b 04             	  mvi a11 0x4;
    b8de:	b2 4c             	  mv.w a12 a4;
    b8e0:	7e c8 a8 00       	  call 0xa8c8;
    b8e4:	32 ae             	  mv.b a14 a10;
    b8e6:	33 ad 1f cb 00    	  cmpbrne.b a10 0x1f 0xb9b1;
    b8eb:	fe 40 01          	  rspr a0 SP;
    b8ee:	4a b4 00          	  mvi a10 0xb4;
    b8f1:	90 00 18          	  add.w a0 a0 0x18;
    b8f4:	0b 04             	  mvi a11 0x4;
    b8f6:	b2 0c             	  mv.w a12 a0;
    b8f8:	7e c8 a8 00       	  call 0xa8c8;
    b8fc:	32 ae             	  mv.b a14 a10;
    b8fe:	33 ad 1f b3 00    	  cmpbrne.b a10 0x1f 0xb9b1;
    b903:	bf 09             	  ldd.w a9 a0;
    b905:	bf 4a             	  ldd.w a10 a4;
    b907:	a6 a9             	  cmp.w a10 a9;
    b909:	f5 0b a6 00       	  breq 0xb9af;
    b90d:	90 aa bc          	  add.w a10 a10 0xbc;
    b910:	fe 40 01          	  rspr a0 SP;
    b913:	0b 01             	  mvi a11 0x1;
    b915:	90 00 27          	  add.w a0 a0 0x27;
    b918:	b2 0c             	  mv.w a12 a0;
    b91a:	7e c8 a8 00       	  call 0xa8c8;
    b91e:	32 ae             	  mv.b a14 a10;
    b920:	33 ad 1f 91 00    	  cmpbrne.b a10 0x1f 0xb9b1;
    b925:	3f 09             	  ldd.b a9 a0;
    b927:	fe 42 01          	  rspr a2 SP;
    b92a:	b2 43             	  mv.w a3 a4;
    b92c:	90 22 28          	  add.w a2 a2 0x28;
    b92f:	f0 94 ff          	  and a9 0xff;
    b932:	45 00 10          	  mvi a5 0x1000;
    b935:	54 91 02          	  lsl.h a1 a9 0x2;
    b938:	3e 75 b9 00       	  jmp 0xb975;
    b93c:	bf 3a             	  ldd.w a10 a3;
    b93e:	e4 1b ff ff       	  and a11 a1 0xffff;
    b942:	bc 5a 92          	  sub.w a9 a5 a10;
    b945:	a6 b9             	  cmp.w a11 a9;
    b947:	f4 0d 05          	  brlte 0xb94c;
    b94a:	b2 9b             	  mv.w a11 a9;
    b94c:	72 b0             	  mv.h a0 a11;
    b94e:	90 aa bc          	  add.w a10 a10 0xbc;
    b951:	f0 b3 00          	  sethi a11 0x0;
    b954:	b2 2c             	  mv.w a12 a2;
    b956:	7e c8 a8 00       	  call 0xa8c8;
    b95a:	e4 0f ff ff       	  and a15 a0 0xffff;
    b95e:	32 ae             	  mv.b a14 a10;
    b960:	33 a4 1f 51       	  cmpbrne.b a10 0x1f 0xb9b1;
    b964:	bf 39             	  ldd.w a9 a3;
    b966:	7b 10 02          	  sub.h a1 a0;
    b969:	bc 2f 20          	  add.w a2 a2 a15;
    b96c:	bc f9 90          	  add.w a9 a15 a9;
    b96f:	f1 94 ff 0f       	  and a9 0xfff;
    b973:	a0 39             	  std.w a3 a9;
    b975:	73 14 00 c7       	  cmpbrne.h a1 0x0 0xb93c;
    b979:	fe 49 01          	  rspr a9 SP;
    b97c:	90 99 20          	  add.w a9 a9 0x20;
    b97f:	bf 9a             	  ldd.w a10 a9;
    b981:	90 99 07          	  add.w a9 a9 0x7;
    b984:	3f 9c             	  ldd.b a12 a9;
    b986:	fe 4b 01          	  rspr a11 SP;
    b989:	0d 01             	  mvi a13 0x1;
    b98b:	90 bb 28          	  add.w a11 a11 0x28;
    b98e:	f0 c4 ff          	  and a12 0xff;
    b991:	b6 c4 02          	  lsl.w a12 0x2;
    b994:	7e 54 b4 00       	  call 0xb454;
    b998:	32 ae             	  mv.b a14 a10;
    b99a:	33 a4 1f 17       	  cmpbrne.b a10 0x1f 0xb9b1;
    b99e:	b2 4c             	  mv.w a12 a4;
    b9a0:	4a b8 00          	  mvi a10 0xb8;
    b9a3:	0b 04             	  mvi a11 0x4;
    b9a5:	7e 38 a7 00       	  call 0xa738;
    b9a9:	32 ae             	  mv.b a14 a10;
    b9ab:	3e b1 b9 00       	  jmp 0xb9b1;
    b9af:	0e 09             	  mvi a14 0x9;
    b9b1:	fe 49 01          	  rspr a9 SP;
    b9b4:	90 99 84          	  add.w a9 a9 0x84;
    b9b7:	bf 9f             	  ldd.w a15 a9;
    b9b9:	d9 2c 06 00 00    	  mvi a9 0x62c;
    b9be:	bf 99             	  ldd.w a9 a9;
    b9c0:	32 ea             	  mv.b a10 a14;
    b9c2:	a6 f9             	  cmp.w a15 a9;
    b9c4:	f4 0b 07          	  breq 0xb9cb;
    b9c7:	7e e9 42 00       	  call 0x42e9;
    b9cb:	fb 55 70          	  popma a5 0x1 0x70;

0000b9ce <_smbpbiOsfpSetCaps>:
    b9ce:	de 2c 06 00 00    	  mvi a14 0x62c;
    b9d3:	bf e9             	  ldd.w a9 a14;
    b9d5:	f4 30 fc          	  addsp -0x4;
    b9d8:	fe 4f 01          	  rspr a15 SP;
    b9db:	a0 f9             	  std.w a15 a9;
    b9dd:	98 a9 04          	  ldd.w a9 a10 0x10;
    b9e0:	bf fd             	  ldd.w a13 a15;
    b9e2:	8f 00 f0 3f       	  mvi a15 0x3ff000;
    b9e6:	fd 9f 05          	  or a9 a15;
    b9e9:	b5 a9 04          	  std.w a10 0x10 a9;
    b9ec:	bf e9             	  ldd.w a9 a14;
    b9ee:	a6 d9             	  cmp.w a13 a9;
    b9f0:	f4 0b 07          	  breq 0xb9f7;
    b9f3:	7e e9 42 00       	  call 0x42e9;
    b9f7:	f4 30 04          	  addsp 0x4;
    b9fa:	f8 00             	  ret;

0000b9fc <__smbpbiOsfpCheckPresent>:
    b9fc:	df 2c 06 00 00    	  mvi a15 0x62c;
    ba01:	bf ff             	  ldd.w a15 a15;
    ba03:	f4 30 fc          	  addsp -0x4;
    ba06:	fe 49 01          	  rspr a9 SP;
    ba09:	b2 ae             	  mv.w a14 a10;
    ba0b:	a0 9f             	  std.w a9 a15;
    ba0d:	0a 04             	  mvi a10 0x4;
    ba0f:	12 bf 10          	  sub.b a15 a11 0x10;
    ba12:	09 ee             	  mvi a9 -0x12;
    ba14:	26 f9             	  cmp.b a15 a9;
    ba16:	f4 0d 30          	  brlte 0xba46;
    ba19:	33 c4 00 0a       	  cmpbrne.b a12 0x0 0xba23;
    ba1d:	7f ea             	  ldd.h a10 a14;
    ba1f:	3e 26 ba 00       	  jmp 0xba26;
    ba23:	58 ea 01          	  ldd.h a10 a14 0x2;
    ba26:	73 a0 00 18       	  cmpbreq.h a10 0x0 0xba3e;
    ba2a:	09 ff             	  mvi a9 -0x1;
    ba2c:	26 b9             	  cmp.b a11 a9;
    ba2e:	f4 0b 16          	  breq 0xba44;
    ba31:	e4 a9 ff ff       	  and a9 a10 0xffff;
    ba35:	bb 9b 05          	  lsr.w a9 a11;
    ba38:	f0 94 01          	  and a9 0x1;
    ba3b:	f4 1b 09          	  brne 0xba44;
    ba3e:	0a 09             	  mvi a10 0x9;
    ba40:	3e 46 ba 00       	  jmp 0xba46;
    ba44:	0a 1f             	  mvi a10 0x1f;
    ba46:	fe 49 01          	  rspr a9 SP;
    ba49:	bf 9f             	  ldd.w a15 a9;
    ba4b:	d9 2c 06 00 00    	  mvi a9 0x62c;
    ba50:	bf 99             	  ldd.w a9 a9;
    ba52:	a6 f9             	  cmp.w a15 a9;
    ba54:	f4 0b 07          	  breq 0xba5b;
    ba57:	7e e9 42 00       	  call 0x42e9;
    ba5b:	f4 30 04          	  addsp 0x4;
    ba5e:	f8 00             	  ret;

0000ba60 <__smbpbiOsfpGetPingPongBuff>:
    ba60:	f4 30 f8          	  addsp -0x8;
    ba63:	df 2c 06 00 00    	  mvi a15 0x62c;
    ba68:	f9 32             	  pushm a3;
    ba6a:	bf ff             	  ldd.w a15 a15;
    ba6c:	fe 49 01          	  rspr a9 SP;
    ba6f:	fe 40 01          	  rspr a0 SP;
    ba72:	90 99 14          	  add.w a9 a9 0x14;
    ba75:	fe 43 01          	  rspr a3 SP;
    ba78:	a0 9f             	  std.w a9 a15;
    ba7a:	b2 a2             	  mv.w a2 a10;
    ba7c:	b2 b1             	  mv.w a1 a11;
    ba7e:	90 00 13          	  add.w a0 a0 0x13;
    ba81:	90 33 12          	  add.w a3 a3 0x12;
    ba84:	4a ec 10          	  mvi a10 0x10ec;
    ba87:	0b 01             	  mvi a11 0x1;
    ba89:	b2 0c             	  mv.w a12 a0;
    ba8b:	7e 08 a8 00       	  call 0xa808;
    ba8f:	33 a4 1f 74       	  cmpbrne.b a10 0x1f 0xbb03;
    ba93:	3f 0a             	  ldd.b a10 a0;
    ba95:	30 a6 01          	  cmp.b a10 0x1;
    ba98:	f4 0c 69          	  brgt 0xbb01;
    ba9b:	b3 20 00 21       	  cmpbreq.w a2 0x0 0xbabc;
    ba9f:	f0 a4 ff          	  and a10 0xff;
    baa2:	94 a9 05          	  lsl.w a9 a10 0x5;
    baa5:	0b 24             	  mvi a11 0x24;
    baa7:	b6 a4 02          	  lsl.w a10 0x2;
    baaa:	b2 2c             	  mv.w a12 a2;
    baac:	bc a9 a0          	  add.w a10 a10 a9;
    baaf:	b8 aa ee 10 00    	  add.w a10 a10 0x10ee;
    bab4:	7e 08 a8 00       	  call 0xa808;
    bab8:	33 a4 1f 4b       	  cmpbrne.b a10 0x1f 0xbb03;
    babc:	b3 10 00 23       	  cmpbreq.w a1 0x0 0xbadf;
    bac0:	3f 0a             	  ldd.b a10 a0;
    bac2:	0b 04             	  mvi a11 0x4;
    bac4:	b2 1c             	  mv.w a12 a1;
    bac6:	f0 a4 ff          	  and a10 0xff;
    bac9:	94 a9 05          	  lsl.w a9 a10 0x5;
    bacc:	b6 a4 02          	  lsl.w a10 0x2;
    bacf:	bc a9 a0          	  add.w a10 a10 a9;
    bad2:	b8 aa ee 10 00    	  add.w a10 a10 0x10ee;
    bad7:	7e 08 a8 00       	  call 0xa808;
    badb:	33 a4 1f 28       	  cmpbrne.b a10 0x1f 0xbb03;
    badf:	4a ec 10          	  mvi a10 0x10ec;
    bae2:	0b 01             	  mvi a11 0x1;
    bae4:	b2 3c             	  mv.w a12 a3;
    bae6:	7e 08 a8 00       	  call 0xa808;
    baea:	33 a4 1f 19       	  cmpbrne.b a10 0x1f 0xbb03;
    baee:	3f 3f             	  ldd.b a15 a3;
    baf0:	30 f6 01          	  cmp.b a15 0x1;
    baf3:	f4 0c 0e          	  brgt 0xbb01;
    baf6:	3f 09             	  ldd.b a9 a0;
    baf8:	26 9f             	  cmp.b a9 a15;
    bafa:	f4 1b 8a          	  brne 0xba84;
    bafd:	3e 03 bb 00       	  jmp 0xbb03;
    bb01:	0a 05             	  mvi a10 0x5;
    bb03:	fe 49 01          	  rspr a9 SP;
    bb06:	90 99 14          	  add.w a9 a9 0x14;
    bb09:	bf 9f             	  ldd.w a15 a9;
    bb0b:	d9 2c 06 00 00    	  mvi a9 0x62c;
    bb10:	bf 99             	  ldd.w a9 a9;
    bb12:	a6 f9             	  cmp.w a15 a9;
    bb14:	f4 0b 07          	  breq 0xbb1b;
    bb17:	7e e9 42 00       	  call 0x42e9;
    bb1b:	fb 35 08          	  popma a3 0x1 0x8;

0000bb1e <_smbpbiOsfpGetXceiverTemperature>:
    bb1e:	f4 30 d8          	  addsp -0x28;
    bb21:	df 2c 06 00 00    	  mvi a15 0x62c;
    bb26:	f9 22             	  pushm a2;
    bb28:	bf ff             	  ldd.w a15 a15;
    bb2a:	fe 49 01          	  rspr a9 SP;
    bb2d:	90 99 30          	  add.w a9 a9 0x30;
    bb30:	32 a1             	  mv.b a1 a10;
    bb32:	a0 9f             	  std.w a9 a15;
    bb34:	d9 f4 2a 00 00    	  mvi a9 0x2af4;
    bb39:	98 99 04          	  ldd.w a9 a9 0x10;
    bb3c:	b2 b2             	  mv.w a2 a11;
    bb3e:	0a 08             	  mvi a10 0x8;
    bb40:	f1 94 00 40       	  and a9 0x4000;
    bb44:	f4 0b 36          	  breq 0xbb7a;
    bb47:	fe 40 01          	  rspr a0 SP;
    bb4a:	bd b4             	  clr.w a11;
    bb4c:	90 00 0c          	  add.w a0 a0 0xc;
    bb4f:	b2 0a             	  mv.w a10 a0;
    bb51:	7e 60 ba 00       	  call 0xba60;
    bb55:	33 a4 1f 25       	  cmpbrne.b a10 0x1f 0xbb7a;
    bb59:	b2 0a             	  mv.w a10 a0;
    bb5b:	32 1b             	  mv.b a11 a1;
    bb5d:	0c 01             	  mvi a12 0x1;
    bb5f:	7e fc b9 00       	  call 0xb9fc;
    bb63:	33 a4 1f 17       	  cmpbrne.b a10 0x1f 0xbb7a;
    bb67:	c4 19 ff          	  and a9 a1 0xff;
    bb6a:	90 99 02          	  add.w a9 a9 0x2;
    bb6d:	bc 99 90          	  add.w a9 a9 a9;
    bb70:	bc 09 90          	  add.w a9 a0 a9;
    bb73:	7f 99             	  ldd.h a9 a9;
    bb75:	f0 92 0f          	  sext a9 0xf;
    bb78:	a0 29             	  std.w a2 a9;
    bb7a:	fe 49 01          	  rspr a9 SP;
    bb7d:	90 99 30          	  add.w a9 a9 0x30;
    bb80:	bf 9f             	  ldd.w a15 a9;
    bb82:	d9 2c 06 00 00    	  mvi a9 0x62c;
    bb87:	bf 99             	  ldd.w a9 a9;
    bb89:	a6 f9             	  cmp.w a15 a9;
    bb8b:	f4 0b 07          	  breq 0xbb92;
    bb8e:	7e e9 42 00       	  call 0x42e9;
    bb92:	fb 25 28          	  popma a2 0x1 0x28;

0000bb95 <_smbpbiOsfpGetHottest>:
    bb95:	f4 30 d8          	  addsp -0x28;
    bb98:	df 2c 06 00 00    	  mvi a15 0x62c;
    bb9d:	f9 62             	  pushm a6;
    bb9f:	bf ff             	  ldd.w a15 a15;
    bba1:	fe 49 01          	  rspr a9 SP;
    bba4:	90 99 40          	  add.w a9 a9 0x40;
    bba7:	b2 b2             	  mv.w a2 a11;
    bba9:	a0 9f             	  std.w a9 a15;
    bbab:	d9 f4 2a 00 00    	  mvi a9 0x2af4;
    bbb0:	98 99 04          	  ldd.w a9 a9 0x10;
    bbb3:	b2 a6             	  mv.w a6 a10;
    bbb5:	b2 c3             	  mv.w a3 a12;
    bbb7:	0b 08             	  mvi a11 0x8;
    bbb9:	f1 94 00 10       	  and a9 0x1000;
    bbbd:	f5 0b e5 00       	  breq 0xbca2;
    bbc1:	bd b4             	  clr.w a11;
    bbc3:	fe 41 01          	  rspr a1 SP;
    bbc6:	90 11 1c          	  add.w a1 a1 0x1c;
    bbc9:	b2 1a             	  mv.w a10 a1;
    bbcb:	7e 60 ba 00       	  call 0xba60;
    bbcf:	32 ab             	  mv.b a11 a10;
    bbd1:	33 ad 1f d1 00    	  cmpbrne.b a10 0x1f 0xbca2;
    bbd6:	0b ff             	  mvi a11 -0x1;
    bbd8:	b2 1a             	  mv.w a10 a1;
    bbda:	0c 01             	  mvi a12 0x1;
    bbdc:	7e fc b9 00       	  call 0xb9fc;
    bbe0:	32 ab             	  mv.b a11 a10;
    bbe2:	33 ad 1f c0 00    	  cmpbrne.b a10 0x1f 0xbca2;
    bbe7:	0b ff             	  mvi a11 -0x1;
    bbe9:	b2 1a             	  mv.w a10 a1;
    bbeb:	3d c4             	  clr.b a12;
    bbed:	7e fc b9 00       	  call 0xb9fc;
    bbf1:	32 ab             	  mv.b a11 a10;
    bbf3:	33 ad 1f af 00    	  cmpbrne.b a10 0x1f 0xbca2;
    bbf8:	58 14 01          	  ldd.h a4 a1 0x2;
    bbfb:	bd 94             	  clr.w a9;
    bbfd:	a0 29             	  std.w a2 a9;
    bbff:	a0 39             	  std.w a3 a9;
    bc01:	90 10 04          	  add.w a0 a1 0x4;
    bc04:	7f 15             	  ldd.h a5 a1;
    bc06:	72 4c             	  mv.h a12 a4;
    bc08:	7d a4             	  clr.h a10;
    bc0a:	4d 00 80          	  mvi a13 -0x8000;
    bc0d:	bd e4             	  clr.w a14;
    bc0f:	01 01             	  mvi a1 0x1;
    bc11:	3e 45 bc 00       	  jmp 0xbc45;
    bc15:	c4 c9 01          	  and a9 a12 0x1;
    bc18:	f4 0b 20          	  breq 0xbc38;
    bc1b:	7f 0f             	  ldd.h a15 a0;
    bc1d:	66 fd             	  cmp.h a15 a13;
    bc1f:	f4 1d 0a          	  brslte 0xbc29;
    bc22:	bc 1e a4          	  lsl.w a10 a1 a14;
    bc25:	3e 3a bc 00       	  jmp 0xbc3a;
    bc29:	66 fd             	  cmp.h a15 a13;
    bc2b:	f4 1b 0d          	  brne 0xbc38;
    bc2e:	bc 1e 94          	  lsl.w a9 a1 a14;
    bc31:	fd a9 05          	  or a10 a9;
    bc34:	3e 3a bc 00       	  jmp 0xbc3a;
    bc38:	72 df             	  mv.h a15 a13;
    bc3a:	90 ee 01          	  add.w a14 a14 0x1;
    bc3d:	76 c5 01          	  lsr.h a12 0x1;
    bc40:	90 00 02          	  add.w a0 a0 0x2;
    bc43:	72 fd             	  mv.h a13 a15;
    bc45:	73 c4 00 d0       	  cmpbrne.h a12 0x0 0xbc15;
    bc49:	bf 6e             	  ldd.w a14 a6;
    bc4b:	f0 d3 00          	  sethi a13 0x0;
    bc4e:	c4 a9 ff          	  and a9 a10 0xff;
    bc51:	df ff ff 00 ff    	  mvi a15 -0xff0001;
    bc56:	b6 94 10          	  lsl.w a9 0x10;
    bc59:	fd ef 04          	  and a14 a15;
    bc5c:	8c 00 00 ff       	  mvi a12 -0x10000;
    bc60:	fd 9e 05          	  or a9 a14;
    bc63:	fd 9c 04          	  and a9 a12;
    bc66:	fd 9d 05          	  or a9 a13;
    bc69:	a0 69             	  std.w a6 a9;
    bc6b:	bf 29             	  ldd.w a9 a2;
    bc6d:	e4 4e ff ff       	  and a14 a4 0xffff;
    bc71:	c7 af e8          	  uxtr a15 a10 0xe8;
    bc74:	94 ed 10          	  lsl.w a13 a14 0x10;
    bc77:	f1 94 00 ff       	  and a9 0xff00;
    bc7b:	fd 9d 05          	  or a9 a13;
    bc7e:	fd f9 05          	  or a15 a9;
    bc81:	a0 2f             	  std.w a2 a15;
    bc83:	e4 59 ff ff       	  and a9 a5 0xffff;
    bc87:	b9 ee 00          	  cpl.w a14 a14;
    bc8a:	ff e9 a4          	  and a10 a14 a9;
    bc8d:	f4 0b 15          	  breq 0xbca2;
    bc90:	bf 39             	  ldd.w a9 a3;
    bc92:	fd 9c 04          	  and a9 a12;
    bc95:	fd 9a 05          	  or a9 a10;
    bc98:	a0 39             	  std.w a3 a9;
    bc9a:	bf 29             	  ldd.w a9 a2;
    bc9c:	f1 95 00 01       	  or a9 0x100;
    bca0:	a0 29             	  std.w a2 a9;
    bca2:	fe 49 01          	  rspr a9 SP;
    bca5:	90 99 40          	  add.w a9 a9 0x40;
    bca8:	bf 9f             	  ldd.w a15 a9;
    bcaa:	d9 2c 06 00 00    	  mvi a9 0x62c;
    bcaf:	bf 99             	  ldd.w a9 a9;
    bcb1:	32 ba             	  mv.b a10 a11;
    bcb3:	a6 f9             	  cmp.w a15 a9;
    bcb5:	f4 0b 07          	  breq 0xbcbc;
    bcb8:	7e e9 42 00       	  call 0x42e9;
    bcbc:	fb 65 28          	  popma a6 0x1 0x28;

0000bcbf <_smbpbiOsfpGetInfo>:
    bcbf:	f4 30 f0          	  addsp -0x10;
    bcc2:	df 2c 06 00 00    	  mvi a15 0x62c;
    bcc7:	f9 62             	  pushm a6;
    bcc9:	bf ff             	  ldd.w a15 a15;
    bccb:	fe 49 01          	  rspr a9 SP;
    bcce:	90 99 28          	  add.w a9 a9 0x28;
    bcd1:	32 a1             	  mv.b a1 a10;
    bcd3:	a0 9f             	  std.w a9 a15;
    bcd5:	32 b0             	  mv.b a0 a11;
    bcd7:	32 c4             	  mv.b a4 a12;
    bcd9:	b2 d5             	  mv.w a5 a13;
    bcdb:	b2 e6             	  mv.w a6 a14;
    bcdd:	30 b6 04          	  cmp.b a11 0x4;
    bce0:	f5 0c 12 01       	  brgt 0xbdf2;
    bce4:	d9 f4 2a 00 00    	  mvi a9 0x2af4;
    bce9:	98 9e 04          	  ldd.w a14 a9 0x10;
    bcec:	c4 b9 ff          	  and a9 a11 0xff;
    bcef:	90 99 11          	  add.w a9 a9 0x11;
    bcf2:	c4 9f 1f          	  and a15 a9 0x1f;
    bcf5:	0a 08             	  mvi a10 0x8;
    bcf7:	bb ef 05          	  lsr.w a14 a15;
    bcfa:	b9 99 00          	  cpl.w a9 a9;
    bcfd:	f0 94 1f          	  and a9 0x1f;
    bd00:	bc 9f 90          	  add.w a9 a9 a15;
    bd03:	0f ff             	  mvi a15 -0x1;
    bd05:	bb f9 05          	  lsr.w a15 a9;
    bd08:	ff fe 34          	  and a3 a15 a14;
    bd0b:	b3 3d 01 e9 00    	  cmpbrne.w a3 0x1 0xbdf4;
    bd10:	bd 94             	  clr.w a9;
    bd12:	fe 4f 01          	  rspr a15 SP;
    bd15:	90 ff 20          	  add.w a15 a15 0x20;
    bd18:	fe 42 01          	  rspr a2 SP;
    bd1b:	b5 f9 01          	  std.w a15 0x4 a9;
    bd1e:	90 22 1c          	  add.w a2 a2 0x1c;
    bd21:	a0 f9             	  std.w a15 a9;
    bd23:	bd a4             	  clr.w a10;
    bd25:	b2 2b             	  mv.w a11 a2;
    bd27:	7e 60 ba 00       	  call 0xba60;
    bd2b:	33 ad 1f c9 00    	  cmpbrne.b a10 0x1f 0xbdf4;
    bd30:	b2 2a             	  mv.w a10 a2;
    bd32:	32 3c             	  mv.b a12 a3;
    bd34:	32 1b             	  mv.b a11 a1;
    bd36:	7e fc b9 00       	  call 0xb9fc;
    bd3a:	33 ad 1f ba 00    	  cmpbrne.b a10 0x1f 0xbdf4;
    bd3f:	33 00 02 46       	  cmpbreq.b a0 0x2 0xbd85;
    bd43:	30 06 02          	  cmp.b a0 0x2;
    bd46:	f4 0c 10          	  brgt 0xbd56;
    bd49:	33 00 00 1a       	  cmpbreq.b a0 0x0 0xbd63;
    bd4d:	33 0d 01 a5 00    	  cmpbrne.b a0 0x1 0xbdf2;
    bd52:	3e 73 bd 00       	  jmp 0xbd73;
    bd56:	33 00 03 41       	  cmpbreq.b a0 0x3 0xbd97;
    bd5a:	33 0d 04 98 00    	  cmpbrne.b a0 0x4 0xbdf2;
    bd5f:	3e a9 bd 00       	  jmp 0xbda9;
    bd63:	c4 19 ff          	  and a9 a1 0xff;
    bd66:	f1 90 26 01       	  mulu a9 0x126;
    bd6a:	b8 9e 36 11 00    	  add.w a14 a9 0x1136;
    bd6f:	3e 7f bd 00       	  jmp 0xbd7f;
    bd73:	c4 19 ff          	  and a9 a1 0xff;
    bd76:	f1 90 26 01       	  mulu a9 0x126;
    bd7a:	b8 9e 46 11 00    	  add.w a14 a9 0x1146;
    bd7f:	0f 10             	  mvi a15 0x10;
    bd81:	3e b8 bd 00       	  jmp 0xbdb8;
    bd85:	c4 19 ff          	  and a9 a1 0xff;
    bd88:	f1 90 26 01       	  mulu a9 0x126;
    bd8c:	0f 04             	  mvi a15 0x4;
    bd8e:	b8 9e 56 11 00    	  add.w a14 a9 0x1156;
    bd93:	3e b8 bd 00       	  jmp 0xbdb8;
    bd97:	c4 19 ff          	  and a9 a1 0xff;
    bd9a:	f1 90 26 01       	  mulu a9 0x126;
    bd9e:	0f 02             	  mvi a15 0x2;
    bda0:	b8 9e 5a 11 00    	  add.w a14 a9 0x115a;
    bda5:	3e b8 bd 00       	  jmp 0xbdb8;
    bda9:	c4 19 ff          	  and a9 a1 0xff;
    bdac:	f1 90 26 01       	  mulu a9 0x126;
    bdb0:	4f 00 01          	  mvi a15 0x100;
    bdb3:	b8 9e 5c 11 00    	  add.w a14 a9 0x115c;
    bdb8:	94 49 03          	  lsl.w a9 a4 0x3;
    bdbb:	0a 04             	  mvi a10 0x4;
    bdbd:	c4 9c f8          	  and a12 a9 0xf8;
    bdc0:	a6 cf             	  cmp.w a12 a15;
    bdc2:	f4 18 32          	  brnc 0xbdf4;
    bdc5:	90 c9 08          	  add.w a9 a12 0x8;
    bdc8:	0b 08             	  mvi a11 0x8;
    bdca:	a6 9f             	  cmp.w a9 a15;
    bdcc:	f4 0d 06          	  brlte 0xbdd2;
    bdcf:	bc fc b2          	  sub.w a11 a15 a12;
    bdd2:	bc ec a0          	  add.w a10 a14 a12;
    bdd5:	fe 40 01          	  rspr a0 SP;
    bdd8:	90 00 20          	  add.w a0 a0 0x20;
    bddb:	b2 0c             	  mv.w a12 a0;
    bddd:	7e 08 a8 00       	  call 0xa808;
    bde1:	33 a4 1f 13       	  cmpbrne.b a10 0x1f 0xbdf4;
    bde5:	bf 09             	  ldd.w a9 a0;
    bde7:	a0 59             	  std.w a5 a9;
    bde9:	98 00 01          	  ldd.w a0 a0 0x4;
    bdec:	a0 60             	  std.w a6 a0;
    bdee:	3e f4 bd 00       	  jmp 0xbdf4;
    bdf2:	0a 03             	  mvi a10 0x3;
    bdf4:	fe 49 01          	  rspr a9 SP;
    bdf7:	90 99 28          	  add.w a9 a9 0x28;
    bdfa:	bf 9f             	  ldd.w a15 a9;
    bdfc:	d9 2c 06 00 00    	  mvi a9 0x62c;
    be01:	bf 99             	  ldd.w a9 a9;
    be03:	a6 f9             	  cmp.w a15 a9;
    be05:	f4 0b 07          	  breq 0xbe0c;
    be08:	7e e9 42 00       	  call 0x42e9;
    be0c:	fb 65 10          	  popma a6 0x1 0x10;

0000be0f <_smbpbiOsfpGetLedState>:
    be0f:	f4 30 e8          	  addsp -0x18;
    be12:	df 2c 06 00 00    	  mvi a15 0x62c;
    be17:	f9 52             	  pushm a5;
    be19:	bf ff             	  ldd.w a15 a15;
    be1b:	fe 49 01          	  rspr a9 SP;
    be1e:	90 99 2c          	  add.w a9 a9 0x2c;
    be21:	b2 a3             	  mv.w a3 a10;
    be23:	a0 9f             	  std.w a9 a15;
    be25:	d9 f4 2a 00 00    	  mvi a9 0x2af4;
    be2a:	98 99 04          	  ldd.w a9 a9 0x10;
    be2d:	b2 b2             	  mv.w a2 a11;
    be2f:	0a 08             	  mvi a10 0x8;
    be31:	f1 94 00 20       	  and a9 0x2000;
    be35:	f5 0b ca 00       	  breq 0xbeff;
    be39:	fe 40 01          	  rspr a0 SP;
    be3c:	bd a4             	  clr.w a10;
    be3e:	90 00 18          	  add.w a0 a0 0x18;
    be41:	b2 0b             	  mv.w a11 a0;
    be43:	7e 60 ba 00       	  call 0xba60;
    be47:	33 ad 1f b8 00    	  cmpbrne.b a10 0x1f 0xbeff;
    be4c:	b2 0a             	  mv.w a10 a0;
    be4e:	0b ff             	  mvi a11 -0x1;
    be50:	3d c4             	  clr.b a12;
    be52:	7e fc b9 00       	  call 0xb9fc;
    be56:	33 ad 1f a9 00    	  cmpbrne.b a10 0x1f 0xbeff;
    be5b:	fe 41 01          	  rspr a1 SP;
    be5e:	7f 00             	  ldd.h a0 a0;
    be60:	90 11 1c          	  add.w a1 a1 0x1c;
    be63:	4a dc 10          	  mvi a10 0x10dc;
    be66:	0b 10             	  mvi a11 0x10;
    be68:	b2 1c             	  mv.w a12 a1;
    be6a:	7e 08 a8 00       	  call 0xa808;
    be6e:	33 ad 1f 91 00    	  cmpbrne.b a10 0x1f 0xbeff;
    be73:	72 0b             	  mv.h a11 a0;
    be75:	b2 15             	  mv.w a5 a1;
    be77:	bd c4             	  clr.w a12;
    be79:	bd 04             	  clr.w a0;
    be7b:	01 e0             	  mvi a1 -0x20;
    be7d:	04 ff             	  mvi a4 -0x1;
    be7f:	3e fb be 00       	  jmp 0xbefb;
    be83:	c4 b9 01          	  and a9 a11 0x1;
    be86:	f4 0b 69          	  breq 0xbeef;
    be89:	b0 c6 07          	  cmp.w a12 0x7;
    be8c:	f4 0c 35          	  brgt 0xbec1;
    be8f:	bf 3d             	  ldd.w a13 a3;
    be91:	3c 5c f8          	  ldd.b a15 a5 a12;
    be94:	c4 0e 1f          	  and a14 a0 0x1f;
    be97:	90 09 03          	  add.w a9 a0 0x3;
    be9a:	b9 99 00          	  cpl.w a9 a9;
    be9d:	f0 f4 ff          	  and a15 0xff;
    bea0:	f0 94 1f          	  and a9 0x1f;
    bea3:	bc 9e 90          	  add.w a9 a9 a14;
    bea6:	bc 49 95          	  lsr.w a9 a4 a9;
    bea9:	ff 9f f4          	  and a15 a9 a15;
    beac:	bb 9e 04          	  lsl.w a9 a14;
    beaf:	bb fe 04          	  lsl.w a15 a14;
    beb2:	b9 99 00          	  cpl.w a9 a9;
    beb5:	fd 9d 04          	  and a9 a13;
    beb8:	fd 9f 05          	  or a9 a15;
    bebb:	a0 39             	  std.w a3 a9;
    bebd:	3e ef be 00       	  jmp 0xbeef;
    bec1:	bf 2d             	  ldd.w a13 a2;
    bec3:	3c 5c f8          	  ldd.b a15 a5 a12;
    bec6:	c4 1e 1f          	  and a14 a1 0x1f;
    bec9:	92 09 1d          	  sub.w a9 a0 0x1d;
    becc:	b9 99 00          	  cpl.w a9 a9;
    becf:	f0 f4 ff          	  and a15 0xff;
    bed2:	f0 94 1f          	  and a9 0x1f;
    bed5:	bc 9e 90          	  add.w a9 a9 a14;
    bed8:	bc 49 95          	  lsr.w a9 a4 a9;
    bedb:	ff 9f f4          	  and a15 a9 a15;
    bede:	bb 9e 04          	  lsl.w a9 a14;
    bee1:	bb fe 04          	  lsl.w a15 a14;
    bee4:	b9 99 00          	  cpl.w a9 a9;
    bee7:	fd 9d 04          	  and a9 a13;
    beea:	fd 9f 05          	  or a9 a15;
    beed:	a0 29             	  std.w a2 a9;
    beef:	90 cc 01          	  add.w a12 a12 0x1;
    bef2:	76 b5 01          	  lsr.h a11 0x1;
    bef5:	90 00 04          	  add.w a0 a0 0x4;
    bef8:	90 11 04          	  add.w a1 a1 0x4;
    befb:	73 b4 00 88       	  cmpbrne.h a11 0x0 0xbe83;
    beff:	fe 49 01          	  rspr a9 SP;
    bf02:	90 99 2c          	  add.w a9 a9 0x2c;
    bf05:	bf 9f             	  ldd.w a15 a9;
    bf07:	d9 2c 06 00 00    	  mvi a9 0x62c;
    bf0c:	bf 99             	  ldd.w a9 a9;
    bf0e:	a6 f9             	  cmp.w a15 a9;
    bf10:	f4 0b 07          	  breq 0xbf17;
    bf13:	7e e9 42 00       	  call 0x42e9;
    bf17:	fb 55 18          	  popma a5 0x1 0x18;

0000bf1a <__smbpbiOsfpSendCommand>:
    bf1a:	f4 30 d4          	  addsp -0x2c;
    bf1d:	df 2c 06 00 00    	  mvi a15 0x62c;
    bf22:	f9 22             	  pushm a2;
    bf24:	bf ff             	  ldd.w a15 a15;
    bf26:	fe 49 01          	  rspr a9 SP;
    bf29:	90 99 34          	  add.w a9 a9 0x34;
    bf2c:	32 a2             	  mv.b a2 a10;
    bf2e:	fe 41 01          	  rspr a1 SP;
    bf31:	a0 9f             	  std.w a9 a15;
    bf33:	90 11 0c          	  add.w a1 a1 0xc;
    bf36:	4a 98 23          	  mvi a10 0x2398;
    bf39:	0b 28             	  mvi a11 0x28;
    bf3b:	b2 1c             	  mv.w a12 a1;
    bf3d:	7e 08 a8 00       	  call 0xa808;
    bf41:	33 a4 1f 5d       	  cmpbrne.b a10 0x1f 0xbf9e;
    bf45:	98 10 01          	  ldd.w a0 a1 0x4;
    bf48:	bf 19             	  ldd.w a9 a1;
    bf4a:	bc 90 f2          	  sub.w a15 a9 a0;
    bf4d:	a6 90             	  cmp.w a9 a0;
    bf4f:	f4 08 10          	  brc 0xbf5f;
    bf52:	b0 f6 01          	  cmp.w a15 0x1;
    bf55:	f0 9c 0b          	  sgetb a9 0xb;
    bf58:	f0 96 01          	  xor a9 0x1;
    bf5b:	3e 69 bf 00       	  jmp 0xbf69;
    bf5f:	09 e1             	  mvi a9 -0x1f;
    bf61:	a6 f9             	  cmp.w a15 a9;
    bf63:	f0 9c 0b          	  sgetb a9 0xb;
    bf66:	f0 96 01          	  xor a9 0x1;
    bf69:	0a 0b             	  mvi a10 0xb;
    bf6b:	33 90 00 33       	  cmpbreq.b a9 0x0 0xbf9e;
    bf6f:	d9 0c 2b 00 00    	  mvi a9 0x2b0c;
    bf74:	98 9c 01          	  ldd.w a12 a9 0x4;
    bf77:	bf 9b             	  ldd.w a11 a9;
    bf79:	fe 4f 01          	  rspr a15 SP;
    bf7c:	90 ff 0c          	  add.w a15 a15 0xc;
    bf7f:	bc f0 90          	  add.w a9 a15 a0;
    bf82:	4d 9c 23          	  mvi a13 0x239c;
    bf85:	35 92 08          	  std.b a9 0x8 a2;
    bf88:	0e 24             	  mvi a14 0x24;
    bf8a:	90 09 01          	  add.w a9 a0 0x1;
    bf8d:	f0 94 1f          	  and a9 0x1f;
    bf90:	90 fa 04          	  add.w a10 a15 0x4;
    bf93:	b5 f9 01          	  std.w a15 0x4 a9;
    bf96:	7e d8 26 00       	  call 0x26d8;
    bf9a:	7e a5 a6 00       	  call 0xa6a5;
    bf9e:	fe 49 01          	  rspr a9 SP;
    bfa1:	90 99 34          	  add.w a9 a9 0x34;
    bfa4:	bf 9f             	  ldd.w a15 a9;
    bfa6:	d9 2c 06 00 00    	  mvi a9 0x62c;
    bfab:	bf 99             	  ldd.w a9 a9;
    bfad:	a6 f9             	  cmp.w a15 a9;
    bfaf:	f4 0b 07          	  breq 0xbfb6;
    bfb2:	7e e9 42 00       	  call 0x42e9;
    bfb6:	fb 25 2c          	  popma a2 0x1 0x2c;

0000bfb9 <_smbpbiOsfpResetLedLocate>:
    bfb9:	f4 30 f8          	  addsp -0x8;
    bfbc:	df 2c 06 00 00    	  mvi a15 0x62c;
    bfc1:	f9 12             	  pushm a1;
    bfc3:	bf ff             	  ldd.w a15 a15;
    bfc5:	fe 49 01          	  rspr a9 SP;
    bfc8:	90 99 0c          	  add.w a9 a9 0xc;
    bfcb:	32 a1             	  mv.b a1 a10;
    bfcd:	a0 9f             	  std.w a9 a15;
    bfcf:	d9 f4 2a 00 00    	  mvi a9 0x2af4;
    bfd4:	98 9f 04          	  ldd.w a15 a9 0x10;
    bfd7:	0a 08             	  mvi a10 0x8;
    bfd9:	89 00 00 01       	  mvi a9 0x10000;
    bfdd:	fd f9 04          	  and a15 a9;
    bfe0:	f4 0b 2a          	  breq 0xc00a;
    bfe3:	fe 40 01          	  rspr a0 SP;
    bfe6:	bd a4             	  clr.w a10;
    bfe8:	90 00 08          	  add.w a0 a0 0x8;
    bfeb:	b2 0b             	  mv.w a11 a0;
    bfed:	7e 60 ba 00       	  call 0xba60;
    bff1:	33 a4 1f 19       	  cmpbrne.b a10 0x1f 0xc00a;
    bff5:	b2 0a             	  mv.w a10 a0;
    bff7:	32 1b             	  mv.b a11 a1;
    bff9:	3d c4             	  clr.b a12;
    bffb:	7e fc b9 00       	  call 0xb9fc;
    bfff:	33 a4 1f 0b       	  cmpbrne.b a10 0x1f 0xc00a;
    c003:	c4 1a 1f          	  and a10 a1 0x1f;
    c006:	7e 1a bf 00       	  call 0xbf1a;
    c00a:	fe 49 01          	  rspr a9 SP;
    c00d:	90 99 0c          	  add.w a9 a9 0xc;
    c010:	bf 9f             	  ldd.w a15 a9;
    c012:	d9 2c 06 00 00    	  mvi a9 0x62c;
    c017:	bf 99             	  ldd.w a9 a9;
    c019:	a6 f9             	  cmp.w a15 a9;
    c01b:	f4 0b 07          	  breq 0xc022;
    c01e:	7e e9 42 00       	  call 0x42e9;
    c022:	fb 15 08          	  popma a1 0x1 0x8;

0000c025 <_smbpbiOsfpSetLedLocate>:
    c025:	f4 30 f8          	  addsp -0x8;
    c028:	df 2c 06 00 00    	  mvi a15 0x62c;
    c02d:	f9 12             	  pushm a1;
    c02f:	bf ff             	  ldd.w a15 a15;
    c031:	fe 49 01          	  rspr a9 SP;
    c034:	90 99 0c          	  add.w a9 a9 0xc;
    c037:	32 a1             	  mv.b a1 a10;
    c039:	a0 9f             	  std.w a9 a15;
    c03b:	d9 f4 2a 00 00    	  mvi a9 0x2af4;
    c040:	98 99 04          	  ldd.w a9 a9 0x10;
    c043:	0a 08             	  mvi a10 0x8;
    c045:	f1 94 00 80       	  and a9 0x8000;
    c049:	73 90 00 2e       	  cmpbreq.h a9 0x0 0xc077;
    c04d:	fe 40 01          	  rspr a0 SP;
    c050:	bd a4             	  clr.w a10;
    c052:	90 00 08          	  add.w a0 a0 0x8;
    c055:	b2 0b             	  mv.w a11 a0;
    c057:	7e 60 ba 00       	  call 0xba60;
    c05b:	33 a4 1f 1c       	  cmpbrne.b a10 0x1f 0xc077;
    c05f:	b2 0a             	  mv.w a10 a0;
    c061:	32 1b             	  mv.b a11 a1;
    c063:	3d c4             	  clr.b a12;
    c065:	7e fc b9 00       	  call 0xb9fc;
    c069:	33 a4 1f 0e       	  cmpbrne.b a10 0x1f 0xc077;
    c06d:	c4 1a 1f          	  and a10 a1 0x1f;
    c070:	f0 a5 20          	  or a10 0x20;
    c073:	7e 1a bf 00       	  call 0xbf1a;
    c077:	fe 49 01          	  rspr a9 SP;
    c07a:	90 99 0c          	  add.w a9 a9 0xc;
    c07d:	bf 9f             	  ldd.w a15 a9;
    c07f:	d9 2c 06 00 00    	  mvi a9 0x62c;
    c084:	bf 99             	  ldd.w a9 a9;
    c086:	a6 f9             	  cmp.w a15 a9;
    c088:	f4 0b 07          	  breq 0xc08f;
    c08b:	7e e9 42 00       	  call 0x42e9;
    c08f:	fb 15 08          	  popma a1 0x1 0x8;

Disassembly of section .imem_ifr:

0000c092 <_ifsBitmapOp>:
    c092:	f4 30 fc          	  addsp -0x4;
    c095:	df 2c 06 00 00    	  mvi a15 0x62c;
    c09a:	f9 52             	  pushm a5;
    c09c:	bf ff             	  ldd.w a15 a15;
    c09e:	95 b9 06          	  lsr.w a9 a11 0x6;
    c0a1:	b6 94 03          	  lsl.w a9 0x3;
    c0a4:	b2 c4             	  mv.w a4 a12;
    c0a6:	bc a9 30          	  add.w a3 a10 a9;
    c0a9:	b2 d5             	  mv.w a5 a13;
    c0ab:	fe 49 01          	  rspr a9 SP;
    c0ae:	c4 b0 3f          	  and a0 a11 0x3f;
    c0b1:	90 99 18          	  add.w a9 a9 0x18;
    c0b4:	a0 9f             	  std.w a9 a15;
    c0b6:	3e 05 c1 00       	  jmp 0xc105;
    c0ba:	bf 31             	  ldd.w a1 a3;
    c0bc:	98 32 01          	  ldd.w a2 a3 0x4;
    c0bf:	b3 54 00 18       	  cmpbrne.w a5 0x0 0xc0d7;
    c0c3:	0a 01             	  mvi a10 0x1;
    c0c5:	bd b4             	  clr.w a11;
    c0c7:	b2 0c             	  mv.w a12 a0;
    c0c9:	7e 66 42 00       	  call 0x4266;
    c0cd:	fd 2b 05          	  or a2 a11;
    c0d0:	fd 1a 05          	  or a1 a10;
    c0d3:	3e ed c0 00       	  jmp 0xc0ed;
    c0d7:	0a 01             	  mvi a10 0x1;
    c0d9:	bd b4             	  clr.w a11;
    c0db:	b2 0c             	  mv.w a12 a0;
    c0dd:	7e 66 42 00       	  call 0x4266;
    c0e1:	b9 b9 00          	  cpl.w a9 a11;
    c0e4:	b9 aa 00          	  cpl.w a10 a10;
    c0e7:	fd 29 04          	  and a2 a9;
    c0ea:	fd 1a 04          	  and a1 a10;
    c0ed:	92 44 01          	  sub.w a4 a4 0x1;
    c0f0:	b3 40 00 0b       	  cmpbreq.w a4 0x0 0xc0fb;
    c0f4:	90 00 01          	  add.w a0 a0 0x1;
    c0f7:	b3 04 40 c8       	  cmpbrne.w a0 0x40 0xc0bf;
    c0fb:	a0 31             	  std.w a3 a1;
    c0fd:	b5 32 01          	  std.w a3 0x4 a2;
    c100:	bd 04             	  clr.w a0;
    c102:	90 33 08          	  add.w a3 a3 0x8;
    c105:	b3 44 00 b5       	  cmpbrne.w a4 0x0 0xc0ba;
    c109:	fe 49 01          	  rspr a9 SP;
    c10c:	90 99 18          	  add.w a9 a9 0x18;
    c10f:	bf 9f             	  ldd.w a15 a9;
    c111:	d9 2c 06 00 00    	  mvi a9 0x62c;
    c116:	bf 99             	  ldd.w a9 a9;
    c118:	a6 f9             	  cmp.w a15 a9;
    c11a:	f4 0b 07          	  breq 0xc121;
    c11d:	7e e9 42 00       	  call 0x42e9;
    c121:	fb 55 04          	  popma a5 0x1 0x4;

0000c124 <_ifsBitmapSet>:
    c124:	f4 30 fc          	  addsp -0x4;
    c127:	f9 12             	  pushm a1;
    c129:	d1 2c 06 00 00    	  mvi a1 0x62c;
    c12e:	bf 19             	  ldd.w a9 a1;
    c130:	fe 40 01          	  rspr a0 SP;
    c133:	bd d4             	  clr.w a13;
    c135:	90 00 08          	  add.w a0 a0 0x8;
    c138:	a0 09             	  std.w a0 a9;
    c13a:	7e 92 c0 00       	  call 0xc092;
    c13e:	bf 0f             	  ldd.w a15 a0;
    c140:	bf 19             	  ldd.w a9 a1;
    c142:	a6 f9             	  cmp.w a15 a9;
    c144:	f4 0b 07          	  breq 0xc14b;
    c147:	7e e9 42 00       	  call 0x42e9;
    c14b:	fb 15 04          	  popma a1 0x1 0x4;

0000c14e <_ifsBitmapClear>:
    c14e:	f4 30 fc          	  addsp -0x4;
    c151:	f9 12             	  pushm a1;
    c153:	d1 2c 06 00 00    	  mvi a1 0x62c;
    c158:	bf 19             	  ldd.w a9 a1;
    c15a:	fe 40 01          	  rspr a0 SP;
    c15d:	0d 01             	  mvi a13 0x1;
    c15f:	90 00 08          	  add.w a0 a0 0x8;
    c162:	a0 09             	  std.w a0 a9;
    c164:	7e 92 c0 00       	  call 0xc092;
    c168:	bf 0f             	  ldd.w a15 a0;
    c16a:	bf 19             	  ldd.w a9 a1;
    c16c:	a6 f9             	  cmp.w a15 a9;
    c16e:	f4 0b 07          	  breq 0xc175;
    c171:	7e e9 42 00       	  call 0x42e9;
    c175:	fb 15 04          	  popma a1 0x1 0x4;

0000c178 <_ifsBitmapIsSet>:
    c178:	f4 30 fc          	  addsp -0x4;
    c17b:	f9 12             	  pushm a1;
    c17d:	d1 2c 06 00 00    	  mvi a1 0x62c;
    c182:	bf 19             	  ldd.w a9 a1;
    c184:	c4 bc 3f          	  and a12 a11 0x3f;
    c187:	b6 b5 06          	  lsr.w a11 0x6;
    c18a:	b6 b4 03          	  lsl.w a11 0x3;
    c18d:	fe 40 01          	  rspr a0 SP;
    c190:	bc ab a0          	  add.w a10 a10 a11;
    c193:	90 00 08          	  add.w a0 a0 0x8;
    c196:	a0 09             	  std.w a0 a9;
    c198:	98 ab 01          	  ldd.w a11 a10 0x4;
    c19b:	bf aa             	  ldd.w a10 a10;
    c19d:	7e 12 42 00       	  call 0x4212;
    c1a1:	bf 0f             	  ldd.w a15 a0;
    c1a3:	bf 19             	  ldd.w a9 a1;
    c1a5:	f0 a4 01          	  and a10 0x1;
    c1a8:	a6 f9             	  cmp.w a15 a9;
    c1aa:	f4 0b 07          	  breq 0xc1b1;
    c1ad:	7e e9 42 00       	  call 0x42e9;
    c1b1:	fb 15 04          	  popma a1 0x1 0x4;

0000c1b4 <_ifsCallwlateChecksum>:
    c1b4:	df 2c 06 00 00    	  mvi a15 0x62c;
    c1b9:	bf ff             	  ldd.w a15 a15;
    c1bb:	f4 30 fc          	  addsp -0x4;
    c1be:	b2 ae             	  mv.w a14 a10;
    c1c0:	fe 49 01          	  rspr a9 SP;
    c1c3:	3d a4             	  clr.b a10;
    c1c5:	a0 9f             	  std.w a9 a15;
    c1c7:	bd f4             	  clr.w a15;
    c1c9:	b3 f0 08 0a       	  cmpbreq.w a15 0x8 0xc1d3;
    c1cd:	3c ef 98          	  ldd.b a9 a14 a15;
    c1d0:	3c a9 a0          	  add.b a10 a10 a9;
    c1d3:	90 ff 01          	  add.w a15 a15 0x1;
    c1d6:	b3 fe 80 00 f3    	  cmpbrne.w a15 0x80 0xc1c9;
    c1db:	fe 49 01          	  rspr a9 SP;
    c1de:	bf 9f             	  ldd.w a15 a9;
    c1e0:	d9 2c 06 00 00    	  mvi a9 0x62c;
    c1e5:	bf 99             	  ldd.w a9 a9;
    c1e7:	f0 a2 07          	  sext a10 0x7;
    c1ea:	39 aa 01          	  neg.b a10 a10;
    c1ed:	a6 f9             	  cmp.w a15 a9;
    c1ef:	f4 0b 07          	  breq 0xc1f6;
    c1f2:	7e e9 42 00       	  call 0x42e9;
    c1f6:	f4 30 04          	  addsp 0x4;
    c1f9:	f8 00             	  ret;

0000c1fb <_ifsBlockHeaderSanityCheck>:
    c1fb:	d9 2c 06 00 00    	  mvi a9 0x62c;
    c200:	bf 99             	  ldd.w a9 a9;
    c202:	f4 30 fc          	  addsp -0x4;
    c205:	fe 4f 01          	  rspr a15 SP;
    c208:	a0 f9             	  std.w a15 a9;
    c20a:	3f ae             	  ldd.b a14 a10;
    c20c:	c4 e9 01          	  and a9 a14 0x1;
    c20f:	f4 0b 1b          	  breq 0xc22a;
    c212:	bd f4             	  clr.w a15;
    c214:	0e ff             	  mvi a14 -0x1;
    c216:	3c af 98          	  ldd.b a9 a10 a15;
    c219:	26 9e             	  cmp.b a9 a14;
    c21b:	f5 1b c8 00       	  brne 0xc2e3;
    c21f:	90 ff 01          	  add.w a15 a15 0x1;
    c222:	b3 f4 10 f4       	  cmpbrne.w a15 0x10 0xc216;
    c226:	3e e9 c2 00       	  jmp 0xc2e9;
    c22a:	bd f4             	  clr.w a15;
    c22c:	bc af 90          	  add.w a9 a10 a15;
    c22f:	18 99 09          	  ldd.b a9 a9 0x9;
    c232:	33 9d 00 b1 00    	  cmpbrne.b a9 0x0 0xc2e3;
    c237:	90 ff 01          	  add.w a15 a15 0x1;
    c23a:	b3 f4 07 f2       	  cmpbrne.w a15 0x7 0xc22c;
    c23e:	18 ad 06          	  ldd.b a13 a10 0x6;
    c241:	0c 80             	  mvi a12 -0x80;
    c243:	26 dc             	  cmp.b a13 a12;
    c245:	f5 0c 9e 00       	  brgt 0xc2e3;
    c249:	33 e4 00 38       	  cmpbrne.b a14 0x0 0xc281;
    c24d:	18 a9 01          	  ldd.b a9 a10 0x1;
    c250:	33 9d 00 93 00    	  cmpbrne.b a9 0x0 0xc2e3;
    c255:	18 a9 02          	  ldd.b a9 a10 0x2;
    c258:	33 9d 00 8b 00    	  cmpbrne.b a9 0x0 0xc2e3;
    c25d:	18 a9 03          	  ldd.b a9 a10 0x3;
    c260:	33 9d 00 83 00    	  cmpbrne.b a9 0x0 0xc2e3;
    c265:	18 af 04          	  ldd.b a15 a10 0x4;
    c268:	18 a9 05          	  ldd.b a9 a10 0x5;
    c26b:	f0 f4 ff          	  and a15 0xff;
    c26e:	76 94 08          	  lsl.h a9 0x8;
    c271:	fd 9f 05          	  or a9 a15;
    c274:	73 94 00 6f       	  cmpbrne.h a9 0x0 0xc2e3;
    c278:	26 dc             	  cmp.b a13 a12;
    c27a:	f4 1b 69          	  brne 0xc2e3;
    c27d:	3e dc c2 00       	  jmp 0xc2dc;
    c281:	18 af 04          	  ldd.b a15 a10 0x4;
    c284:	18 a9 05          	  ldd.b a9 a10 0x5;
    c287:	f0 f4 ff          	  and a15 0xff;
    c28a:	f0 94 ff          	  and a9 0xff;
    c28d:	b6 94 08          	  lsl.w a9 0x8;
    c290:	fd 9f 05          	  or a9 a15;
    c293:	cd 99 70          	  umod a9 a9 0x70;
    c296:	73 94 00 4d       	  cmpbrne.h a9 0x0 0xc2e3;
    c29a:	18 a9 01          	  ldd.b a9 a10 0x1;
    c29d:	12 99 41          	  sub.b a9 a9 0x41;
    c2a0:	30 96 19          	  cmp.b a9 0x19;
    c2a3:	f4 0c 40          	  brgt 0xc2e3;
    c2a6:	18 a9 02          	  ldd.b a9 a10 0x2;
    c2a9:	31 96 40 00       	  cmp.b a9 0x40;
    c2ad:	f4 1d 36          	  brslte 0xc2e3;
    c2b0:	31 96 5a 00       	  cmp.b a9 0x5a;
    c2b4:	f4 1c 2f          	  brsgt 0xc2e3;
    c2b7:	18 a9 03          	  ldd.b a9 a10 0x3;
    c2ba:	31 96 40 00       	  cmp.b a9 0x40;
    c2be:	f4 1d 25          	  brslte 0xc2e3;
    c2c1:	31 96 5a 00       	  cmp.b a9 0x5a;
    c2c5:	f4 1c 1e          	  brsgt 0xc2e3;
    c2c8:	33 d0 00 1b       	  cmpbreq.b a13 0x0 0xc2e3;
    c2cc:	c4 ef ff          	  and a15 a14 0xff;
    c2cf:	c4 f9 04          	  and a9 a15 0x4;
    c2d2:	f4 1b 17          	  brne 0xc2e9;
    c2d5:	c4 f9 0a          	  and a9 a15 0xa;
    c2d8:	b3 94 02 0b       	  cmpbrne.w a9 0x2 0xc2e3;
    c2dc:	18 a9 07          	  ldd.b a9 a10 0x7;
    c2df:	33 90 00 0a       	  cmpbreq.b a9 0x0 0xc2e9;
    c2e3:	0a 06             	  mvi a10 0x6;
    c2e5:	3e eb c2 00       	  jmp 0xc2eb;
    c2e9:	bd a4             	  clr.w a10;
    c2eb:	fe 49 01          	  rspr a9 SP;
    c2ee:	bf 9f             	  ldd.w a15 a9;
    c2f0:	d9 2c 06 00 00    	  mvi a9 0x62c;
    c2f5:	bf 99             	  ldd.w a9 a9;
    c2f7:	a6 f9             	  cmp.w a15 a9;
    c2f9:	f4 0b 07          	  breq 0xc300;
    c2fc:	7e e9 42 00       	  call 0x42e9;
    c300:	f4 30 04          	  addsp 0x4;
    c303:	f8 00             	  ret;

0000c305 <_ifsBlockDataSanityCheck>:
    c305:	f4 30 fc          	  addsp -0x4;
    c308:	df 2c 06 00 00    	  mvi a15 0x62c;
    c30d:	f9 12             	  pushm a1;
    c30f:	bf ff             	  ldd.w a15 a15;
    c311:	fe 49 01          	  rspr a9 SP;
    c314:	90 99 08          	  add.w a9 a9 0x8;
    c317:	b2 b1             	  mv.w a1 a11;
    c319:	a0 9f             	  std.w a9 a15;
    c31b:	b2 a0             	  mv.w a0 a10;
    c31d:	0e 02             	  mvi a14 0x2;
    c31f:	b3 a0 00 22       	  cmpbreq.w a10 0x0 0xc341;
    c323:	3f a9             	  ldd.b a9 a10;
    c325:	f0 94 08          	  and a9 0x8;
    c328:	f4 1b 17          	  brne 0xc33f;
    c32b:	7e b4 c1 00       	  call 0xc1b4;
    c32f:	b3 10 00 06       	  cmpbreq.w a1 0x0 0xc335;
    c333:	20 1a             	  std.b a1 a10;
    c335:	18 09 08          	  ldd.b a9 a0 0x8;
    c338:	0e 06             	  mvi a14 0x6;
    c33a:	26 a9             	  cmp.b a10 a9;
    c33c:	f4 1b 05          	  brne 0xc341;
    c33f:	bd e4             	  clr.w a14;
    c341:	fe 49 01          	  rspr a9 SP;
    c344:	90 99 08          	  add.w a9 a9 0x8;
    c347:	bf 9f             	  ldd.w a15 a9;
    c349:	d9 2c 06 00 00    	  mvi a9 0x62c;
    c34e:	bf 99             	  ldd.w a9 a9;
    c350:	b2 ea             	  mv.w a10 a14;
    c352:	a6 f9             	  cmp.w a15 a9;
    c354:	f4 0b 07          	  breq 0xc35b;
    c357:	7e e9 42 00       	  call 0x42e9;
    c35b:	fb 15 04          	  popma a1 0x1 0x4;

0000c35e <_ifsBlockWrite>:
    c35e:	df 2c 06 00 00    	  mvi a15 0x62c;
    c363:	bf ff             	  ldd.w a15 a15;
    c365:	f4 30 fc          	  addsp -0x4;
    c368:	fe 49 01          	  rspr a9 SP;
    c36b:	a0 9f             	  std.w a9 a15;
    c36d:	b2 a9             	  mv.w a9 a10;
    c36f:	0a 02             	  mvi a10 0x2;
    c371:	b3 c0 00 12       	  cmpbreq.w a12 0x0 0xc383;
    c375:	bf 9a             	  ldd.w a10 a9;
    c377:	b2 cd             	  mv.w a13 a12;
    c379:	b6 b4 07          	  lsl.w a11 0x7;
    c37c:	4c 80 00          	  mvi a12 0x80;
    c37f:	7e 92 d9 00       	  call 0xd992;
    c383:	fe 49 01          	  rspr a9 SP;
    c386:	bf 9f             	  ldd.w a15 a9;
    c388:	d9 2c 06 00 00    	  mvi a9 0x62c;
    c38d:	bf 99             	  ldd.w a9 a9;
    c38f:	a6 f9             	  cmp.w a15 a9;
    c391:	f4 0b 07          	  breq 0xc398;
    c394:	7e e9 42 00       	  call 0x42e9;
    c398:	f4 30 04          	  addsp 0x4;
    c39b:	f8 00             	  ret;

0000c39d <_ifsBlockIlwalidate>:
    c39d:	f4 30 f8          	  addsp -0x8;
    c3a0:	df 2c 06 00 00    	  mvi a15 0x62c;
    c3a5:	f9 22             	  pushm a2;
    c3a7:	bf ff             	  ldd.w a15 a15;
    c3a9:	fe 49 01          	  rspr a9 SP;
    c3ac:	90 99 10          	  add.w a9 a9 0x10;
    c3af:	b2 a0             	  mv.w a0 a10;
    c3b1:	a0 9f             	  std.w a9 a15;
    c3b3:	0a 02             	  mvi a10 0x2;
    c3b5:	b3 00 00 34       	  cmpbreq.w a0 0x0 0xc3e9;
    c3b9:	bf 0a             	  ldd.w a10 a0;
    c3bb:	3d 94             	  clr.b a9;
    c3bd:	94 b2 07          	  lsl.w a2 a11 0x7;
    c3c0:	fe 41 01          	  rspr a1 SP;
    c3c3:	b2 2b             	  mv.w a11 a2;
    c3c5:	90 11 0f          	  add.w a1 a1 0xf;
    c3c8:	0c 01             	  mvi a12 0x1;
    c3ca:	20 19             	  std.b a1 a9;
    c3cc:	b2 1d             	  mv.w a13 a1;
    c3ce:	7e cb d9 00       	  call 0xd9cb;
    c3d2:	b3 a4 00 17       	  cmpbrne.w a10 0x0 0xc3e9;
    c3d6:	3f 19             	  ldd.b a9 a1;
    c3d8:	bf 0a             	  ldd.w a10 a0;
    c3da:	b2 2b             	  mv.w a11 a2;
    c3dc:	b2 1d             	  mv.w a13 a1;
    c3de:	f0 94 fd          	  and a9 0xfd;
    c3e1:	0c 01             	  mvi a12 0x1;
    c3e3:	20 19             	  std.b a1 a9;
    c3e5:	7e 92 d9 00       	  call 0xd992;
    c3e9:	fe 49 01          	  rspr a9 SP;
    c3ec:	90 99 10          	  add.w a9 a9 0x10;
    c3ef:	bf 9f             	  ldd.w a15 a9;
    c3f1:	d9 2c 06 00 00    	  mvi a9 0x62c;
    c3f6:	bf 99             	  ldd.w a9 a9;
    c3f8:	a6 f9             	  cmp.w a15 a9;
    c3fa:	f4 0b 07          	  breq 0xc401;
    c3fd:	7e e9 42 00       	  call 0x42e9;
    c401:	fb 25 08          	  popma a2 0x1 0x8;

0000c404 <_ifsBlockWriteJournaled>:
    c404:	f4 30 f8          	  addsp -0x8;
    c407:	df 2c 06 00 00    	  mvi a15 0x62c;
    c40c:	f9 42             	  pushm a4;
    c40e:	bf ff             	  ldd.w a15 a15;
    c410:	fe 49 01          	  rspr a9 SP;
    c413:	90 99 18          	  add.w a9 a9 0x18;
    c416:	b2 a1             	  mv.w a1 a10;
    c418:	a0 9f             	  std.w a9 a15;
    c41a:	b2 b4             	  mv.w a4 a11;
    c41c:	b2 c0             	  mv.w a0 a12;
    c41e:	b2 d3             	  mv.w a3 a13;
    c420:	b3 a0 00 56       	  cmpbreq.w a10 0x0 0xc476;
    c424:	b3 c0 00 52       	  cmpbreq.w a12 0x0 0xc476;
    c428:	18 cf 07          	  ldd.b a15 a12 0x7;
    c42b:	bd 94             	  clr.w a9;
    c42d:	fe 42 01          	  rspr a2 SP;
    c430:	90 22 14          	  add.w a2 a2 0x14;
    c433:	10 ff 01          	  add.b a15 a15 0x1;
    c436:	a0 29             	  std.w a2 a9;
    c438:	35 cf 07          	  std.b a12 0x7 a15;
    c43b:	b2 ca             	  mv.w a10 a12;
    c43d:	7e b4 c1 00       	  call 0xc1b4;
    c441:	b2 2b             	  mv.w a11 a2;
    c443:	35 0a 08          	  std.b a0 0x8 a10;
    c446:	b2 1a             	  mv.w a10 a1;
    c448:	7e be c8 00       	  call 0xc8be;
    c44c:	b3 a4 00 2c       	  cmpbrne.w a10 0x0 0xc478;
    c450:	bf 2b             	  ldd.w a11 a2;
    c452:	b2 0c             	  mv.w a12 a0;
    c454:	b2 1a             	  mv.w a10 a1;
    c456:	7e 5e c3 00       	  call 0xc35e;
    c45a:	b3 a4 00 1e       	  cmpbrne.w a10 0x0 0xc478;
    c45e:	b2 1a             	  mv.w a10 a1;
    c460:	b2 4b             	  mv.w a11 a4;
    c462:	7e 9d c3 00       	  call 0xc39d;
    c466:	b3 a4 00 12       	  cmpbrne.w a10 0x0 0xc478;
    c46a:	b3 30 00 0e       	  cmpbreq.w a3 0x0 0xc478;
    c46e:	bf 22             	  ldd.w a2 a2;
    c470:	a0 32             	  std.w a3 a2;
    c472:	3e 78 c4 00       	  jmp 0xc478;
    c476:	0a 02             	  mvi a10 0x2;
    c478:	fe 49 01          	  rspr a9 SP;
    c47b:	90 99 18          	  add.w a9 a9 0x18;
    c47e:	bf 9f             	  ldd.w a15 a9;
    c480:	d9 2c 06 00 00    	  mvi a9 0x62c;
    c485:	bf 99             	  ldd.w a9 a9;
    c487:	a6 f9             	  cmp.w a15 a9;
    c489:	f4 0b 07          	  breq 0xc490;
    c48c:	7e e9 42 00       	  call 0x42e9;
    c490:	fb 45 08          	  popma a4 0x1 0x8;

0000c493 <_ifsBlockRead>:
    c493:	f4 30 fc          	  addsp -0x4;
    c496:	df 2c 06 00 00    	  mvi a15 0x62c;
    c49b:	f9 02             	  pushm a0;
    c49d:	bf ff             	  ldd.w a15 a15;
    c49f:	fe 49 01          	  rspr a9 SP;
    c4a2:	90 99 04          	  add.w a9 a9 0x4;
    c4a5:	b2 c0             	  mv.w a0 a12;
    c4a7:	a0 9f             	  std.w a9 a15;
    c4a9:	b3 a0 00 24       	  cmpbreq.w a10 0x0 0xc4cd;
    c4ad:	b3 c0 00 20       	  cmpbreq.w a12 0x0 0xc4cd;
    c4b1:	bf aa             	  ldd.w a10 a10;
    c4b3:	b6 b4 07          	  lsl.w a11 0x7;
    c4b6:	4c 80 00          	  mvi a12 0x80;
    c4b9:	b2 0d             	  mv.w a13 a0;
    c4bb:	7e cb d9 00       	  call 0xd9cb;
    c4bf:	b3 a4 00 10       	  cmpbrne.w a10 0x0 0xc4cf;
    c4c3:	b2 0a             	  mv.w a10 a0;
    c4c5:	7e fb c1 00       	  call 0xc1fb;
    c4c9:	3e cf c4 00       	  jmp 0xc4cf;
    c4cd:	0a 02             	  mvi a10 0x2;
    c4cf:	fe 49 01          	  rspr a9 SP;
    c4d2:	90 99 04          	  add.w a9 a9 0x4;
    c4d5:	bf 9f             	  ldd.w a15 a9;
    c4d7:	d9 2c 06 00 00    	  mvi a9 0x62c;
    c4dc:	bf 99             	  ldd.w a9 a9;
    c4de:	a6 f9             	  cmp.w a15 a9;
    c4e0:	f4 0b 07          	  breq 0xc4e7;
    c4e3:	7e e9 42 00       	  call 0x42e9;
    c4e7:	fb 05 04          	  popma a0 0x1 0x4;

0000c4ea <_ifsBlockReadHeader>:
    c4ea:	df 2c 06 00 00    	  mvi a15 0x62c;
    c4ef:	bf ff             	  ldd.w a15 a15;
    c4f1:	f4 30 fc          	  addsp -0x4;
    c4f4:	fe 49 01          	  rspr a9 SP;
    c4f7:	a0 9f             	  std.w a9 a15;
    c4f9:	b3 a0 00 19       	  cmpbreq.w a10 0x0 0xc512;
    c4fd:	b3 c0 00 15       	  cmpbreq.w a12 0x0 0xc512;
    c501:	bf aa             	  ldd.w a10 a10;
    c503:	b2 cd             	  mv.w a13 a12;
    c505:	b6 b4 07          	  lsl.w a11 0x7;
    c508:	0c 10             	  mvi a12 0x10;
    c50a:	7e cb d9 00       	  call 0xd9cb;
    c50e:	3e 14 c5 00       	  jmp 0xc514;
    c512:	0a 02             	  mvi a10 0x2;
    c514:	fe 49 01          	  rspr a9 SP;
    c517:	bf 9f             	  ldd.w a15 a9;
    c519:	d9 2c 06 00 00    	  mvi a9 0x62c;
    c51e:	bf 99             	  ldd.w a9 a9;
    c520:	a6 f9             	  cmp.w a15 a9;
    c522:	f4 0b 07          	  breq 0xc529;
    c525:	7e e9 42 00       	  call 0x42e9;
    c529:	f4 30 04          	  addsp 0x4;
    c52c:	f8 00             	  ret;

0000c52e <_ifsBlockReadAndVerify>:
    c52e:	f4 30 fc          	  addsp -0x4;
    c531:	df 2c 06 00 00    	  mvi a15 0x62c;
    c536:	f9 42             	  pushm a4;
    c538:	bf ff             	  ldd.w a15 a15;
    c53a:	fe 49 01          	  rspr a9 SP;
    c53d:	90 99 14          	  add.w a9 a9 0x14;
    c540:	b2 b3             	  mv.w a3 a11;
    c542:	a0 9f             	  std.w a9 a15;
    c544:	b2 c4             	  mv.w a4 a12;
    c546:	b2 a2             	  mv.w a2 a10;
    c548:	00 02             	  mvi a0 0x2;
    c54a:	b3 a0 00 42       	  cmpbreq.w a10 0x0 0xc58c;
    c54e:	7e 0c c6 00       	  call 0xc60c;
    c552:	00 03             	  mvi a0 0x3;
    c554:	b2 a1             	  mv.w a1 a10;
    c556:	b3 a0 00 36       	  cmpbreq.w a10 0x0 0xc58c;
    c55a:	b2 3b             	  mv.w a11 a3;
    c55c:	b2 2a             	  mv.w a10 a2;
    c55e:	b2 1c             	  mv.w a12 a1;
    c560:	7e 93 c4 00       	  call 0xc493;
    c564:	b2 a0             	  mv.w a0 a10;
    c566:	b3 a4 00 1e       	  cmpbrne.w a10 0x0 0xc584;
    c56a:	b2 1a             	  mv.w a10 a1;
    c56c:	bd b4             	  clr.w a11;
    c56e:	7e 05 c3 00       	  call 0xc305;
    c572:	b2 a0             	  mv.w a0 a10;
    c574:	b3 a4 00 10       	  cmpbrne.w a10 0x0 0xc584;
    c578:	b3 40 00 0c       	  cmpbreq.w a4 0x0 0xc584;
    c57c:	18 19 06          	  ldd.b a9 a1 0x6;
    c57f:	f0 94 ff          	  and a9 0xff;
    c582:	a0 49             	  std.w a4 a9;
    c584:	b2 2a             	  mv.w a10 a2;
    c586:	b2 1b             	  mv.w a11 a1;
    c588:	7e 55 c6 00       	  call 0xc655;
    c58c:	fe 49 01          	  rspr a9 SP;
    c58f:	90 99 14          	  add.w a9 a9 0x14;
    c592:	bf 9f             	  ldd.w a15 a9;
    c594:	d9 2c 06 00 00    	  mvi a9 0x62c;
    c599:	bf 99             	  ldd.w a9 a9;
    c59b:	b2 0a             	  mv.w a10 a0;
    c59d:	a6 f9             	  cmp.w a15 a9;
    c59f:	f4 0b 07          	  breq 0xc5a6;
    c5a2:	7e e9 42 00       	  call 0x42e9;
    c5a6:	fb 45 04          	  popma a4 0x1 0x4;

0000c5a9 <_ifsFlashTracingStart>:
    c5a9:	df 2c 06 00 00    	  mvi a15 0x62c;
    c5ae:	bf fe             	  ldd.w a14 a15;
    c5b0:	f4 30 fc          	  addsp -0x4;
    c5b3:	fe 49 01          	  rspr a9 SP;
    c5b6:	a0 9e             	  std.w a9 a14;
    c5b8:	bf 9e             	  ldd.w a14 a9;
    c5ba:	bf f9             	  ldd.w a9 a15;
    c5bc:	a6 e9             	  cmp.w a14 a9;
    c5be:	f4 0b 07          	  breq 0xc5c5;
    c5c1:	7e e9 42 00       	  call 0x42e9;
    c5c5:	f4 30 04          	  addsp 0x4;
    c5c8:	f8 00             	  ret;

0000c5ca <_ifsFlashTracingEnd>:
    c5ca:	df 2c 06 00 00    	  mvi a15 0x62c;
    c5cf:	bf fe             	  ldd.w a14 a15;
    c5d1:	f4 30 fc          	  addsp -0x4;
    c5d4:	fe 49 01          	  rspr a9 SP;
    c5d7:	a0 9e             	  std.w a9 a14;
    c5d9:	bf 9e             	  ldd.w a14 a9;
    c5db:	bf f9             	  ldd.w a9 a15;
    c5dd:	a6 e9             	  cmp.w a14 a9;
    c5df:	f4 0b 07          	  breq 0xc5e6;
    c5e2:	7e e9 42 00       	  call 0x42e9;
    c5e6:	f4 30 04          	  addsp 0x4;
    c5e9:	f8 00             	  ret;

0000c5eb <_ifsFlashAccessDestruct>:
    c5eb:	df 2c 06 00 00    	  mvi a15 0x62c;
    c5f0:	bf fe             	  ldd.w a14 a15;
    c5f2:	f4 30 fc          	  addsp -0x4;
    c5f5:	fe 49 01          	  rspr a9 SP;
    c5f8:	a0 9e             	  std.w a9 a14;
    c5fa:	bf 9e             	  ldd.w a14 a9;
    c5fc:	bf f9             	  ldd.w a9 a15;
    c5fe:	a6 e9             	  cmp.w a14 a9;
    c600:	f4 0b 07          	  breq 0xc607;
    c603:	7e e9 42 00       	  call 0x42e9;
    c607:	f4 30 04          	  addsp 0x4;
    c60a:	f8 00             	  ret;

0000c60c <_ifsBufferBorrow>:
    c60c:	df 2c 06 00 00    	  mvi a15 0x62c;
    c611:	bf ff             	  ldd.w a15 a15;
    c613:	f4 30 fc          	  addsp -0x4;
    c616:	b2 ae             	  mv.w a14 a10;
    c618:	fe 49 01          	  rspr a9 SP;
    c61b:	a0 9f             	  std.w a9 a15;
    c61d:	98 aa 0e          	  ldd.w a10 a10 0x38;
    c620:	b3 a0 00 0a       	  cmpbreq.w a10 0x0 0xc62a;
    c624:	bd f4             	  clr.w a15;
    c626:	3e 33 c6 00       	  jmp 0xc633;
    c62a:	98 ea 0f          	  ldd.w a10 a14 0x3c;
    c62d:	b3 a0 00 0e       	  cmpbreq.w a10 0x0 0xc63b;
    c631:	0f 01             	  mvi a15 0x1;
    c633:	90 ff 0e          	  add.w a15 a15 0xe;
    c636:	bd 94             	  clr.w a9;
    c638:	bc e9 f9          	  std.w a14 a15 a9;
    c63b:	fe 49 01          	  rspr a9 SP;
    c63e:	bf 9f             	  ldd.w a15 a9;
    c640:	d9 2c 06 00 00    	  mvi a9 0x62c;
    c645:	bf 99             	  ldd.w a9 a9;
    c647:	a6 f9             	  cmp.w a15 a9;
    c649:	f4 0b 07          	  breq 0xc650;
    c64c:	7e e9 42 00       	  call 0x42e9;
    c650:	f4 30 04          	  addsp 0x4;
    c653:	f8 00             	  ret;

0000c655 <_ifsBufferReturn>:
    c655:	df 2c 06 00 00    	  mvi a15 0x62c;
    c65a:	bf ff             	  ldd.w a15 a15;
    c65c:	f4 30 fc          	  addsp -0x4;
    c65f:	fe 49 01          	  rspr a9 SP;
    c662:	a0 9f             	  std.w a9 a15;
    c664:	b3 b0 00 1a       	  cmpbreq.w a11 0x0 0xc67e;
    c668:	98 a9 0e          	  ldd.w a9 a10 0x38;
    c66b:	b3 90 00 0d       	  cmpbreq.w a9 0x0 0xc678;
    c66f:	98 a9 0f          	  ldd.w a9 a10 0x3c;
    c672:	b3 94 00 0c       	  cmpbrne.w a9 0x0 0xc67e;
    c676:	09 01             	  mvi a9 0x1;
    c678:	90 99 0e          	  add.w a9 a9 0xe;
    c67b:	bc ab 99          	  std.w a10 a9 a11;
    c67e:	fe 49 01          	  rspr a9 SP;
    c681:	bf 9f             	  ldd.w a15 a9;
    c683:	d9 2c 06 00 00    	  mvi a9 0x62c;
    c688:	bf 99             	  ldd.w a9 a9;
    c68a:	a6 f9             	  cmp.w a15 a9;
    c68c:	f4 0b 07          	  breq 0xc693;
    c68f:	7e e9 42 00       	  call 0x42e9;
    c693:	f4 30 04          	  addsp 0x4;
    c696:	f8 00             	  ret;

0000c698 <_iteratorInit>:
    c698:	de 2c 06 00 00    	  mvi a14 0x62c;
    c69d:	bf e9             	  ldd.w a9 a14;
    c69f:	f4 30 fc          	  addsp -0x4;
    c6a2:	fe 4f 01          	  rspr a15 SP;
    c6a5:	a0 f9             	  std.w a15 a9;
    c6a7:	98 b9 02          	  ldd.w a9 a11 0x8;
    c6aa:	a0 a9             	  std.w a10 a9;
    c6ac:	09 ff             	  mvi a9 -0x1;
    c6ae:	b5 a9 01          	  std.w a10 0x4 a9;
    c6b1:	98 b9 02          	  ldd.w a9 a11 0x8;
    c6b4:	bf ff             	  ldd.w a15 a15;
    c6b6:	b5 ab 04          	  std.w a10 0x10 a11;
    c6b9:	b5 ac 03          	  std.w a10 0xc a12;
    c6bc:	b5 a9 02          	  std.w a10 0x8 a9;
    c6bf:	bf e9             	  ldd.w a9 a14;
    c6c1:	a6 f9             	  cmp.w a15 a9;
    c6c3:	f4 0b 07          	  breq 0xc6ca;
    c6c6:	7e e9 42 00       	  call 0x42e9;
    c6ca:	f4 30 04          	  addsp 0x4;
    c6cd:	f8 00             	  ret;

0000c6cf <_ifsFileGet>:
    c6cf:	f4 30 fc          	  addsp -0x4;
    c6d2:	df 2c 06 00 00    	  mvi a15 0x62c;
    c6d7:	f9 22             	  pushm a2;
    c6d9:	bf ff             	  ldd.w a15 a15;
    c6db:	fe 49 01          	  rspr a9 SP;
    c6de:	90 99 0c          	  add.w a9 a9 0xc;
    c6e1:	b2 a0             	  mv.w a0 a10;
    c6e3:	a0 9f             	  std.w a9 a15;
    c6e5:	32 c1             	  mv.b a1 a12;
    c6e7:	b2 d2             	  mv.w a2 a13;
    c6e9:	0a 02             	  mvi a10 0x2;
    c6eb:	b3 b0 00 5e       	  cmpbreq.w a11 0x0 0xc749;
    c6ef:	b8 0c 40 01 00    	  add.w a12 a0 0x140;
    c6f4:	bd d4             	  clr.w a13;
    c6f6:	98 c9 04          	  ldd.w a9 a12 0x10;
    c6f9:	b3 90 00 44       	  cmpbreq.w a9 0x0 0xc73d;
    c6fd:	33 14 00 08       	  cmpbrne.b a1 0x0 0xc705;
    c701:	b3 90 03 3c       	  cmpbreq.w a9 0x3 0xc73d;
    c705:	3f cf             	  ldd.b a15 a12;
    c707:	3f b9             	  ldd.b a9 a11;
    c709:	26 f9             	  cmp.b a15 a9;
    c70b:	f4 1b 32          	  brne 0xc73d;
    c70e:	18 cf 01          	  ldd.b a15 a12 0x1;
    c711:	18 b9 01          	  ldd.b a9 a11 0x1;
    c714:	26 f9             	  cmp.b a15 a9;
    c716:	f4 1b 27          	  brne 0xc73d;
    c719:	18 ce 02          	  ldd.b a14 a12 0x2;
    c71c:	18 bf 02          	  ldd.b a15 a11 0x2;
    c71f:	bc dd 90          	  add.w a9 a13 a13;
    c722:	bc 9d 90          	  add.w a9 a9 a13;
    c725:	b6 94 03          	  lsl.w a9 0x3;
    c728:	b8 99 40 01 00    	  add.w a9 a9 0x140;
    c72d:	bc 09 90          	  add.w a9 a0 a9;
    c730:	26 ef             	  cmp.b a14 a15;
    c732:	f4 1b 0b          	  brne 0xc73d;
    c735:	a0 29             	  std.w a2 a9;
    c737:	bd a4             	  clr.w a10;
    c739:	3e 49 c7 00       	  jmp 0xc749;
    c73d:	90 dd 01          	  add.w a13 a13 0x1;
    c740:	90 cc 18          	  add.w a12 a12 0x18;
    c743:	b3 d4 14 b3       	  cmpbrne.w a13 0x14 0xc6f6;
    c747:	0a 04             	  mvi a10 0x4;
    c749:	fe 49 01          	  rspr a9 SP;
    c74c:	90 99 0c          	  add.w a9 a9 0xc;
    c74f:	bf 9f             	  ldd.w a15 a9;
    c751:	d9 2c 06 00 00    	  mvi a9 0x62c;
    c756:	bf 99             	  ldd.w a9 a9;
    c758:	a6 f9             	  cmp.w a15 a9;
    c75a:	f4 0b 07          	  breq 0xc761;
    c75d:	7e e9 42 00       	  call 0x42e9;
    c761:	fb 25 04          	  popma a2 0x1 0x4;

0000c764 <_iteratorNext>:
    c764:	d9 2c 06 00 00    	  mvi a9 0x62c;
    c769:	bf 99             	  ldd.w a9 a9;
    c76b:	f4 30 fc          	  addsp -0x4;
    c76e:	fe 4f 01          	  rspr a15 SP;
    c771:	b2 ac             	  mv.w a12 a10;
    c773:	a0 f9             	  std.w a15 a9;
    c775:	bf ab             	  ldd.w a11 a10;
    c777:	09 f0             	  mvi a9 -0x10;
    c779:	a6 b9             	  cmp.w a11 a9;
    c77b:	f4 0b 0d          	  breq 0xc788;
    c77e:	98 aa 03          	  ldd.w a10 a10 0xc;
    c781:	b5 cb 01          	  std.w a12 0x4 a11;
    c784:	7e 8b d7 00       	  call 0xd78b;
    c788:	fe 49 01          	  rspr a9 SP;
    c78b:	bf 9f             	  ldd.w a15 a9;
    c78d:	d9 2c 06 00 00    	  mvi a9 0x62c;
    c792:	bf 99             	  ldd.w a9 a9;
    c794:	a6 f9             	  cmp.w a15 a9;
    c796:	f4 0b 07          	  breq 0xc79d;
    c799:	7e e9 42 00       	  call 0x42e9;
    c79d:	f4 30 04          	  addsp 0x4;
    c7a0:	f8 00             	  ret;

0000c7a2 <_iteratorSeek>:
    c7a2:	f4 30 fc          	  addsp -0x4;
    c7a5:	df 2c 06 00 00    	  mvi a15 0x62c;
    c7aa:	f9 32             	  pushm a3;
    c7ac:	bf ff             	  ldd.w a15 a15;
    c7ae:	fe 49 01          	  rspr a9 SP;
    c7b1:	b2 a1             	  mv.w a1 a10;
    c7b3:	90 99 10          	  add.w a9 a9 0x10;
    c7b6:	b2 b3             	  mv.w a3 a11;
    c7b8:	a0 9f             	  std.w a9 a15;
    c7ba:	bd 04             	  clr.w a0;
    c7bc:	02 f0             	  mvi a2 -0x10;
    c7be:	3e e3 c7 00       	  jmp 0xc7e3;
    c7c2:	bf 19             	  ldd.w a9 a1;
    c7c4:	a6 92             	  cmp.w a9 a2;
    c7c6:	f4 0d 09          	  brlte 0xc7cf;
    c7c9:	0a 03             	  mvi a10 0x3;
    c7cb:	3e ea c7 00       	  jmp 0xc7ea;
    c7cf:	a6 92             	  cmp.w a9 a2;
    c7d1:	f4 1b 09          	  brne 0xc7da;
    c7d4:	0a 02             	  mvi a10 0x2;
    c7d6:	3e ea c7 00       	  jmp 0xc7ea;
    c7da:	90 00 01          	  add.w a0 a0 0x1;
    c7dd:	b2 1a             	  mv.w a10 a1;
    c7df:	7e 64 c7 00       	  call 0xc764;
    c7e3:	a6 03             	  cmp.w a0 a3;
    c7e5:	f4 08 dd          	  brc 0xc7c2;
    c7e8:	bd a4             	  clr.w a10;
    c7ea:	fe 49 01          	  rspr a9 SP;
    c7ed:	90 99 10          	  add.w a9 a9 0x10;
    c7f0:	bf 9f             	  ldd.w a15 a9;
    c7f2:	d9 2c 06 00 00    	  mvi a9 0x62c;
    c7f7:	bf 99             	  ldd.w a9 a9;
    c7f9:	a6 f9             	  cmp.w a15 a9;
    c7fb:	f4 0b 07          	  breq 0xc802;
    c7fe:	7e e9 42 00       	  call 0x42e9;
    c802:	fb 35 04          	  popma a3 0x1 0x4;

0000c805 <_inforomFsIsGCNeeded>:
    c805:	f4 30 f8          	  addsp -0x8;
    c808:	df 2c 06 00 00    	  mvi a15 0x62c;
    c80d:	f9 82             	  pushm a8;
    c80f:	bf ff             	  ldd.w a15 a15;
    c811:	fe 49 01          	  rspr a9 SP;
    c814:	90 99 28          	  add.w a9 a9 0x28;
    c817:	b2 a3             	  mv.w a3 a10;
    c819:	a0 9f             	  std.w a9 a15;
    c81b:	b2 b8             	  mv.w a8 a11;
    c81d:	b3 a9 00 84 00    	  cmpbreq.w a10 0x0 0xc8a1;
    c822:	b3 b0 00 7f       	  cmpbreq.w a11 0x0 0xc8a1;
    c826:	fe 47 01          	  rspr a7 SP;
    c829:	98 a4 05          	  ldd.w a4 a10 0x14;
    c82c:	bd 24             	  clr.w a2;
    c82e:	bd 54             	  clr.w a5;
    c830:	bd 14             	  clr.w a1;
    c832:	90 77 24          	  add.w a7 a7 0x24;
    c835:	3e 6d c8 00       	  jmp 0xc86d;
    c839:	98 3a 0c          	  ldd.w a10 a3 0x30;
    c83c:	bd 94             	  clr.w a9;
    c83e:	bc 02 b0          	  add.w a11 a0 a2;
    c841:	a0 79             	  std.w a7 a9;
    c843:	b2 7c             	  mv.w a12 a7;
    c845:	7e 8b d7 00       	  call 0xd78b;
    c849:	bf 79             	  ldd.w a9 a7;
    c84b:	0f ff             	  mvi a15 -0x1;
    c84d:	a6 9f             	  cmp.w a9 a15;
    c84f:	f4 0b 09          	  breq 0xc858;
    c852:	3d 64             	  clr.b a6;
    c854:	3e 5b c8 00       	  jmp 0xc85b;
    c858:	90 55 01          	  add.w a5 a5 0x1;
    c85b:	90 00 01          	  add.w a0 a0 0x1;
    c85e:	a6 04             	  cmp.w a0 a4;
    c860:	f4 08 d9          	  brc 0xc839;
    c863:	33 60 00 07       	  cmpbreq.b a6 0x0 0xc86a;
    c867:	90 11 01          	  add.w a1 a1 0x1;
    c86a:	bc 24 20          	  add.w a2 a2 a4;
    c86d:	98 39 03          	  ldd.w a9 a3 0xc;
    c870:	a6 29             	  cmp.w a2 a9;
    c872:	f4 18 0b          	  brnc 0xc87d;
    c875:	06 01             	  mvi a6 0x1;
    c877:	bd 04             	  clr.w a0;
    c879:	3e 5e c8 00       	  jmp 0xc85e;
    c87d:	b2 4b             	  mv.w a11 a4;
    c87f:	b2 1a             	  mv.w a10 a1;
    c881:	7e fc 16 00       	  call 0x16fc;
    c885:	a6 5a             	  cmp.w a5 a10;
    c887:	f4 0d 06          	  brlte 0xc88d;
    c88a:	90 11 01          	  add.w a1 a1 0x1;
    c88d:	98 39 06          	  ldd.w a9 a3 0x18;
    c890:	3d f4             	  clr.b a15;
    c892:	a6 19             	  cmp.w a1 a9;
    c894:	f4 0c 05          	  brgt 0xc899;
    c897:	0f 01             	  mvi a15 0x1;
    c899:	20 8f             	  std.b a8 a15;
    c89b:	bd a4             	  clr.w a10;
    c89d:	3e a3 c8 00       	  jmp 0xc8a3;
    c8a1:	0a 02             	  mvi a10 0x2;
    c8a3:	fe 49 01          	  rspr a9 SP;
    c8a6:	90 99 28          	  add.w a9 a9 0x28;
    c8a9:	bf 9f             	  ldd.w a15 a9;
    c8ab:	d9 2c 06 00 00    	  mvi a9 0x62c;
    c8b0:	bf 99             	  ldd.w a9 a9;
    c8b2:	a6 f9             	  cmp.w a15 a9;
    c8b4:	f4 0b 07          	  breq 0xc8bb;
    c8b7:	7e e9 42 00       	  call 0x42e9;
    c8bb:	fb 85 08          	  popma a8 0x1 0x8;

0000c8be <_ifsGetBlockForWrite>:
    c8be:	f4 30 f0          	  addsp -0x10;
    c8c1:	df 2c 06 00 00    	  mvi a15 0x62c;
    c8c6:	f9 82             	  pushm a8;
    c8c8:	bf ff             	  ldd.w a15 a15;
    c8ca:	fe 49 01          	  rspr a9 SP;
    c8cd:	90 99 30          	  add.w a9 a9 0x30;
    c8d0:	fe 47 01          	  rspr a7 SP;
    c8d3:	a0 9f             	  std.w a9 a15;
    c8d5:	98 a9 08          	  ldd.w a9 a10 0x20;
    c8d8:	b2 a6             	  mv.w a6 a10;
    c8da:	b0 b1 09          	  stdsp.w a11 0x24;
    c8dd:	05 f1             	  mvi a5 -0xf;
    c8df:	b0 91 0a          	  stdsp.w a9 0x28;
    c8e2:	3d 84             	  clr.b a8;
    c8e4:	b2 90             	  mv.w a0 a9;
    c8e6:	90 77 2c          	  add.w a7 a7 0x2c;
    c8e9:	98 69 03          	  ldd.w a9 a6 0xc;
    c8ec:	bd f4             	  clr.w a15;
    c8ee:	a0 7f             	  std.w a7 a15;
    c8f0:	a6 09             	  cmp.w a0 a9;
    c8f2:	f4 08 07          	  brc 0xc8f9;
    c8f5:	bd 04             	  clr.w a0;
    c8f7:	08 01             	  mvi a8 0x1;
    c8f9:	b4 90 0a          	  lddsp.w a9 0x28;
    c8fc:	a6 09             	  cmp.w a0 a9;
    c8fe:	f4 1b 35          	  brne 0xc933;
    c901:	33 80 00 32       	  cmpbreq.b a8 0x0 0xc933;
    c905:	3e 66 c9 00       	  jmp 0xc966;
    c909:	98 6a 0c          	  ldd.w a10 a6 0x30;
    c90c:	bc 10 40          	  add.w a4 a1 a0;
    c90f:	b2 7c             	  mv.w a12 a7;
    c911:	b2 4b             	  mv.w a11 a4;
    c913:	7e 8b d7 00       	  call 0xd78b;
    c917:	bf 79             	  ldd.w a9 a7;
    c919:	0f ff             	  mvi a15 -0x1;
    c91b:	a6 9f             	  cmp.w a9 a15;
    c91d:	f4 1b 0f          	  brne 0xc92c;
    c920:	90 22 01          	  add.w a2 a2 0x1;
    c923:	09 f1             	  mvi a9 -0xf;
    c925:	a6 39             	  cmp.w a3 a9;
    c927:	f4 1b 05          	  brne 0xc92c;
    c92a:	b2 43             	  mv.w a3 a4;
    c92c:	90 11 01          	  add.w a1 a1 0x1;
    c92f:	3e 39 c9 00       	  jmp 0xc939;
    c933:	bd 14             	  clr.w a1;
    c935:	03 f1             	  mvi a3 -0xf;
    c937:	bd 24             	  clr.w a2;
    c939:	98 69 05          	  ldd.w a9 a6 0x14;
    c93c:	a6 19             	  cmp.w a1 a9;
    c93e:	f4 08 cb          	  brc 0xc909;
    c941:	b3 20 00 1e       	  cmpbreq.w a2 0x0 0xc95f;
    c945:	a6 29             	  cmp.w a2 a9;
    c947:	f4 18 0f          	  brnc 0xc956;
    c94a:	b5 60 08          	  std.w a6 0x20 a0;
    c94d:	b4 f0 09          	  lddsp.w a15 0x24;
    c950:	a0 f3             	  std.w a15 a3;
    c952:	3e 77 c9 00       	  jmp 0xc977;
    c956:	0f f1             	  mvi a15 -0xf;
    c958:	a6 5f             	  cmp.w a5 a15;
    c95a:	f4 1b 05          	  brne 0xc95f;
    c95d:	b2 05             	  mv.w a5 a0;
    c95f:	bc 09 00          	  add.w a0 a0 a9;
    c962:	3e e9 c8 00       	  jmp 0xc8e9;
    c966:	0a 1a             	  mvi a10 0x1a;
    c968:	09 f1             	  mvi a9 -0xf;
    c96a:	a6 59             	  cmp.w a5 a9;
    c96c:	f4 0b 0d          	  breq 0xc979;
    c96f:	b5 65 08          	  std.w a6 0x20 a5;
    c972:	b4 90 09          	  lddsp.w a9 0x24;
    c975:	a0 95             	  std.w a9 a5;
    c977:	bd a4             	  clr.w a10;
    c979:	fe 49 01          	  rspr a9 SP;
    c97c:	90 99 30          	  add.w a9 a9 0x30;
    c97f:	bf 9f             	  ldd.w a15 a9;
    c981:	d9 2c 06 00 00    	  mvi a9 0x62c;
    c986:	bf 99             	  ldd.w a9 a9;
    c988:	a6 f9             	  cmp.w a15 a9;
    c98a:	f4 0b 07          	  breq 0xc991;
    c98d:	7e e9 42 00       	  call 0x42e9;
    c991:	fb 85 10          	  popma a8 0x1 0x10;

0000c994 <_ifsGetSectorStats>:
    c994:	f4 30 f8          	  addsp -0x8;
    c997:	d9 2c 06 00 00    	  mvi a9 0x62c;
    c99c:	f9 82             	  pushm a8;
    c99e:	bf 99             	  ldd.w a9 a9;
    c9a0:	fe 4f 01          	  rspr a15 SP;
    c9a3:	90 ff 28          	  add.w a15 a15 0x28;
    c9a6:	b2 a3             	  mv.w a3 a10;
    c9a8:	a0 f9             	  std.w a15 a9;
    c9aa:	b2 b4             	  mv.w a4 a11;
    c9ac:	b2 d0             	  mv.w a0 a13;
    c9ae:	33 c0 00 0e       	  cmpbreq.b a12 0x0 0xc9bc;
    c9b2:	b2 da             	  mv.w a10 a13;
    c9b4:	3d b4             	  clr.b a11;
    c9b6:	0c 14             	  mvi a12 0x14;
    c9b8:	7e 04 da 00       	  call 0xda04;
    c9bc:	fe 42 01          	  rspr a2 SP;
    c9bf:	bd 14             	  clr.w a1;
    c9c1:	90 22 24          	  add.w a2 a2 0x24;
    c9c4:	08 fe             	  mvi a8 -0x2;
    c9c6:	07 ff             	  mvi a7 -0x1;
    c9c8:	06 fc             	  mvi a6 -0x4;
    c9ca:	05 fb             	  mvi a5 -0x5;
    c9cc:	3e 46 ca 00       	  jmp 0xca46;
    c9d0:	98 3a 0c          	  ldd.w a10 a3 0x30;
    c9d3:	bd 94             	  clr.w a9;
    c9d5:	bc 14 b0          	  add.w a11 a1 a4;
    c9d8:	a0 29             	  std.w a2 a9;
    c9da:	b2 2c             	  mv.w a12 a2;
    c9dc:	7e 8b d7 00       	  call 0xd78b;
    c9e0:	bf 29             	  ldd.w a9 a2;
    c9e2:	0f f0             	  mvi a15 -0x10;
    c9e4:	a6 9f             	  cmp.w a9 a15;
    c9e6:	f4 0d 56          	  brlte 0xca3c;
    c9e9:	0f fd             	  mvi a15 -0x3;
    c9eb:	a6 9f             	  cmp.w a9 a15;
    c9ed:	f4 0c 11          	  brgt 0xc9fe;
    c9f0:	a6 96             	  cmp.w a9 a6;
    c9f2:	f4 18 30          	  brnc 0xca22;
    c9f5:	a6 95             	  cmp.w a9 a5;
    c9f7:	f4 1b 45          	  brne 0xca3c;
    c9fa:	3e 15 ca 00       	  jmp 0xca15;
    c9fe:	a6 98             	  cmp.w a9 a8;
    ca00:	f4 0b 2f          	  breq 0xca2f;
    ca03:	a6 97             	  cmp.w a9 a7;
    ca05:	f4 1b 37          	  brne 0xca3c;
    ca08:	98 09 01          	  ldd.w a9 a0 0x4;
    ca0b:	90 99 01          	  add.w a9 a9 0x1;
    ca0e:	b5 09 01          	  std.w a0 0x4 a9;
    ca11:	3e 43 ca 00       	  jmp 0xca43;
    ca15:	98 09 04          	  ldd.w a9 a0 0x10;
    ca18:	90 99 01          	  add.w a9 a9 0x1;
    ca1b:	b5 09 04          	  std.w a0 0x10 a9;
    ca1e:	3e 43 ca 00       	  jmp 0xca43;
    ca22:	98 09 02          	  ldd.w a9 a0 0x8;
    ca25:	90 99 01          	  add.w a9 a9 0x1;
    ca28:	b5 09 02          	  std.w a0 0x8 a9;
    ca2b:	3e 43 ca 00       	  jmp 0xca43;
    ca2f:	98 09 03          	  ldd.w a9 a0 0xc;
    ca32:	90 99 01          	  add.w a9 a9 0x1;
    ca35:	b5 09 03          	  std.w a0 0xc a9;
    ca38:	3e 43 ca 00       	  jmp 0xca43;
    ca3c:	bf 09             	  ldd.w a9 a0;
    ca3e:	90 99 01          	  add.w a9 a9 0x1;
    ca41:	a0 09             	  std.w a0 a9;
    ca43:	90 11 01          	  add.w a1 a1 0x1;
    ca46:	98 39 05          	  ldd.w a9 a3 0x14;
    ca49:	a6 19             	  cmp.w a1 a9;
    ca4b:	f4 08 85          	  brc 0xc9d0;
    ca4e:	fe 49 01          	  rspr a9 SP;
    ca51:	90 99 28          	  add.w a9 a9 0x28;
    ca54:	bf 9f             	  ldd.w a15 a9;
    ca56:	d9 2c 06 00 00    	  mvi a9 0x62c;
    ca5b:	bf 99             	  ldd.w a9 a9;
    ca5d:	a6 f9             	  cmp.w a15 a9;
    ca5f:	f4 0b 07          	  breq 0xca66;
    ca62:	7e e9 42 00       	  call 0x42e9;
    ca66:	fb 85 08          	  popma a8 0x1 0x8;

0000ca69 <_iteratorMove>:
    ca69:	f4 30 f8          	  addsp -0x8;
    ca6c:	df 2c 06 00 00    	  mvi a15 0x62c;
    ca71:	f9 22             	  pushm a2;
    ca73:	b2 a1             	  mv.w a1 a10;
    ca75:	bf ff             	  ldd.w a15 a15;
    ca77:	b2 b2             	  mv.w a2 a11;
    ca79:	98 aa 03          	  ldd.w a10 a10 0xc;
    ca7c:	bf 1b             	  ldd.w a11 a1;
    ca7e:	fe 49 01          	  rspr a9 SP;
    ca81:	90 99 10          	  add.w a9 a9 0x10;
    ca84:	fe 40 01          	  rspr a0 SP;
    ca87:	a0 9f             	  std.w a9 a15;
    ca89:	90 00 0c          	  add.w a0 a0 0xc;
    ca8c:	b2 0c             	  mv.w a12 a0;
    ca8e:	7e 8b d7 00       	  call 0xd78b;
    ca92:	bf 0c             	  ldd.w a12 a0;
    ca94:	98 1a 03          	  ldd.w a10 a1 0xc;
    ca97:	b2 2b             	  mv.w a11 a2;
    ca99:	7e c9 d7 00       	  call 0xd7c9;
    ca9d:	98 1b 01          	  ldd.w a11 a1 0x4;
    caa0:	09 ff             	  mvi a9 -0x1;
    caa2:	a6 b9             	  cmp.w a11 a9;
    caa4:	f4 1b 10          	  brne 0xcab4;
    caa7:	98 19 04          	  ldd.w a9 a1 0x10;
    caaa:	b5 12 02          	  std.w a1 0x8 a2;
    caad:	b5 92 02          	  std.w a9 0x8 a2;
    cab0:	3e bd ca 00       	  jmp 0xcabd;
    cab4:	98 1a 03          	  ldd.w a10 a1 0xc;
    cab7:	b2 2c             	  mv.w a12 a2;
    cab9:	7e c9 d7 00       	  call 0xd7c9;
    cabd:	98 1a 03          	  ldd.w a10 a1 0xc;
    cac0:	bf 1b             	  ldd.w a11 a1;
    cac2:	0c fd             	  mvi a12 -0x3;
    cac4:	7e c9 d7 00       	  call 0xd7c9;
    cac8:	fe 49 01          	  rspr a9 SP;
    cacb:	90 99 10          	  add.w a9 a9 0x10;
    cace:	a0 12             	  std.w a1 a2;
    cad0:	bf 9f             	  ldd.w a15 a9;
    cad2:	d9 2c 06 00 00    	  mvi a9 0x62c;
    cad7:	bf 99             	  ldd.w a9 a9;
    cad9:	a6 f9             	  cmp.w a15 a9;
    cadb:	f4 0b 07          	  breq 0xcae2;
    cade:	7e e9 42 00       	  call 0x42e9;
    cae2:	fb 25 08          	  popma a2 0x1 0x8;

0000cae5 <_ifsClaimSectorSync>:
    cae5:	f4 30 c8          	  addsp -0x38;
    cae8:	df 2c 06 00 00    	  mvi a15 0x62c;
    caed:	f9 82             	  pushm a8;
    caef:	bf ff             	  ldd.w a15 a15;
    caf1:	f4 30 f8          	  addsp -0x8;
    caf4:	fe 49 01          	  rspr a9 SP;
    caf7:	90 99 60          	  add.w a9 a9 0x60;
    cafa:	a0 9f             	  std.w a9 a15;
    cafc:	92 99 04          	  sub.w a9 a9 0x4;
    caff:	18 ae 1c          	  ldd.b a14 a10 0x1c;
    cb02:	bd f4             	  clr.w a15;
    cb04:	a0 9f             	  std.w a9 a15;
    cb06:	98 a9 05          	  ldd.w a9 a10 0x14;
    cb09:	b2 a2             	  mv.w a2 a10;
    cb0b:	0a 05             	  mvi a10 0x5;
    cb0d:	b0 91 0b          	  stdsp.w a9 0x2c;
    cb10:	33 e9 00 1a 02    	  cmpbreq.b a14 0x0 0xcd2a;
    cb15:	98 2b 0c          	  ldd.w a11 a2 0x30;
    cb18:	98 2c 09          	  ldd.w a12 a2 0x24;
    cb1b:	fe 4a 01          	  rspr a10 SP;
    cb1e:	00 f1             	  mvi a0 -0xf;
    cb20:	90 aa 44          	  add.w a10 a10 0x44;
    cb23:	fe 44 01          	  rspr a4 SP;
    cb26:	b2 a6             	  mv.w a6 a10;
    cb28:	01 20             	  mvi a1 0x20;
    cb2a:	7e 05 d8 00       	  call 0xd805;
    cb2e:	b2 05             	  mv.w a5 a0;
    cb30:	b2 a3             	  mv.w a3 a10;
    cb32:	90 44 30          	  add.w a4 a4 0x30;
    cb35:	3e 7e cb 00       	  jmp 0xcb7e;
    cb39:	98 29 08          	  ldd.w a9 a2 0x20;
    cb3c:	a6 39             	  cmp.w a3 a9;
    cb3e:	f4 0b 31          	  breq 0xcb6f;
    cb41:	b2 2a             	  mv.w a10 a2;
    cb43:	b2 3b             	  mv.w a11 a3;
    cb45:	0c 01             	  mvi a12 0x1;
    cb47:	b2 4d             	  mv.w a13 a4;
    cb49:	7e 94 c9 00       	  call 0xc994;
    cb4d:	98 49 04          	  ldd.w a9 a4 0x10;
    cb50:	b3 94 00 1f       	  cmpbrne.w a9 0x0 0xcb6f;
    cb54:	98 49 03          	  ldd.w a9 a4 0xc;
    cb57:	b3 94 00 18       	  cmpbrne.w a9 0x0 0xcb6f;
    cb5b:	98 49 02          	  ldd.w a9 a4 0x8;
    cb5e:	b3 94 00 3b       	  cmpbrne.w a9 0x0 0xcb99;
    cb62:	bf 49             	  ldd.w a9 a4;
    cb64:	a6 91             	  cmp.w a9 a1;
    cb66:	f4 18 09          	  brnc 0xcb6f;
    cb69:	b2 30             	  mv.w a0 a3;
    cb6b:	3e 71 cb 00       	  jmp 0xcb71;
    cb6f:	b2 19             	  mv.w a9 a1;
    cb71:	b4 b0 0b          	  lddsp.w a11 0x2c;
    cb74:	b2 91             	  mv.w a1 a9;
    cb76:	b2 6a             	  mv.w a10 a6;
    cb78:	7e 45 d8 00       	  call 0xd845;
    cb7c:	b2 a3             	  mv.w a3 a10;
    cb7e:	a6 35             	  cmp.w a3 a5;
    cb80:	f4 1b b9          	  brne 0xcb39;
    cb83:	0a 03             	  mvi a10 0x3;
    cb85:	a6 03             	  cmp.w a0 a3;
    cb87:	f5 0b a3 01       	  breq 0xcd2a;
    cb8b:	b3 14 00 0c       	  cmpbrne.w a1 0x0 0xcb97;
    cb8f:	b2 03             	  mv.w a3 a0;
    cb91:	3d 74             	  clr.b a7;
    cb93:	3e 9b cb 00       	  jmp 0xcb9b;
    cb97:	b2 03             	  mv.w a3 a0;
    cb99:	07 01             	  mvi a7 0x1;
    cb9b:	94 38 07          	  lsl.w a8 a3 0x7;
    cb9e:	bd 54             	  clr.w a5;
    cba0:	b2 86             	  mv.w a6 a8;
    cba2:	3e a7 cc 00       	  jmp 0xcca7;
    cba6:	98 2a 0c          	  ldd.w a10 a2 0x30;
    cba9:	bd e4             	  clr.w a14;
    cbab:	bc 53 10          	  add.w a1 a5 a3;
    cbae:	fe 4c 01          	  rspr a12 SP;
    cbb1:	b0 e1 16          	  stdsp.w a14 0x58;
    cbb4:	90 cc 58          	  add.w a12 a12 0x58;
    cbb7:	b2 1b             	  mv.w a11 a1;
    cbb9:	7e 8b d7 00       	  call 0xd78b;
    cbbd:	b3 ad 00 f3 00    	  cmpbrne.w a10 0x0 0xccb0;
    cbc2:	b4 90 16          	  lddsp.w a9 0x58;
    cbc5:	0f f0             	  mvi a15 -0x10;
    cbc7:	a6 9f             	  cmp.w a9 a15;
    cbc9:	f5 0c d8 00       	  brgt 0xcca1;
    cbcd:	bd 94             	  clr.w a9;
    cbcf:	b2 2a             	  mv.w a10 a2;
    cbd1:	b0 91 15          	  stdsp.w a9 0x54;
    cbd4:	7e 0c c6 00       	  call 0xc60c;
    cbd8:	b2 a4             	  mv.w a4 a10;
    cbda:	b3 a9 00 d6 00    	  cmpbreq.w a10 0x0 0xccb0;
    cbdf:	bf 2a             	  ldd.w a10 a2;
    cbe1:	b2 6b             	  mv.w a11 a6;
    cbe3:	4c 80 00          	  mvi a12 0x80;
    cbe6:	b2 4d             	  mv.w a13 a4;
    cbe8:	7e cb d9 00       	  call 0xd9cb;
    cbec:	b2 a0             	  mv.w a0 a10;
    cbee:	b3 ad 00 a7 00    	  cmpbrne.w a10 0x0 0xcc95;
    cbf3:	b2 2a             	  mv.w a10 a2;
    cbf5:	b2 1b             	  mv.w a11 a1;
    cbf7:	b2 4c             	  mv.w a12 a4;
    cbf9:	fe 4d 01          	  rspr a13 SP;
    cbfc:	90 dd 50          	  add.w a13 a13 0x50;
    cbff:	7e 04 c4 00       	  call 0xc404;
    cc03:	b2 a0             	  mv.w a0 a10;
    cc05:	b3 ad 00 90 00    	  cmpbrne.w a10 0x0 0xcc95;
    cc0a:	b2 2a             	  mv.w a10 a2;
    cc0c:	90 4b 01          	  add.w a11 a4 0x1;
    cc0f:	0c 01             	  mvi a12 0x1;
    cc11:	fe 4d 01          	  rspr a13 SP;
    cc14:	90 dd 54          	  add.w a13 a13 0x54;
    cc17:	7e cf c6 00       	  call 0xc6cf;
    cc1b:	b2 a0             	  mv.w a0 a10;
    cc1d:	b3 a4 00 78       	  cmpbrne.w a10 0x0 0xcc95;
    cc21:	b4 b0 15          	  lddsp.w a11 0x54;
    cc24:	98 2c 0c          	  ldd.w a12 a2 0x30;
    cc27:	fe 4a 01          	  rspr a10 SP;
    cc2a:	90 aa 30          	  add.w a10 a10 0x30;
    cc2d:	7e 98 c6 00       	  call 0xc698;
    cc31:	b4 90 0c          	  lddsp.w a9 0x30;
    cc34:	a6 91             	  cmp.w a9 a1;
    cc36:	f4 1b 1e          	  brne 0xcc54;
    cc39:	b4 b0 14          	  lddsp.w a11 0x50;
    cc3c:	fe 4a 01          	  rspr a10 SP;
    cc3f:	90 aa 30          	  add.w a10 a10 0x30;
    cc42:	7e 69 ca 00       	  call 0xca69;
    cc46:	b4 90 15          	  lddsp.w a9 0x54;
    cc49:	98 9f 05          	  ldd.w a15 a9 0x14;
    cc4c:	b3 f4 00 23       	  cmpbrne.w a15 0x0 0xcc6f;
    cc50:	3e 95 cc 00       	  jmp 0xcc95;
    cc54:	0e ef             	  mvi a14 -0x11;
    cc56:	a6 9e             	  cmp.w a9 a14;
    cc58:	f4 0d 09          	  brlte 0xcc61;
    cc5b:	00 03             	  mvi a0 0x3;
    cc5d:	3e 95 cc 00       	  jmp 0xcc95;
    cc61:	fe 4a 01          	  rspr a10 SP;
    cc64:	90 aa 30          	  add.w a10 a10 0x30;
    cc67:	7e 64 c7 00       	  call 0xc764;
    cc6b:	3e 31 cc 00       	  jmp 0xcc31;
    cc6f:	98 f9 02          	  ldd.w a9 a15 0x8;
    cc72:	b4 e0 14          	  lddsp.w a14 0x50;
    cc75:	a6 91             	  cmp.w a9 a1;
    cc77:	f4 1b 06          	  brne 0xcc7d;
    cc7a:	b5 fe 02          	  std.w a15 0x8 a14;
    cc7d:	bf f9             	  ldd.w a9 a15;
    cc7f:	a6 91             	  cmp.w a9 a1;
    cc81:	f4 1b 09          	  brne 0xcc8a;
    cc84:	a0 fe             	  std.w a15 a14;
    cc86:	3e 95 cc 00       	  jmp 0xcc95;
    cc8a:	98 f9 01          	  ldd.w a9 a15 0x4;
    cc8d:	a6 91             	  cmp.w a9 a1;
    cc8f:	f4 1b 06          	  brne 0xcc95;
    cc92:	b5 fe 01          	  std.w a15 0x4 a14;
    cc95:	b2 4b             	  mv.w a11 a4;
    cc97:	b2 2a             	  mv.w a10 a2;
    cc99:	7e 55 c6 00       	  call 0xc655;
    cc9d:	b3 04 00 13       	  cmpbrne.w a0 0x0 0xccb0;
    cca1:	90 55 01          	  add.w a5 a5 0x1;
    cca4:	90 66 80          	  add.w a6 a6 0x80;
    cca7:	98 29 05          	  ldd.w a9 a2 0x14;
    ccaa:	a6 59             	  cmp.w a5 a9;
    ccac:	f5 08 fa fe       	  brc 0xcba6;
    ccb0:	33 70 00 46       	  cmpbreq.b a7 0x0 0xccf6;
    ccb4:	98 2f 04          	  ldd.w a15 a2 0x10;
    ccb7:	b2 8d             	  mv.w a13 a8;
    ccb9:	bd e4             	  clr.w a14;
    ccbb:	b2 2a             	  mv.w a10 a2;
    ccbd:	b0 f1 00          	  stdsp.w a15 0x0;
    ccc0:	0b 02             	  mvi a11 0x2;
    ccc2:	dc 70 00 00 00    	  mvi a12 0x70;
    ccc7:	fe 41 01          	  rspr a1 SP;
    ccca:	90 11 5c          	  add.w a1 a1 0x5c;
    cccd:	b0 11 01          	  stdsp.w a1 0x4;
    ccd0:	7e a9 c5 00       	  call 0xc5a9;
    ccd4:	98 2c 04          	  ldd.w a12 a2 0x10;
    ccd7:	bf 2a             	  ldd.w a10 a2;
    ccd9:	b2 8b             	  mv.w a11 a8;
    ccdb:	04 fb             	  mvi a4 -0x5;
    ccdd:	7e 59 d9 00       	  call 0xd959;
    cce1:	bf 1e             	  ldd.w a14 a1;
    cce3:	98 2c 04          	  ldd.w a12 a2 0x10;
    cce6:	b2 a0             	  mv.w a0 a10;
    cce8:	bd b4             	  clr.w a11;
    ccea:	b2 2a             	  mv.w a10 a2;
    ccec:	b2 0d             	  mv.w a13 a0;
    ccee:	7e ca c5 00       	  call 0xc5ca;
    ccf2:	b3 04 00 06       	  cmpbrne.w a0 0x0 0xccf8;
    ccf6:	04 ff             	  mvi a4 -0x1;
    ccf8:	bd 04             	  clr.w a0;
    ccfa:	3e 0d cd 00       	  jmp 0xcd0d;
    ccfe:	98 2a 0c          	  ldd.w a10 a2 0x30;
    cd01:	bc 03 b0          	  add.w a11 a0 a3;
    cd04:	b2 4c             	  mv.w a12 a4;
    cd06:	90 00 01          	  add.w a0 a0 0x1;
    cd09:	7e c9 d7 00       	  call 0xd7c9;
    cd0d:	b4 90 0b          	  lddsp.w a9 0x2c;
    cd10:	a6 09             	  cmp.w a0 a9;
    cd12:	f4 08 ec          	  brc 0xccfe;
    cd15:	98 2f 03          	  ldd.w a15 a2 0xc;
    cd18:	bc 39 90          	  add.w a9 a3 a9;
    cd1b:	b5 29 09          	  std.w a2 0x24 a9;
    cd1e:	a6 9f             	  cmp.w a9 a15;
    cd20:	f4 08 08          	  brc 0xcd28;
    cd23:	bd 94             	  clr.w a9;
    cd25:	b5 29 09          	  std.w a2 0x24 a9;
    cd28:	bd a4             	  clr.w a10;
    cd2a:	fe 49 01          	  rspr a9 SP;
    cd2d:	90 99 60          	  add.w a9 a9 0x60;
    cd30:	bf 9f             	  ldd.w a15 a9;
    cd32:	d9 2c 06 00 00    	  mvi a9 0x62c;
    cd37:	bf 99             	  ldd.w a9 a9;
    cd39:	a6 f9             	  cmp.w a15 a9;
    cd3b:	f4 0b 07          	  breq 0xcd42;
    cd3e:	7e e9 42 00       	  call 0x42e9;
    cd42:	f4 30 08          	  addsp 0x8;
    cd45:	fb 85 38          	  popma a8 0x1 0x38;

0000cd48 <_inforomFsWrite>:
    cd48:	f4 30 cc          	  addsp -0x34;
    cd4b:	d9 2c 06 00 00    	  mvi a9 0x62c;
    cd50:	f9 82             	  pushm a8;
    cd52:	bf 99             	  ldd.w a9 a9;
    cd54:	f4 30 f8          	  addsp -0x8;
    cd57:	fe 4f 01          	  rspr a15 SP;
    cd5a:	90 ff 5c          	  add.w a15 a15 0x5c;
    cd5d:	a0 f9             	  std.w a15 a9;
    cd5f:	b0 e1 0b          	  stdsp.w a14 0x2c;
    cd62:	b2 c8             	  mv.w a8 a12;
    cd64:	b2 d6             	  mv.w a6 a13;
    cd66:	b2 a3             	  mv.w a3 a10;
    cd68:	b3 b9 00 84 02    	  cmpbreq.w a11 0x0 0xcfec;
    cd6d:	b3 e9 00 7f 02    	  cmpbreq.w a14 0x0 0xcfec;
    cd72:	18 af 2c          	  ldd.b a15 a10 0x2c;
    cd75:	fe 41 01          	  rspr a1 SP;
    cd78:	bd 94             	  clr.w a9;
    cd7a:	90 11 54          	  add.w a1 a1 0x54;
    cd7d:	a0 19             	  std.w a1 a9;
    cd7f:	00 03             	  mvi a0 0x3;
    cd81:	33 f9 00 6d 02    	  cmpbreq.b a15 0x0 0xcfee;
    cd86:	3d c4             	  clr.b a12;
    cd88:	b2 1d             	  mv.w a13 a1;
    cd8a:	7e cf c6 00       	  call 0xc6cf;
    cd8e:	b2 a0             	  mv.w a0 a10;
    cd90:	b3 ad 00 5e 02    	  cmpbrne.w a10 0x0 0xcfee;
    cd95:	bf 17             	  ldd.w a7 a1;
    cd97:	bc 68 f0          	  add.w a15 a6 a8;
    cd9a:	98 79 01          	  ldd.w a9 a7 0x4;
    cd9d:	a6 9f             	  cmp.w a9 a15;
    cd9f:	f5 08 4d 02       	  brc 0xcfec;
    cda3:	98 79 04          	  ldd.w a9 a7 0x10;
    cda6:	b3 94 01 0a       	  cmpbrne.w a9 0x1 0xcdb0;
    cdaa:	00 05             	  mvi a0 0x5;
    cdac:	3e ee cf 00       	  jmp 0xcfee;
    cdb0:	b3 69 00 3e 02    	  cmpbreq.w a6 0x0 0xcfee;
    cdb5:	98 7f 02          	  ldd.w a15 a7 0x8;
    cdb8:	09 f0             	  mvi a9 -0x10;
    cdba:	a6 f9             	  cmp.w a15 a9;
    cdbc:	f5 0b 2a 02       	  breq 0xcfe6;
    cdc0:	b2 3a             	  mv.w a10 a3;
    cdc2:	7e 0c c6 00       	  call 0xc60c;
    cdc6:	b2 a2             	  mv.w a2 a10;
    cdc8:	b3 a9 00 1e 02    	  cmpbreq.w a10 0x0 0xcfe6;
    cdcd:	98 3c 0c          	  ldd.w a12 a3 0x30;
    cdd0:	b2 7b             	  mv.w a11 a7;
    cdd2:	fe 40 01          	  rspr a0 SP;
    cdd5:	90 00 34          	  add.w a0 a0 0x34;
    cdd8:	b2 0a             	  mv.w a10 a0;
    cdda:	7e 98 c6 00       	  call 0xc698;
    cdde:	b2 0a             	  mv.w a10 a0;
    cde0:	b5 70 05          	  std.w a7 0x14 a0;
    cde3:	cc 8b 70          	  udiv a11 a8 0x70;
    cde6:	7e a2 c7 00       	  call 0xc7a2;
    cdea:	b2 a0             	  mv.w a0 a10;
    cdec:	b3 ad 00 e9 01    	  cmpbrne.w a10 0x0 0xcfd5;
    cdf1:	b4 00 0d          	  lddsp.w a0 0x34;
    cdf4:	01 f0             	  mvi a1 -0x10;
    cdf6:	a6 01             	  cmp.w a0 a1;
    cdf8:	f5 0b ce 01       	  breq 0xcfc6;
    cdfc:	f5 0c d0 01       	  brgt 0xcfcc;
    ce00:	3d b4             	  clr.b a11;
    ce02:	4c 80 00          	  mvi a12 0x80;
    ce05:	b2 2a             	  mv.w a10 a2;
    ce07:	7e 04 da 00       	  call 0xda04;
    ce0b:	bf 3a             	  ldd.w a10 a3;
    ce0d:	94 0b 07          	  lsl.w a11 a0 0x7;
    ce10:	4c 80 00          	  mvi a12 0x80;
    ce13:	b2 2d             	  mv.w a13 a2;
    ce15:	7e cb d9 00       	  call 0xd9cb;
    ce19:	b0 a1 0c          	  stdsp.w a10 0x30;
    ce1c:	b3 ad 00 b6 01    	  cmpbrne.w a10 0x0 0xcfd2;
    ce21:	18 29 05          	  ldd.b a9 a2 0x5;
    ce24:	18 2f 04          	  ldd.b a15 a2 0x4;
    ce27:	76 94 08          	  lsl.h a9 0x8;
    ce2a:	f0 f4 ff          	  and a15 0xff;
    ce2d:	ff 9f e5          	  or a14 a9 a15;
    ce30:	09 ff             	  mvi a9 -0x1;
    ce32:	66 e9             	  cmp.h a14 a9;
    ce34:	f5 0b 98 01       	  breq 0xcfcc;
    ce38:	e4 e9 ff ff       	  and a9 a14 0xffff;
    ce3c:	a6 89             	  cmp.w a8 a9;
    ce3e:	f5 08 8e 01       	  brc 0xcfcc;
    ce42:	bd f4             	  clr.w a15;
    ce44:	bc 2f 90          	  add.w a9 a2 a15;
    ce47:	18 99 09          	  ldd.b a9 a9 0x9;
    ce4a:	33 9d 00 82 01    	  cmpbrne.b a9 0x0 0xcfcc;
    ce4f:	90 ff 01          	  add.w a15 a15 0x1;
    ce52:	b3 f4 07 f2       	  cmpbrne.w a15 0x7 0xce44;
    ce56:	3e 08 d0 00       	  jmp 0xd008;
    ce5a:	3c 8e f2          	  sub.b a15 a8 a14;
    ce5d:	26 9f             	  cmp.b a9 a15;
    ce5f:	f5 08 6d 01       	  brc 0xcfcc;
    ce63:	c4 fd ff          	  and a13 a15 0xff;
    ce66:	f0 94 ff          	  and a9 0xff;
    ce69:	bc 9d 52          	  sub.w a5 a9 a13;
    ce6c:	a6 56             	  cmp.w a5 a6;
    ce6e:	f4 0d 05          	  brlte 0xce73;
    ce71:	b2 65             	  mv.w a5 a6;
    ce73:	90 d9 10          	  add.w a9 a13 0x10;
    ce76:	3d a4             	  clr.b a10;
    ce78:	bc 29 b0          	  add.w a11 a2 a9;
    ce7b:	3d c4             	  clr.b a12;
    ce7d:	bd e4             	  clr.w a14;
    ce7f:	3e b3 ce 00       	  jmp 0xceb3;
    ce83:	b1 d6 6f 00       	  cmp.w a13 0x6f;
    ce87:	f5 0c 45 01       	  brgt 0xcfcc;
    ce8b:	b4 10 0b          	  lddsp.w a1 0x2c;
    ce8e:	3c be 98          	  ldd.b a9 a11 a14;
    ce91:	3c 1e f8          	  ldd.b a15 a1 a14;
    ce94:	26 f9             	  cmp.b a15 a9;
    ce96:	f4 0b 17          	  breq 0xcead;
    ce99:	f0 94 ff          	  and a9 0xff;
    ce9c:	39 99 00          	  cpl.b a9 a9;
    ce9f:	fd 9f 04          	  and a9 a15;
    cea2:	33 90 00 06       	  cmpbreq.b a9 0x0 0xcea8;
    cea6:	0a 01             	  mvi a10 0x1;
    cea8:	3c bf e9          	  std.b a11 a14 a15;
    ceab:	0c 01             	  mvi a12 0x1;
    cead:	90 ee 01          	  add.w a14 a14 0x1;
    ceb0:	90 dd 01          	  add.w a13 a13 0x1;
    ceb3:	a6 e5             	  cmp.w a14 a5;
    ceb5:	f4 08 ce          	  brc 0xce83;
    ceb8:	33 c9 00 ed 00    	  cmpbreq.b a12 0x0 0xcfa5;
    cebd:	3f 29             	  ldd.b a9 a2;
    cebf:	f0 94 08          	  and a9 0x8;
    cec2:	f4 0b 08          	  breq 0xceca;
    cec5:	33 a9 00 d0 00    	  cmpbreq.b a10 0x0 0xcf95;
    ceca:	bd 94             	  clr.w a9;
    cecc:	b2 3a             	  mv.w a10 a3;
    cece:	b0 91 14          	  stdsp.w a9 0x50;
    ced1:	b0 91 13          	  stdsp.w a9 0x4c;
    ced4:	b0 91 12          	  stdsp.w a9 0x48;
    ced7:	30 91 5b          	  stdsp.b a9 0x5b;
    ceda:	fe 4b 01          	  rspr a11 SP;
    cedd:	90 bb 5b          	  add.w a11 a11 0x5b;
    cee0:	7e 05 c8 00       	  call 0xc805;
    cee4:	b2 a0             	  mv.w a0 a10;
    cee6:	b3 ad 00 ef 00    	  cmpbrne.w a10 0x0 0xcfd5;
    ceeb:	34 90 5b          	  lddsp.b a9 0x5b;
    ceee:	33 90 00 11       	  cmpbreq.b a9 0x0 0xceff;
    cef2:	b2 3a             	  mv.w a10 a3;
    cef4:	7e e5 ca 00       	  call 0xcae5;
    cef8:	b2 a0             	  mv.w a0 a10;
    cefa:	b3 ad 00 db 00    	  cmpbrne.w a10 0x0 0xcfd5;
    ceff:	b4 00 0d          	  lddsp.w a0 0x34;
    cf02:	b4 40 11          	  lddsp.w a4 0x44;
    cf05:	fe 4f 01          	  rspr a15 SP;
    cf08:	90 ff 50          	  add.w a15 a15 0x50;
    cf0b:	b2 2e             	  mv.w a14 a2;
    cf0d:	94 0d 07          	  lsl.w a13 a0 0x7;
    cf10:	b0 f1 01          	  stdsp.w a15 0x4;
    cf13:	41 80 00          	  mvi a1 0x80;
    cf16:	b2 3a             	  mv.w a10 a3;
    cf18:	0b 01             	  mvi a11 0x1;
    cf1a:	b2 4c             	  mv.w a12 a4;
    cf1c:	b0 11 00          	  stdsp.w a1 0x0;
    cf1f:	7e a9 c5 00       	  call 0xc5a9;
    cf23:	b2 0b             	  mv.w a11 a0;
    cf25:	b2 2c             	  mv.w a12 a2;
    cf27:	b2 3a             	  mv.w a10 a3;
    cf29:	fe 4d 01          	  rspr a13 SP;
    cf2c:	90 dd 4c          	  add.w a13 a13 0x4c;
    cf2f:	7e 04 c4 00       	  call 0xc404;
    cf33:	b4 e0 14          	  lddsp.w a14 0x50;
    cf36:	b2 a0             	  mv.w a0 a10;
    cf38:	b2 1c             	  mv.w a12 a1;
    cf3a:	b2 3a             	  mv.w a10 a3;
    cf3c:	bd b4             	  clr.w a11;
    cf3e:	b2 0d             	  mv.w a13 a0;
    cf40:	7e ca c5 00       	  call 0xc5ca;
    cf44:	b3 0d 00 91 00    	  cmpbrne.w a0 0x0 0xcfd5;
    cf49:	b4 b0 13          	  lddsp.w a11 0x4c;
    cf4c:	fe 4a 01          	  rspr a10 SP;
    cf4f:	90 aa 34          	  add.w a10 a10 0x34;
    cf52:	7e 69 ca 00       	  call 0xca69;
    cf56:	98 3a 0c          	  ldd.w a10 a3 0x30;
    cf59:	b4 b0 0d          	  lddsp.w a11 0x34;
    cf5c:	fe 4c 01          	  rspr a12 SP;
    cf5f:	90 cc 48          	  add.w a12 a12 0x48;
    cf62:	7e 8b d7 00       	  call 0xd78b;
    cf66:	b2 a0             	  mv.w a0 a10;
    cf68:	b3 a4 00 6d       	  cmpbrne.w a10 0x0 0xcfd5;
    cf6c:	b4 90 12          	  lddsp.w a9 0x48;
    cf6f:	01 f0             	  mvi a1 -0x10;
    cf71:	a6 91             	  cmp.w a9 a1;
    cf73:	f4 1b 32          	  brne 0xcfa5;
    cf76:	98 4e 01          	  ldd.w a14 a4 0x4;
    cf79:	cd ef 70          	  umod a15 a14 0x70;
    cf7c:	b3 f4 00 06       	  cmpbrne.w a15 0x0 0xcf82;
    cf80:	0f 70             	  mvi a15 0x70;
    cf82:	18 29 06          	  ldd.b a9 a2 0x6;
    cf85:	f0 94 ff          	  and a9 0xff;
    cf88:	bc 9e 90          	  add.w a9 a9 a14;
    cf8b:	bb 9f 02          	  sub.w a9 a15;
    cf8e:	b5 49 01          	  std.w a4 0x4 a9;
    cf91:	3e a5 cf 00       	  jmp 0xcfa5;
    cf95:	b2 0b             	  mv.w a11 a0;
    cf97:	b2 3a             	  mv.w a10 a3;
    cf99:	b2 2c             	  mv.w a12 a2;
    cf9b:	7e 5e c3 00       	  call 0xc35e;
    cf9f:	b2 a0             	  mv.w a0 a10;
    cfa1:	b3 a4 00 34       	  cmpbrne.w a10 0x0 0xcfd5;
    cfa5:	bb 65 02          	  sub.w a6 a5;
    cfa8:	fe 4a 01          	  rspr a10 SP;
    cfab:	90 aa 34          	  add.w a10 a10 0x34;
    cfae:	7e 64 c7 00       	  call 0xc764;
    cfb2:	b3 60 00 20       	  cmpbreq.w a6 0x0 0xcfd2;
    cfb6:	b4 90 0b          	  lddsp.w a9 0x2c;
    cfb9:	bc 85 80          	  add.w a8 a8 a5;
    cfbc:	bc 95 90          	  add.w a9 a9 a5;
    cfbf:	b0 91 0b          	  stdsp.w a9 0x2c;
    cfc2:	3e f1 cd 00       	  jmp 0xcdf1;
    cfc6:	00 02             	  mvi a0 0x2;
    cfc8:	3e d5 cf 00       	  jmp 0xcfd5;
    cfcc:	00 03             	  mvi a0 0x3;
    cfce:	3e d5 cf 00       	  jmp 0xcfd5;
    cfd2:	b4 00 0c          	  lddsp.w a0 0x30;
    cfd5:	b2 3a             	  mv.w a10 a3;
    cfd7:	b2 2b             	  mv.w a11 a2;
    cfd9:	7e 55 c6 00       	  call 0xc655;
    cfdd:	bd 94             	  clr.w a9;
    cfdf:	b5 79 05          	  std.w a7 0x14 a9;
    cfe2:	3e ee cf 00       	  jmp 0xcfee;
    cfe6:	00 03             	  mvi a0 0x3;
    cfe8:	3e ee cf 00       	  jmp 0xcfee;
    cfec:	00 02             	  mvi a0 0x2;
    cfee:	fe 49 01          	  rspr a9 SP;
    cff1:	90 99 5c          	  add.w a9 a9 0x5c;
    cff4:	bf 9f             	  ldd.w a15 a9;
    cff6:	d9 2c 06 00 00    	  mvi a9 0x62c;
    cffb:	bf 99             	  ldd.w a9 a9;
    cffd:	b2 0a             	  mv.w a10 a0;
    cfff:	a6 f9             	  cmp.w a15 a9;
    d001:	f4 0b 17          	  breq 0xd018;
    d004:	3e 14 d0 00       	  jmp 0xd014;
    d008:	18 29 06          	  ldd.b a9 a2 0x6;
    d00b:	33 9d 00 4f fe    	  cmpbrne.b a9 0x0 0xce5a;
    d010:	3e cc cf 00       	  jmp 0xcfcc;
    d014:	7e e9 42 00       	  call 0x42e9;
    d018:	f4 30 08          	  addsp 0x8;
    d01b:	fb 85 34          	  popma a8 0x1 0x34;

0000d01e <_inforomFsRead>:
    d01e:	f4 30 dc          	  addsp -0x24;
    d021:	df 2c 06 00 00    	  mvi a15 0x62c;
    d026:	f9 82             	  pushm a8;
    d028:	bf ff             	  ldd.w a15 a15;
    d02a:	f4 30 f8          	  addsp -0x8;
    d02d:	fe 49 01          	  rspr a9 SP;
    d030:	90 99 4c          	  add.w a9 a9 0x4c;
    d033:	a0 9f             	  std.w a9 a15;
    d035:	b0 b1 0b          	  stdsp.w a11 0x2c;
    d038:	b2 c2             	  mv.w a2 a12;
    d03a:	b2 d4             	  mv.w a4 a13;
    d03c:	b2 e6             	  mv.w a6 a14;
    d03e:	b2 a5             	  mv.w a5 a10;
    d040:	b3 b9 00 17 01    	  cmpbreq.w a11 0x0 0xd157;
    d045:	b3 e9 00 12 01    	  cmpbreq.w a14 0x0 0xd157;
    d04a:	bd 94             	  clr.w a9;
    d04c:	fe 41 01          	  rspr a1 SP;
    d04f:	3d c4             	  clr.b a12;
    d051:	90 11 48          	  add.w a1 a1 0x48;
    d054:	a0 19             	  std.w a1 a9;
    d056:	b2 1d             	  mv.w a13 a1;
    d058:	7e cf c6 00       	  call 0xc6cf;
    d05c:	b2 a0             	  mv.w a0 a10;
    d05e:	b3 ad 00 fb 00    	  cmpbrne.w a10 0x0 0xd159;
    d063:	bf 19             	  ldd.w a9 a1;
    d065:	bc 42 f0          	  add.w a15 a4 a2;
    d068:	98 99 01          	  ldd.w a9 a9 0x4;
    d06b:	a6 9f             	  cmp.w a9 a15;
    d06d:	f5 08 ea 00       	  brc 0xd157;
    d071:	b2 5a             	  mv.w a10 a5;
    d073:	00 03             	  mvi a0 0x3;
    d075:	7e 0c c6 00       	  call 0xc60c;
    d079:	b2 a3             	  mv.w a3 a10;
    d07b:	b3 a9 00 de 00    	  cmpbreq.w a10 0x0 0xd159;
    d080:	bf 1b             	  ldd.w a11 a1;
    d082:	98 5c 0c          	  ldd.w a12 a5 0x30;
    d085:	fe 40 01          	  rspr a0 SP;
    d088:	90 00 30          	  add.w a0 a0 0x30;
    d08b:	b2 0a             	  mv.w a10 a0;
    d08d:	7e 98 c6 00       	  call 0xc698;
    d091:	b2 0a             	  mv.w a10 a0;
    d093:	cc 2b 70          	  udiv a11 a2 0x70;
    d096:	7e a2 c7 00       	  call 0xc7a2;
    d09a:	b2 a8             	  mv.w a8 a10;
    d09c:	b3 ad 00 ad 00    	  cmpbrne.w a10 0x0 0xd149;
    d0a1:	cd 21 70          	  umod a1 a2 0x70;
    d0a4:	fe 47 01          	  rspr a7 SP;
    d0a7:	42 80 00          	  mvi a2 0x80;
    d0aa:	90 77 44          	  add.w a7 a7 0x44;
    d0ad:	3e 44 d1 00       	  jmp 0xd144;
    d0b1:	b4 00 0c          	  lddsp.w a0 0x30;
    d0b4:	bd 94             	  clr.w a9;
    d0b6:	a0 79             	  std.w a7 a9;
    d0b8:	09 f0             	  mvi a9 -0x10;
    d0ba:	a6 09             	  cmp.w a0 a9;
    d0bc:	f4 1b 09          	  brne 0xd0c5;
    d0bf:	00 02             	  mvi a0 0x2;
    d0c1:	3e 4b d1 00       	  jmp 0xd14b;
    d0c5:	09 f0             	  mvi a9 -0x10;
    d0c7:	a6 09             	  cmp.w a0 a9;
    d0c9:	f4 0d 09          	  brlte 0xd0d2;
    d0cc:	00 03             	  mvi a0 0x3;
    d0ce:	3e 4b d1 00       	  jmp 0xd14b;
    d0d2:	b4 c0 0b          	  lddsp.w a12 0x2c;
    d0d5:	b6 04 07          	  lsl.w a0 0x7;
    d0d8:	bd e4             	  clr.w a14;
    d0da:	b2 0d             	  mv.w a13 a0;
    d0dc:	b2 5a             	  mv.w a10 a5;
    d0de:	bd b4             	  clr.w a11;
    d0e0:	b0 21 00          	  stdsp.w a2 0x0;
    d0e3:	b0 71 01          	  stdsp.w a7 0x4;
    d0e6:	7e a9 c5 00       	  call 0xc5a9;
    d0ea:	bf 5a             	  ldd.w a10 a5;
    d0ec:	b2 0b             	  mv.w a11 a0;
    d0ee:	b2 2c             	  mv.w a12 a2;
    d0f0:	b2 3d             	  mv.w a13 a3;
    d0f2:	7e cb d9 00       	  call 0xd9cb;
    d0f6:	bf 7e             	  ldd.w a14 a7;
    d0f8:	b2 a0             	  mv.w a0 a10;
    d0fa:	b2 3b             	  mv.w a11 a3;
    d0fc:	b2 5a             	  mv.w a10 a5;
    d0fe:	b2 2c             	  mv.w a12 a2;
    d100:	b2 0d             	  mv.w a13 a0;
    d102:	7e ca c5 00       	  call 0xc5ca;
    d106:	b3 04 00 45       	  cmpbrne.w a0 0x0 0xd14b;
    d10a:	b2 3a             	  mv.w a10 a3;
    d10c:	bd b4             	  clr.w a11;
    d10e:	7e 05 c3 00       	  call 0xc305;
    d112:	b2 a0             	  mv.w a0 a10;
    d114:	b3 a4 00 37       	  cmpbrne.w a10 0x0 0xd14b;
    d118:	00 70             	  mvi a0 0x70;
    d11a:	bb 01 02          	  sub.w a0 a1;
    d11d:	a6 04             	  cmp.w a0 a4;
    d11f:	f4 0d 05          	  brlte 0xd124;
    d122:	b2 40             	  mv.w a0 a4;
    d124:	90 1b 10          	  add.w a11 a1 0x10;
    d127:	b2 6a             	  mv.w a10 a6;
    d129:	bc 3b b0          	  add.w a11 a3 a11;
    d12c:	b2 0c             	  mv.w a12 a0;
    d12e:	7e 2f da 00       	  call 0xda2f;
    d132:	fe 4a 01          	  rspr a10 SP;
    d135:	bb 40 02          	  sub.w a4 a0;
    d138:	90 aa 30          	  add.w a10 a10 0x30;
    d13b:	bc 60 60          	  add.w a6 a6 a0;
    d13e:	7e 64 c7 00       	  call 0xc764;
    d142:	bd 14             	  clr.w a1;
    d144:	b3 4d 00 6d ff    	  cmpbrne.w a4 0x0 0xd0b1;
    d149:	b2 80             	  mv.w a0 a8;
    d14b:	b2 5a             	  mv.w a10 a5;
    d14d:	b2 3b             	  mv.w a11 a3;
    d14f:	7e 55 c6 00       	  call 0xc655;
    d153:	3e 59 d1 00       	  jmp 0xd159;
    d157:	00 02             	  mvi a0 0x2;
    d159:	fe 49 01          	  rspr a9 SP;
    d15c:	90 99 4c          	  add.w a9 a9 0x4c;
    d15f:	bf 9f             	  ldd.w a15 a9;
    d161:	d9 2c 06 00 00    	  mvi a9 0x62c;
    d166:	bf 99             	  ldd.w a9 a9;
    d168:	b2 0a             	  mv.w a10 a0;
    d16a:	a6 f9             	  cmp.w a15 a9;
    d16c:	f4 0b 07          	  breq 0xd173;
    d16f:	7e e9 42 00       	  call 0x42e9;
    d173:	f4 30 08          	  addsp 0x8;
    d176:	fb 85 24          	  popma a8 0x1 0x24;

0000d179 <_inforomFsConstruct>:
    d179:	f4 30 f8          	  addsp -0x8;
    d17c:	d9 2c 06 00 00    	  mvi a9 0x62c;
    d181:	f9 32             	  pushm a3;
    d183:	bf 99             	  ldd.w a9 a9;
    d185:	fe 4f 01          	  rspr a15 SP;
    d188:	90 ff 14          	  add.w a15 a15 0x14;
    d18b:	b2 a1             	  mv.w a1 a10;
    d18d:	a0 f9             	  std.w a15 a9;
    d18f:	bd 94             	  clr.w a9;
    d191:	b2 b2             	  mv.w a2 a11;
    d193:	b2 c3             	  mv.w a3 a12;
    d195:	fe 40 01          	  rspr a0 SP;
    d198:	4b 20 03          	  mvi a11 0x320;
    d19b:	90 00 10          	  add.w a0 a0 0x10;
    d19e:	a0 09             	  std.w a0 a9;
    d1a0:	b2 0a             	  mv.w a10 a0;
    d1a2:	7e 57 da 00       	  call 0xda57;
    d1a6:	bf 09             	  ldd.w a9 a0;
    d1a8:	b3 90 00 4c       	  cmpbreq.w a9 0x0 0xd1f4;
    d1ac:	b3 a4 00 48       	  cmpbrne.w a10 0x0 0xd1f4;
    d1b0:	a0 91             	  std.w a9 a1;
    d1b2:	bf 09             	  ldd.w a9 a0;
    d1b4:	b5 92 01          	  std.w a9 0x4 a2;
    d1b7:	bf 0f             	  ldd.w a15 a0;
    d1b9:	49 00 10          	  mvi a9 0x1000;
    d1bc:	b5 f9 04          	  std.w a15 0x10 a9;
    d1bf:	bf 0f             	  ldd.w a15 a0;
    d1c1:	09 20             	  mvi a9 0x20;
    d1c3:	b5 f9 05          	  std.w a15 0x14 a9;
    d1c6:	bf 09             	  ldd.w a9 a0;
    d1c8:	b5 93 06          	  std.w a9 0x18 a3;
    d1cb:	bf 0f             	  ldd.w a15 a0;
    d1cd:	09 01             	  mvi a9 0x1;
    d1cf:	35 f9 1c          	  std.b a15 0x1c a9;
    d1d2:	bf 09             	  ldd.w a9 a0;
    d1d4:	35 9a 2c          	  std.b a9 0x2c a10;
    d1d7:	bf 0f             	  ldd.w a15 a0;
    d1d9:	09 f0             	  mvi a9 -0x10;
    d1db:	b5 f9 0a          	  std.w a15 0x28 a9;
    d1de:	bf 0f             	  ldd.w a15 a0;
    d1e0:	90 f9 40          	  add.w a9 a15 0x40;
    d1e3:	b5 f9 0e          	  std.w a15 0x38 a9;
    d1e6:	bf 0f             	  ldd.w a15 a0;
    d1e8:	90 f9 c0          	  add.w a9 a15 0xc0;
    d1eb:	b5 f9 0f          	  std.w a15 0x3c a9;
    d1ee:	bf 0a             	  ldd.w a10 a0;
    d1f0:	3e f6 d1 00       	  jmp 0xd1f6;
    d1f4:	bd a4             	  clr.w a10;
    d1f6:	fe 49 01          	  rspr a9 SP;
    d1f9:	90 99 14          	  add.w a9 a9 0x14;
    d1fc:	bf 9f             	  ldd.w a15 a9;
    d1fe:	d9 2c 06 00 00    	  mvi a9 0x62c;
    d203:	bf 99             	  ldd.w a9 a9;
    d205:	a6 f9             	  cmp.w a15 a9;
    d207:	f4 0b 07          	  breq 0xd20e;
    d20a:	7e e9 42 00       	  call 0x42e9;
    d20e:	fb 35 08          	  popma a3 0x1 0x8;

0000d211 <_inforomFsLoad>:
    d211:	f4 30 d0          	  addsp -0x30;
    d214:	df 2c 06 00 00    	  mvi a15 0x62c;
    d219:	f9 82             	  pushm a8;
    d21b:	bf ff             	  ldd.w a15 a15;
    d21d:	fe 49 01          	  rspr a9 SP;
    d220:	90 99 50          	  add.w a9 a9 0x50;
    d223:	b2 a3             	  mv.w a3 a10;
    d225:	a0 9f             	  std.w a9 a15;
    d227:	05 02             	  mvi a5 0x2;
    d229:	b3 a9 00 fb 04    	  cmpbreq.w a10 0x0 0xd724;
    d22e:	30 b6 00          	  cmp.b a11 0x0;
    d231:	f0 9c 0b          	  sgetb a9 0xb;
    d234:	35 a9 2c          	  std.b a10 0x2c a9;
    d237:	bd 94             	  clr.w a9;
    d239:	b5 a9 0c          	  std.w a10 0x30 a9;
    d23c:	7e 0c c6 00       	  call 0xc60c;
    d240:	b2 a0             	  mv.w a0 a10;
    d242:	bf 3a             	  ldd.w a10 a3;
    d244:	bd b4             	  clr.w a11;
    d246:	4c 80 00          	  mvi a12 0x80;
    d249:	b2 0d             	  mv.w a13 a0;
    d24b:	7e cb d9 00       	  call 0xd9cb;
    d24f:	b2 a5             	  mv.w a5 a10;
    d251:	b3 ad 00 b1 04    	  cmpbrne.w a10 0x0 0xd702;
    d256:	3f 09             	  ldd.b a9 a0;
    d258:	33 9d 4a a2 04    	  cmpbrne.b a9 0x4a 0xd6fa;
    d25d:	18 09 01          	  ldd.b a9 a0 0x1;
    d260:	33 9d 46 9a 04    	  cmpbrne.b a9 0x46 0xd6fa;
    d265:	18 09 02          	  ldd.b a9 a0 0x2;
    d268:	33 9d 46 92 04    	  cmpbrne.b a9 0x46 0xd6fa;
    d26d:	18 09 03          	  ldd.b a9 a0 0x3;
    d270:	33 9d 53 8a 04    	  cmpbrne.b a9 0x53 0xd6fa;
    d275:	18 0e 04          	  ldd.b a14 a0 0x4;
    d278:	18 09 05          	  ldd.b a9 a0 0x5;
    d27b:	18 0f 06          	  ldd.b a15 a0 0x6;
    d27e:	18 0d 07          	  ldd.b a13 a0 0x7;
    d281:	f0 e4 ff          	  and a14 0xff;
    d284:	f0 94 ff          	  and a9 0xff;
    d287:	f0 f4 ff          	  and a15 0xff;
    d28a:	b6 94 08          	  lsl.w a9 0x8;
    d28d:	b6 f4 10          	  lsl.w a15 0x10;
    d290:	fd 9e 05          	  or a9 a14;
    d293:	b6 d4 18          	  lsl.w a13 0x18;
    d296:	fd f9 05          	  or a15 a9;
    d299:	fd df 05          	  or a13 a15;
    d29c:	f5 0b 5e 04       	  breq 0xd6fa;
    d2a0:	05 05             	  mvi a5 0x5;
    d2a2:	b0 d6 03          	  cmp.w a13 0x3;
    d2a5:	f5 0c 5d 04       	  brgt 0xd702;
    d2a9:	b5 3d 01          	  std.w a3 0x4 a13;
    d2ac:	b3 d4 01 0e       	  cmpbrne.w a13 0x1 0xd2ba;
    d2b0:	49 00 50          	  mvi a9 0x5000;
    d2b3:	b5 39 02          	  std.w a3 0x8 a9;
    d2b6:	3e e4 d2 00       	  jmp 0xd2e4;
    d2ba:	18 0d 08          	  ldd.b a13 a0 0x8;
    d2bd:	18 09 09          	  ldd.b a9 a0 0x9;
    d2c0:	18 0f 0a          	  ldd.b a15 a0 0xa;
    d2c3:	18 0e 0b          	  ldd.b a14 a0 0xb;
    d2c6:	f0 d4 ff          	  and a13 0xff;
    d2c9:	f0 94 ff          	  and a9 0xff;
    d2cc:	f0 f4 ff          	  and a15 0xff;
    d2cf:	b6 94 08          	  lsl.w a9 0x8;
    d2d2:	b6 f4 10          	  lsl.w a15 0x10;
    d2d5:	fd 9d 05          	  or a9 a13;
    d2d8:	b6 e4 18          	  lsl.w a14 0x18;
    d2db:	fd f9 05          	  or a15 a9;
    d2de:	fd ef 05          	  or a14 a15;
    d2e1:	b5 3e 02          	  std.w a3 0x8 a14;
    d2e4:	b2 3a             	  mv.w a10 a3;
    d2e6:	b2 0b             	  mv.w a11 a0;
    d2e8:	7e 55 c6 00       	  call 0xc655;
    d2ec:	98 3a 02          	  ldd.w a10 a3 0x8;
    d2ef:	09 ff             	  mvi a9 -0x1;
    d2f1:	a6 a9             	  cmp.w a10 a9;
    d2f3:	f4 1b 09          	  brne 0xd2fc;
    d2f6:	bd 04             	  clr.w a0;
    d2f8:	3e fa d6 00       	  jmp 0xd6fa;
    d2fc:	b6 a5 07          	  lsr.w a10 0x7;
    d2ff:	90 3b 30          	  add.w a11 a3 0x30;
    d302:	b5 3a 03          	  std.w a3 0xc a10;
    d305:	7e c1 d8 00       	  call 0xd8c1;
    d309:	b2 a5             	  mv.w a5 a10;
    d30b:	b3 ad 00 f5 03    	  cmpbrne.w a10 0x0 0xd700;
    d310:	98 3b 03          	  ldd.w a11 a3 0xc;
    d313:	09 c0             	  mvi a9 -0x40;
    d315:	90 3a 34          	  add.w a10 a3 0x34;
    d318:	90 bb 3f          	  add.w a11 a11 0x3f;
    d31b:	fd b9 04          	  and a11 a9;
    d31e:	b6 b5 03          	  lsr.w a11 0x3;
    d321:	7e 57 da 00       	  call 0xda57;
    d325:	b2 a5             	  mv.w a5 a10;
    d327:	b3 ad 00 d9 03    	  cmpbrne.w a10 0x0 0xd700;
    d32c:	fe 47 01          	  rspr a7 SP;
    d32f:	fe 48 01          	  rspr a8 SP;
    d332:	90 77 40          	  add.w a7 a7 0x40;
    d335:	bd 44             	  clr.w a4;
    d337:	90 79 01          	  add.w a9 a7 0x1;
    d33a:	90 88 3c          	  add.w a8 a8 0x3c;
    d33d:	b0 91 09          	  stdsp.w a9 0x24;
    d340:	3e 54 d4 00       	  jmp 0xd454;
    d344:	bd e4             	  clr.w a14;
    d346:	a0 8e             	  std.w a8 a14;
    d348:	b3 44 00 0f       	  cmpbrne.w a4 0x0 0xd357;
    d34c:	98 3a 0c          	  ldd.w a10 a3 0x30;
    d34f:	bd b4             	  clr.w a11;
    d351:	0c fe             	  mvi a12 -0x2;
    d353:	3e 77 d3 00       	  jmp 0xd377;
    d357:	b2 3a             	  mv.w a10 a3;
    d359:	b2 4b             	  mv.w a11 a4;
    d35b:	b2 7c             	  mv.w a12 a7;
    d35d:	7e ea c4 00       	  call 0xc4ea;
    d361:	b2 a5             	  mv.w a5 a10;
    d363:	b3 ad 00 9d 03    	  cmpbrne.w a10 0x0 0xd700;
    d368:	3f 79             	  ldd.b a9 a7;
    d36a:	f0 94 01          	  and a9 0x1;
    d36d:	f4 0b 12          	  breq 0xd37f;
    d370:	98 3a 0c          	  ldd.w a10 a3 0x30;
    d373:	b2 4b             	  mv.w a11 a4;
    d375:	0c ff             	  mvi a12 -0x1;
    d377:	7e c9 d7 00       	  call 0xd7c9;
    d37b:	3e 51 d4 00       	  jmp 0xd451;
    d37f:	b2 7a             	  mv.w a10 a7;
    d381:	7e fb c1 00       	  call 0xc1fb;
    d385:	b3 a0 00 0f       	  cmpbreq.w a10 0x0 0xd394;
    d389:	98 3a 0c          	  ldd.w a10 a3 0x30;
    d38c:	b2 4b             	  mv.w a11 a4;
    d38e:	0c fd             	  mvi a12 -0x3;
    d390:	3e 77 d3 00       	  jmp 0xd377;
    d394:	3f 79             	  ldd.b a9 a7;
    d396:	f0 94 02          	  and a9 0x2;
    d399:	f4 1b 0e          	  brne 0xd3a7;
    d39c:	98 3a 0c          	  ldd.w a10 a3 0x30;
    d39f:	b2 4b             	  mv.w a11 a4;
    d3a1:	0c fd             	  mvi a12 -0x3;
    d3a3:	3e 46 d4 00       	  jmp 0xd446;
    d3a7:	b4 b0 09          	  lddsp.w a11 0x24;
    d3aa:	b2 3a             	  mv.w a10 a3;
    d3ac:	0c 01             	  mvi a12 0x1;
    d3ae:	b2 8d             	  mv.w a13 a8;
    d3b0:	7e cf c6 00       	  call 0xc6cf;
    d3b4:	b3 a0 00 5d       	  cmpbreq.w a10 0x0 0xd411;
    d3b8:	3f 79             	  ldd.b a9 a7;
    d3ba:	b2 3f             	  mv.w a15 a3;
    d3bc:	bd 24             	  clr.w a2;
    d3be:	c7 99 02          	  uxtr a9 a9 0x2;
    d3c1:	90 99 01          	  add.w a9 a9 0x1;
    d3c4:	b0 91 0a          	  stdsp.w a9 0x28;
    d3c7:	98 f5 54          	  ldd.w a5 a15 0x150;
    d3ca:	b3 54 00 39       	  cmpbrne.w a5 0x0 0xd403;
    d3ce:	b4 b0 09          	  lddsp.w a11 0x24;
    d3d1:	bc 22 00          	  add.w a0 a2 a2;
    d3d4:	0c 03             	  mvi a12 0x3;
    d3d6:	bc 02 00          	  add.w a0 a0 a2;
    d3d9:	b6 04 03          	  lsl.w a0 0x3;
    d3dc:	b8 01 40 01 00    	  add.w a1 a0 0x140;
    d3e1:	bc 31 10          	  add.w a1 a3 a1;
    d3e4:	b2 1a             	  mv.w a10 a1;
    d3e6:	7e 2f da 00       	  call 0xda2f;
    d3ea:	bc 30 00          	  add.w a0 a3 a0;
    d3ed:	b8 09 43 01 00    	  add.w a9 a0 0x143;
    d3f2:	20 95             	  std.b a9 a5;
    d3f4:	b5 02 53          	  std.w a0 0x14c a2;
    d3f7:	b4 f0 0a          	  lddsp.w a15 0x28;
    d3fa:	b5 0f 54          	  std.w a0 0x150 a15;
    d3fd:	a0 81             	  std.w a8 a1;
    d3ff:	3e 11 d4 00       	  jmp 0xd411;
    d403:	90 22 01          	  add.w a2 a2 0x1;
    d406:	90 ff 18          	  add.w a15 a15 0x18;
    d409:	b3 24 14 be       	  cmpbrne.w a2 0x14 0xd3c7;
    d40d:	3e 3e d7 00       	  jmp 0xd73e;
    d411:	bf 8e             	  ldd.w a14 a8;
    d413:	3f 79             	  ldd.b a9 a7;
    d415:	58 7f 02          	  ldd.h a15 a7 0x4;
    d418:	18 7d 07          	  ldd.b a13 a7 0x7;
    d41b:	98 ee 03          	  ldd.w a14 a14 0xc;
    d41e:	98 3a 0d          	  ldd.w a10 a3 0x34;
    d421:	c7 99 02          	  uxtr a9 a9 0x2;
    d424:	f0 f3 00          	  sethi a15 0x0;
    d427:	cc ff 70          	  udiv a15 a15 0x70;
    d42a:	cb 96 1f          	  mrg a6 a9 0x1f;
    d42d:	b2 4b             	  mv.w a11 a4;
    d42f:	cb e6 d8          	  mrg a6 a14 0xd8;
    d432:	0c 01             	  mvi a12 0x1;
    d434:	cb d6 f0          	  mrg a6 a13 0xf0;
    d437:	eb f6 e0 01       	  mrg a6 a15 0x1e0;
    d43b:	7e 24 c1 00       	  call 0xc124;
    d43f:	98 3a 0c          	  ldd.w a10 a3 0x30;
    d442:	b2 4b             	  mv.w a11 a4;
    d444:	b2 6c             	  mv.w a12 a6;
    d446:	7e c9 d7 00       	  call 0xd7c9;
    d44a:	b2 a5             	  mv.w a5 a10;
    d44c:	b3 ad 00 b4 02    	  cmpbrne.w a10 0x0 0xd700;
    d451:	90 44 01          	  add.w a4 a4 0x1;
    d454:	98 3b 03          	  ldd.w a11 a3 0xc;
    d457:	a6 4b             	  cmp.w a4 a11;
    d459:	f5 08 eb fe       	  brc 0xd344;
    d45d:	bd 94             	  clr.w a9;
    d45f:	bc bb b0          	  add.w a11 a11 a11;
    d462:	a0 89             	  std.w a8 a9;
    d464:	b2 8a             	  mv.w a10 a8;
    d466:	7e 8b da 00       	  call 0xda8b;
    d46a:	b2 a5             	  mv.w a5 a10;
    d46c:	b3 ad 00 94 02    	  cmpbrne.w a10 0x0 0xd700;
    d471:	b2 37             	  mv.w a7 a3;
    d473:	bd 84             	  clr.w a8;
    d475:	98 7f 54          	  ldd.w a15 a7 0x150;
    d478:	bc 88 90          	  add.w a9 a8 a8;
    d47b:	bc 98 90          	  add.w a9 a9 a8;
    d47e:	b6 94 03          	  lsl.w a9 0x3;
    d481:	b8 99 40 01 00    	  add.w a9 a9 0x140;
    d486:	bc 39 90          	  add.w a9 a3 a9;
    d489:	b0 91 0b          	  stdsp.w a9 0x2c;
    d48c:	b3 f9 00 53 02    	  cmpbreq.w a15 0x0 0xd6df;
    d491:	98 3c 03          	  ldd.w a12 a3 0xc;
    d494:	b4 a0 0f          	  lddsp.w a10 0x3c;
    d497:	3d b4             	  clr.b a11;
    d499:	bd 24             	  clr.w a2;
    d49b:	bc cc c0          	  add.w a12 a12 a12;
    d49e:	bd 44             	  clr.w a4;
    d4a0:	7e 04 da 00       	  call 0xda04;
    d4a4:	b4 60 0f          	  lddsp.w a6 0x3c;
    d4a7:	3e 6f d5 00       	  jmp 0xd56f;
    d4ab:	98 3a 0d          	  ldd.w a10 a3 0x34;
    d4ae:	b2 2b             	  mv.w a11 a2;
    d4b0:	b0 41 0c          	  stdsp.w a4 0x30;
    d4b3:	7e 78 c1 00       	  call 0xc178;
    d4b7:	33 a9 00 b5 00    	  cmpbreq.b a10 0x0 0xd56c;
    d4bc:	98 3a 0c          	  ldd.w a10 a3 0x30;
    d4bf:	fe 4c 01          	  rspr a12 SP;
    d4c2:	b2 2b             	  mv.w a11 a2;
    d4c4:	90 cc 38          	  add.w a12 a12 0x38;
    d4c7:	7e 8b d7 00       	  call 0xd78b;
    d4cb:	b3 ad 00 0c 02    	  cmpbrne.w a10 0x0 0xd6d7;
    d4d0:	b4 e0 0b          	  lddsp.w a14 0x2c;
    d4d3:	b4 90 0e          	  lddsp.w a9 0x38;
    d4d6:	98 ef 03          	  ldd.w a15 a14 0xc;
    d4d9:	c7 99 d8          	  uxtr a9 a9 0xd8;
    d4dc:	a6 9f             	  cmp.w a9 a15;
    d4de:	f5 1b 8e 00       	  brne 0xd56c;
    d4e2:	98 3a 0d          	  ldd.w a10 a3 0x34;
    d4e5:	b2 2b             	  mv.w a11 a2;
    d4e7:	0c 01             	  mvi a12 0x1;
    d4e9:	7e 4e c1 00       	  call 0xc14e;
    d4ed:	fe 4c 01          	  rspr a12 SP;
    d4f0:	b2 3a             	  mv.w a10 a3;
    d4f2:	b2 2b             	  mv.w a11 a2;
    d4f4:	90 cc 30          	  add.w a12 a12 0x30;
    d4f7:	7e 2e c5 00       	  call 0xc52e;
    d4fb:	b3 a4 06 13       	  cmpbrne.w a10 0x6 0xd50e;
    d4ff:	98 3a 0c          	  ldd.w a10 a3 0x30;
    d502:	b2 2b             	  mv.w a11 a2;
    d504:	0c fd             	  mvi a12 -0x3;
    d506:	7e c9 d7 00       	  call 0xd7c9;
    d50a:	3e 6c d5 00       	  jmp 0xd56c;
    d50e:	b3 ad 00 cb 01    	  cmpbrne.w a10 0x0 0xd6d9;
    d513:	74 90 1c          	  lddsp.h a9 0x38;
    d516:	f0 93 00          	  sethi a9 0x0;
    d519:	bc 99 90          	  add.w a9 a9 a9;
    d51c:	bc 69 00          	  add.w a0 a6 a9;
    d51f:	7f 01             	  ldd.h a1 a0;
    d521:	e4 19 ff ff       	  and a9 a1 0xffff;
    d525:	f4 1b 09          	  brne 0xd52e;
    d528:	60 02             	  std.h a0 a2;
    d52a:	3e 6c d5 00       	  jmp 0xd56c;
    d52e:	98 3a 0c          	  ldd.w a10 a3 0x30;
    d531:	fe 4c 01          	  rspr a12 SP;
    d534:	e4 1b ff ff       	  and a11 a1 0xffff;
    d538:	90 cc 34          	  add.w a12 a12 0x34;
    d53b:	7e 8b d7 00       	  call 0xd78b;
    d53f:	b3 ad 00 98 01    	  cmpbrne.w a10 0x0 0xd6d7;
    d544:	34 f0 3a          	  lddsp.b a15 0x3a;
    d547:	34 90 36          	  lddsp.b a9 0x36;
    d54a:	26 f9             	  cmp.b a15 a9;
    d54c:	f4 0d 10          	  brlte 0xd55c;
    d54f:	60 02             	  std.h a0 a2;
    d551:	e4 1b ff ff       	  and a11 a1 0xffff;
    d555:	98 3a 0c          	  ldd.w a10 a3 0x30;
    d558:	3e 61 d5 00       	  jmp 0xd561;
    d55c:	98 3a 0c          	  ldd.w a10 a3 0x30;
    d55f:	b2 2b             	  mv.w a11 a2;
    d561:	0c fd             	  mvi a12 -0x3;
    d563:	7e c9 d7 00       	  call 0xd7c9;
    d567:	b3 ad 00 70 01    	  cmpbrne.w a10 0x0 0xd6d7;
    d56c:	90 22 01          	  add.w a2 a2 0x1;
    d56f:	98 3a 03          	  ldd.w a10 a3 0xc;
    d572:	a6 2a             	  cmp.w a2 a10;
    d574:	f5 08 37 ff       	  brc 0xd4ab;
    d578:	b2 64             	  mv.w a4 a6;
    d57a:	b2 6e             	  mv.w a14 a6;
    d57c:	3d b4             	  clr.b a11;
    d57e:	3d d4             	  clr.b a13;
    d580:	bd f4             	  clr.w a15;
    d582:	bd c4             	  clr.w a12;
    d584:	3e a3 d5 00       	  jmp 0xd5a3;
    d588:	7f e9             	  ldd.h a9 a14;
    d58a:	73 94 00 0a       	  cmpbrne.h a9 0x0 0xd594;
    d58e:	0d 01             	  mvi a13 0x1;
    d590:	3e 9d d5 00       	  jmp 0xd59d;
    d594:	33 d0 00 06       	  cmpbreq.b a13 0x0 0xd59a;
    d598:	0b 01             	  mvi a11 0x1;
    d59a:	90 cc 01          	  add.w a12 a12 0x1;
    d59d:	90 ff 01          	  add.w a15 a15 0x1;
    d5a0:	90 ee 02          	  add.w a14 a14 0x2;
    d5a3:	a6 fa             	  cmp.w a15 a10;
    d5a5:	f4 08 e3          	  brc 0xd588;
    d5a8:	b3 c4 00 0b       	  cmpbrne.w a12 0x0 0xd5b3;
    d5ac:	b5 7c 54          	  std.w a7 0x150 a12;
    d5af:	3e df d6 00       	  jmp 0xd6df;
    d5b3:	33 b9 00 a6 00    	  cmpbreq.b a11 0x0 0xd659;
    d5b8:	98 39 01          	  ldd.w a9 a3 0x4;
    d5bb:	b0 96 02          	  cmp.w a9 0x2;
    d5be:	f4 0c 30          	  brgt 0xd5ee;
    d5c1:	09 03             	  mvi a9 0x3;
    d5c3:	b2 6d             	  mv.w a13 a6;
    d5c5:	b5 79 54          	  std.w a7 0x150 a9;
    d5c8:	bd e4             	  clr.w a14;
    d5ca:	bd f4             	  clr.w a15;
    d5cc:	3e e2 d5 00       	  jmp 0xd5e2;
    d5d0:	7f d9             	  ldd.h a9 a13;
    d5d2:	73 90 00 0a       	  cmpbreq.h a9 0x0 0xd5dc;
    d5d6:	7c 69 f9          	  std.h a6 a15 a9;
    d5d9:	90 ff 01          	  add.w a15 a15 0x1;
    d5dc:	90 ee 01          	  add.w a14 a14 0x1;
    d5df:	90 dd 02          	  add.w a13 a13 0x2;
    d5e2:	98 39 03          	  ldd.w a9 a3 0xc;
    d5e5:	a6 e9             	  cmp.w a14 a9;
    d5e7:	f4 08 e9          	  brc 0xd5d0;
    d5ea:	3e 59 d6 00       	  jmp 0xd659;
    d5ee:	bd 94             	  clr.w a9;
    d5f0:	0b f1             	  mvi a11 -0xf;
    d5f2:	b5 79 54          	  std.w a7 0x150 a9;
    d5f5:	bd 24             	  clr.w a2;
    d5f7:	b2 b1             	  mv.w a1 a11;
    d5f9:	3e 33 d6 00       	  jmp 0xd633;
    d5fd:	7f 40             	  ldd.h a0 a4;
    d5ff:	e4 09 ff ff       	  and a9 a0 0xffff;
    d603:	f4 0b 26          	  breq 0xd629;
    d606:	0f f1             	  mvi a15 -0xf;
    d608:	a6 bf             	  cmp.w a11 a15;
    d60a:	f4 1b 0b          	  brne 0xd615;
    d60d:	e4 0b ff ff       	  and a11 a0 0xffff;
    d611:	3e 2b d6 00       	  jmp 0xd62b;
    d615:	98 3a 0c          	  ldd.w a10 a3 0x30;
    d618:	e4 0c ff ff       	  and a12 a0 0xffff;
    d61c:	7e c9 d7 00       	  call 0xd7c9;
    d620:	b3 ad 00 b9 00    	  cmpbrne.w a10 0x0 0xd6d9;
    d625:	e4 0b ff ff       	  and a11 a0 0xffff;
    d629:	b2 19             	  mv.w a9 a1;
    d62b:	90 22 01          	  add.w a2 a2 0x1;
    d62e:	90 44 02          	  add.w a4 a4 0x2;
    d631:	b2 91             	  mv.w a1 a9;
    d633:	98 39 03          	  ldd.w a9 a3 0xc;
    d636:	a6 29             	  cmp.w a2 a9;
    d638:	f4 08 c5          	  brc 0xd5fd;
    d63b:	09 f1             	  mvi a9 -0xf;
    d63d:	a6 b9             	  cmp.w a11 a9;
    d63f:	f5 0b a0 00       	  breq 0xd6df;
    d643:	98 3a 0c          	  ldd.w a10 a3 0x30;
    d646:	98 3c 0a          	  ldd.w a12 a3 0x28;
    d649:	7e c9 d7 00       	  call 0xd7c9;
    d64d:	b3 ad 00 8c 00    	  cmpbrne.w a10 0x0 0xd6d9;
    d652:	b5 31 0a          	  std.w a3 0x28 a1;
    d655:	3e df d6 00       	  jmp 0xd6df;
    d659:	7f 6f             	  ldd.h a15 a6;
    d65b:	bd 94             	  clr.w a9;
    d65d:	92 c1 01          	  sub.w a1 a12 0x1;
    d660:	b5 79 51          	  std.w a7 0x144 a9;
    d663:	f0 f3 00          	  sethi a15 0x0;
    d666:	bd 04             	  clr.w a0;
    d668:	b5 7f 52          	  std.w a7 0x148 a15;
    d66b:	3e 97 d6 00       	  jmp 0xd697;
    d66f:	7f 4b             	  ldd.h a11 a4;
    d671:	58 4c 01          	  ldd.h a12 a4 0x2;
    d674:	98 3a 0c          	  ldd.w a10 a3 0x30;
    d677:	90 00 01          	  add.w a0 a0 0x1;
    d67a:	f0 b3 00          	  sethi a11 0x0;
    d67d:	f0 c3 00          	  sethi a12 0x0;
    d680:	90 44 02          	  add.w a4 a4 0x2;
    d683:	7e c9 d7 00       	  call 0xd7c9;
    d687:	b3 a4 00 52       	  cmpbrne.w a10 0x0 0xd6d9;
    d68b:	b4 e0 0b          	  lddsp.w a14 0x2c;
    d68e:	98 e9 01          	  ldd.w a9 a14 0x4;
    d691:	90 99 70          	  add.w a9 a9 0x70;
    d694:	b5 e9 01          	  std.w a14 0x4 a9;
    d697:	a6 01             	  cmp.w a0 a1;
    d699:	f4 08 d6          	  brc 0xd66f;
    d69c:	7c 60 08          	  ldd.h a0 a6 a0;
    d69f:	98 3a 0c          	  ldd.w a10 a3 0x30;
    d6a2:	0c f0             	  mvi a12 -0x10;
    d6a4:	e4 0b ff ff       	  and a11 a0 0xffff;
    d6a8:	7e c9 d7 00       	  call 0xd7c9;
    d6ac:	b3 a4 00 2d       	  cmpbrne.w a10 0x0 0xd6d9;
    d6b0:	fe 4c 01          	  rspr a12 SP;
    d6b3:	e4 0b ff ff       	  and a11 a0 0xffff;
    d6b7:	b2 3a             	  mv.w a10 a3;
    d6b9:	90 cc 40          	  add.w a12 a12 0x40;
    d6bc:	7e ea c4 00       	  call 0xc4ea;
    d6c0:	b3 a4 00 19       	  cmpbrne.w a10 0x0 0xd6d9;
    d6c4:	34 90 46          	  lddsp.b a9 0x46;
    d6c7:	98 7f 51          	  ldd.w a15 a7 0x144;
    d6ca:	f0 94 ff          	  and a9 0xff;
    d6cd:	bc f9 f0          	  add.w a15 a15 a9;
    d6d0:	b5 7f 51          	  std.w a7 0x144 a15;
    d6d3:	3e df d6 00       	  jmp 0xd6df;
    d6d7:	0a 03             	  mvi a10 0x3;
    d6d9:	b2 a5             	  mv.w a5 a10;
    d6db:	3e ea d6 00       	  jmp 0xd6ea;
    d6df:	90 88 01          	  add.w a8 a8 0x1;
    d6e2:	90 77 18          	  add.w a7 a7 0x18;
    d6e5:	b3 8d 14 90 fd    	  cmpbrne.w a8 0x14 0xd475;
    d6ea:	fe 49 01          	  rspr a9 SP;
    d6ed:	90 99 3c          	  add.w a9 a9 0x3c;
    d6f0:	bf 9a             	  ldd.w a10 a9;
    d6f2:	7e 38 d9 00       	  call 0xd938;
    d6f6:	3e 00 d7 00       	  jmp 0xd700;
    d6fa:	05 03             	  mvi a5 0x3;
    d6fc:	3e 02 d7 00       	  jmp 0xd702;
    d700:	bd 04             	  clr.w a0;
    d702:	b2 0b             	  mv.w a11 a0;
    d704:	b2 3a             	  mv.w a10 a3;
    d706:	7e 55 c6 00       	  call 0xc655;
    d70a:	b3 50 00 1a       	  cmpbreq.w a5 0x0 0xd724;
    d70e:	98 3a 0c          	  ldd.w a10 a3 0x30;
    d711:	bd 04             	  clr.w a0;
    d713:	7e 90 d8 00       	  call 0xd890;
    d717:	98 3a 0d          	  ldd.w a10 a3 0x34;
    d71a:	b5 30 0c          	  std.w a3 0x30 a0;
    d71d:	7e 38 d9 00       	  call 0xd938;
    d721:	b5 30 0d          	  std.w a3 0x34 a0;
    d724:	fe 49 01          	  rspr a9 SP;
    d727:	90 99 50          	  add.w a9 a9 0x50;
    d72a:	bf 9f             	  ldd.w a15 a9;
    d72c:	d9 2c 06 00 00    	  mvi a9 0x62c;
    d731:	bf 99             	  ldd.w a9 a9;
    d733:	b2 5a             	  mv.w a10 a5;
    d735:	a6 f9             	  cmp.w a15 a9;
    d737:	f4 0b 11          	  breq 0xd748;
    d73a:	3e 44 d7 00       	  jmp 0xd744;
    d73e:	05 01             	  mvi a5 0x1;
    d740:	3e 00 d7 00       	  jmp 0xd700;
    d744:	7e e9 42 00       	  call 0x42e9;
    d748:	fb 85 30          	  popma a8 0x1 0x30;

0000d74b <_inforomFsDestruct>:
    d74b:	f4 30 fc          	  addsp -0x4;
    d74e:	f9 22             	  pushm a2;
    d750:	d2 2c 06 00 00    	  mvi a2 0x62c;
    d755:	bf 29             	  ldd.w a9 a2;
    d757:	b2 a0             	  mv.w a0 a10;
    d759:	fe 41 01          	  rspr a1 SP;
    d75c:	90 11 0c          	  add.w a1 a1 0xc;
    d75f:	a0 19             	  std.w a1 a9;
    d761:	7e eb c5 00       	  call 0xc5eb;
    d765:	98 0a 0c          	  ldd.w a10 a0 0x30;
    d768:	7e 90 d8 00       	  call 0xd890;
    d76c:	98 0a 0d          	  ldd.w a10 a0 0x34;
    d76f:	7e 38 d9 00       	  call 0xd938;
    d773:	b2 0a             	  mv.w a10 a0;
    d775:	7e 38 d9 00       	  call 0xd938;
    d779:	bf 1f             	  ldd.w a15 a1;
    d77b:	bf 29             	  ldd.w a9 a2;
    d77d:	bd a4             	  clr.w a10;
    d77f:	a6 f9             	  cmp.w a15 a9;
    d781:	f4 0b 07          	  breq 0xd788;
    d784:	7e e9 42 00       	  call 0x42e9;
    d788:	fb 25 04          	  popma a2 0x1 0x4;

0000d78b <_ifsMapGet>:
    d78b:	d9 2c 06 00 00    	  mvi a9 0x62c;
    d790:	bf 99             	  ldd.w a9 a9;
    d792:	f4 30 fc          	  addsp -0x4;
    d795:	fe 4f 01          	  rspr a15 SP;
    d798:	b2 ae             	  mv.w a14 a10;
    d79a:	a0 f9             	  std.w a15 a9;
    d79c:	bf a9             	  ldd.w a9 a10;
    d79e:	0a 02             	  mvi a10 0x2;
    d7a0:	a6 b9             	  cmp.w a11 a9;
    d7a2:	f4 18 0d          	  brnc 0xd7af;
    d7a5:	90 b9 01          	  add.w a9 a11 0x1;
    d7a8:	bc e9 98          	  ldd.w a9 a14 a9;
    d7ab:	bd a4             	  clr.w a10;
    d7ad:	a0 c9             	  std.w a12 a9;
    d7af:	fe 49 01          	  rspr a9 SP;
    d7b2:	bf 9f             	  ldd.w a15 a9;
    d7b4:	d9 2c 06 00 00    	  mvi a9 0x62c;
    d7b9:	bf 99             	  ldd.w a9 a9;
    d7bb:	a6 f9             	  cmp.w a15 a9;
    d7bd:	f4 0b 07          	  breq 0xd7c4;
    d7c0:	7e e9 42 00       	  call 0x42e9;
    d7c4:	f4 30 04          	  addsp 0x4;
    d7c7:	f8 00             	  ret;

0000d7c9 <_ifsMapSet>:
    d7c9:	d9 2c 06 00 00    	  mvi a9 0x62c;
    d7ce:	bf 99             	  ldd.w a9 a9;
    d7d0:	f4 30 fc          	  addsp -0x4;
    d7d3:	fe 4f 01          	  rspr a15 SP;
    d7d6:	b2 ae             	  mv.w a14 a10;
    d7d8:	a0 f9             	  std.w a15 a9;
    d7da:	bf a9             	  ldd.w a9 a10;
    d7dc:	0a 02             	  mvi a10 0x2;
    d7de:	a6 b9             	  cmp.w a11 a9;
    d7e0:	f4 18 0b          	  brnc 0xd7eb;
    d7e3:	90 b9 01          	  add.w a9 a11 0x1;
    d7e6:	bd a4             	  clr.w a10;
    d7e8:	bc ec 99          	  std.w a14 a9 a12;
    d7eb:	fe 49 01          	  rspr a9 SP;
    d7ee:	bf 9f             	  ldd.w a15 a9;
    d7f0:	d9 2c 06 00 00    	  mvi a9 0x62c;
    d7f5:	bf 99             	  ldd.w a9 a9;
    d7f7:	a6 f9             	  cmp.w a15 a9;
    d7f9:	f4 0b 07          	  breq 0xd800;
    d7fc:	7e e9 42 00       	  call 0x42e9;
    d800:	f4 30 04          	  addsp 0x4;
    d803:	f8 00             	  ret;

0000d805 <_ifsMapIterStart>:
    d805:	d9 2c 06 00 00    	  mvi a9 0x62c;
    d80a:	bf 99             	  ldd.w a9 a9;
    d80c:	f4 30 fc          	  addsp -0x4;
    d80f:	fe 4f 01          	  rspr a15 SP;
    d812:	a0 f9             	  std.w a15 a9;
    d814:	bf b9             	  ldd.w a9 a11;
    d816:	a6 c9             	  cmp.w a12 a9;
    d818:	f4 08 09          	  brc 0xd821;
    d81b:	0c f1             	  mvi a12 -0xf;
    d81d:	3e 29 d8 00       	  jmp 0xd829;
    d821:	b5 ab 02          	  std.w a10 0x8 a11;
    d824:	a0 ac             	  std.w a10 a12;
    d826:	b5 ac 01          	  std.w a10 0x4 a12;
    d829:	fe 49 01          	  rspr a9 SP;
    d82c:	bf 9f             	  ldd.w a15 a9;
    d82e:	d9 2c 06 00 00    	  mvi a9 0x62c;
    d833:	bf 99             	  ldd.w a9 a9;
    d835:	b2 ca             	  mv.w a10 a12;
    d837:	a6 f9             	  cmp.w a15 a9;
    d839:	f4 0b 07          	  breq 0xd840;
    d83c:	7e e9 42 00       	  call 0x42e9;
    d840:	f4 30 04          	  addsp 0x4;
    d843:	f8 00             	  ret;

0000d845 <_ifsMapIterNext>:
    d845:	df 2c 06 00 00    	  mvi a15 0x62c;
    d84a:	bf ff             	  ldd.w a15 a15;
    d84c:	f4 30 fc          	  addsp -0x4;
    d84f:	fe 49 01          	  rspr a9 SP;
    d852:	bf ae             	  ldd.w a14 a10;
    d854:	a0 9f             	  std.w a9 a15;
    d856:	98 a9 02          	  ldd.w a9 a10 0x8;
    d859:	bc be b0          	  add.w a11 a11 a14;
    d85c:	a0 ab             	  std.w a10 a11;
    d85e:	bf 99             	  ldd.w a9 a9;
    d860:	a6 b9             	  cmp.w a11 a9;
    d862:	f4 08 08          	  brc 0xd86a;
    d865:	bc b9 92          	  sub.w a9 a11 a9;
    d868:	a0 a9             	  std.w a10 a9;
    d86a:	98 a9 01          	  ldd.w a9 a10 0x4;
    d86d:	bf aa             	  ldd.w a10 a10;
    d86f:	a6 a9             	  cmp.w a10 a9;
    d871:	f4 1b 05          	  brne 0xd876;
    d874:	0a f1             	  mvi a10 -0xf;
    d876:	fe 49 01          	  rspr a9 SP;
    d879:	bf 9f             	  ldd.w a15 a9;
    d87b:	d9 2c 06 00 00    	  mvi a9 0x62c;
    d880:	bf 99             	  ldd.w a9 a9;
    d882:	a6 f9             	  cmp.w a15 a9;
    d884:	f4 0b 07          	  breq 0xd88b;
    d887:	7e e9 42 00       	  call 0x42e9;
    d88b:	f4 30 04          	  addsp 0x4;
    d88e:	f8 00             	  ret;

0000d890 <_ifsMapDestroy>:
    d890:	d9 2c 06 00 00    	  mvi a9 0x62c;
    d895:	bf 99             	  ldd.w a9 a9;
    d897:	f4 30 fc          	  addsp -0x4;
    d89a:	fe 4f 01          	  rspr a15 SP;
    d89d:	a0 f9             	  std.w a15 a9;
    d89f:	b3 a0 00 08       	  cmpbreq.w a10 0x0 0xd8a7;
    d8a3:	7e 38 d9 00       	  call 0xd938;
    d8a7:	fe 49 01          	  rspr a9 SP;
    d8aa:	bf 9f             	  ldd.w a15 a9;
    d8ac:	d9 2c 06 00 00    	  mvi a9 0x62c;
    d8b1:	bf 99             	  ldd.w a9 a9;
    d8b3:	a6 f9             	  cmp.w a15 a9;
    d8b5:	f4 0b 07          	  breq 0xd8bc;
    d8b8:	7e e9 42 00       	  call 0x42e9;
    d8bc:	f4 30 04          	  addsp 0x4;
    d8bf:	f8 00             	  ret;

0000d8c1 <_ifsMapCreate>:
    d8c1:	f4 30 f8          	  addsp -0x8;
    d8c4:	df 2c 06 00 00    	  mvi a15 0x62c;
    d8c9:	f9 32             	  pushm a3;
    d8cb:	bf ff             	  ldd.w a15 a15;
    d8cd:	fe 49 01          	  rspr a9 SP;
    d8d0:	90 99 14          	  add.w a9 a9 0x14;
    d8d3:	b2 a0             	  mv.w a0 a10;
    d8d5:	a0 9f             	  std.w a9 a15;
    d8d7:	b2 b3             	  mv.w a3 a11;
    d8d9:	b3 a0 00 42       	  cmpbreq.w a10 0x0 0xd91b;
    d8dd:	02 fd             	  mvi a2 -0x3;
    d8df:	a6 a2             	  cmp.w a10 a2;
    d8e1:	f4 0c 3a          	  brgt 0xd91b;
    d8e4:	90 ab 01          	  add.w a11 a10 0x1;
    d8e7:	fe 41 01          	  rspr a1 SP;
    d8ea:	b6 b4 02          	  lsl.w a11 0x2;
    d8ed:	90 11 10          	  add.w a1 a1 0x10;
    d8f0:	b2 1a             	  mv.w a10 a1;
    d8f2:	7e 8b da 00       	  call 0xda8b;
    d8f6:	b3 a4 00 27       	  cmpbrne.w a10 0x0 0xd91d;
    d8fa:	bf 19             	  ldd.w a9 a1;
    d8fc:	b2 1d             	  mv.w a13 a1;
    d8fe:	b2 2c             	  mv.w a12 a2;
    d900:	bd e4             	  clr.w a14;
    d902:	a0 90             	  std.w a9 a0;
    d904:	bf df             	  ldd.w a15 a13;
    d906:	90 e9 01          	  add.w a9 a14 0x1;
    d909:	b2 9e             	  mv.w a14 a9;
    d90b:	bc fc 99          	  std.w a15 a9 a12;
    d90e:	a6 90             	  cmp.w a9 a0;
    d910:	f4 08 f4          	  brc 0xd904;
    d913:	bf dd             	  ldd.w a13 a13;
    d915:	a0 3d             	  std.w a3 a13;
    d917:	3e 1d d9 00       	  jmp 0xd91d;
    d91b:	0a 02             	  mvi a10 0x2;
    d91d:	fe 49 01          	  rspr a9 SP;
    d920:	90 99 14          	  add.w a9 a9 0x14;
    d923:	bf 9f             	  ldd.w a15 a9;
    d925:	d9 2c 06 00 00    	  mvi a9 0x62c;
    d92a:	bf 99             	  ldd.w a9 a9;
    d92c:	a6 f9             	  cmp.w a15 a9;
    d92e:	f4 0b 07          	  breq 0xd935;
    d931:	7e e9 42 00       	  call 0x42e9;
    d935:	fb 35 08          	  popma a3 0x1 0x8;

0000d938 <_fsFreeMem>:
    d938:	df 2c 06 00 00    	  mvi a15 0x62c;
    d93d:	bf fe             	  ldd.w a14 a15;
    d93f:	f4 30 fc          	  addsp -0x4;
    d942:	fe 49 01          	  rspr a9 SP;
    d945:	a0 9e             	  std.w a9 a14;
    d947:	bf 9e             	  ldd.w a14 a9;
    d949:	bf f9             	  ldd.w a9 a15;
    d94b:	a6 e9             	  cmp.w a14 a9;
    d94d:	f4 0b 07          	  breq 0xd954;
    d950:	7e e9 42 00       	  call 0x42e9;
    d954:	f4 30 04          	  addsp 0x4;
    d957:	f8 00             	  ret;

0000d959 <_eraseFlash>:
    d959:	f4 30 fc          	  addsp -0x4;
    d95c:	f9 12             	  pushm a1;
    d95e:	d1 2c 06 00 00    	  mvi a1 0x62c;
    d963:	bf 19             	  ldd.w a9 a1;
    d965:	fe 40 01          	  rspr a0 SP;
    d968:	da 9c 2a 00 00    	  mvi a10 0x2a9c;
    d96d:	90 00 08          	  add.w a0 a0 0x8;
    d970:	a0 09             	  std.w a0 a9;
    d972:	7e d3 4c 00       	  call 0x4cd3;
    d976:	bf 0f             	  ldd.w a15 a0;
    d978:	bf 19             	  ldd.w a9 a1;
    d97a:	30 a6 00          	  cmp.b a10 0x0;
    d97d:	f0 ac 0b          	  sgetb a10 0xb;
    d980:	f0 a6 01          	  xor a10 0x1;
    d983:	b9 aa 01          	  neg.w a10 a10;
    d986:	a6 f9             	  cmp.w a15 a9;
    d988:	f4 0b 07          	  breq 0xd98f;
    d98b:	7e e9 42 00       	  call 0x42e9;
    d98f:	fb 15 04          	  popma a1 0x1 0x4;

0000d992 <_writeFlash>:
    d992:	f4 30 fc          	  addsp -0x4;
    d995:	f9 12             	  pushm a1;
    d997:	d1 2c 06 00 00    	  mvi a1 0x62c;
    d99c:	bf 19             	  ldd.w a9 a1;
    d99e:	fe 40 01          	  rspr a0 SP;
    d9a1:	da 9c 2a 00 00    	  mvi a10 0x2a9c;
    d9a6:	90 00 08          	  add.w a0 a0 0x8;
    d9a9:	a0 09             	  std.w a0 a9;
    d9ab:	7e 21 4c 00       	  call 0x4c21;
    d9af:	bf 0f             	  ldd.w a15 a0;
    d9b1:	bf 19             	  ldd.w a9 a1;
    d9b3:	30 a6 00          	  cmp.b a10 0x0;
    d9b6:	f0 ac 0b          	  sgetb a10 0xb;
    d9b9:	f0 a6 01          	  xor a10 0x1;
    d9bc:	b9 aa 01          	  neg.w a10 a10;
    d9bf:	a6 f9             	  cmp.w a15 a9;
    d9c1:	f4 0b 07          	  breq 0xd9c8;
    d9c4:	7e e9 42 00       	  call 0x42e9;
    d9c8:	fb 15 04          	  popma a1 0x1 0x4;

0000d9cb <_readFlash>:
    d9cb:	f4 30 fc          	  addsp -0x4;
    d9ce:	f9 12             	  pushm a1;
    d9d0:	d1 2c 06 00 00    	  mvi a1 0x62c;
    d9d5:	bf 19             	  ldd.w a9 a1;
    d9d7:	fe 40 01          	  rspr a0 SP;
    d9da:	da 9c 2a 00 00    	  mvi a10 0x2a9c;
    d9df:	90 00 08          	  add.w a0 a0 0x8;
    d9e2:	a0 09             	  std.w a0 a9;
    d9e4:	7e 39 4e 00       	  call 0x4e39;
    d9e8:	bf 0f             	  ldd.w a15 a0;
    d9ea:	bf 19             	  ldd.w a9 a1;
    d9ec:	30 a6 00          	  cmp.b a10 0x0;
    d9ef:	f0 ac 0b          	  sgetb a10 0xb;
    d9f2:	f0 a6 01          	  xor a10 0x1;
    d9f5:	b9 aa 01          	  neg.w a10 a10;
    d9f8:	a6 f9             	  cmp.w a15 a9;
    d9fa:	f4 0b 07          	  breq 0xda01;
    d9fd:	7e e9 42 00       	  call 0x42e9;
    da01:	fb 15 04          	  popma a1 0x1 0x4;

0000da04 <_fsMemSet>:
    da04:	f4 30 fc          	  addsp -0x4;
    da07:	f9 12             	  pushm a1;
    da09:	d1 2c 06 00 00    	  mvi a1 0x62c;
    da0e:	bf 19             	  ldd.w a9 a1;
    da10:	f0 b4 ff          	  and a11 0xff;
    da13:	fe 40 01          	  rspr a0 SP;
    da16:	90 00 08          	  add.w a0 a0 0x8;
    da19:	a0 09             	  std.w a0 a9;
    da1b:	7e 94 0b 00       	  call 0xb94;
    da1f:	bf 0f             	  ldd.w a15 a0;
    da21:	bf 19             	  ldd.w a9 a1;
    da23:	a6 f9             	  cmp.w a15 a9;
    da25:	f4 0b 07          	  breq 0xda2c;
    da28:	7e e9 42 00       	  call 0x42e9;
    da2c:	fb 15 04          	  popma a1 0x1 0x4;

0000da2f <_fsMemCopy>:
    da2f:	f4 30 fc          	  addsp -0x4;
    da32:	f9 12             	  pushm a1;
    da34:	d1 2c 06 00 00    	  mvi a1 0x62c;
    da39:	bf 19             	  ldd.w a9 a1;
    da3b:	fe 40 01          	  rspr a0 SP;
    da3e:	90 00 08          	  add.w a0 a0 0x8;
    da41:	a0 09             	  std.w a0 a9;
    da43:	7e 7e 0b 00       	  call 0xb7e;
    da47:	bf 0f             	  ldd.w a15 a0;
    da49:	bf 19             	  ldd.w a9 a1;
    da4b:	a6 f9             	  cmp.w a15 a9;
    da4d:	f4 0b 07          	  breq 0xda54;
    da50:	7e e9 42 00       	  call 0x42e9;
    da54:	fb 15 04          	  popma a1 0x1 0x4;

0000da57 <_fsAllocZeroMem>:
    da57:	f4 30 fc          	  addsp -0x4;
    da5a:	f9 22             	  pushm a2;
    da5c:	d1 2c 06 00 00    	  mvi a1 0x62c;
    da61:	bf 19             	  ldd.w a9 a1;
    da63:	b2 a2             	  mv.w a2 a10;
    da65:	fe 40 01          	  rspr a0 SP;
    da68:	3d a4             	  clr.b a10;
    da6a:	90 00 0c          	  add.w a0 a0 0xc;
    da6d:	a0 09             	  std.w a0 a9;
    da6f:	7e e5 40 00       	  call 0x40e5;
    da73:	a0 2a             	  std.w a2 a10;
    da75:	bf 0f             	  ldd.w a15 a0;
    da77:	bf 19             	  ldd.w a9 a1;
    da79:	b0 a6 00          	  cmp.w a10 0x0;
    da7c:	f0 ac 0b          	  sgetb a10 0xb;
    da7f:	a6 f9             	  cmp.w a15 a9;
    da81:	f4 0b 07          	  breq 0xda88;
    da84:	7e e9 42 00       	  call 0x42e9;
    da88:	fb 25 04          	  popma a2 0x1 0x4;

0000da8b <_fsAllocMem>:
    da8b:	f4 30 fc          	  addsp -0x4;
    da8e:	f9 22             	  pushm a2;
    da90:	d1 2c 06 00 00    	  mvi a1 0x62c;
    da95:	bf 19             	  ldd.w a9 a1;
    da97:	b2 a2             	  mv.w a2 a10;
    da99:	fe 40 01          	  rspr a0 SP;
    da9c:	3d a4             	  clr.b a10;
    da9e:	90 00 0c          	  add.w a0 a0 0xc;
    daa1:	a0 09             	  std.w a0 a9;
    daa3:	7e c3 40 00       	  call 0x40c3;
    daa7:	a0 2a             	  std.w a2 a10;
    daa9:	bf 0f             	  ldd.w a15 a0;
    daab:	bf 19             	  ldd.w a9 a1;
    daad:	b0 a6 00          	  cmp.w a10 0x0;
    dab0:	f0 ac 0b          	  sgetb a10 0xb;
    dab3:	a6 f9             	  cmp.w a15 a9;
    dab5:	f4 0b 07          	  breq 0xdabc;
    dab8:	7e e9 42 00       	  call 0x42e9;
    dabc:	fb 25 04          	  popma a2 0x1 0x4;

0000dabf <_task_ifr>:
    dabf:	f4 30 e4          	  addsp -0x1c;
    dac2:	df 2c 06 00 00    	  mvi a15 0x62c;
    dac7:	f9 82             	  pushm a8;
    dac9:	bf ff             	  ldd.w a15 a15;
    dacb:	fe 49 01          	  rspr a9 SP;
    dace:	fe 45 01          	  rspr a5 SP;
    dad1:	90 99 3c          	  add.w a9 a9 0x3c;
    dad4:	fe 47 01          	  rspr a7 SP;
    dad7:	a0 9f             	  std.w a9 a15;
    dad9:	90 55 24          	  add.w a5 a5 0x24;
    dadc:	90 77 34          	  add.w a7 a7 0x34;
    dadf:	d9 20 14 00 00    	  mvi a9 0x1420;
    dae4:	bf 9a             	  ldd.w a10 a9;
    dae6:	fe 4b 01          	  rspr a11 SP;
    dae9:	0c 08             	  mvi a12 0x8;
    daeb:	90 bb 2c          	  add.w a11 a11 0x2c;
    daee:	0d ff             	  mvi a13 -0x1;
    daf0:	7e c1 00 00       	  call 0xc1;
    daf4:	33 a4 00 eb       	  cmpbrne.b a10 0x0 0xdadf;
    daf8:	b4 30 0c          	  lddsp.w a3 0x30;
    dafb:	3f 39             	  ldd.b a9 a3;
    dafd:	33 94 0c e2       	  cmpbrne.b a9 0xc 0xdadf;
    db01:	18 31 04          	  ldd.b a1 a3 0x4;
    db04:	33 10 00 0f       	  cmpbreq.b a1 0x0 0xdb13;
    db08:	33 19 01 b0 00    	  cmpbreq.b a1 0x1 0xdbb8;
    db0d:	3d 04             	  clr.b a0;
    db0f:	3e 65 dc 00       	  jmp 0xdc65;
    db13:	98 3f 02          	  ldd.w a15 a3 0x8;
    db16:	d9 30 14 00 00    	  mvi a9 0x1430;
    db1b:	98 31 04          	  ldd.w a1 a3 0x10;
    db1e:	58 34 0a          	  ldd.h a4 a3 0x14;
    db21:	a0 5f             	  std.w a5 a15;
    db23:	3f 9f             	  ldd.b a15 a9;
    db25:	98 39 03          	  ldd.w a9 a3 0xc;
    db28:	90 36 18          	  add.w a6 a3 0x18;
    db2b:	b5 59 01          	  std.w a5 0x4 a9;
    db2e:	09 ff             	  mvi a9 -0x1;
    db30:	a0 79             	  std.w a7 a9;
    db32:	33 f4 00 18       	  cmpbrne.b a15 0x0 0xdb4a;
    db36:	7e 71 3b 00       	  call 0x3b71;
    db3a:	32 a0             	  mv.b a0 a10;
    db3c:	33 ad 00 29 01    	  cmpbrne.b a10 0x0 0xdc65;
    db41:	09 01             	  mvi a9 0x1;
    db43:	df 30 14 00 00    	  mvi a15 0x1430;
    db48:	20 f9             	  std.b a15 a9;
    db4a:	72 12             	  mv.h a2 a1;
    db4c:	f0 43 00          	  sethi a4 0x0;
    db4f:	bd 14             	  clr.w a1;
    db51:	3e a5 db 00       	  jmp 0xdba5;
    db55:	bc 41 02          	  sub.w a0 a4 a1;
    db58:	b1 06 00 01       	  cmp.w a0 0x100;
    db5c:	f4 0d 06          	  brlte 0xdb62;
    db5f:	40 00 01          	  mvi a0 0x100;
    db62:	7e 94 0b 00       	  call 0xb94;
    db66:	d9 28 14 00 00    	  mvi a9 0x1428;
    db6b:	bf 9a             	  ldd.w a10 a9;
    db6d:	e4 2c ff ff       	  and a12 a2 0xffff;
    db71:	b2 6b             	  mv.w a11 a6;
    db73:	b2 0d             	  mv.w a13 a0;
    db75:	de 00 13 00 00    	  mvi a14 0x1300;
    db7a:	7e 1e d0 00       	  call 0xd01e;
    db7e:	a0 7a             	  std.w a7 a10;
    db80:	b3 ad 00 d4 00    	  cmpbrne.w a10 0x0 0xdc54;
    db85:	bf 5b             	  ldd.w a11 a5;
    db87:	98 5c 01          	  ldd.w a12 a5 0x4;
    db8a:	90 1d 04          	  add.w a13 a1 0x4;
    db8d:	b2 0e             	  mv.w a14 a0;
    db8f:	7c 20 20          	  add.h a2 a2 a0;
    db92:	bc 10 10          	  add.w a1 a1 a0;
    db95:	da 00 13 00 00    	  mvi a10 0x1300;
    db9a:	7e d8 26 00       	  call 0x26d8;
    db9e:	32 a0             	  mv.b a0 a10;
    dba0:	33 ad 00 c5 00    	  cmpbrne.b a10 0x0 0xdc65;
    dba5:	bd b4             	  clr.w a11;
    dba7:	4c 00 01          	  mvi a12 0x100;
    dbaa:	da 00 13 00 00    	  mvi a10 0x1300;
    dbaf:	a6 14             	  cmp.w a1 a4;
    dbb1:	f4 08 a4          	  brc 0xdb55;
    dbb4:	3e 54 dc 00       	  jmp 0xdc54;
    dbb8:	98 3f 02          	  ldd.w a15 a3 0x8;
    dbbb:	d9 30 14 00 00    	  mvi a9 0x1430;
    dbc0:	98 34 04          	  ldd.w a4 a3 0x10;
    dbc3:	58 32 0a          	  ldd.h a2 a3 0x14;
    dbc6:	a0 5f             	  std.w a5 a15;
    dbc8:	3f 9f             	  ldd.b a15 a9;
    dbca:	98 39 03          	  ldd.w a9 a3 0xc;
    dbcd:	90 38 18          	  add.w a8 a3 0x18;
    dbd0:	b5 59 01          	  std.w a5 0x4 a9;
    dbd3:	09 ff             	  mvi a9 -0x1;
    dbd5:	a0 79             	  std.w a7 a9;
    dbd7:	33 f4 00 16       	  cmpbrne.b a15 0x0 0xdbed;
    dbdb:	7e 71 3b 00       	  call 0x3b71;
    dbdf:	32 a0             	  mv.b a0 a10;
    dbe1:	33 ad 00 84 00    	  cmpbrne.b a10 0x0 0xdc65;
    dbe6:	df 30 14 00 00    	  mvi a15 0x1430;
    dbeb:	20 f1             	  std.b a15 a1;
    dbed:	e4 26 ff ff       	  and a6 a2 0xffff;
    dbf1:	bd 24             	  clr.w a2;
    dbf3:	3e 45 dc 00       	  jmp 0xdc45;
    dbf7:	bc 62 12          	  sub.w a1 a6 a2;
    dbfa:	b1 16 00 01       	  cmp.w a1 0x100;
    dbfe:	f4 0d 06          	  brlte 0xdc04;
    dc01:	41 00 01          	  mvi a1 0x100;
    dc04:	7e 94 0b 00       	  call 0xb94;
    dc08:	bf 5b             	  ldd.w a11 a5;
    dc0a:	98 5c 01          	  ldd.w a12 a5 0x4;
    dc0d:	90 2d 04          	  add.w a13 a2 0x4;
    dc10:	b2 1e             	  mv.w a14 a1;
    dc12:	da 00 13 00 00    	  mvi a10 0x1300;
    dc17:	7e 72 26 00       	  call 0x2672;
    dc1b:	e4 4c ff ff       	  and a12 a4 0xffff;
    dc1f:	bc 21 20          	  add.w a2 a2 a1;
    dc22:	32 a0             	  mv.b a0 a10;
    dc24:	b2 8b             	  mv.w a11 a8;
    dc26:	b2 1d             	  mv.w a13 a1;
    dc28:	de 00 13 00 00    	  mvi a14 0x1300;
    dc2d:	7c 41 40          	  add.h a4 a4 a1;
    dc30:	33 a4 00 35       	  cmpbrne.b a10 0x0 0xdc65;
    dc34:	d9 28 14 00 00    	  mvi a9 0x1428;
    dc39:	bf 9a             	  ldd.w a10 a9;
    dc3b:	7e 48 cd 00       	  call 0xcd48;
    dc3f:	a0 7a             	  std.w a7 a10;
    dc41:	b3 a4 00 13       	  cmpbrne.w a10 0x0 0xdc54;
    dc45:	bd b4             	  clr.w a11;
    dc47:	4c 00 01          	  mvi a12 0x100;
    dc4a:	da 00 13 00 00    	  mvi a10 0x1300;
    dc4f:	a6 26             	  cmp.w a2 a6;
    dc51:	f4 08 a6          	  brc 0xdbf7;
    dc54:	bf 5b             	  ldd.w a11 a5;
    dc56:	98 5c 01          	  ldd.w a12 a5 0x4;
    dc59:	b2 7a             	  mv.w a10 a7;
    dc5b:	bd d4             	  clr.w a13;
    dc5d:	0e 04             	  mvi a14 0x4;
    dc5f:	7e d8 26 00       	  call 0x26d8;
    dc63:	32 a0             	  mv.b a0 a10;
    dc65:	34 b0 2d          	  lddsp.b a11 0x2d;
    dc68:	b2 3a             	  mv.w a10 a3;
    dc6a:	7e 81 0f 00       	  call 0xf81;
    dc6e:	33 0d 00 71 fe    	  cmpbrne.b a0 0x0 0xdadf;
    dc73:	30 01 3a          	  stdsp.b a0 0x3a;
    dc76:	0f 02             	  mvi a15 0x2;
    dc78:	30 f1 38          	  stdsp.b a15 0x38;
    dc7b:	18 33 03          	  ldd.b a3 a3 0x3;
    dc7e:	09 04             	  mvi a9 0x4;
    dc80:	fe 4a 01          	  rspr a10 SP;
    dc83:	30 91 39          	  stdsp.b a9 0x39;
    dc86:	30 31 3b          	  stdsp.b a3 0x3b;
    dc89:	bd b4             	  clr.w a11;
    dc8b:	90 aa 38          	  add.w a10 a10 0x38;
    dc8e:	7e 71 0f 00       	  call 0xf71;
    dc92:	3e df da 00       	  jmp 0xdadf;

Disassembly of section .imem_rttimer:

0000dc96 <_rttimerSetup_LR10>:
    dc96:	d9 54 2a 00 00    	  mvi a9 0x2a54;
    dc9b:	f4 30 fc          	  addsp -0x4;
    dc9e:	df 2c 06 00 00    	  mvi a15 0x62c;
    dca3:	f9 02             	  pushm a0;
    dca5:	b2 a0             	  mv.w a0 a10;
    dca7:	bf ff             	  ldd.w a15 a15;
    dca9:	bf 9a             	  ldd.w a10 a9;
    dcab:	fe 49 01          	  rspr a9 SP;
    dcae:	90 99 04          	  add.w a9 a9 0x4;
    dcb1:	0b 64             	  mvi a11 0x64;
    dcb3:	a0 9f             	  std.w a9 a15;
    dcb5:	7e de 00 00       	  call 0xde;
    dcb9:	0e 10             	  mvi a14 0x10;
    dcbb:	33 a4 00 61       	  cmpbrne.b a10 0x0 0xdd1c;
    dcbf:	89 00 a6 02       	  mvi a9 0x2a600;
    dcc3:	cf 9f 00          	  ldx a15 a9 0x0;
    dcc6:	f1 f5 00 10       	  or a15 0x1000;
    dcca:	f6 9f 00          	  stx a9 0x0 a15;
    dccd:	8a 00 a6 02       	  mvi a10 0x2a600;
    dcd1:	4b 00 10          	  mvi a11 0x1000;
    dcd4:	bd c4             	  clr.w a12;
    dcd6:	4d 10 27          	  mvi a13 0x2710;
    dcd9:	bd e4             	  clr.w a14;
    dcdb:	7e 0f 1b 00       	  call 0x1b0f;
    dcdf:	33 a4 00 15       	  cmpbrne.b a10 0x0 0xdcf4;
    dce3:	d9 54 2a 00 00    	  mvi a9 0x2a54;
    dce8:	bf 9a             	  ldd.w a10 a9;
    dcea:	7e 9b 00 00       	  call 0x9b;
    dcee:	0e 04             	  mvi a14 0x4;
    dcf0:	3e 1c dd 00       	  jmp 0xdd1c;
    dcf4:	b2 0a             	  mv.w a10 a0;
    dcf6:	4b e8 03          	  mvi a11 0x3e8;
    dcf9:	7e fc 16 00       	  call 0x16fc;
    dcfd:	89 00 a4 02       	  mvi a9 0x2a400;
    dd01:	b8 aa 00 02 00    	  add.w a10 a10 0x200;
    dd06:	b6 a5 0a          	  lsr.w a10 0xa;
    dd09:	92 aa 01          	  sub.w a10 a10 0x1;
    dd0c:	f6 9a 00          	  stx a9 0x0 a10;
    dd0f:	4f 11 01          	  mvi a15 0x111;
    dd12:	b8 99 00 02 00    	  add.w a9 a9 0x200;
    dd17:	f6 9f 00          	  stx a9 0x0 a15;
    dd1a:	3d e4             	  clr.b a14;
    dd1c:	fe 49 01          	  rspr a9 SP;
    dd1f:	90 99 04          	  add.w a9 a9 0x4;
    dd22:	bf 9f             	  ldd.w a15 a9;
    dd24:	d9 2c 06 00 00    	  mvi a9 0x62c;
    dd29:	bf 99             	  ldd.w a9 a9;
    dd2b:	32 ea             	  mv.b a10 a14;
    dd2d:	a6 f9             	  cmp.w a15 a9;
    dd2f:	f4 0b 07          	  breq 0xdd36;
    dd32:	7e e9 42 00       	  call 0x42e9;
    dd36:	fb 05 04          	  popma a0 0x1 0x4;
